ARM GAS  C:\Users\rdn\AppData\Local\Temp\cc92LAgm.s 			page 1


   1              		.syntax unified
   2              		.cpu cortex-m4
   3              		.eabi_attribute 27, 1
   4              		.fpu fpv4-sp-d16
   5              		.eabi_attribute 20, 1
   6              		.eabi_attribute 21, 1
   7              		.eabi_attribute 23, 3
   8              		.eabi_attribute 24, 1
   9              		.eabi_attribute 25, 1
  10              		.eabi_attribute 26, 1
  11              		.eabi_attribute 30, 4
  12              		.eabi_attribute 34, 1
  13              		.eabi_attribute 18, 4
  14              		.thumb
  15              		.syntax unified
  16              		.file	"sns.c"
  17              		.text
  18              	.Ltext0:
  19              		.cfi_sections	.debug_frame
  20              		.section	.text.add_pulse,"ax",%progbits
  21              		.align	1
  22              		.thumb
  23              		.thumb_func
  24              		.type	add_pulse, %function
  25              	add_pulse:
  26              	.LFB25:
  27              		.file 1 "..\\..\\..\\liblc3\\src\\sns.c"
   1:..\..\..\liblc3\src/sns.c **** /******************************************************************************
   2:..\..\..\liblc3\src/sns.c ****  *
   3:..\..\..\liblc3\src/sns.c ****  *  Copyright 2022 Google LLC
   4:..\..\..\liblc3\src/sns.c ****  *
   5:..\..\..\liblc3\src/sns.c ****  *  Licensed under the Apache License, Version 2.0 (the "License");
   6:..\..\..\liblc3\src/sns.c ****  *  you may not use this file except in compliance with the License.
   7:..\..\..\liblc3\src/sns.c ****  *  You may obtain a copy of the License at:
   8:..\..\..\liblc3\src/sns.c ****  *
   9:..\..\..\liblc3\src/sns.c ****  *  http://www.apache.org/licenses/LICENSE-2.0
  10:..\..\..\liblc3\src/sns.c ****  *
  11:..\..\..\liblc3\src/sns.c ****  *  Unless required by applicable law or agreed to in writing, software
  12:..\..\..\liblc3\src/sns.c ****  *  distributed under the License is distributed on an "AS IS" BASIS,
  13:..\..\..\liblc3\src/sns.c ****  *  WITHOUT WARRANTIES OR CONDITIONS OF ANY KIND, either express or implied.
  14:..\..\..\liblc3\src/sns.c ****  *  See the License for the specific language governing permissions and
  15:..\..\..\liblc3\src/sns.c ****  *  limitations under the License.
  16:..\..\..\liblc3\src/sns.c ****  *
  17:..\..\..\liblc3\src/sns.c ****  ******************************************************************************/
  18:..\..\..\liblc3\src/sns.c **** 
  19:..\..\..\liblc3\src/sns.c **** #include "sns.h"
  20:..\..\..\liblc3\src/sns.c **** #include "tables.h"
  21:..\..\..\liblc3\src/sns.c **** 
  22:..\..\..\liblc3\src/sns.c **** 
  23:..\..\..\liblc3\src/sns.c **** /* ----------------------------------------------------------------------------
  24:..\..\..\liblc3\src/sns.c ****  *  DCT-16
  25:..\..\..\liblc3\src/sns.c ****  * -------------------------------------------------------------------------- */
  26:..\..\..\liblc3\src/sns.c **** 
  27:..\..\..\liblc3\src/sns.c **** /**
  28:..\..\..\liblc3\src/sns.c ****  * Matrix of DCT-16 coefficients
  29:..\..\..\liblc3\src/sns.c ****  *
  30:..\..\..\liblc3\src/sns.c ****  * M[n][k] = 2f cos( Pi k (2n + 1) / 2N )
ARM GAS  C:\Users\rdn\AppData\Local\Temp\cc92LAgm.s 			page 2


  31:..\..\..\liblc3\src/sns.c ****  *
  32:..\..\..\liblc3\src/sns.c ****  *   k = [0..N-1], n = [0..N-1], N = 16
  33:..\..\..\liblc3\src/sns.c ****  *   f = sqrt(1/4N) for k=0, sqrt(1/2N) otherwise
  34:..\..\..\liblc3\src/sns.c ****  */
  35:..\..\..\liblc3\src/sns.c **** static const float dct16_m[16][16] = {
  36:..\..\..\liblc3\src/sns.c **** 
  37:..\..\..\liblc3\src/sns.c ****     {  2.50000000e-01,  3.51850934e-01,  3.46759961e-01,  3.38329500e-01,
  38:..\..\..\liblc3\src/sns.c ****        3.26640741e-01,  3.11806253e-01,  2.93968901e-01,  2.73300467e-01,
  39:..\..\..\liblc3\src/sns.c ****        2.50000000e-01,  2.24291897e-01,  1.96423740e-01,  1.66663915e-01,
  40:..\..\..\liblc3\src/sns.c ****        1.35299025e-01,  1.02631132e-01,  6.89748448e-02,  3.46542923e-02 },
  41:..\..\..\liblc3\src/sns.c **** 
  42:..\..\..\liblc3\src/sns.c ****     {  2.50000000e-01,  3.38329500e-01,  2.93968901e-01,  2.24291897e-01,
  43:..\..\..\liblc3\src/sns.c ****        1.35299025e-01,  3.46542923e-02, -6.89748448e-02, -1.66663915e-01,
  44:..\..\..\liblc3\src/sns.c ****       -2.50000000e-01, -3.11806253e-01, -3.46759961e-01, -3.51850934e-01,
  45:..\..\..\liblc3\src/sns.c ****       -3.26640741e-01, -2.73300467e-01, -1.96423740e-01, -1.02631132e-01 },
  46:..\..\..\liblc3\src/sns.c **** 
  47:..\..\..\liblc3\src/sns.c ****      { 2.50000000e-01,  3.11806253e-01,  1.96423740e-01,  3.46542923e-02,
  48:..\..\..\liblc3\src/sns.c ****       -1.35299025e-01, -2.73300467e-01, -3.46759961e-01, -3.38329500e-01,
  49:..\..\..\liblc3\src/sns.c ****       -2.50000000e-01, -1.02631132e-01,  6.89748448e-02,  2.24291897e-01,
  50:..\..\..\liblc3\src/sns.c ****        3.26640741e-01,  3.51850934e-01,  2.93968901e-01,  1.66663915e-01 },
  51:..\..\..\liblc3\src/sns.c **** 
  52:..\..\..\liblc3\src/sns.c ****      { 2.50000000e-01,  2.73300467e-01,  6.89748448e-02, -1.66663915e-01,
  53:..\..\..\liblc3\src/sns.c ****       -3.26640741e-01, -3.38329500e-01, -1.96423740e-01,  3.46542923e-02,
  54:..\..\..\liblc3\src/sns.c ****        2.50000000e-01,  3.51850934e-01,  2.93968901e-01,  1.02631132e-01,
  55:..\..\..\liblc3\src/sns.c ****       -1.35299025e-01, -3.11806253e-01, -3.46759961e-01, -2.24291897e-01 },
  56:..\..\..\liblc3\src/sns.c **** 
  57:..\..\..\liblc3\src/sns.c ****     {  2.50000000e-01,  2.24291897e-01, -6.89748448e-02, -3.11806253e-01,
  58:..\..\..\liblc3\src/sns.c ****       -3.26640741e-01, -1.02631132e-01,  1.96423740e-01,  3.51850934e-01,
  59:..\..\..\liblc3\src/sns.c ****        2.50000000e-01, -3.46542923e-02, -2.93968901e-01, -3.38329500e-01,
  60:..\..\..\liblc3\src/sns.c ****       -1.35299025e-01,  1.66663915e-01,  3.46759961e-01,  2.73300467e-01 },
  61:..\..\..\liblc3\src/sns.c **** 
  62:..\..\..\liblc3\src/sns.c ****     {  2.50000000e-01,  1.66663915e-01, -1.96423740e-01, -3.51850934e-01,
  63:..\..\..\liblc3\src/sns.c ****       -1.35299025e-01,  2.24291897e-01,  3.46759961e-01,  1.02631132e-01,
  64:..\..\..\liblc3\src/sns.c ****       -2.50000000e-01, -3.38329500e-01, -6.89748448e-02,  2.73300467e-01,
  65:..\..\..\liblc3\src/sns.c ****        3.26640741e-01,  3.46542923e-02, -2.93968901e-01, -3.11806253e-01 },
  66:..\..\..\liblc3\src/sns.c **** 
  67:..\..\..\liblc3\src/sns.c ****     {  2.50000000e-01,  1.02631132e-01, -2.93968901e-01, -2.73300467e-01,
  68:..\..\..\liblc3\src/sns.c ****        1.35299025e-01,  3.51850934e-01,  6.89748448e-02, -3.11806253e-01,
  69:..\..\..\liblc3\src/sns.c ****       -2.50000000e-01,  1.66663915e-01,  3.46759961e-01,  3.46542923e-02,
  70:..\..\..\liblc3\src/sns.c ****       -3.26640741e-01, -2.24291897e-01,  1.96423740e-01,  3.38329500e-01 },
  71:..\..\..\liblc3\src/sns.c **** 
  72:..\..\..\liblc3\src/sns.c ****     {  2.50000000e-01,  3.46542923e-02, -3.46759961e-01, -1.02631132e-01,
  73:..\..\..\liblc3\src/sns.c ****        3.26640741e-01,  1.66663915e-01, -2.93968901e-01, -2.24291897e-01,
  74:..\..\..\liblc3\src/sns.c ****        2.50000000e-01,  2.73300467e-01, -1.96423740e-01, -3.11806253e-01,
  75:..\..\..\liblc3\src/sns.c ****        1.35299025e-01,  3.38329500e-01, -6.89748448e-02, -3.51850934e-01 },
  76:..\..\..\liblc3\src/sns.c **** 
  77:..\..\..\liblc3\src/sns.c ****     {  2.50000000e-01, -3.46542923e-02, -3.46759961e-01,  1.02631132e-01,
  78:..\..\..\liblc3\src/sns.c ****        3.26640741e-01, -1.66663915e-01, -2.93968901e-01,  2.24291897e-01,
  79:..\..\..\liblc3\src/sns.c ****        2.50000000e-01, -2.73300467e-01, -1.96423740e-01,  3.11806253e-01,
  80:..\..\..\liblc3\src/sns.c ****        1.35299025e-01, -3.38329500e-01, -6.89748448e-02,  3.51850934e-01 },
  81:..\..\..\liblc3\src/sns.c **** 
  82:..\..\..\liblc3\src/sns.c ****     {  2.50000000e-01, -1.02631132e-01, -2.93968901e-01,  2.73300467e-01,
  83:..\..\..\liblc3\src/sns.c ****        1.35299025e-01, -3.51850934e-01,  6.89748448e-02,  3.11806253e-01,
  84:..\..\..\liblc3\src/sns.c ****       -2.50000000e-01, -1.66663915e-01,  3.46759961e-01, -3.46542923e-02,
  85:..\..\..\liblc3\src/sns.c ****       -3.26640741e-01,  2.24291897e-01,  1.96423740e-01, -3.38329500e-01 },
  86:..\..\..\liblc3\src/sns.c **** 
  87:..\..\..\liblc3\src/sns.c ****     {  2.50000000e-01, -1.66663915e-01, -1.96423740e-01,  3.51850934e-01,
ARM GAS  C:\Users\rdn\AppData\Local\Temp\cc92LAgm.s 			page 3


  88:..\..\..\liblc3\src/sns.c ****       -1.35299025e-01, -2.24291897e-01,  3.46759961e-01, -1.02631132e-01,
  89:..\..\..\liblc3\src/sns.c ****       -2.50000000e-01,  3.38329500e-01, -6.89748448e-02, -2.73300467e-01,
  90:..\..\..\liblc3\src/sns.c ****        3.26640741e-01, -3.46542923e-02, -2.93968901e-01,  3.11806253e-01 },
  91:..\..\..\liblc3\src/sns.c **** 
  92:..\..\..\liblc3\src/sns.c ****     {  2.50000000e-01, -2.24291897e-01, -6.89748448e-02,  3.11806253e-01,
  93:..\..\..\liblc3\src/sns.c ****       -3.26640741e-01,  1.02631132e-01,  1.96423740e-01, -3.51850934e-01,
  94:..\..\..\liblc3\src/sns.c ****        2.50000000e-01,  3.46542923e-02, -2.93968901e-01,  3.38329500e-01,
  95:..\..\..\liblc3\src/sns.c ****       -1.35299025e-01, -1.66663915e-01,  3.46759961e-01, -2.73300467e-01 },
  96:..\..\..\liblc3\src/sns.c **** 
  97:..\..\..\liblc3\src/sns.c ****     {  2.50000000e-01, -2.73300467e-01,  6.89748448e-02,  1.66663915e-01,
  98:..\..\..\liblc3\src/sns.c ****       -3.26640741e-01,  3.38329500e-01, -1.96423740e-01, -3.46542923e-02,
  99:..\..\..\liblc3\src/sns.c ****        2.50000000e-01, -3.51850934e-01,  2.93968901e-01, -1.02631132e-01,
 100:..\..\..\liblc3\src/sns.c ****       -1.35299025e-01,  3.11806253e-01, -3.46759961e-01,  2.24291897e-01 },
 101:..\..\..\liblc3\src/sns.c **** 
 102:..\..\..\liblc3\src/sns.c ****     {  2.50000000e-01, -3.11806253e-01,  1.96423740e-01, -3.46542923e-02,
 103:..\..\..\liblc3\src/sns.c ****       -1.35299025e-01,  2.73300467e-01, -3.46759961e-01,  3.38329500e-01,
 104:..\..\..\liblc3\src/sns.c ****       -2.50000000e-01,  1.02631132e-01,  6.89748448e-02, -2.24291897e-01,
 105:..\..\..\liblc3\src/sns.c ****        3.26640741e-01, -3.51850934e-01,  2.93968901e-01, -1.66663915e-01 },
 106:..\..\..\liblc3\src/sns.c **** 
 107:..\..\..\liblc3\src/sns.c ****     {  2.50000000e-01, -3.38329500e-01,  2.93968901e-01, -2.24291897e-01,
 108:..\..\..\liblc3\src/sns.c ****        1.35299025e-01, -3.46542923e-02, -6.89748448e-02,  1.66663915e-01,
 109:..\..\..\liblc3\src/sns.c ****       -2.50000000e-01,  3.11806253e-01, -3.46759961e-01,  3.51850934e-01,
 110:..\..\..\liblc3\src/sns.c ****       -3.26640741e-01,  2.73300467e-01, -1.96423740e-01,  1.02631132e-01 },
 111:..\..\..\liblc3\src/sns.c **** 
 112:..\..\..\liblc3\src/sns.c ****     {  2.50000000e-01, -3.51850934e-01,  3.46759961e-01, -3.38329500e-01,
 113:..\..\..\liblc3\src/sns.c ****        3.26640741e-01, -3.11806253e-01,  2.93968901e-01, -2.73300467e-01,
 114:..\..\..\liblc3\src/sns.c ****        2.50000000e-01, -2.24291897e-01,  1.96423740e-01, -1.66663915e-01,
 115:..\..\..\liblc3\src/sns.c ****        1.35299025e-01, -1.02631132e-01,  6.89748448e-02, -3.46542923e-02 },
 116:..\..\..\liblc3\src/sns.c **** 
 117:..\..\..\liblc3\src/sns.c **** };
 118:..\..\..\liblc3\src/sns.c **** 
 119:..\..\..\liblc3\src/sns.c **** /**
 120:..\..\..\liblc3\src/sns.c ****  * Forward DCT-16 transformation
 121:..\..\..\liblc3\src/sns.c ****  * x, y            Input and output 16 values
 122:..\..\..\liblc3\src/sns.c ****  */
 123:..\..\..\liblc3\src/sns.c **** LC3_HOT static void dct16_forward(const float *x, float *y)
 124:..\..\..\liblc3\src/sns.c **** {
 125:..\..\..\liblc3\src/sns.c ****     for (int i = 0, j; i < 16; i++)
 126:..\..\..\liblc3\src/sns.c ****         for (y[i] = 0, j = 0; j < 16; j++)
 127:..\..\..\liblc3\src/sns.c ****             y[i] += x[j] * dct16_m[j][i];
 128:..\..\..\liblc3\src/sns.c **** }
 129:..\..\..\liblc3\src/sns.c **** 
 130:..\..\..\liblc3\src/sns.c **** /**
 131:..\..\..\liblc3\src/sns.c ****  * Inverse DCT-16 transformation
 132:..\..\..\liblc3\src/sns.c ****  * x, y            Input and output 16 values
 133:..\..\..\liblc3\src/sns.c ****  */
 134:..\..\..\liblc3\src/sns.c **** LC3_HOT static void dct16_inverse(const float *x, float *y)
 135:..\..\..\liblc3\src/sns.c **** {
 136:..\..\..\liblc3\src/sns.c ****     for (int i = 0, j; i < 16; i++)
 137:..\..\..\liblc3\src/sns.c ****         for (y[i] = 0, j = 0; j < 16; j++)
 138:..\..\..\liblc3\src/sns.c ****             y[i] += x[j] * dct16_m[i][j];
 139:..\..\..\liblc3\src/sns.c **** }
 140:..\..\..\liblc3\src/sns.c **** 
 141:..\..\..\liblc3\src/sns.c **** 
 142:..\..\..\liblc3\src/sns.c **** /* ----------------------------------------------------------------------------
 143:..\..\..\liblc3\src/sns.c ****  *  Scale factors
 144:..\..\..\liblc3\src/sns.c ****  * -------------------------------------------------------------------------- */
ARM GAS  C:\Users\rdn\AppData\Local\Temp\cc92LAgm.s 			page 4


 145:..\..\..\liblc3\src/sns.c **** 
 146:..\..\..\liblc3\src/sns.c **** /**
 147:..\..\..\liblc3\src/sns.c ****  * Scale factors
 148:..\..\..\liblc3\src/sns.c ****  * dt, sr          Duration and samplerate of the frame
 149:..\..\..\liblc3\src/sns.c ****  * nbytes          Size in bytes of the frame
 150:..\..\..\liblc3\src/sns.c ****  * eb              Energy estimation per bands
 151:..\..\..\liblc3\src/sns.c ****  * att             1: Attack detected  0: Otherwise
 152:..\..\..\liblc3\src/sns.c ****  * scf             Output 16 scale factors
 153:..\..\..\liblc3\src/sns.c ****  */
 154:..\..\..\liblc3\src/sns.c **** LC3_HOT static void compute_scale_factors(
 155:..\..\..\liblc3\src/sns.c ****     enum lc3_dt dt, enum lc3_srate sr, int nbytes,
 156:..\..\..\liblc3\src/sns.c ****     const float *eb, bool att, float *scf)
 157:..\..\..\liblc3\src/sns.c **** {
 158:..\..\..\liblc3\src/sns.c ****     /* Pre-emphasis gain table :
 159:..\..\..\liblc3\src/sns.c ****      * Ge[b] = 10 ^ (b * g_tilt) / 630 , b = [0..63] */
 160:..\..\..\liblc3\src/sns.c **** 
 161:..\..\..\liblc3\src/sns.c ****     static const float ge_14[LC3_MAX_BANDS] = { /* g_tilt = 14 */
 162:..\..\..\liblc3\src/sns.c ****         1.00000000e+00, 1.05250029e+00, 1.10775685e+00, 1.16591440e+00,
 163:..\..\..\liblc3\src/sns.c ****         1.22712524e+00, 1.29154967e+00, 1.35935639e+00, 1.43072299e+00,
 164:..\..\..\liblc3\src/sns.c ****         1.50583635e+00, 1.58489319e+00, 1.66810054e+00, 1.75567629e+00,
 165:..\..\..\liblc3\src/sns.c ****         1.84784980e+00, 1.94486244e+00, 2.04696827e+00, 2.15443469e+00,
 166:..\..\..\liblc3\src/sns.c ****         2.26754313e+00, 2.38658979e+00, 2.51188643e+00, 2.64376119e+00,
 167:..\..\..\liblc3\src/sns.c ****         2.78255940e+00, 2.92864456e+00, 3.08239924e+00, 3.24422608e+00,
 168:..\..\..\liblc3\src/sns.c ****         3.41454887e+00, 3.59381366e+00, 3.78248991e+00, 3.98107171e+00,
 169:..\..\..\liblc3\src/sns.c ****         4.19007911e+00, 4.41005945e+00, 4.64158883e+00, 4.88527357e+00,
 170:..\..\..\liblc3\src/sns.c ****         5.14175183e+00, 5.41169527e+00, 5.69581081e+00, 5.99484250e+00,
 171:..\..\..\liblc3\src/sns.c ****         6.30957344e+00, 6.64082785e+00, 6.98947321e+00, 7.35642254e+00,
 172:..\..\..\liblc3\src/sns.c ****         7.74263683e+00, 8.14912747e+00, 8.57695899e+00, 9.02725178e+00,
 173:..\..\..\liblc3\src/sns.c ****         9.50118507e+00, 1.00000000e+01, 1.05250029e+01, 1.10775685e+01,
 174:..\..\..\liblc3\src/sns.c ****         1.16591440e+01, 1.22712524e+01, 1.29154967e+01, 1.35935639e+01,
 175:..\..\..\liblc3\src/sns.c ****         1.43072299e+01, 1.50583635e+01, 1.58489319e+01, 1.66810054e+01,
 176:..\..\..\liblc3\src/sns.c ****         1.75567629e+01, 1.84784980e+01, 1.94486244e+01, 2.04696827e+01,
 177:..\..\..\liblc3\src/sns.c ****         2.15443469e+01, 2.26754313e+01, 2.38658979e+01, 2.51188643e+01 };
 178:..\..\..\liblc3\src/sns.c **** 
 179:..\..\..\liblc3\src/sns.c ****     static const float ge_18[LC3_MAX_BANDS] = { /* g_tilt = 18 */
 180:..\..\..\liblc3\src/sns.c ****         1.00000000e+00, 1.06800043e+00, 1.14062492e+00, 1.21818791e+00,
 181:..\..\..\liblc3\src/sns.c ****         1.30102522e+00, 1.38949549e+00, 1.48398179e+00, 1.58489319e+00,
 182:..\..\..\liblc3\src/sns.c ****         1.69266662e+00, 1.80776868e+00, 1.93069773e+00, 2.06198601e+00,
 183:..\..\..\liblc3\src/sns.c ****         2.20220195e+00, 2.35195264e+00, 2.51188643e+00, 2.68269580e+00,
 184:..\..\..\liblc3\src/sns.c ****         2.86512027e+00, 3.05994969e+00, 3.26802759e+00, 3.49025488e+00,
 185:..\..\..\liblc3\src/sns.c ****         3.72759372e+00, 3.98107171e+00, 4.25178630e+00, 4.54090961e+00,
 186:..\..\..\liblc3\src/sns.c ****         4.84969343e+00, 5.17947468e+00, 5.53168120e+00, 5.90783791e+00,
 187:..\..\..\liblc3\src/sns.c ****         6.30957344e+00, 6.73862717e+00, 7.19685673e+00, 7.68624610e+00,
 188:..\..\..\liblc3\src/sns.c ****         8.20891416e+00, 8.76712387e+00, 9.36329209e+00, 1.00000000e+01,
 189:..\..\..\liblc3\src/sns.c ****         1.06800043e+01, 1.14062492e+01, 1.21818791e+01, 1.30102522e+01,
 190:..\..\..\liblc3\src/sns.c ****         1.38949549e+01, 1.48398179e+01, 1.58489319e+01, 1.69266662e+01,
 191:..\..\..\liblc3\src/sns.c ****         1.80776868e+01, 1.93069773e+01, 2.06198601e+01, 2.20220195e+01,
 192:..\..\..\liblc3\src/sns.c ****         2.35195264e+01, 2.51188643e+01, 2.68269580e+01, 2.86512027e+01,
 193:..\..\..\liblc3\src/sns.c ****         3.05994969e+01, 3.26802759e+01, 3.49025488e+01, 3.72759372e+01,
 194:..\..\..\liblc3\src/sns.c ****         3.98107171e+01, 4.25178630e+01, 4.54090961e+01, 4.84969343e+01,
 195:..\..\..\liblc3\src/sns.c ****         5.17947468e+01, 5.53168120e+01, 5.90783791e+01, 6.30957344e+01 };
 196:..\..\..\liblc3\src/sns.c **** 
 197:..\..\..\liblc3\src/sns.c ****     static const float ge_22[LC3_MAX_BANDS] = { /* g_tilt = 22 */
 198:..\..\..\liblc3\src/sns.c ****         1.00000000e+00, 1.08372885e+00, 1.17446822e+00, 1.27280509e+00,
 199:..\..\..\liblc3\src/sns.c ****         1.37937560e+00, 1.49486913e+00, 1.62003281e+00, 1.75567629e+00,
 200:..\..\..\liblc3\src/sns.c ****         1.90267705e+00, 2.06198601e+00, 2.23463373e+00, 2.42173704e+00,
 201:..\..\..\liblc3\src/sns.c ****         2.62450630e+00, 2.84425319e+00, 3.08239924e+00, 3.34048498e+00,
ARM GAS  C:\Users\rdn\AppData\Local\Temp\cc92LAgm.s 			page 5


 202:..\..\..\liblc3\src/sns.c ****         3.62017995e+00, 3.92329345e+00, 4.25178630e+00, 4.60778348e+00,
 203:..\..\..\liblc3\src/sns.c ****         4.99358789e+00, 5.41169527e+00, 5.86481029e+00, 6.35586411e+00,
 204:..\..\..\liblc3\src/sns.c ****         6.88803330e+00, 7.46476041e+00, 8.08977621e+00, 8.76712387e+00,
 205:..\..\..\liblc3\src/sns.c ****         9.50118507e+00, 1.02967084e+01, 1.11588399e+01, 1.20931568e+01,
 206:..\..\..\liblc3\src/sns.c ****         1.31057029e+01, 1.42030283e+01, 1.53922315e+01, 1.66810054e+01,
 207:..\..\..\liblc3\src/sns.c ****         1.80776868e+01, 1.95913107e+01, 2.12316686e+01, 2.30093718e+01,
 208:..\..\..\liblc3\src/sns.c ****         2.49359200e+01, 2.70237760e+01, 2.92864456e+01, 3.17385661e+01,
 209:..\..\..\liblc3\src/sns.c ****         3.43959997e+01, 3.72759372e+01, 4.03970086e+01, 4.37794036e+01,
 210:..\..\..\liblc3\src/sns.c ****         4.74450028e+01, 5.14175183e+01, 5.57226480e+01, 6.03882412e+01,
 211:..\..\..\liblc3\src/sns.c ****         6.54444792e+01, 7.09240702e+01, 7.68624610e+01, 8.32980665e+01,
 212:..\..\..\liblc3\src/sns.c ****         9.02725178e+01, 9.78309319e+01, 1.06022203e+02, 1.14899320e+02,
 213:..\..\..\liblc3\src/sns.c ****         1.24519708e+02, 1.34945600e+02, 1.46244440e+02, 1.58489319e+02 };
 214:..\..\..\liblc3\src/sns.c **** 
 215:..\..\..\liblc3\src/sns.c ****     static const float ge_26[LC3_MAX_BANDS] = { /* g_tilt = 26 */
 216:..\..\..\liblc3\src/sns.c ****         1.00000000e+00, 1.09968890e+00, 1.20931568e+00, 1.32987103e+00,
 217:..\..\..\liblc3\src/sns.c ****         1.46244440e+00, 1.60823388e+00, 1.76855694e+00, 1.94486244e+00,
 218:..\..\..\liblc3\src/sns.c ****         2.13874364e+00, 2.35195264e+00, 2.58641621e+00, 2.84425319e+00,
 219:..\..\..\liblc3\src/sns.c ****         3.12779366e+00, 3.43959997e+00, 3.78248991e+00, 4.15956216e+00,
 220:..\..\..\liblc3\src/sns.c ****         4.57422434e+00, 5.03022373e+00, 5.53168120e+00, 6.08312841e+00,
 221:..\..\..\liblc3\src/sns.c ****         6.68954879e+00, 7.35642254e+00, 8.08977621e+00, 8.89623710e+00,
 222:..\..\..\liblc3\src/sns.c ****         9.78309319e+00, 1.07583590e+01, 1.18308480e+01, 1.30102522e+01,
 223:..\..\..\liblc3\src/sns.c ****         1.43072299e+01, 1.57335019e+01, 1.73019574e+01, 1.90267705e+01,
 224:..\..\..\liblc3\src/sns.c ****         2.09235283e+01, 2.30093718e+01, 2.53031508e+01, 2.78255940e+01,
 225:..\..\..\liblc3\src/sns.c ****         3.05994969e+01, 3.36499270e+01, 3.70044512e+01, 4.06933843e+01,
 226:..\..\..\liblc3\src/sns.c ****         4.47500630e+01, 4.92111475e+01, 5.41169527e+01, 5.95118121e+01,
 227:..\..\..\liblc3\src/sns.c ****         6.54444792e+01, 7.19685673e+01, 7.91430346e+01, 8.70327166e+01,
 228:..\..\..\liblc3\src/sns.c ****         9.57089124e+01, 1.05250029e+02, 1.15742288e+02, 1.27280509e+02,
 229:..\..\..\liblc3\src/sns.c ****         1.39968963e+02, 1.53922315e+02, 1.69266662e+02, 1.86140669e+02,
 230:..\..\..\liblc3\src/sns.c ****         2.04696827e+02, 2.25102829e+02, 2.47543082e+02, 2.72220379e+02,
 231:..\..\..\liblc3\src/sns.c ****         2.99357729e+02, 3.29200372e+02, 3.62017995e+02, 3.98107171e+02 };
 232:..\..\..\liblc3\src/sns.c **** 
 233:..\..\..\liblc3\src/sns.c ****     static const float ge_30[LC3_MAX_BANDS] = { /* g_tilt = 30 */
 234:..\..\..\liblc3\src/sns.c ****         1.00000000e+00, 1.11588399e+00, 1.24519708e+00, 1.38949549e+00,
 235:..\..\..\liblc3\src/sns.c ****         1.55051578e+00, 1.73019574e+00, 1.93069773e+00, 2.15443469e+00,
 236:..\..\..\liblc3\src/sns.c ****         2.40409918e+00, 2.68269580e+00, 2.99357729e+00, 3.34048498e+00,
 237:..\..\..\liblc3\src/sns.c ****         3.72759372e+00, 4.15956216e+00, 4.64158883e+00, 5.17947468e+00,
 238:..\..\..\liblc3\src/sns.c ****         5.77969288e+00, 6.44946677e+00, 7.19685673e+00, 8.03085722e+00,
 239:..\..\..\liblc3\src/sns.c ****         8.96150502e+00, 1.00000000e+01, 1.11588399e+01, 1.24519708e+01,
 240:..\..\..\liblc3\src/sns.c ****         1.38949549e+01, 1.55051578e+01, 1.73019574e+01, 1.93069773e+01,
 241:..\..\..\liblc3\src/sns.c ****         2.15443469e+01, 2.40409918e+01, 2.68269580e+01, 2.99357729e+01,
 242:..\..\..\liblc3\src/sns.c ****         3.34048498e+01, 3.72759372e+01, 4.15956216e+01, 4.64158883e+01,
 243:..\..\..\liblc3\src/sns.c ****         5.17947468e+01, 5.77969288e+01, 6.44946677e+01, 7.19685673e+01,
 244:..\..\..\liblc3\src/sns.c ****         8.03085722e+01, 8.96150502e+01, 1.00000000e+02, 1.11588399e+02,
 245:..\..\..\liblc3\src/sns.c ****         1.24519708e+02, 1.38949549e+02, 1.55051578e+02, 1.73019574e+02,
 246:..\..\..\liblc3\src/sns.c ****         1.93069773e+02, 2.15443469e+02, 2.40409918e+02, 2.68269580e+02,
 247:..\..\..\liblc3\src/sns.c ****         2.99357729e+02, 3.34048498e+02, 3.72759372e+02, 4.15956216e+02,
 248:..\..\..\liblc3\src/sns.c ****         4.64158883e+02, 5.17947468e+02, 5.77969288e+02, 6.44946677e+02,
 249:..\..\..\liblc3\src/sns.c ****         7.19685673e+02, 8.03085722e+02, 8.96150502e+02, 1.00000000e+03 };
 250:..\..\..\liblc3\src/sns.c **** 
 251:..\..\..\liblc3\src/sns.c **** #if LC3_PLUS_HR
 252:..\..\..\liblc3\src/sns.c **** 
 253:..\..\..\liblc3\src/sns.c ****     static const float ge_34[LC3_MAX_BANDS] = { /* g_tilt = 34 */
 254:..\..\..\liblc3\src/sns.c ****         1.00000000e+00, 1.13231759e+00, 1.28214312e+00, 1.45179321e+00,
 255:..\..\..\liblc3\src/sns.c ****         1.64389099e+00, 1.86140669e+00, 2.10770353e+00, 2.38658979e+00,
 256:..\..\..\liblc3\src/sns.c ****         2.70237760e+00, 3.05994969e+00, 3.46483486e+00, 3.92329345e+00,
 257:..\..\..\liblc3\src/sns.c ****         4.44241419e+00, 5.03022373e+00, 5.69581081e+00, 6.44946677e+00,
 258:..\..\..\liblc3\src/sns.c ****         7.30284467e+00, 8.26913948e+00, 9.36329209e+00, 1.06022203e+01,
ARM GAS  C:\Users\rdn\AppData\Local\Temp\cc92LAgm.s 			page 6


 259:..\..\..\liblc3\src/sns.c ****         1.20050806e+01, 1.35935639e+01, 1.53922315e+01, 1.74288945e+01,
 260:..\..\..\liblc3\src/sns.c ****         1.97350438e+01, 2.23463373e+01, 2.53031508e+01, 2.86512027e+01,
 261:..\..\..\liblc3\src/sns.c ****         3.24422608e+01, 3.67349426e+01, 4.15956216e+01, 4.70994540e+01,
 262:..\..\..\liblc3\src/sns.c ****         5.33315403e+01, 6.03882412e+01, 6.83786677e+01, 7.74263683e+01,
 263:..\..\..\liblc3\src/sns.c ****         8.76712387e+01, 9.92716858e+01, 1.12407076e+02, 1.27280509e+02,
 264:..\..\..\liblc3\src/sns.c ****         1.44121960e+02, 1.63191830e+02, 1.84784980e+02, 2.09235283e+02,
 265:..\..\..\liblc3\src/sns.c ****         2.36920791e+02, 2.68269580e+02, 3.03766364e+02, 3.43959997e+02,
 266:..\..\..\liblc3\src/sns.c ****         3.89471955e+02, 4.41005945e+02, 4.99358789e+02, 5.65432741e+02,
 267:..\..\..\liblc3\src/sns.c ****         6.40249439e+02, 7.24965701e+02, 8.20891416e+02, 9.29509790e+02,
 268:..\..\..\liblc3\src/sns.c ****         1.05250029e+03, 1.19176459e+03, 1.34945600e+03, 1.52801277e+03,
 269:..\..\..\liblc3\src/sns.c ****         1.73019574e+03, 1.95913107e+03, 2.21835857e+03, 2.51188643e+03 };
 270:..\..\..\liblc3\src/sns.c **** 
 271:..\..\..\liblc3\src/sns.c **** #endif /* LC3_PLUS_HR */
 272:..\..\..\liblc3\src/sns.c **** 
 273:..\..\..\liblc3\src/sns.c ****     static const float *ge_table[LC3_NUM_SRATE] = {
 274:..\..\..\liblc3\src/sns.c ****         [LC3_SRATE_8K    ] = ge_14, [LC3_SRATE_16K   ] = ge_18,
 275:..\..\..\liblc3\src/sns.c ****         [LC3_SRATE_24K   ] = ge_22, [LC3_SRATE_32K   ] = ge_26,
 276:..\..\..\liblc3\src/sns.c ****         [LC3_SRATE_48K   ] = ge_30,
 277:..\..\..\liblc3\src/sns.c **** 
 278:..\..\..\liblc3\src/sns.c **** #if LC3_PLUS_HR
 279:..\..\..\liblc3\src/sns.c ****         [LC3_SRATE_48K_HR] = ge_30, [LC3_SRATE_96K_HR] = ge_34,
 280:..\..\..\liblc3\src/sns.c **** #endif /* LC3_PLUS_HR */
 281:..\..\..\liblc3\src/sns.c **** 
 282:..\..\..\liblc3\src/sns.c ****     };
 283:..\..\..\liblc3\src/sns.c **** 
 284:..\..\..\liblc3\src/sns.c ****     float e[LC3_MAX_BANDS];
 285:..\..\..\liblc3\src/sns.c **** 
 286:..\..\..\liblc3\src/sns.c ****     /* --- Copy and padding --- */
 287:..\..\..\liblc3\src/sns.c **** 
 288:..\..\..\liblc3\src/sns.c ****     int nb = lc3_num_bands[dt][sr];
 289:..\..\..\liblc3\src/sns.c ****     int n4 = nb < 32 ? 32 % nb : 0;
 290:..\..\..\liblc3\src/sns.c ****     int n2 = nb < 32 ? nb - n4 : LC3_MAX_BANDS - nb;
 291:..\..\..\liblc3\src/sns.c **** 
 292:..\..\..\liblc3\src/sns.c ****     for (int i4 = 0; i4 < n4; i4++)
 293:..\..\..\liblc3\src/sns.c ****         e[4*i4 + 0] = e[4*i4 + 1] =
 294:..\..\..\liblc3\src/sns.c ****         e[4*i4 + 2] = e[4*i4 + 3] = eb[i4];
 295:..\..\..\liblc3\src/sns.c **** 
 296:..\..\..\liblc3\src/sns.c ****     for (int i2 = n4; i2 < n4+n2; i2++)
 297:..\..\..\liblc3\src/sns.c ****         e[2*(n4+i2) + 0] = e[2*(n4+i2) + 1] = eb[i2];
 298:..\..\..\liblc3\src/sns.c **** 
 299:..\..\..\liblc3\src/sns.c ****     memcpy(e + 4*n4 + 2*n2, eb + n4 + n2, (nb - n4 - n2) * sizeof(float));
 300:..\..\..\liblc3\src/sns.c **** 
 301:..\..\..\liblc3\src/sns.c ****     /* --- Smoothing, pre-emphasis and logarithm --- */
 302:..\..\..\liblc3\src/sns.c **** 
 303:..\..\..\liblc3\src/sns.c ****     const float *ge = ge_table[sr];
 304:..\..\..\liblc3\src/sns.c **** 
 305:..\..\..\liblc3\src/sns.c ****     float e0 = e[0], e1 = e[0], e2;
 306:..\..\..\liblc3\src/sns.c ****     float e_sum = 0;
 307:..\..\..\liblc3\src/sns.c **** 
 308:..\..\..\liblc3\src/sns.c ****     for (int i = 0; i < LC3_MAX_BANDS-1; ) {
 309:..\..\..\liblc3\src/sns.c ****         e[i] = (e0 * 0.25f + e1 * 0.5f + (e2 = e[i+1]) * 0.25f) * ge[i];
 310:..\..\..\liblc3\src/sns.c ****         e_sum += e[i++];
 311:..\..\..\liblc3\src/sns.c **** 
 312:..\..\..\liblc3\src/sns.c ****         e[i] = (e1 * 0.25f + e2 * 0.5f + (e0 = e[i+1]) * 0.25f) * ge[i];
 313:..\..\..\liblc3\src/sns.c ****         e_sum += e[i++];
 314:..\..\..\liblc3\src/sns.c **** 
 315:..\..\..\liblc3\src/sns.c ****         e[i] = (e2 * 0.25f + e0 * 0.5f + (e1 = e[i+1]) * 0.25f) * ge[i];
ARM GAS  C:\Users\rdn\AppData\Local\Temp\cc92LAgm.s 			page 7


 316:..\..\..\liblc3\src/sns.c ****         e_sum += e[i++];
 317:..\..\..\liblc3\src/sns.c ****     }
 318:..\..\..\liblc3\src/sns.c **** 
 319:..\..\..\liblc3\src/sns.c ****     e[LC3_MAX_BANDS-1] = (e0 * 0.25f + e1 * 0.75f) * ge[LC3_MAX_BANDS-1];
 320:..\..\..\liblc3\src/sns.c ****     e_sum += e[LC3_MAX_BANDS-1];
 321:..\..\..\liblc3\src/sns.c **** 
 322:..\..\..\liblc3\src/sns.c ****     float noise_floor = fmaxf(e_sum * (1e-4f / 64), 0x1p-32f);
 323:..\..\..\liblc3\src/sns.c **** 
 324:..\..\..\liblc3\src/sns.c ****     for (int i = 0; i < LC3_MAX_BANDS; i++)
 325:..\..\..\liblc3\src/sns.c ****         e[i] = lc3_log2f(fmaxf(e[i], noise_floor)) * 0.5f;
 326:..\..\..\liblc3\src/sns.c **** 
 327:..\..\..\liblc3\src/sns.c ****     /* --- Grouping & scaling --- */
 328:..\..\..\liblc3\src/sns.c **** 
 329:..\..\..\liblc3\src/sns.c ****     float scf_sum;
 330:..\..\..\liblc3\src/sns.c **** 
 331:..\..\..\liblc3\src/sns.c ****     scf[0] = (e[0] + e[4]) * 1.f/12 +
 332:..\..\..\liblc3\src/sns.c ****              (e[0] + e[3]) * 2.f/12 +
 333:..\..\..\liblc3\src/sns.c ****              (e[1] + e[2]) * 3.f/12  ;
 334:..\..\..\liblc3\src/sns.c ****     scf_sum = scf[0];
 335:..\..\..\liblc3\src/sns.c **** 
 336:..\..\..\liblc3\src/sns.c ****     for (int i = 1; i < 15; i++) {
 337:..\..\..\liblc3\src/sns.c ****         scf[i] = (e[4*i-1] + e[4*i+4]) * 1.f/12 +
 338:..\..\..\liblc3\src/sns.c ****                  (e[4*i  ] + e[4*i+3]) * 2.f/12 +
 339:..\..\..\liblc3\src/sns.c ****                  (e[4*i+1] + e[4*i+2]) * 3.f/12  ;
 340:..\..\..\liblc3\src/sns.c ****         scf_sum += scf[i];
 341:..\..\..\liblc3\src/sns.c ****     }
 342:..\..\..\liblc3\src/sns.c **** 
 343:..\..\..\liblc3\src/sns.c ****     scf[15] = (e[59] + e[63]) * 1.f/12 +
 344:..\..\..\liblc3\src/sns.c ****               (e[60] + e[63]) * 2.f/12 +
 345:..\..\..\liblc3\src/sns.c ****               (e[61] + e[62]) * 3.f/12  ;
 346:..\..\..\liblc3\src/sns.c ****     scf_sum += scf[15];
 347:..\..\..\liblc3\src/sns.c **** 
 348:..\..\..\liblc3\src/sns.c ****     float cf = lc3_hr(sr) ? 0.6f : 0.85f;
 349:..\..\..\liblc3\src/sns.c ****     if (lc3_hr(sr) && 8 * nbytes >
 350:..\..\..\liblc3\src/sns.c ****             (dt < LC3_DT_10M ? 1150 * (int)(1 + dt) : 4400))
 351:..\..\..\liblc3\src/sns.c ****         cf *= dt < LC3_DT_10M ? 0.25f : 0.35f;
 352:..\..\..\liblc3\src/sns.c **** 
 353:..\..\..\liblc3\src/sns.c ****     for (int i = 0; i < 16; i++)
 354:..\..\..\liblc3\src/sns.c ****         scf[i] = cf * (scf[i] - scf_sum * 1.f/16);
 355:..\..\..\liblc3\src/sns.c **** 
 356:..\..\..\liblc3\src/sns.c ****     /* --- Attack handling --- */
 357:..\..\..\liblc3\src/sns.c **** 
 358:..\..\..\liblc3\src/sns.c ****     if (!att)
 359:..\..\..\liblc3\src/sns.c ****         return;
 360:..\..\..\liblc3\src/sns.c **** 
 361:..\..\..\liblc3\src/sns.c ****     float s0, s1 = scf[0], s2 = scf[1], s3 = scf[2], s4 = scf[3];
 362:..\..\..\liblc3\src/sns.c ****     float sn = s1 + s2;
 363:..\..\..\liblc3\src/sns.c **** 
 364:..\..\..\liblc3\src/sns.c ****     scf[0] = (sn += s3) * 1.f/3;
 365:..\..\..\liblc3\src/sns.c ****     scf[1] = (sn += s4) * 1.f/4;
 366:..\..\..\liblc3\src/sns.c ****     scf_sum = scf[0] + scf[1];
 367:..\..\..\liblc3\src/sns.c **** 
 368:..\..\..\liblc3\src/sns.c ****     for (int i = 2; i < 14; i++, sn -= s0) {
 369:..\..\..\liblc3\src/sns.c ****         s0 = s1, s1 = s2, s2 = s3, s3 = s4, s4 = scf[i+2];
 370:..\..\..\liblc3\src/sns.c ****         scf[i] = (sn += s4) * 1.f/5;
 371:..\..\..\liblc3\src/sns.c ****         scf_sum += scf[i];
 372:..\..\..\liblc3\src/sns.c ****     }
ARM GAS  C:\Users\rdn\AppData\Local\Temp\cc92LAgm.s 			page 8


 373:..\..\..\liblc3\src/sns.c **** 
 374:..\..\..\liblc3\src/sns.c ****     scf[14] = (sn      ) * 1.f/4;
 375:..\..\..\liblc3\src/sns.c ****     scf[15] = (sn -= s1) * 1.f/3;
 376:..\..\..\liblc3\src/sns.c ****     scf_sum += scf[14] + scf[15];
 377:..\..\..\liblc3\src/sns.c **** 
 378:..\..\..\liblc3\src/sns.c ****     for (int i = 0; i < 16; i++)
 379:..\..\..\liblc3\src/sns.c ****         scf[i] = (dt == LC3_DT_7M5 ? 0.3f : 0.5f) *
 380:..\..\..\liblc3\src/sns.c ****                  (scf[i] - scf_sum * 1.f/16);
 381:..\..\..\liblc3\src/sns.c **** }
 382:..\..\..\liblc3\src/sns.c **** 
 383:..\..\..\liblc3\src/sns.c **** /**
 384:..\..\..\liblc3\src/sns.c ****  * Codebooks
 385:..\..\..\liblc3\src/sns.c ****  * scf             Input 16 scale factors
 386:..\..\..\liblc3\src/sns.c ****  * lf/hfcb_idx     Output the low and high frequency codebooks index
 387:..\..\..\liblc3\src/sns.c ****  */
 388:..\..\..\liblc3\src/sns.c **** LC3_HOT static void resolve_codebooks(
 389:..\..\..\liblc3\src/sns.c ****     const float *scf, int *lfcb_idx, int *hfcb_idx)
 390:..\..\..\liblc3\src/sns.c **** {
 391:..\..\..\liblc3\src/sns.c ****     float dlfcb_max = 0, dhfcb_max = 0;
 392:..\..\..\liblc3\src/sns.c ****     *lfcb_idx = *hfcb_idx = 0;
 393:..\..\..\liblc3\src/sns.c **** 
 394:..\..\..\liblc3\src/sns.c ****     for (int icb = 0; icb < 32; icb++) {
 395:..\..\..\liblc3\src/sns.c ****         const float *lfcb = lc3_sns_lfcb[icb];
 396:..\..\..\liblc3\src/sns.c ****         const float *hfcb = lc3_sns_hfcb[icb];
 397:..\..\..\liblc3\src/sns.c ****         float dlfcb = 0, dhfcb = 0;
 398:..\..\..\liblc3\src/sns.c **** 
 399:..\..\..\liblc3\src/sns.c ****         for (int i = 0; i < 8; i++) {
 400:..\..\..\liblc3\src/sns.c ****             dlfcb += (scf[  i] - lfcb[i]) * (scf[  i] - lfcb[i]);
 401:..\..\..\liblc3\src/sns.c ****             dhfcb += (scf[8+i] - hfcb[i]) * (scf[8+i] - hfcb[i]);
 402:..\..\..\liblc3\src/sns.c ****         }
 403:..\..\..\liblc3\src/sns.c **** 
 404:..\..\..\liblc3\src/sns.c ****         if (icb == 0 || dlfcb < dlfcb_max)
 405:..\..\..\liblc3\src/sns.c ****             *lfcb_idx = icb, dlfcb_max = dlfcb;
 406:..\..\..\liblc3\src/sns.c **** 
 407:..\..\..\liblc3\src/sns.c ****         if (icb == 0 || dhfcb < dhfcb_max)
 408:..\..\..\liblc3\src/sns.c ****             *hfcb_idx = icb, dhfcb_max = dhfcb;
 409:..\..\..\liblc3\src/sns.c ****     }
 410:..\..\..\liblc3\src/sns.c **** }
 411:..\..\..\liblc3\src/sns.c **** 
 412:..\..\..\liblc3\src/sns.c **** /**
 413:..\..\..\liblc3\src/sns.c ****  * Unit energy normalize pulse configuration
 414:..\..\..\liblc3\src/sns.c ****  * c               Pulse configuration
 415:..\..\..\liblc3\src/sns.c ****  * cn              Normalized pulse configuration
 416:..\..\..\liblc3\src/sns.c ****  */
 417:..\..\..\liblc3\src/sns.c **** LC3_HOT static void normalize(const int *c, float *cn)
 418:..\..\..\liblc3\src/sns.c **** {
 419:..\..\..\liblc3\src/sns.c ****     int c2_sum = 0;
 420:..\..\..\liblc3\src/sns.c ****     for (int i = 0; i < 16; i++)
 421:..\..\..\liblc3\src/sns.c ****         c2_sum += c[i] * c[i];
 422:..\..\..\liblc3\src/sns.c **** 
 423:..\..\..\liblc3\src/sns.c ****     float c_norm = 1.f / sqrtf(c2_sum);
 424:..\..\..\liblc3\src/sns.c **** 
 425:..\..\..\liblc3\src/sns.c ****     for (int i = 0; i < 16; i++)
 426:..\..\..\liblc3\src/sns.c ****         cn[i] = c[i] * c_norm;
 427:..\..\..\liblc3\src/sns.c **** }
 428:..\..\..\liblc3\src/sns.c **** 
 429:..\..\..\liblc3\src/sns.c **** /**
ARM GAS  C:\Users\rdn\AppData\Local\Temp\cc92LAgm.s 			page 9


 430:..\..\..\liblc3\src/sns.c ****  * Sub-procedure of `quantize()`, add unit pulse
 431:..\..\..\liblc3\src/sns.c ****  * x, y, n         Transformed residual, and vector of pulses with length
 432:..\..\..\liblc3\src/sns.c ****  * start, end      Current number of pulses, limit to reach
 433:..\..\..\liblc3\src/sns.c ****  * corr, energy    Correlation (x,y) and y energy, updated at output
 434:..\..\..\liblc3\src/sns.c ****  */
 435:..\..\..\liblc3\src/sns.c **** LC3_HOT static void add_pulse(const float *x, int *y, int n,
 436:..\..\..\liblc3\src/sns.c ****     int start, int end, float *corr, float *energy)
 437:..\..\..\liblc3\src/sns.c **** {
  28              		.loc 1 437 0
  29              		.cfi_startproc
  30              		@ args = 12, pretend = 0, frame = 0
  31              		@ frame_needed = 0, uses_anonymous_args = 0
  32              	.LVL0:
  33 0000 2DE9F041 		push	{r4, r5, r6, r7, r8, lr}
  34              		.cfi_def_cfa_offset 24
  35              		.cfi_offset 4, -24
  36              		.cfi_offset 5, -20
  37              		.cfi_offset 6, -16
  38              		.cfi_offset 7, -12
  39              		.cfi_offset 8, -8
  40              		.cfi_offset 14, -4
  41              	.LBB14:
  42              	.LBB15:
 438:..\..\..\liblc3\src/sns.c ****     for (int k = start; k < end; k++) {
 439:..\..\..\liblc3\src/sns.c ****         float best_c2 = (*corr + x[0]) * (*corr + x[0]);
 440:..\..\..\liblc3\src/sns.c ****         float best_e = *energy + 2*y[0] + 1;
  43              		.loc 1 440 0
  44 0004 B7EE005A 		vmov.f32	s10, #1.0e+0
  45              	.LBE15:
  46              	.LBE14:
 437:..\..\..\liblc3\src/sns.c ****     for (int k = start; k < end; k++) {
  47              		.loc 1 437 0
  48 0008 079E     		ldr	r6, [sp, #28]
  49 000a 089F     		ldr	r7, [sp, #32]
  50 000c B0EE454A 		vmov.f32	s8, s10
  51              	.LVL1:
  52              	.L2:
  53              	.LBB21:
 438:..\..\..\liblc3\src/sns.c ****     for (int k = start; k < end; k++) {
  54              		.loc 1 438 0 discriminator 1
  55 0010 069C     		ldr	r4, [sp, #24]
  56 0012 A342     		cmp	r3, r4
  57 0014 5ADA     		bge	.L10
  58              	.LBB19:
  59              		.loc 1 440 0
  60 0016 0C68     		ldr	r4, [r1]
 439:..\..\..\liblc3\src/sns.c ****         float best_e = *energy + 2*y[0] + 1;
  61              		.loc 1 439 0
  62 0018 D6ED005A 		vldr.32	s11, [r6]
  63              		.loc 1 440 0
  64 001c D7ED004A 		vldr.32	s9, [r7]
  65 0020 6400     		lsls	r4, r4, #1
  66 0022 07EE904A 		vmov	s15, r4	@ int
 439:..\..\..\liblc3\src/sns.c ****         float best_e = *energy + 2*y[0] + 1;
  67              		.loc 1 439 0
  68 0026 8046     		mov	r8, r0
  69 0028 F8EC016A 		vldmia.32	r8!, {s13}
ARM GAS  C:\Users\rdn\AppData\Local\Temp\cc92LAgm.s 			page 10


  70              		.loc 1 440 0
  71 002c F8EEE77A 		vcvt.f32.s32	s15, s15
 439:..\..\..\liblc3\src/sns.c ****         float best_e = *energy + 2*y[0] + 1;
  72              		.loc 1 439 0
  73 0030 75EEA66A 		vadd.f32	s13, s11, s13
  74              		.loc 1 440 0
  75 0034 77EEA47A 		vadd.f32	s15, s15, s9
 439:..\..\..\liblc3\src/sns.c ****         float best_e = *energy + 2*y[0] + 1;
  76              		.loc 1 439 0
  77 0038 66EEA66A 		vmul.f32	s13, s13, s13
  78              	.LVL2:
  79              		.loc 1 440 0
  80 003c 77EE857A 		vadd.f32	s15, s15, s10
  81              	.LVL3:
  82              	.LBB16:
 441:..\..\..\liblc3\src/sns.c ****         int nbest = 0;
 442:..\..\..\liblc3\src/sns.c **** 
 443:..\..\..\liblc3\src/sns.c ****         for (int i = 1; i < n; i++) {
  83              		.loc 1 443 0
  84 0040 4FF0010C 		mov	ip, #1
  85              	.LBE16:
 441:..\..\..\liblc3\src/sns.c ****         int nbest = 0;
  86              		.loc 1 441 0
  87 0044 0025     		movs	r5, #0
  88              	.LVL4:
  89              	.L3:
  90              	.LBB18:
  91              		.loc 1 443 0 discriminator 1
  92 0046 9445     		cmp	ip, r2
  93 0048 23DA     		bge	.L11
  94              	.LBB17:
 444:..\..\..\liblc3\src/sns.c ****             float c2 = (*corr + x[i]) * (*corr + x[i]);
 445:..\..\..\liblc3\src/sns.c ****             float e  = *energy + 2*y[i] + 1;
  95              		.loc 1 445 0
  96 004a 51F82C40 		ldr	r4, [r1, ip, lsl #2]
 444:..\..\..\liblc3\src/sns.c ****             float c2 = (*corr + x[i]) * (*corr + x[i]);
  97              		.loc 1 444 0
  98 004e B8EC016A 		vldmia.32	r8!, {s12}
  99              		.loc 1 445 0
 100 0052 6400     		lsls	r4, r4, #1
 101 0054 07EE104A 		vmov	s14, r4	@ int
 102 0058 B8EEC77A 		vcvt.f32.s32	s14, s14
 444:..\..\..\liblc3\src/sns.c ****             float c2 = (*corr + x[i]) * (*corr + x[i]);
 103              		.loc 1 444 0
 104 005c 35EE866A 		vadd.f32	s12, s11, s12
 105              		.loc 1 445 0
 106 0060 37EE247A 		vadd.f32	s14, s14, s9
 444:..\..\..\liblc3\src/sns.c ****             float c2 = (*corr + x[i]) * (*corr + x[i]);
 107              		.loc 1 444 0
 108 0064 26EE066A 		vmul.f32	s12, s12, s12
 109              	.LVL5:
 110              		.loc 1 445 0
 111 0068 37EE047A 		vadd.f32	s14, s14, s8
 112              	.LVL6:
 446:..\..\..\liblc3\src/sns.c **** 
 447:..\..\..\liblc3\src/sns.c ****             if (c2 * best_e > e * best_c2)
 113              		.loc 1 447 0
ARM GAS  C:\Users\rdn\AppData\Local\Temp\cc92LAgm.s 			page 11


 114 006c 27EE863A 		vmul.f32	s6, s15, s12
 115 0070 66EE873A 		vmul.f32	s7, s13, s14
 116 0074 B4EE633A 		vcmp.f32	s6, s7
 117 0078 F1EE10FA 		vmrs	APSR_nzcv, FPSCR
 118 007c C8BF     		it	gt
 119 007e 6546     		movgt	r5, ip
 120              	.LVL7:
 121 0080 C8BF     		it	gt
 122 0082 F0EE477A 		vmovgt.f32	s15, s14
 123              	.LVL8:
 124 0086 C8BF     		it	gt
 125 0088 F0EE466A 		vmovgt.f32	s13, s12
 126              	.LVL9:
 127              	.LBE17:
 443:..\..\..\liblc3\src/sns.c ****             float c2 = (*corr + x[i]) * (*corr + x[i]);
 128              		.loc 1 443 0
 129 008c 0CF1010C 		add	ip, ip, #1
 130              	.LVL10:
 131 0090 D9E7     		b	.L3
 132              	.LVL11:
 133              	.L11:
 134              	.LBE18:
 448:..\..\..\liblc3\src/sns.c ****                 best_c2 = c2, best_e = e, nbest = i;
 449:..\..\..\liblc3\src/sns.c ****         }
 450:..\..\..\liblc3\src/sns.c **** 
 451:..\..\..\liblc3\src/sns.c ****         *corr += x[nbest];
 135              		.loc 1 451 0 discriminator 2
 136 0092 00EB8504 		add	r4, r0, r5, lsl #2
 137 0096 D4ED007A 		vldr.32	s15, [r4]
 138              	.LVL12:
 452:..\..\..\liblc3\src/sns.c ****         *energy += 2*y[nbest] + 1;
 139              		.loc 1 452 0 discriminator 2
 140 009a 51F825C0 		ldr	ip, [r1, r5, lsl #2]
 141              	.LVL13:
 451:..\..\..\liblc3\src/sns.c ****         *energy += 2*y[nbest] + 1;
 142              		.loc 1 451 0 discriminator 2
 143 009e 77EEA57A 		vadd.f32	s15, s15, s11
 144              		.loc 1 452 0 discriminator 2
 145 00a2 4FEA4C04 		lsl	r4, ip, #1
 146 00a6 0134     		adds	r4, r4, #1
 451:..\..\..\liblc3\src/sns.c ****         *energy += 2*y[nbest] + 1;
 147              		.loc 1 451 0 discriminator 2
 148 00a8 C6ED007A 		vstr.32	s15, [r6]
 149              		.loc 1 452 0 discriminator 2
 150 00ac 07EE904A 		vmov	s15, r4	@ int
 151 00b0 97ED007A 		vldr.32	s14, [r7]
 152 00b4 F8EEE77A 		vcvt.f32.s32	s15, s15
 453:..\..\..\liblc3\src/sns.c ****         y[nbest]++;
 153              		.loc 1 453 0 discriminator 2
 154 00b8 0CF10104 		add	r4, ip, #1
 452:..\..\..\liblc3\src/sns.c ****         *energy += 2*y[nbest] + 1;
 155              		.loc 1 452 0 discriminator 2
 156 00bc 77EE277A 		vadd.f32	s15, s14, s15
 157              	.LBE19:
 438:..\..\..\liblc3\src/sns.c ****         float best_c2 = (*corr + x[0]) * (*corr + x[0]);
 158              		.loc 1 438 0 discriminator 2
 159 00c0 0133     		adds	r3, r3, #1
ARM GAS  C:\Users\rdn\AppData\Local\Temp\cc92LAgm.s 			page 12


 160              	.LVL14:
 161              	.LBB20:
 452:..\..\..\liblc3\src/sns.c ****         y[nbest]++;
 162              		.loc 1 452 0 discriminator 2
 163 00c2 C7ED007A 		vstr.32	s15, [r7]
 164              		.loc 1 453 0 discriminator 2
 165 00c6 41F82540 		str	r4, [r1, r5, lsl #2]
 166 00ca A1E7     		b	.L2
 167              	.LVL15:
 168              	.L10:
 169              	.LBE20:
 170              	.LBE21:
 454:..\..\..\liblc3\src/sns.c ****     }
 455:..\..\..\liblc3\src/sns.c **** }
 171              		.loc 1 455 0
 172 00cc BDE8F081 		pop	{r4, r5, r6, r7, r8, pc}
 173              		.cfi_endproc
 174              	.LFE25:
 175              		.size	add_pulse, .-add_pulse
 176              		.section	.text.unquantize,"ax",%progbits
 177              		.align	1
 178              		.thumb
 179              		.thumb_func
 180              		.type	unquantize, %function
 181              	unquantize:
 182              	.LFB27:
 456:..\..\..\liblc3\src/sns.c **** 
 457:..\..\..\liblc3\src/sns.c **** /**
 458:..\..\..\liblc3\src/sns.c ****  * Quantization of codebooks residual
 459:..\..\..\liblc3\src/sns.c ****  * scf             Input 16 scale factors, output quantized version
 460:..\..\..\liblc3\src/sns.c ****  * lf/hfcb_idx     Codebooks index
 461:..\..\..\liblc3\src/sns.c ****  * c, cn           Output 4 pulse configurations candidates, normalized
 462:..\..\..\liblc3\src/sns.c ****  * shape/gain_idx  Output selected shape/gain indexes
 463:..\..\..\liblc3\src/sns.c ****  */
 464:..\..\..\liblc3\src/sns.c **** LC3_HOT static void quantize(const float *scf, int lfcb_idx, int hfcb_idx,
 465:..\..\..\liblc3\src/sns.c ****     int (*c)[16], float (*cn)[16], int *shape_idx, int *gain_idx)
 466:..\..\..\liblc3\src/sns.c **** {
 467:..\..\..\liblc3\src/sns.c ****     /* --- Residual --- */
 468:..\..\..\liblc3\src/sns.c **** 
 469:..\..\..\liblc3\src/sns.c ****     const float *lfcb = lc3_sns_lfcb[lfcb_idx];
 470:..\..\..\liblc3\src/sns.c ****     const float *hfcb = lc3_sns_hfcb[hfcb_idx];
 471:..\..\..\liblc3\src/sns.c ****     float r[16], x[16];
 472:..\..\..\liblc3\src/sns.c **** 
 473:..\..\..\liblc3\src/sns.c ****     for (int i = 0; i < 8; i++) {
 474:..\..\..\liblc3\src/sns.c ****         r[  i] = scf[  i] - lfcb[i];
 475:..\..\..\liblc3\src/sns.c ****         r[8+i] = scf[8+i] - hfcb[i];
 476:..\..\..\liblc3\src/sns.c ****     }
 477:..\..\..\liblc3\src/sns.c **** 
 478:..\..\..\liblc3\src/sns.c ****     dct16_forward(r, x);
 479:..\..\..\liblc3\src/sns.c **** 
 480:..\..\..\liblc3\src/sns.c ****     /* --- Shape 3 candidate ---
 481:..\..\..\liblc3\src/sns.c ****      * Project to or below pyramid N = 16, K = 6,
 482:..\..\..\liblc3\src/sns.c ****      * then add unit pulses until you reach K = 6, over N = 16 */
 483:..\..\..\liblc3\src/sns.c **** 
 484:..\..\..\liblc3\src/sns.c ****     float xm[16];
 485:..\..\..\liblc3\src/sns.c ****     float xm_sum = 0;
 486:..\..\..\liblc3\src/sns.c **** 
ARM GAS  C:\Users\rdn\AppData\Local\Temp\cc92LAgm.s 			page 13


 487:..\..\..\liblc3\src/sns.c ****     for (int i = 0; i < 16; i++) {
 488:..\..\..\liblc3\src/sns.c ****         xm[i] = fabsf(x[i]);
 489:..\..\..\liblc3\src/sns.c ****         xm_sum += xm[i];
 490:..\..\..\liblc3\src/sns.c ****     }
 491:..\..\..\liblc3\src/sns.c **** 
 492:..\..\..\liblc3\src/sns.c ****     float proj_factor = (6 - 1) / fmaxf(xm_sum, 1e-31f);
 493:..\..\..\liblc3\src/sns.c ****     float corr = 0, energy = 0;
 494:..\..\..\liblc3\src/sns.c ****     int npulses = 0;
 495:..\..\..\liblc3\src/sns.c **** 
 496:..\..\..\liblc3\src/sns.c ****     for (int i = 0; i < 16; i++) {
 497:..\..\..\liblc3\src/sns.c ****         c[3][i] = floorf(xm[i] * proj_factor);
 498:..\..\..\liblc3\src/sns.c ****         npulses += c[3][i];
 499:..\..\..\liblc3\src/sns.c ****         corr    += c[3][i] * xm[i];
 500:..\..\..\liblc3\src/sns.c ****         energy  += c[3][i] * c[3][i];
 501:..\..\..\liblc3\src/sns.c ****     }
 502:..\..\..\liblc3\src/sns.c **** 
 503:..\..\..\liblc3\src/sns.c ****     add_pulse(xm, c[3], 16, npulses, 6, &corr, &energy);
 504:..\..\..\liblc3\src/sns.c ****     npulses = 6;
 505:..\..\..\liblc3\src/sns.c **** 
 506:..\..\..\liblc3\src/sns.c ****     /* --- Shape 2 candidate ---
 507:..\..\..\liblc3\src/sns.c ****      * Add unit pulses until you reach K = 8 on shape 3 */
 508:..\..\..\liblc3\src/sns.c **** 
 509:..\..\..\liblc3\src/sns.c ****     memcpy(c[2], c[3], sizeof(c[2]));
 510:..\..\..\liblc3\src/sns.c **** 
 511:..\..\..\liblc3\src/sns.c ****     add_pulse(xm, c[2], 16, npulses, 8, &corr, &energy);
 512:..\..\..\liblc3\src/sns.c ****     npulses = 8;
 513:..\..\..\liblc3\src/sns.c **** 
 514:..\..\..\liblc3\src/sns.c ****     /* --- Shape 1 candidate ---
 515:..\..\..\liblc3\src/sns.c ****      * Remove any unit pulses from shape 2 that are not part of 0 to 9
 516:..\..\..\liblc3\src/sns.c ****      * Update energy and correlation terms accordingly
 517:..\..\..\liblc3\src/sns.c ****      * Add unit pulses until you reach K = 10, over N = 10 */
 518:..\..\..\liblc3\src/sns.c **** 
 519:..\..\..\liblc3\src/sns.c ****     memcpy(c[1], c[2], sizeof(c[1]));
 520:..\..\..\liblc3\src/sns.c **** 
 521:..\..\..\liblc3\src/sns.c ****     for (int i = 10; i < 16; i++) {
 522:..\..\..\liblc3\src/sns.c ****         c[1][i] = 0;
 523:..\..\..\liblc3\src/sns.c ****         npulses -= c[2][i];
 524:..\..\..\liblc3\src/sns.c ****         corr    -= c[2][i] * xm[i];
 525:..\..\..\liblc3\src/sns.c ****         energy  -= c[2][i] * c[2][i];
 526:..\..\..\liblc3\src/sns.c ****     }
 527:..\..\..\liblc3\src/sns.c **** 
 528:..\..\..\liblc3\src/sns.c ****     add_pulse(xm, c[1], 10, npulses, 10, &corr, &energy);
 529:..\..\..\liblc3\src/sns.c ****     npulses = 10;
 530:..\..\..\liblc3\src/sns.c **** 
 531:..\..\..\liblc3\src/sns.c ****     /* --- Shape 0 candidate ---
 532:..\..\..\liblc3\src/sns.c ****      * Add unit pulses until you reach K = 1, on shape 1 */
 533:..\..\..\liblc3\src/sns.c **** 
 534:..\..\..\liblc3\src/sns.c ****     memcpy(c[0], c[1], sizeof(c[0]));
 535:..\..\..\liblc3\src/sns.c **** 
 536:..\..\..\liblc3\src/sns.c ****     add_pulse(xm + 10, c[0] + 10, 6, 0, 1, &corr, &energy);
 537:..\..\..\liblc3\src/sns.c **** 
 538:..\..\..\liblc3\src/sns.c ****     /* --- Add sign and unit energy normalize --- */
 539:..\..\..\liblc3\src/sns.c **** 
 540:..\..\..\liblc3\src/sns.c ****     for (int j = 0; j < 16; j++)
 541:..\..\..\liblc3\src/sns.c ****         for (int i = 0; i < 4; i++)
 542:..\..\..\liblc3\src/sns.c ****             c[i][j] = x[j] < 0 ? -c[i][j] : c[i][j];
 543:..\..\..\liblc3\src/sns.c **** 
ARM GAS  C:\Users\rdn\AppData\Local\Temp\cc92LAgm.s 			page 14


 544:..\..\..\liblc3\src/sns.c ****     for (int i = 0; i < 4; i++)
 545:..\..\..\liblc3\src/sns.c ****         normalize(c[i], cn[i]);
 546:..\..\..\liblc3\src/sns.c **** 
 547:..\..\..\liblc3\src/sns.c ****     /* --- Determe shape & gain index ---
 548:..\..\..\liblc3\src/sns.c ****      * Search the Mean Square Error, within (shape, gain) combinations */
 549:..\..\..\liblc3\src/sns.c **** 
 550:..\..\..\liblc3\src/sns.c ****     float mse_min = INFINITY;
 551:..\..\..\liblc3\src/sns.c ****     *shape_idx = *gain_idx = 0;
 552:..\..\..\liblc3\src/sns.c **** 
 553:..\..\..\liblc3\src/sns.c ****     for (int ic = 0; ic < 4; ic++) {
 554:..\..\..\liblc3\src/sns.c ****         const struct lc3_sns_vq_gains *cgains = lc3_sns_vq_gains + ic;
 555:..\..\..\liblc3\src/sns.c ****         float cmse_min = INFINITY;
 556:..\..\..\liblc3\src/sns.c ****         int cgain_idx = 0;
 557:..\..\..\liblc3\src/sns.c **** 
 558:..\..\..\liblc3\src/sns.c ****         for (int ig = 0; ig < cgains->count; ig++) {
 559:..\..\..\liblc3\src/sns.c ****             float g = cgains->v[ig];
 560:..\..\..\liblc3\src/sns.c **** 
 561:..\..\..\liblc3\src/sns.c ****             float mse = 0;
 562:..\..\..\liblc3\src/sns.c ****             for (int i = 0; i < 16; i++)
 563:..\..\..\liblc3\src/sns.c ****                 mse += (x[i] - g * cn[ic][i]) * (x[i] - g * cn[ic][i]);
 564:..\..\..\liblc3\src/sns.c **** 
 565:..\..\..\liblc3\src/sns.c ****             if (mse < cmse_min) {
 566:..\..\..\liblc3\src/sns.c ****                 cgain_idx = ig,
 567:..\..\..\liblc3\src/sns.c ****                 cmse_min = mse;
 568:..\..\..\liblc3\src/sns.c ****             }
 569:..\..\..\liblc3\src/sns.c ****         }
 570:..\..\..\liblc3\src/sns.c **** 
 571:..\..\..\liblc3\src/sns.c ****         if (cmse_min < mse_min) {
 572:..\..\..\liblc3\src/sns.c ****             *shape_idx = ic, *gain_idx = cgain_idx;
 573:..\..\..\liblc3\src/sns.c ****             mse_min = cmse_min;
 574:..\..\..\liblc3\src/sns.c ****         }
 575:..\..\..\liblc3\src/sns.c ****     }
 576:..\..\..\liblc3\src/sns.c **** }
 577:..\..\..\liblc3\src/sns.c **** 
 578:..\..\..\liblc3\src/sns.c **** /**
 579:..\..\..\liblc3\src/sns.c ****  * Unquantization of codebooks residual
 580:..\..\..\liblc3\src/sns.c ****  * lf/hfcb_idx     Low and high frequency codebooks index
 581:..\..\..\liblc3\src/sns.c ****  * c               Table of normalized pulse configuration
 582:..\..\..\liblc3\src/sns.c ****  * shape/gain      Selected shape/gain indexes
 583:..\..\..\liblc3\src/sns.c ****  * scf             Return unquantized scale factors
 584:..\..\..\liblc3\src/sns.c ****  */
 585:..\..\..\liblc3\src/sns.c **** LC3_HOT static void unquantize(int lfcb_idx, int hfcb_idx,
 586:..\..\..\liblc3\src/sns.c ****     const float *c, int shape, int gain, float *scf)
 587:..\..\..\liblc3\src/sns.c **** {
 183              		.loc 1 587 0
 184              		.cfi_startproc
 185              		@ args = 8, pretend = 0, frame = 0
 186              		@ frame_needed = 0, uses_anonymous_args = 0
 187              	.LVL16:
 188 0000 2DE9F043 		push	{r4, r5, r6, r7, r8, r9, lr}
 189              		.cfi_def_cfa_offset 28
 190              		.cfi_offset 4, -28
 191              		.cfi_offset 5, -24
 192              		.cfi_offset 6, -20
 193              		.cfi_offset 7, -16
 194              		.cfi_offset 8, -12
 195              		.cfi_offset 9, -8
ARM GAS  C:\Users\rdn\AppData\Local\Temp\cc92LAgm.s 			page 15


 196              		.cfi_offset 14, -4
 588:..\..\..\liblc3\src/sns.c ****     const float *lfcb = lc3_sns_lfcb[lfcb_idx];
 197              		.loc 1 588 0
 198 0004 224D     		ldr	r5, .L21
 587:..\..\..\liblc3\src/sns.c ****     const float *lfcb = lc3_sns_lfcb[lfcb_idx];
 199              		.loc 1 587 0
 200 0006 089C     		ldr	r4, [sp, #32]
 201 0008 DFF89080 		ldr	r8, .L21+12
 202              		.loc 1 588 0
 203 000c 05EB4010 		add	r0, r5, r0, lsl #5
 204              	.LVL17:
 589:..\..\..\liblc3\src/sns.c ****     const float *hfcb = lc3_sns_hfcb[hfcb_idx];
 205              		.loc 1 589 0
 206 0010 204D     		ldr	r5, .L21+4
 207 0012 05EB4111 		add	r1, r5, r1, lsl #5
 208              	.LVL18:
 590:..\..\..\liblc3\src/sns.c ****     float g = lc3_sns_vq_gains[shape].v[gain];
 209              		.loc 1 590 0
 210 0016 204D     		ldr	r5, .L21+8
 211 0018 05EBC303 		add	r3, r5, r3, lsl #3
 212              	.LVL19:
 213 001c 079D     		ldr	r5, [sp, #28]
 214 001e 5B68     		ldr	r3, [r3, #4]
 215 0020 03EB8503 		add	r3, r3, r5, lsl #2
 216 0024 93ED007A 		vldr.32	s14, [r3]
 217              	.LVL20:
 218 0028 2546     		mov	r5, r4
 219 002a 2646     		mov	r6, r4
 220              	.LBB27:
 221              	.LBB28:
 136:..\..\..\liblc3\src/sns.c ****         for (y[i] = 0, j = 0; j < 16; j++)
 222              		.loc 1 136 0
 223 002c 0023     		movs	r3, #0
 137:..\..\..\liblc3\src/sns.c ****             y[i] += x[j] * dct16_m[i][j];
 224              		.loc 1 137 0
 225 002e 4FF0000C 		mov	ip, #0
 226 0032 02F14009 		add	r9, r2, #64
 227              	.LVL21:
 228              	.L14:
 229 0036 46F804CB 		str	ip, [r6], #4	@ float
 230              	.LVL22:
 231 003a 1746     		mov	r7, r2
 232 003c 08EB831E 		add	lr, r8, r3, lsl #6
 233              	.LVL23:
 234              	.L13:
 138:..\..\..\liblc3\src/sns.c **** }
 235              		.loc 1 138 0
 236 0040 B7EC016A 		vldmia.32	r7!, {s12}
 237 0044 FEEC016A 		vldmia.32	lr!, {s13}
 238 0048 56ED017A 		vldr.32	s15, [r6, #-4]
 239 004c E6EE267A 		vfma.f32	s15, s12, s13
 137:..\..\..\liblc3\src/sns.c ****             y[i] += x[j] * dct16_m[i][j];
 240              		.loc 1 137 0
 241 0050 4F45     		cmp	r7, r9
 138:..\..\..\liblc3\src/sns.c **** }
 242              		.loc 1 138 0
 243 0052 46ED017A 		vstr.32	s15, [r6, #-4]
ARM GAS  C:\Users\rdn\AppData\Local\Temp\cc92LAgm.s 			page 16


 137:..\..\..\liblc3\src/sns.c ****             y[i] += x[j] * dct16_m[i][j];
 244              		.loc 1 137 0
 245 0056 F3D1     		bne	.L13
 136:..\..\..\liblc3\src/sns.c ****         for (y[i] = 0, j = 0; j < 16; j++)
 246              		.loc 1 136 0
 247 0058 0133     		adds	r3, r3, #1
 248              	.LVL24:
 249 005a 102B     		cmp	r3, #16
 250 005c EBD1     		bne	.L14
 251 005e 04F12003 		add	r3, r4, #32
 252              	.LVL25:
 253              	.L15:
 254              	.LBE28:
 255              	.LBE27:
 256              	.LBB29:
 591:..\..\..\liblc3\src/sns.c **** 
 592:..\..\..\liblc3\src/sns.c ****     dct16_inverse(c, scf);
 593:..\..\..\liblc3\src/sns.c **** 
 594:..\..\..\liblc3\src/sns.c ****     for (int i = 0; i < 8; i++)
 595:..\..\..\liblc3\src/sns.c ****         scf[i] = lfcb[i] + g * scf[i];
 257              		.loc 1 595 0 discriminator 3
 258 0062 F0EC017A 		vldmia.32	r0!, {s15}
 259 0066 D5ED006A 		vldr.32	s13, [r5]
 260 006a E7EE267A 		vfma.f32	s15, s14, s13
 261 006e E5EC017A 		vstmia.32	r5!, {s15}
 262              	.LVL26:
 594:..\..\..\liblc3\src/sns.c ****         scf[i] = lfcb[i] + g * scf[i];
 263              		.loc 1 594 0 discriminator 3
 264 0072 9D42     		cmp	r5, r3
 265 0074 F5D1     		bne	.L15
 266 0076 4034     		adds	r4, r4, #64
 267              	.LVL27:
 268              	.L16:
 269              	.LBE29:
 270              	.LBB30:
 596:..\..\..\liblc3\src/sns.c **** 
 597:..\..\..\liblc3\src/sns.c ****     for (int i = 8; i < 16; i++)
 598:..\..\..\liblc3\src/sns.c ****         scf[i] = hfcb[i-8] + g * scf[i];
 271              		.loc 1 598 0 discriminator 3
 272 0078 F1EC017A 		vldmia.32	r1!, {s15}
 273 007c D3ED006A 		vldr.32	s13, [r3]
 274 0080 E7EE267A 		vfma.f32	s15, s14, s13
 275 0084 E3EC017A 		vstmia.32	r3!, {s15}
 276              	.LVL28:
 597:..\..\..\liblc3\src/sns.c ****         scf[i] = hfcb[i-8] + g * scf[i];
 277              		.loc 1 597 0 discriminator 3
 278 0088 9C42     		cmp	r4, r3
 279 008a F5D1     		bne	.L16
 280              	.LBE30:
 599:..\..\..\liblc3\src/sns.c **** }
 281              		.loc 1 599 0
 282 008c BDE8F083 		pop	{r4, r5, r6, r7, r8, r9, pc}
 283              	.LVL29:
 284              	.L22:
 285              		.align	2
 286              	.L21:
 287 0090 00000000 		.word	lc3_sns_lfcb
ARM GAS  C:\Users\rdn\AppData\Local\Temp\cc92LAgm.s 			page 17


 288 0094 00000000 		.word	lc3_sns_hfcb
 289 0098 00000000 		.word	lc3_sns_vq_gains
 290 009c 00000000 		.word	.LANCHOR0
 291              		.cfi_endproc
 292              	.LFE27:
 293              		.size	unquantize, .-unquantize
 294              		.section	.text.enum_mvpq,"ax",%progbits
 295              		.align	1
 296              		.thumb
 297              		.thumb_func
 298              		.type	enum_mvpq, %function
 299              	enum_mvpq:
 300              	.LFB28:
 600:..\..\..\liblc3\src/sns.c **** 
 601:..\..\..\liblc3\src/sns.c **** /**
 602:..\..\..\liblc3\src/sns.c ****  * Sub-procedure of `sns_enumerate()`, enumeration of a vector
 603:..\..\..\liblc3\src/sns.c ****  * c, n            Table of pulse configuration, and length
 604:..\..\..\liblc3\src/sns.c ****  * idx, ls         Return enumeration set
 605:..\..\..\liblc3\src/sns.c ****  */
 606:..\..\..\liblc3\src/sns.c **** static void enum_mvpq(const int *c, int n, int *idx, bool *ls)
 607:..\..\..\liblc3\src/sns.c **** {
 301              		.loc 1 607 0
 302              		.cfi_startproc
 303              		@ args = 0, pretend = 0, frame = 0
 304              		@ frame_needed = 0, uses_anonymous_args = 0
 305              	.LVL30:
 306 0000 2DE9F043 		push	{r4, r5, r6, r7, r8, r9, lr}
 307              		.cfi_def_cfa_offset 28
 308              		.cfi_offset 4, -28
 309              		.cfi_offset 5, -24
 310              		.cfi_offset 6, -20
 311              		.cfi_offset 7, -16
 312              		.cfi_offset 8, -12
 313              		.cfi_offset 9, -8
 314              		.cfi_offset 14, -4
 608:..\..\..\liblc3\src/sns.c ****     int ci, i;
 609:..\..\..\liblc3\src/sns.c **** 
 610:..\..\..\liblc3\src/sns.c ****     /* --- Scan for 1st significant coeff --- */
 611:..\..\..\liblc3\src/sns.c **** 
 612:..\..\..\liblc3\src/sns.c ****     for (i = 0, c += n; (ci = *(--c)) == 0 && i < 15; i++);
 315              		.loc 1 612 0
 316 0004 00EB8100 		add	r0, r0, r1, lsl #2
 317              	.LVL31:
 318 0008 0026     		movs	r6, #0
 319              	.LVL32:
 320              	.L24:
 321              		.loc 1 612 0 is_stmt 0 discriminator 1
 322 000a 50F8047D 		ldr	r7, [r0, #-4]!
 323              	.LVL33:
 324 000e 741C     		adds	r4, r6, #1
 325 0010 1FB9     		cbnz	r7, .L25
 326              		.loc 1 612 0 discriminator 3
 327 0012 0F2E     		cmp	r6, #15
 328 0014 01D0     		beq	.L25
 329              		.loc 1 612 0 discriminator 4
 330 0016 2646     		mov	r6, r4
 331              	.LVL34:
ARM GAS  C:\Users\rdn\AppData\Local\Temp\cc92LAgm.s 			page 18


 332 0018 F7E7     		b	.L24
 333              	.LVL35:
 334              	.L25:
 613:..\..\..\liblc3\src/sns.c **** 
 614:..\..\..\liblc3\src/sns.c ****     *idx = 0;
 335              		.loc 1 614 0 is_stmt 1
 336 001a 0026     		movs	r6, #0
 337              	.LVL36:
 338 001c 1660     		str	r6, [r2]
 615:..\..\..\liblc3\src/sns.c ****     *ls = ci < 0;
 616:..\..\..\liblc3\src/sns.c **** 
 617:..\..\..\liblc3\src/sns.c ****     /* --- Scan remaining coefficients --- */
 618:..\..\..\liblc3\src/sns.c **** 
 619:..\..\..\liblc3\src/sns.c ****     unsigned j = LC3_ABS(ci);
 339              		.loc 1 619 0
 340 001e 87EAE775 		eor	r5, r7, r7, asr #31
 615:..\..\..\liblc3\src/sns.c ****     *ls = ci < 0;
 341              		.loc 1 615 0
 342 0022 FE0F     		lsrs	r6, r7, #31
 620:..\..\..\liblc3\src/sns.c **** 
 621:..\..\..\liblc3\src/sns.c ****     for (i++; i < n; i++, j += LC3_ABS(ci)) {
 622:..\..\..\liblc3\src/sns.c **** 
 623:..\..\..\liblc3\src/sns.c ****         if ((ci = *(--c)) != 0) {
 624:..\..\..\liblc3\src/sns.c ****             *idx = (*idx << 1) | *ls;
 625:..\..\..\liblc3\src/sns.c ****             *ls = ci < 0;
 626:..\..\..\liblc3\src/sns.c ****         }
 627:..\..\..\liblc3\src/sns.c **** 
 628:..\..\..\liblc3\src/sns.c ****         *idx += lc3_sns_mpvq_offsets[i][LC3_MIN(j, 10)];
 343              		.loc 1 628 0
 344 0024 DFF854E0 		ldr	lr, .L34
 615:..\..\..\liblc3\src/sns.c ****     *ls = ci < 0;
 345              		.loc 1 615 0
 346 0028 1E70     		strb	r6, [r3]
 619:..\..\..\liblc3\src/sns.c **** 
 347              		.loc 1 619 0
 348 002a A5EBE775 		sub	r5, r5, r7, asr #31
 349              	.LVL37:
 350              		.loc 1 628 0
 351 002e 4FF00B0C 		mov	ip, #11
 352              	.LVL38:
 353              	.L27:
 621:..\..\..\liblc3\src/sns.c **** 
 354              		.loc 1 621 0 discriminator 1
 355 0032 8C42     		cmp	r4, r1
 356 0034 1FDA     		bge	.L33
 623:..\..\..\liblc3\src/sns.c ****             *idx = (*idx << 1) | *ls;
 357              		.loc 1 623 0
 358 0036 50F8049D 		ldr	r9, [r0, #-4]!
 359              	.LVL39:
 360 003a B9F1000F 		cmp	r9, #0
 361 003e 08D0     		beq	.L28
 624:..\..\..\liblc3\src/sns.c ****             *ls = ci < 0;
 362              		.loc 1 624 0
 363 0040 1768     		ldr	r7, [r2]
 364 0042 93F80080 		ldrb	r8, [r3]	@ zero_extendqisi2
 365 0046 48EA4707 		orr	r7, r8, r7, lsl #1
 366 004a 1760     		str	r7, [r2]
ARM GAS  C:\Users\rdn\AppData\Local\Temp\cc92LAgm.s 			page 19


 625:..\..\..\liblc3\src/sns.c ****         }
 367              		.loc 1 625 0
 368 004c 4FEAD977 		lsr	r7, r9, #31
 369 0050 1F70     		strb	r7, [r3]
 370              	.L28:
 371              		.loc 1 628 0 discriminator 2
 372 0052 0CFB04F7 		mul	r7, ip, r4
 373 0056 0A2D     		cmp	r5, #10
 374 0058 94BF     		ite	ls
 375 005a 7F19     		addls	r7, r7, r5
 376 005c 0A37     		addhi	r7, r7, #10
 377 005e 1668     		ldr	r6, [r2]
 378 0060 5EF82770 		ldr	r7, [lr, r7, lsl #2]
 379 0064 3744     		add	r7, r7, r6
 621:..\..\..\liblc3\src/sns.c **** 
 380              		.loc 1 621 0 discriminator 2
 381 0066 89EAE976 		eor	r6, r9, r9, asr #31
 382 006a A6EBE976 		sub	r6, r6, r9, asr #31
 383              		.loc 1 628 0 discriminator 2
 384 006e 1760     		str	r7, [r2]
 621:..\..\..\liblc3\src/sns.c **** 
 385              		.loc 1 621 0 discriminator 2
 386 0070 0134     		adds	r4, r4, #1
 387              	.LVL40:
 388 0072 3544     		add	r5, r5, r6
 389              	.LVL41:
 390 0074 DDE7     		b	.L27
 391              	.LVL42:
 392              	.L33:
 629:..\..\..\liblc3\src/sns.c ****     }
 630:..\..\..\liblc3\src/sns.c **** }
 393              		.loc 1 630 0
 394 0076 BDE8F083 		pop	{r4, r5, r6, r7, r8, r9, pc}
 395              	.LVL43:
 396              	.L35:
 397 007a 00BF     		.align	2
 398              	.L34:
 399 007c 00000000 		.word	lc3_sns_mpvq_offsets
 400              		.cfi_endproc
 401              	.LFE28:
 402              		.size	enum_mvpq, .-enum_mvpq
 403              		.section	.text.deenum_mvpq,"ax",%progbits
 404              		.align	1
 405              		.thumb
 406              		.thumb_func
 407              		.type	deenum_mvpq, %function
 408              	deenum_mvpq:
 409              	.LFB29:
 631:..\..\..\liblc3\src/sns.c **** 
 632:..\..\..\liblc3\src/sns.c **** /**
 633:..\..\..\liblc3\src/sns.c ****  * Sub-procedure of `sns_deenumerate()`, deenumeration of a vector
 634:..\..\..\liblc3\src/sns.c ****  * idx, ls         Enumeration set
 635:..\..\..\liblc3\src/sns.c ****  * npulses         Number of pulses in the set
 636:..\..\..\liblc3\src/sns.c ****  * c, n            Table of pulses configuration, and length
 637:..\..\..\liblc3\src/sns.c ****  */
 638:..\..\..\liblc3\src/sns.c **** static void deenum_mvpq(int idx, bool ls, int npulses, int *c, int n)
 639:..\..\..\liblc3\src/sns.c **** {
ARM GAS  C:\Users\rdn\AppData\Local\Temp\cc92LAgm.s 			page 20


 410              		.loc 1 639 0
 411              		.cfi_startproc
 412              		@ args = 4, pretend = 0, frame = 0
 413              		@ frame_needed = 0, uses_anonymous_args = 0
 414              	.LVL44:
 415 0000 F0B5     		push	{r4, r5, r6, r7, lr}
 416              		.cfi_def_cfa_offset 20
 417              		.cfi_offset 4, -20
 418              		.cfi_offset 5, -16
 419              		.cfi_offset 6, -12
 420              		.cfi_offset 7, -8
 421              		.cfi_offset 14, -4
 640:..\..\..\liblc3\src/sns.c ****     int i;
 641:..\..\..\liblc3\src/sns.c **** 
 642:..\..\..\liblc3\src/sns.c ****     /* --- Scan for coefficients --- */
 643:..\..\..\liblc3\src/sns.c **** 
 644:..\..\..\liblc3\src/sns.c ****     for (i = n-1; i >= 0 && idx; i--) {
 422              		.loc 1 644 0
 423 0002 059C     		ldr	r4, [sp, #20]
 424 0004 1A4E     		ldr	r6, .L59
 425 0006 013C     		subs	r4, r4, #1
 426              	.LVL45:
 427 0008 2C25     		movs	r5, #44
 428 000a 05FB0466 		mla	r6, r5, r4, r6
 429              	.LVL46:
 430              	.L37:
 431              		.loc 1 644 0 is_stmt 0 discriminator 1
 432 000e 002C     		cmp	r4, #0
 433 0010 1D46     		mov	r5, r3
 434              	.LVL47:
 435 0012 04DA     		bge	.L41
 436              	.L44:
 437              	.LVL48:
 645:..\..\..\liblc3\src/sns.c **** 
 646:..\..\..\liblc3\src/sns.c ****         int ci = 0;
 647:..\..\..\liblc3\src/sns.c **** 
 648:..\..\..\liblc3\src/sns.c ****         for (ci = 0; idx < lc3_sns_mpvq_offsets[i][npulses - ci]; ci++);
 649:..\..\..\liblc3\src/sns.c ****         idx -= lc3_sns_mpvq_offsets[i][npulses - ci];
 650:..\..\..\liblc3\src/sns.c **** 
 651:..\..\..\liblc3\src/sns.c ****         *(c++) = ls ? -ci : ci;
 652:..\..\..\liblc3\src/sns.c ****         npulses -= ci;
 653:..\..\..\liblc3\src/sns.c ****         if (ci > 0) {
 654:..\..\..\liblc3\src/sns.c ****             ls = idx & 1;
 655:..\..\..\liblc3\src/sns.c ****             idx >>= 1;
 656:..\..\..\liblc3\src/sns.c ****         }
 657:..\..\..\liblc3\src/sns.c ****     }
 658:..\..\..\liblc3\src/sns.c **** 
 659:..\..\..\liblc3\src/sns.c ****     /* --- Set last significant --- */
 660:..\..\..\liblc3\src/sns.c **** 
 661:..\..\..\liblc3\src/sns.c ****     int ci = npulses;
 662:..\..\..\liblc3\src/sns.c **** 
 663:..\..\..\liblc3\src/sns.c ****     if (i-- >= 0)
 438              		.loc 1 663 0 is_stmt 1
 439 0014 002C     		cmp	r4, #0
 440 0016 04F1FF30 		add	r0, r4, #-1
 441              	.LVL49:
 442 001a 1BDA     		bge	.L42
ARM GAS  C:\Users\rdn\AppData\Local\Temp\cc92LAgm.s 			page 21


 443 001c 1EE0     		b	.L43
 444              	.LVL50:
 445              	.L41:
 644:..\..\..\liblc3\src/sns.c **** 
 446              		.loc 1 644 0 discriminator 3
 447 001e 0028     		cmp	r0, #0
 448 0020 F8D0     		beq	.L44
 449 0022 1746     		mov	r7, r2
 644:..\..\..\liblc3\src/sns.c **** 
 450              		.loc 1 644 0 is_stmt 0
 451 0024 0025     		movs	r5, #0
 452              	.LVL51:
 453              	.L45:
 454              	.LBB31:
 648:..\..\..\liblc3\src/sns.c ****         idx -= lc3_sns_mpvq_offsets[i][npulses - ci];
 455              		.loc 1 648 0 is_stmt 1 discriminator 1
 456 0026 3A46     		mov	r2, r7
 457 0028 013F     		subs	r7, r7, #1
 458 002a 56F822E0 		ldr	lr, [r6, r2, lsl #2]
 459 002e 7045     		cmp	r0, lr
 460 0030 01DA     		bge	.L57
 648:..\..\..\liblc3\src/sns.c ****         idx -= lc3_sns_mpvq_offsets[i][npulses - ci];
 461              		.loc 1 648 0 is_stmt 0 discriminator 3
 462 0032 0135     		adds	r5, r5, #1
 463              	.LVL52:
 464 0034 F7E7     		b	.L45
 465              	.L57:
 649:..\..\..\liblc3\src/sns.c **** 
 466              		.loc 1 649 0 is_stmt 1
 467 0036 CEEB0000 		rsb	r0, lr, r0
 468              	.LVL53:
 651:..\..\..\liblc3\src/sns.c ****         npulses -= ci;
 469              		.loc 1 651 0
 470 003a 09B1     		cbz	r1, .L49
 651:..\..\..\liblc3\src/sns.c ****         npulses -= ci;
 471              		.loc 1 651 0 is_stmt 0 discriminator 1
 472 003c 6F42     		negs	r7, r5
 473 003e 00E0     		b	.L39
 474              	.L49:
 475 0040 2F46     		mov	r7, r5
 476              	.L39:
 651:..\..\..\liblc3\src/sns.c ****         npulses -= ci;
 477              		.loc 1 651 0 discriminator 4
 478 0042 43F8047B 		str	r7, [r3], #4
 479              	.LVL54:
 653:..\..\..\liblc3\src/sns.c ****             ls = idx & 1;
 480              		.loc 1 653 0 is_stmt 1 discriminator 4
 481 0046 15B1     		cbz	r5, .L40
 654:..\..\..\liblc3\src/sns.c ****             idx >>= 1;
 482              		.loc 1 654 0
 483 0048 00F00101 		and	r1, r0, #1
 484              	.LVL55:
 655:..\..\..\liblc3\src/sns.c ****         }
 485              		.loc 1 655 0
 486 004c 4010     		asrs	r0, r0, #1
 487              	.LVL56:
 488              	.L40:
ARM GAS  C:\Users\rdn\AppData\Local\Temp\cc92LAgm.s 			page 22


 489              	.LBE31:
 644:..\..\..\liblc3\src/sns.c **** 
 490              		.loc 1 644 0 discriminator 2
 491 004e 013C     		subs	r4, r4, #1
 492              	.LVL57:
 493 0050 2C3E     		subs	r6, r6, #44
 494 0052 DCE7     		b	.L37
 495              	.LVL58:
 496              	.L42:
 664:..\..\..\liblc3\src/sns.c ****         *(c++) = ls ? -ci : ci;
 497              		.loc 1 664 0
 498 0054 1D1D     		adds	r5, r3, #4
 499              	.LVL59:
 500 0056 01B1     		cbz	r1, .L46
 501              		.loc 1 664 0 is_stmt 0 discriminator 1
 502 0058 5242     		negs	r2, r2
 503              	.LVL60:
 504              	.L46:
 505              		.loc 1 664 0 discriminator 4
 506 005a 1A60     		str	r2, [r3]
 507              	.L43:
 508 005c 0346     		mov	r3, r0
 665:..\..\..\liblc3\src/sns.c **** 
 666:..\..\..\liblc3\src/sns.c ****     while (i-- >= 0)
 667:..\..\..\liblc3\src/sns.c ****         *(c++) = 0;
 509              		.loc 1 667 0 is_stmt 1
 510 005e 0022     		movs	r2, #0
 511              	.LVL61:
 512              	.L47:
 666:..\..\..\liblc3\src/sns.c ****         *(c++) = 0;
 513              		.loc 1 666 0
 514 0060 002B     		cmp	r3, #0
 515 0062 03DB     		blt	.L58
 516              		.loc 1 667 0
 517 0064 45F8042B 		str	r2, [r5], #4
 518              	.LVL62:
 519 0068 013B     		subs	r3, r3, #1
 520              	.LVL63:
 521 006a F9E7     		b	.L47
 522              	.LVL64:
 523              	.L58:
 668:..\..\..\liblc3\src/sns.c **** }
 524              		.loc 1 668 0
 525 006c F0BD     		pop	{r4, r5, r6, r7, pc}
 526              	.LVL65:
 527              	.L60:
 528 006e 00BF     		.align	2
 529              	.L59:
 530 0070 00000000 		.word	lc3_sns_mpvq_offsets
 531              		.cfi_endproc
 532              	.LFE29:
 533              		.size	deenum_mvpq, .-deenum_mvpq
 534              		.section	.text.normalize,"ax",%progbits
 535              		.align	1
 536              		.thumb
 537              		.thumb_func
 538              		.type	normalize, %function
ARM GAS  C:\Users\rdn\AppData\Local\Temp\cc92LAgm.s 			page 23


 539              	normalize:
 540              	.LFB24:
 418:..\..\..\liblc3\src/sns.c ****     int c2_sum = 0;
 541              		.loc 1 418 0
 542              		.cfi_startproc
 543              		@ args = 0, pretend = 0, frame = 0
 544              		@ frame_needed = 0, uses_anonymous_args = 0
 545              	.LVL66:
 546 0000 38B5     		push	{r3, r4, r5, lr}
 547              		.cfi_def_cfa_offset 16
 548              		.cfi_offset 3, -16
 549              		.cfi_offset 4, -12
 550              		.cfi_offset 5, -8
 551              		.cfi_offset 14, -4
 552 0002 051F     		subs	r5, r0, #4
 418:..\..\..\liblc3\src/sns.c ****     int c2_sum = 0;
 553              		.loc 1 418 0
 554 0004 0C46     		mov	r4, r1
 555 0006 3C30     		adds	r0, r0, #60
 556              	.LVL67:
 557 0008 2A46     		mov	r2, r5
 419:..\..\..\liblc3\src/sns.c ****     for (int i = 0; i < 16; i++)
 558              		.loc 1 419 0
 559 000a 0023     		movs	r3, #0
 560              	.LVL68:
 561              	.L62:
 562              	.LBB32:
 421:..\..\..\liblc3\src/sns.c **** 
 563              		.loc 1 421 0 discriminator 3
 564 000c 52F8041F 		ldr	r1, [r2, #4]!
 420:..\..\..\liblc3\src/sns.c ****         c2_sum += c[i] * c[i];
 565              		.loc 1 420 0 discriminator 3
 566 0010 8242     		cmp	r2, r0
 421:..\..\..\liblc3\src/sns.c **** 
 567              		.loc 1 421 0 discriminator 3
 568 0012 01FB0133 		mla	r3, r1, r1, r3
 569              	.LVL69:
 420:..\..\..\liblc3\src/sns.c ****         c2_sum += c[i] * c[i];
 570              		.loc 1 420 0 discriminator 3
 571 0016 F9D1     		bne	.L62
 572              	.LBE32:
 423:..\..\..\liblc3\src/sns.c **** 
 573              		.loc 1 423 0
 574 0018 07EE903A 		vmov	s15, r3	@ int
 575 001c F8EEE77A 		vcvt.f32.s32	s15, s15
 576 0020 17EE900A 		vmov	r0, s15
 577              	.LVL70:
 578 0024 FFF7FEFF 		bl	sqrtf
 579              	.LVL71:
 580 0028 06EE900A 		vmov	s13, r0
 581 002c F7EE007A 		vmov.f32	s15, #1.0e+0
 582 0030 87EEA67A 		vdiv.f32	s14, s15, s13
 583              	.LVL72:
 584 0034 2146     		mov	r1, r4
 585 0036 04F14003 		add	r3, r4, #64
 586              	.LVL73:
 587              	.L63:
ARM GAS  C:\Users\rdn\AppData\Local\Temp\cc92LAgm.s 			page 24


 588              	.LBB33:
 426:..\..\..\liblc3\src/sns.c **** }
 589              		.loc 1 426 0 discriminator 3
 590 003a 55F8042F 		ldr	r2, [r5, #4]!
 591 003e 07EE902A 		vmov	s15, r2	@ int
 592 0042 F8EEE77A 		vcvt.f32.s32	s15, s15
 593 0046 67EE877A 		vmul.f32	s15, s15, s14
 594 004a E1EC017A 		vstmia.32	r1!, {s15}
 425:..\..\..\liblc3\src/sns.c ****         cn[i] = c[i] * c_norm;
 595              		.loc 1 425 0 discriminator 3
 596 004e 8B42     		cmp	r3, r1
 597 0050 F3D1     		bne	.L63
 598              	.LBE33:
 427:..\..\..\liblc3\src/sns.c **** 
 599              		.loc 1 427 0
 600 0052 38BD     		pop	{r3, r4, r5, pc}
 601              		.cfi_endproc
 602              	.LFE24:
 603              		.size	normalize, .-normalize
 604              		.section	.text.spectral_shaping,"ax",%progbits
 605              		.align	1
 606              		.thumb
 607              		.thumb_func
 608              		.type	spectral_shaping, %function
 609              	spectral_shaping:
 610              	.LFB32:
 669:..\..\..\liblc3\src/sns.c **** 
 670:..\..\..\liblc3\src/sns.c **** /**
 671:..\..\..\liblc3\src/sns.c ****  * SNS Enumeration of PVQ configuration
 672:..\..\..\liblc3\src/sns.c ****  * shape           Selected shape index
 673:..\..\..\liblc3\src/sns.c ****  * c               Selected pulse configuration
 674:..\..\..\liblc3\src/sns.c ****  * idx_a, ls_a     Return enumeration set A
 675:..\..\..\liblc3\src/sns.c ****  * idx_b, ls_b     Return enumeration set B (shape = 0)
 676:..\..\..\liblc3\src/sns.c ****  */
 677:..\..\..\liblc3\src/sns.c **** static void enumerate(int shape, const int *c,
 678:..\..\..\liblc3\src/sns.c ****     int *idx_a, bool *ls_a, int *idx_b, bool *ls_b)
 679:..\..\..\liblc3\src/sns.c **** {
 680:..\..\..\liblc3\src/sns.c ****     enum_mvpq(c, shape < 2 ? 10 : 16, idx_a, ls_a);
 681:..\..\..\liblc3\src/sns.c **** 
 682:..\..\..\liblc3\src/sns.c ****     if (shape == 0)
 683:..\..\..\liblc3\src/sns.c ****         enum_mvpq(c + 10, 6, idx_b, ls_b);
 684:..\..\..\liblc3\src/sns.c **** }
 685:..\..\..\liblc3\src/sns.c **** 
 686:..\..\..\liblc3\src/sns.c **** /**
 687:..\..\..\liblc3\src/sns.c ****  * SNS Deenumeration of PVQ configuration
 688:..\..\..\liblc3\src/sns.c ****  * shape           Selected shape index
 689:..\..\..\liblc3\src/sns.c ****  * idx_a, ls_a     enumeration set A
 690:..\..\..\liblc3\src/sns.c ****  * idx_b, ls_b     enumeration set B (shape = 0)
 691:..\..\..\liblc3\src/sns.c ****  * c               Return pulse configuration
 692:..\..\..\liblc3\src/sns.c ****  */
 693:..\..\..\liblc3\src/sns.c **** static void deenumerate(int shape,
 694:..\..\..\liblc3\src/sns.c ****     int idx_a, bool ls_a, int idx_b, bool ls_b, int *c)
 695:..\..\..\liblc3\src/sns.c **** {
 696:..\..\..\liblc3\src/sns.c ****     int npulses_a = (const int []){ 10, 10, 8, 6 }[shape];
 697:..\..\..\liblc3\src/sns.c **** 
 698:..\..\..\liblc3\src/sns.c ****     deenum_mvpq(idx_a, ls_a, npulses_a, c, shape < 2 ? 10 : 16);
 699:..\..\..\liblc3\src/sns.c **** 
ARM GAS  C:\Users\rdn\AppData\Local\Temp\cc92LAgm.s 			page 25


 700:..\..\..\liblc3\src/sns.c ****     if (shape == 0)
 701:..\..\..\liblc3\src/sns.c ****         deenum_mvpq(idx_b, ls_b, 1, c + 10, 6);
 702:..\..\..\liblc3\src/sns.c ****     else if (shape == 1)
 703:..\..\..\liblc3\src/sns.c ****         memset(c + 10, 0, 6 * sizeof(*c));
 704:..\..\..\liblc3\src/sns.c **** }
 705:..\..\..\liblc3\src/sns.c **** 
 706:..\..\..\liblc3\src/sns.c **** 
 707:..\..\..\liblc3\src/sns.c **** /* ----------------------------------------------------------------------------
 708:..\..\..\liblc3\src/sns.c ****  *  Filtering
 709:..\..\..\liblc3\src/sns.c ****  * -------------------------------------------------------------------------- */
 710:..\..\..\liblc3\src/sns.c **** 
 711:..\..\..\liblc3\src/sns.c **** /**
 712:..\..\..\liblc3\src/sns.c ****  * Spectral shaping
 713:..\..\..\liblc3\src/sns.c ****  * dt, sr          Duration and samplerate of the frame
 714:..\..\..\liblc3\src/sns.c ****  * scf_q           Quantized scale factors
 715:..\..\..\liblc3\src/sns.c ****  * inv             True on inverse shaping, False otherwise
 716:..\..\..\liblc3\src/sns.c ****  * x               Spectral coefficients
 717:..\..\..\liblc3\src/sns.c ****  * y               Return shapped coefficients
 718:..\..\..\liblc3\src/sns.c ****  *
 719:..\..\..\liblc3\src/sns.c ****  * `x` and `y` can be the same buffer
 720:..\..\..\liblc3\src/sns.c ****  */
 721:..\..\..\liblc3\src/sns.c **** LC3_HOT static void spectral_shaping(enum lc3_dt dt, enum lc3_srate sr,
 722:..\..\..\liblc3\src/sns.c ****     const float *scf_q, bool inv, const float *x, float *y)
 723:..\..\..\liblc3\src/sns.c **** {
 611              		.loc 1 723 0
 612              		.cfi_startproc
 613              		@ args = 8, pretend = 0, frame = 272
 614              		@ frame_needed = 0, uses_anonymous_args = 0
 615              	.LVL74:
 616 0000 2DE9F047 		push	{r4, r5, r6, r7, r8, r9, r10, lr}
 617              		.cfi_def_cfa_offset 32
 618              		.cfi_offset 4, -32
 619              		.cfi_offset 5, -28
 620              		.cfi_offset 6, -24
 621              		.cfi_offset 7, -20
 622              		.cfi_offset 8, -16
 623              		.cfi_offset 9, -12
 624              		.cfi_offset 10, -8
 625              		.cfi_offset 14, -4
 626 0004 C4B0     		sub	sp, sp, #272
 627              		.cfi_def_cfa_offset 304
 628              		.loc 1 723 0
 629 0006 8946     		mov	r9, r1
 630 0008 4D99     		ldr	r1, [sp, #308]
 631              	.LVL75:
 632 000a 0191     		str	r1, [sp, #4]
 633 000c 8046     		mov	r8, r0
 634 000e D2ED007A 		vldr.32	s15, [r2]
 724:..\..\..\liblc3\src/sns.c ****     /* --- Interpolate scale factors --- */
 725:..\..\..\liblc3\src/sns.c **** 
 726:..\..\..\liblc3\src/sns.c ****     float scf[LC3_MAX_BANDS];
 727:..\..\..\liblc3\src/sns.c ****     float s0, s1 = inv ? -scf_q[0] : scf_q[0];
 635              		.loc 1 727 0
 636 0012 0BB1     		cbz	r3, .L68
 637              		.loc 1 727 0 is_stmt 0 discriminator 1
 638 0014 F1EE677A 		vneg.f32	s15, s15
 639              	.L68:
ARM GAS  C:\Users\rdn\AppData\Local\Temp\cc92LAgm.s 			page 26


 640              	.LVL76:
 641 0018 0DF1100A 		add	r10, sp, #16
 642 001c 101D     		adds	r0, r2, #4
 643              	.LVL77:
 728:..\..\..\liblc3\src/sns.c **** 
 729:..\..\..\liblc3\src/sns.c ****     scf[0] = scf[1] = s1;
 644              		.loc 1 729 0 is_stmt 1 discriminator 4
 645 001e CDED057A 		vstr.32	s15, [sp, #20]
 646 0022 CDED047A 		vstr.32	s15, [sp, #16]
 647              	.LVL78:
 648 0026 4032     		adds	r2, r2, #64
 649              	.LVL79:
 650 0028 5146     		mov	r1, r10
 651              	.LBB41:
 730:..\..\..\liblc3\src/sns.c ****     for (int i = 0; i < 15; i++) {
 731:..\..\..\liblc3\src/sns.c ****         s0 = s1, s1 = inv ? -scf_q[i+1] : scf_q[i+1];
 732:..\..\..\liblc3\src/sns.c ****         scf[4*i+2] = s0 + 0.125f * (s1 - s0);
 652              		.loc 1 732 0 discriminator 4
 653 002a B4EE003A 		vmov.f32	s6, #1.25e-1
 733:..\..\..\liblc3\src/sns.c ****         scf[4*i+3] = s0 + 0.375f * (s1 - s0);
 654              		.loc 1 733 0 discriminator 4
 655 002e F5EE083A 		vmov.f32	s7, #3.75e-1
 734:..\..\..\liblc3\src/sns.c ****         scf[4*i+4] = s0 + 0.625f * (s1 - s0);
 656              		.loc 1 734 0 discriminator 4
 657 0032 B6EE044A 		vmov.f32	s8, #6.25e-1
 735:..\..\..\liblc3\src/sns.c ****         scf[4*i+5] = s0 + 0.875f * (s1 - s0);
 658              		.loc 1 735 0 discriminator 4
 659 0036 B6EE0C5A 		vmov.f32	s10, #8.75e-1
 660              	.LVL80:
 661              	.L71:
 731:..\..\..\liblc3\src/sns.c ****         scf[4*i+2] = s0 + 0.125f * (s1 - s0);
 662              		.loc 1 731 0
 663 003a 90ED007A 		vldr.32	s14, [r0]
 664 003e 0BB1     		cbz	r3, .L70
 731:..\..\..\liblc3\src/sns.c ****         scf[4*i+2] = s0 + 0.125f * (s1 - s0);
 665              		.loc 1 731 0 is_stmt 0 discriminator 1
 666 0040 B1EE477A 		vneg.f32	s14, s14
 667              	.L70:
 668              	.LVL81:
 732:..\..\..\liblc3\src/sns.c ****         scf[4*i+3] = s0 + 0.375f * (s1 - s0);
 669              		.loc 1 732 0 is_stmt 1 discriminator 4
 670 0044 37EE676A 		vsub.f32	s12, s14, s15
 671 0048 0430     		adds	r0, r0, #4
 672 004a 66EE036A 		vmul.f32	s13, s12, s6
 730:..\..\..\liblc3\src/sns.c ****         s0 = s1, s1 = inv ? -scf_q[i+1] : scf_q[i+1];
 673              		.loc 1 730 0 discriminator 4
 674 004e 9042     		cmp	r0, r2
 732:..\..\..\liblc3\src/sns.c ****         scf[4*i+3] = s0 + 0.375f * (s1 - s0);
 675              		.loc 1 732 0 discriminator 4
 676 0050 76EEA75A 		vadd.f32	s11, s13, s15
 677 0054 01F11001 		add	r1, r1, #16
 678 0058 41ED025A 		vstr.32	s11, [r1, #-8]
 733:..\..\..\liblc3\src/sns.c ****         scf[4*i+4] = s0 + 0.625f * (s1 - s0);
 679              		.loc 1 733 0 discriminator 4
 680 005c 66EE235A 		vmul.f32	s11, s12, s7
 681 0060 75EEA74A 		vadd.f32	s9, s11, s15
 682 0064 41ED014A 		vstr.32	s9, [r1, #-4]
ARM GAS  C:\Users\rdn\AppData\Local\Temp\cc92LAgm.s 			page 27


 734:..\..\..\liblc3\src/sns.c ****         scf[4*i+5] = s0 + 0.875f * (s1 - s0);
 683              		.loc 1 734 0 discriminator 4
 684 0068 F0EE674A 		vmov.f32	s9, s15
 685 006c E6EE044A 		vfma.f32	s9, s12, s8
 686              		.loc 1 735 0 discriminator 4
 687 0070 E6EE057A 		vfma.f32	s15, s12, s10
 734:..\..\..\liblc3\src/sns.c ****         scf[4*i+5] = s0 + 0.875f * (s1 - s0);
 688              		.loc 1 734 0 discriminator 4
 689 0074 C1ED004A 		vstr.32	s9, [r1]
 690              		.loc 1 735 0 discriminator 4
 691 0078 C1ED017A 		vstr.32	s15, [r1, #4]
 730:..\..\..\liblc3\src/sns.c ****         s0 = s1, s1 = inv ? -scf_q[i+1] : scf_q[i+1];
 692              		.loc 1 730 0 discriminator 4
 693 007c 02D0     		beq	.L84
 694              	.LVL82:
 695 007e F0EE477A 		vmov.f32	s15, s14
 696 0082 DAE7     		b	.L71
 697              	.LVL83:
 698              	.L84:
 699              	.LBE41:
 736:..\..\..\liblc3\src/sns.c ****     }
 737:..\..\..\liblc3\src/sns.c ****     scf[62] = s1 + 0.125f * (s1 - s0);
 738:..\..\..\liblc3\src/sns.c ****     scf[63] = s1 + 0.375f * (s1 - s0);
 739:..\..\..\liblc3\src/sns.c **** 
 740:..\..\..\liblc3\src/sns.c ****     int nb = lc3_num_bands[dt][sr];
 700              		.loc 1 740 0
 701 0084 4FEAC807 		lsl	r7, r8, #3
 702 0088 C8EB0703 		rsb	r3, r8, r7
 703              	.LVL84:
 704 008c 4B44     		add	r3, r3, r9
 705 008e 604A     		ldr	r2, .L88
 706              	.LVL85:
 707 0090 52F82340 		ldr	r4, [r2, r3, lsl #2]
 708              	.LVL86:
 737:..\..\..\liblc3\src/sns.c ****     scf[63] = s1 + 0.375f * (s1 - s0);
 709              		.loc 1 737 0
 710 0094 77EE266A 		vadd.f32	s13, s14, s13
 738:..\..\..\liblc3\src/sns.c **** 
 711              		.loc 1 738 0
 712 0098 37EE257A 		vadd.f32	s14, s14, s11
 713              	.LVL87:
 741:..\..\..\liblc3\src/sns.c ****     int n4 = nb < 32 ? 32 % nb : 0;
 714              		.loc 1 741 0
 715 009c 1F2C     		cmp	r4, #31
 737:..\..\..\liblc3\src/sns.c ****     scf[63] = s1 + 0.375f * (s1 - s0);
 716              		.loc 1 737 0
 717 009e CDED426A 		vstr.32	s13, [sp, #264]
 738:..\..\..\liblc3\src/sns.c **** 
 718              		.loc 1 738 0
 719 00a2 8DED437A 		vstr.32	s14, [sp, #268]
 720              		.loc 1 741 0
 721 00a6 25DC     		bgt	.L72
 722              		.loc 1 741 0 is_stmt 0 discriminator 1
 723 00a8 2023     		movs	r3, #32
 724 00aa 93FBF4F3 		sdiv	r3, r3, r4
 725 00ae 6343     		muls	r3, r4, r3
 726 00b0 C3F12003 		rsb	r3, r3, #32
ARM GAS  C:\Users\rdn\AppData\Local\Temp\cc92LAgm.s 			page 28


 727              	.LVL88:
 728 00b4 04A9     		add	r1, sp, #16
 729 00b6 01EB0311 		add	r1, r1, r3, lsl #4
 742:..\..\..\liblc3\src/sns.c ****     int n2 = nb < 32 ? nb - n4 : LC3_MAX_BANDS - nb;
 730              		.loc 1 742 0 is_stmt 1 discriminator 1
 731 00ba E01A     		subs	r0, r4, r3
 732              	.LVL89:
 733 00bc 05AA     		add	r2, sp, #20
 734 00be 1431     		adds	r1, r1, #20
 735              	.LBB42:
 743:..\..\..\liblc3\src/sns.c **** 
 744:..\..\..\liblc3\src/sns.c ****     for (int i4 = 0; i4 < n4; i4++)
 736              		.loc 1 744 0 discriminator 1
 737 00c0 0DF1100E 		add	lr, sp, #16
 745:..\..\..\liblc3\src/sns.c ****         scf[i4] = 0.25f * (scf[4*i4+0] + scf[4*i4+1] +
 738              		.loc 1 745 0 discriminator 1
 739 00c4 B5EE007A 		vmov.f32	s14, #2.5e-1
 740              	.LVL90:
 741              	.L73:
 742 00c8 1032     		adds	r2, r2, #16
 744:..\..\..\liblc3\src/sns.c ****         scf[i4] = 0.25f * (scf[4*i4+0] + scf[4*i4+1] +
 743              		.loc 1 744 0 discriminator 1
 744 00ca 8A42     		cmp	r2, r1
 745 00cc 15D0     		beq	.L81
 746              		.loc 1 745 0 discriminator 3
 747 00ce 52ED046A 		vldr.32	s13, [r2, #-16]
 748 00d2 52ED057A 		vldr.32	s15, [r2, #-20]
 749 00d6 77EEA67A 		vadd.f32	s15, s15, s13
 750 00da 52ED036A 		vldr.32	s13, [r2, #-12]
 751 00de 77EEA67A 		vadd.f32	s15, s15, s13
 752 00e2 52ED026A 		vldr.32	s13, [r2, #-8]
 753 00e6 77EEA67A 		vadd.f32	s15, s15, s13
 754 00ea 67EE877A 		vmul.f32	s15, s15, s14
 755 00ee EEEC017A 		vstmia.32	lr!, {s15}
 756 00f2 E9E7     		b	.L73
 757              	.LVL91:
 758              	.L72:
 759              	.LBE42:
 742:..\..\..\liblc3\src/sns.c **** 
 760              		.loc 1 742 0
 761 00f4 C4F14000 		rsb	r0, r4, #64
 762              	.LVL92:
 741:..\..\..\liblc3\src/sns.c ****     int n2 = nb < 32 ? nb - n4 : LC3_MAX_BANDS - nb;
 763              		.loc 1 741 0
 764 00f8 0023     		movs	r3, #0
 765              	.LVL93:
 766              	.L81:
 767 00fa 04AA     		add	r2, sp, #16
 768 00fc 04A9     		add	r1, sp, #16
 769 00fe 02EB0312 		add	r2, r2, r3, lsl #4
 770 0102 01EB830E 		add	lr, r1, r3, lsl #2
 771 0106 0432     		adds	r2, r2, #4
 741:..\..\..\liblc3\src/sns.c ****     int n2 = nb < 32 ? nb - n4 : LC3_MAX_BANDS - nb;
 772              		.loc 1 741 0 is_stmt 0 discriminator 1
 773 0108 1946     		mov	r1, r3
 774              	.LBB43:
 746:..\..\..\liblc3\src/sns.c ****                            scf[4*i4+2] + scf[4*i4+3]);
ARM GAS  C:\Users\rdn\AppData\Local\Temp\cc92LAgm.s 			page 29


 747:..\..\..\liblc3\src/sns.c **** 
 748:..\..\..\liblc3\src/sns.c ****     for (int i2 = n4; i2 < n4+n2; i2++)
 775              		.loc 1 748 0 is_stmt 1 discriminator 1
 776 010a 03EB000C 		add	ip, r3, r0
 749:..\..\..\liblc3\src/sns.c ****         scf[i2] = 0.5f * (scf[2*(n4+i2)] + scf[2*(n4+i2)+1]);
 777              		.loc 1 749 0 discriminator 1
 778 010e B6EE007A 		vmov.f32	s14, #5.0e-1
 779              	.L75:
 780              	.LVL94:
 748:..\..\..\liblc3\src/sns.c ****         scf[i2] = 0.5f * (scf[2*(n4+i2)] + scf[2*(n4+i2)+1]);
 781              		.loc 1 748 0 discriminator 1
 782 0112 6145     		cmp	r1, ip
 783 0114 02F10802 		add	r2, r2, #8
 784 0118 0BDA     		bge	.L85
 785              		.loc 1 749 0 discriminator 3
 786 011a 52ED037A 		vldr.32	s15, [r2, #-12]
 787 011e 52ED026A 		vldr.32	s13, [r2, #-8]
 788 0122 77EEA67A 		vadd.f32	s15, s15, s13
 748:..\..\..\liblc3\src/sns.c ****         scf[i2] = 0.5f * (scf[2*(n4+i2)] + scf[2*(n4+i2)+1]);
 789              		.loc 1 748 0 discriminator 3
 790 0126 0131     		adds	r1, r1, #1
 791              	.LVL95:
 792              		.loc 1 749 0 discriminator 3
 793 0128 67EE877A 		vmul.f32	s15, s15, s14
 794 012c EEEC017A 		vstmia.32	lr!, {s15}
 795 0130 EFE7     		b	.L75
 796              	.L85:
 797              	.LBE43:
 750:..\..\..\liblc3\src/sns.c **** 
 751:..\..\..\liblc3\src/sns.c ****     memmove(scf + n4 + n2, scf + 4*n4 + 2*n2, (nb - n4 - n2) * sizeof(float));
 798              		.loc 1 751 0
 799 0132 E21A     		subs	r2, r4, r3
 800 0134 4100     		lsls	r1, r0, #1
 801              	.LVL96:
 802 0136 121A     		subs	r2, r2, r0
 803 0138 01EB8301 		add	r1, r1, r3, lsl #2
 804 013c 1844     		add	r0, r0, r3
 805              	.LVL97:
 806 013e 04AB     		add	r3, sp, #16
 807 0140 03EB8101 		add	r1, r3, r1, lsl #2
 808 0144 9200     		lsls	r2, r2, #2
 809 0146 03EB8000 		add	r0, r3, r0, lsl #2
 752:..\..\..\liblc3\src/sns.c **** 
 753:..\..\..\liblc3\src/sns.c ****     /* --- Spectral shaping --- */
 754:..\..\..\liblc3\src/sns.c **** 
 755:..\..\..\liblc3\src/sns.c ****     const int *lim = lc3_band_lim[dt][sr];
 810              		.loc 1 755 0
 811 014a C8EB0707 		rsb	r7, r8, r7
 751:..\..\..\liblc3\src/sns.c **** 
 812              		.loc 1 751 0
 813 014e FFF7FEFF 		bl	memmove
 814              	.LVL98:
 815              		.loc 1 755 0
 816 0152 B944     		add	r9, r9, r7
 817              	.LVL99:
 818 0154 2F4B     		ldr	r3, .L88+4
 819              	.LBB44:
ARM GAS  C:\Users\rdn\AppData\Local\Temp\cc92LAgm.s 			page 30


 820              	.LBB45:
 821              	.LBB46:
 822              	.LBB47:
 823              		.file 2 "..\\..\\..\\liblc3\\src\\fastmath.h"
   1:..\..\..\liblc3\src/fastmath.h **** /******************************************************************************
   2:..\..\..\liblc3\src/fastmath.h ****  *
   3:..\..\..\liblc3\src/fastmath.h ****  *  Copyright 2022 Google LLC
   4:..\..\..\liblc3\src/fastmath.h ****  *
   5:..\..\..\liblc3\src/fastmath.h ****  *  Licensed under the Apache License, Version 2.0 (the "License");
   6:..\..\..\liblc3\src/fastmath.h ****  *  you may not use this file except in compliance with the License.
   7:..\..\..\liblc3\src/fastmath.h ****  *  You may obtain a copy of the License at:
   8:..\..\..\liblc3\src/fastmath.h ****  *
   9:..\..\..\liblc3\src/fastmath.h ****  *  http://www.apache.org/licenses/LICENSE-2.0
  10:..\..\..\liblc3\src/fastmath.h ****  *
  11:..\..\..\liblc3\src/fastmath.h ****  *  Unless required by applicable law or agreed to in writing, software
  12:..\..\..\liblc3\src/fastmath.h ****  *  distributed under the License is distributed on an "AS IS" BASIS,
  13:..\..\..\liblc3\src/fastmath.h ****  *  WITHOUT WARRANTIES OR CONDITIONS OF ANY KIND, either express or implied.
  14:..\..\..\liblc3\src/fastmath.h ****  *  See the License for the specific language governing permissions and
  15:..\..\..\liblc3\src/fastmath.h ****  *  limitations under the License.
  16:..\..\..\liblc3\src/fastmath.h ****  *
  17:..\..\..\liblc3\src/fastmath.h ****  ******************************************************************************/
  18:..\..\..\liblc3\src/fastmath.h **** 
  19:..\..\..\liblc3\src/fastmath.h **** #ifndef __LC3_FASTMATH_H
  20:..\..\..\liblc3\src/fastmath.h **** #define __LC3_FASTMATH_H
  21:..\..\..\liblc3\src/fastmath.h **** 
  22:..\..\..\liblc3\src/fastmath.h **** #include <stdint.h>
  23:..\..\..\liblc3\src/fastmath.h **** #include <math.h>
  24:..\..\..\liblc3\src/fastmath.h **** 
  25:..\..\..\liblc3\src/fastmath.h **** 
  26:..\..\..\liblc3\src/fastmath.h **** /**
  27:..\..\..\liblc3\src/fastmath.h ****  * IEEE 754 Floating point representation
  28:..\..\..\liblc3\src/fastmath.h ****  */
  29:..\..\..\liblc3\src/fastmath.h **** 
  30:..\..\..\liblc3\src/fastmath.h **** #define LC3_IEEE754_SIGN_SHL   (31)
  31:..\..\..\liblc3\src/fastmath.h **** #define LC3_IEEE754_SIGN_MASK  (1 << LC3_IEEE754_SIGN_SHL)
  32:..\..\..\liblc3\src/fastmath.h **** 
  33:..\..\..\liblc3\src/fastmath.h **** #define LC3_IEEE754_EXP_SHL    (23)
  34:..\..\..\liblc3\src/fastmath.h **** #define LC3_IEEE754_EXP_MASK   (0xff << LC3_IEEE754_EXP_SHL)
  35:..\..\..\liblc3\src/fastmath.h **** #define LC3_IEEE754_EXP_BIAS   (127)
  36:..\..\..\liblc3\src/fastmath.h **** 
  37:..\..\..\liblc3\src/fastmath.h **** 
  38:..\..\..\liblc3\src/fastmath.h **** /**
  39:..\..\..\liblc3\src/fastmath.h ****  * Fast multiply floating-point number by integral power of 2
  40:..\..\..\liblc3\src/fastmath.h ****  * x               Operand, finite number
  41:..\..\..\liblc3\src/fastmath.h ****  * exp             Exponent such that 2^x is finite
  42:..\..\..\liblc3\src/fastmath.h ****  * return          2^exp
  43:..\..\..\liblc3\src/fastmath.h ****  */
  44:..\..\..\liblc3\src/fastmath.h **** static inline float lc3_ldexpf(float _x, int exp) {
  45:..\..\..\liblc3\src/fastmath.h ****     union { float f; int32_t s; } x = { .f = _x };
  46:..\..\..\liblc3\src/fastmath.h **** 
  47:..\..\..\liblc3\src/fastmath.h ****     if (x.s & LC3_IEEE754_EXP_MASK)
  48:..\..\..\liblc3\src/fastmath.h ****         x.s += exp << LC3_IEEE754_EXP_SHL;
  49:..\..\..\liblc3\src/fastmath.h **** 
  50:..\..\..\liblc3\src/fastmath.h ****     return x.f;
  51:..\..\..\liblc3\src/fastmath.h **** }
  52:..\..\..\liblc3\src/fastmath.h **** 
  53:..\..\..\liblc3\src/fastmath.h **** /**
ARM GAS  C:\Users\rdn\AppData\Local\Temp\cc92LAgm.s 			page 31


  54:..\..\..\liblc3\src/fastmath.h ****  * Fast convert floating-point number to fractional and integral components
  55:..\..\..\liblc3\src/fastmath.h ****  * x               Operand, finite number
  56:..\..\..\liblc3\src/fastmath.h ****  * exp             Return the exponent part
  57:..\..\..\liblc3\src/fastmath.h ****  * return          The normalized fraction in [0.5:1[
  58:..\..\..\liblc3\src/fastmath.h ****  */
  59:..\..\..\liblc3\src/fastmath.h **** static inline float lc3_frexpf(float _x, int *exp) {
  60:..\..\..\liblc3\src/fastmath.h ****     union { float f; uint32_t u; } x = { .f = _x };
  61:..\..\..\liblc3\src/fastmath.h **** 
  62:..\..\..\liblc3\src/fastmath.h ****     int e = (x.u & LC3_IEEE754_EXP_MASK) >> LC3_IEEE754_EXP_SHL;
  63:..\..\..\liblc3\src/fastmath.h ****     *exp = e - (LC3_IEEE754_EXP_BIAS - 1);
  64:..\..\..\liblc3\src/fastmath.h **** 
  65:..\..\..\liblc3\src/fastmath.h ****     x.u = (x.u & ~LC3_IEEE754_EXP_MASK) |
  66:..\..\..\liblc3\src/fastmath.h ****         ((LC3_IEEE754_EXP_BIAS - 1) << LC3_IEEE754_EXP_SHL);
  67:..\..\..\liblc3\src/fastmath.h **** 
  68:..\..\..\liblc3\src/fastmath.h ****     return x.f;
  69:..\..\..\liblc3\src/fastmath.h **** }
  70:..\..\..\liblc3\src/fastmath.h **** 
  71:..\..\..\liblc3\src/fastmath.h **** /**
  72:..\..\..\liblc3\src/fastmath.h ****  * Fast 2^n approximation
  73:..\..\..\liblc3\src/fastmath.h ****  * x               Operand, range -100 to 100
  74:..\..\..\liblc3\src/fastmath.h ****  * return          2^x approximation (max relative error ~ 4e-7)
  75:..\..\..\liblc3\src/fastmath.h ****  */
  76:..\..\..\liblc3\src/fastmath.h **** static inline float lc3_exp2f(float x)
  77:..\..\..\liblc3\src/fastmath.h **** {
  78:..\..\..\liblc3\src/fastmath.h ****     /* --- 2^(i/8) for i from 0 to 7 --- */
  79:..\..\..\liblc3\src/fastmath.h **** 
  80:..\..\..\liblc3\src/fastmath.h ****     static const float e[] = {
  81:..\..\..\liblc3\src/fastmath.h ****         1.00000000e+00, 1.09050773e+00, 1.18920712e+00, 1.29683955e+00,
  82:..\..\..\liblc3\src/fastmath.h ****         1.41421356e+00, 1.54221083e+00, 1.68179283e+00, 1.83400809e+00 };
  83:..\..\..\liblc3\src/fastmath.h **** 
  84:..\..\..\liblc3\src/fastmath.h ****     /* --- Polynomial approx in range 0 to 1/8 --- */
  85:..\..\..\liblc3\src/fastmath.h **** 
  86:..\..\..\liblc3\src/fastmath.h ****     static const float p[] = {
  87:..\..\..\liblc3\src/fastmath.h ****         1.00448128e-02, 5.54563260e-02, 2.40228756e-01, 6.93147140e-01 };
  88:..\..\..\liblc3\src/fastmath.h **** 
  89:..\..\..\liblc3\src/fastmath.h ****     /* --- Split the operand ---
  90:..\..\..\liblc3\src/fastmath.h ****      *
  91:..\..\..\liblc3\src/fastmath.h ****      * Such as x = k/8 + y, with k an integer, and |y| < 0.5/8
  92:..\..\..\liblc3\src/fastmath.h ****      *
  93:..\..\..\liblc3\src/fastmath.h ****      * Note that `fast-math` compiler option leads to rounding error,
  94:..\..\..\liblc3\src/fastmath.h ****      * disable optimisation with `volatile`. */
  95:..\..\..\liblc3\src/fastmath.h **** 
  96:..\..\..\liblc3\src/fastmath.h ****     volatile union { float f; int32_t s; } v;
  97:..\..\..\liblc3\src/fastmath.h **** 
  98:..\..\..\liblc3\src/fastmath.h ****     v.f = x + 0x1.8p20f;
 824              		.loc 2 98 0
 825 0156 DFED306A 		vldr.32	s13, .L88+8
 826 015a 53F82900 		ldr	r0, [r3, r9, lsl #2]
  99:..\..\..\liblc3\src/fastmath.h ****     int k = v.s;
 100:..\..\..\liblc3\src/fastmath.h ****     x -= v.f - 0x1.8p20f;
 101:..\..\..\liblc3\src/fastmath.h **** 
 102:..\..\..\liblc3\src/fastmath.h ****     /* --- Compute 2^x, with |x| < 1 ---
 103:..\..\..\liblc3\src/fastmath.h ****      * Perform polynomial approximation in range -0.5/8 to 0.5/8,
 104:..\..\..\liblc3\src/fastmath.h ****      * and muplity by precomputed value of 2^(i/8), i in [0:7] */
 105:..\..\..\liblc3\src/fastmath.h **** 
 106:..\..\..\liblc3\src/fastmath.h ****     union { float f; int32_t s; } y;
 107:..\..\..\liblc3\src/fastmath.h **** 
ARM GAS  C:\Users\rdn\AppData\Local\Temp\cc92LAgm.s 			page 32


 108:..\..\..\liblc3\src/fastmath.h ****     y.f = (      p[0]) * x;
 109:..\..\..\liblc3\src/fastmath.h ****     y.f = (y.f + p[1]) * x;
 110:..\..\..\liblc3\src/fastmath.h ****     y.f = (y.f + p[2]) * x;
 111:..\..\..\liblc3\src/fastmath.h ****     y.f = (y.f + p[3]) * x;
 112:..\..\..\liblc3\src/fastmath.h ****     y.f = (y.f +  1.f) * e[k & 7];
 113:..\..\..\liblc3\src/fastmath.h **** 
 114:..\..\..\liblc3\src/fastmath.h ****     /* --- Add the exponent --- */
 115:..\..\..\liblc3\src/fastmath.h **** 
 116:..\..\..\liblc3\src/fastmath.h ****     y.s += (k >> 3) << LC3_IEEE754_EXP_SHL;
 827              		.loc 2 116 0
 828 015e 9FED2F6A 		vldr.32	s12, .L88+12
 829 0162 DFED2F5A 		vldr.32	s11, .L88+16
 830 0166 9FED2F5A 		vldr.32	s10, .L88+20
 831 016a DFED2F4A 		vldr.32	s9, .L88+24
 112:..\..\..\liblc3\src/fastmath.h **** 
 832              		.loc 2 112 0
 833 016e 2F4F     		ldr	r7, .L88+28
 834              	.LBE47:
 835              	.LBE46:
 836              	.LBE45:
 756:..\..\..\liblc3\src/sns.c **** 
 757:..\..\..\liblc3\src/sns.c ****     for (int i = 0, ib = 0; ib < nb; ib++) {
 837              		.loc 1 757 0
 838 0170 0022     		movs	r2, #0
 839 0172 1146     		mov	r1, r2
 840              	.LBB52:
 841              	.LBB50:
 842              	.LBB48:
 843              		.loc 2 116 0
 844 0174 B7EE004A 		vmov.f32	s8, #1.0e+0
 845              	.LVL100:
 846              	.L77:
 847              	.LBE48:
 848              	.LBE50:
 849              	.LBE52:
 850              		.loc 1 757 0 discriminator 1
 851 0178 A242     		cmp	r2, r4
 852 017a 45DA     		bge	.L86
 853              	.LBB53:
 758:..\..\..\liblc3\src/sns.c ****         float g_sns = lc3_exp2f(-scf[ib]);
 854              		.loc 1 758 0
 855 017c FAEC017A 		vldmia.32	r10!, {s15}
 856              	.LVL101:
 857 0180 4C9E     		ldr	r6, [sp, #304]
 858              	.LBB51:
 859              	.LBB49:
  98:..\..\..\liblc3\src/fastmath.h ****     int k = v.s;
 860              		.loc 2 98 0
 861 0182 36EEE77A 		vsub.f32	s14, s13, s15
 100:..\..\..\liblc3\src/fastmath.h **** 
 862              		.loc 2 100 0
 863 0186 F1EE677A 		vneg.f32	s15, s15
 864              	.LVL102:
  98:..\..\..\liblc3\src/fastmath.h ****     int k = v.s;
 865              		.loc 2 98 0
 866 018a 8DED037A 		vstr.32	s14, [sp, #12]
  99:..\..\..\liblc3\src/fastmath.h ****     x -= v.f - 0x1.8p20f;
ARM GAS  C:\Users\rdn\AppData\Local\Temp\cc92LAgm.s 			page 33


 867              		.loc 2 99 0
 868 018e 039B     		ldr	r3, [sp, #12]
 869              	.LVL103:
 100:..\..\..\liblc3\src/fastmath.h **** 
 870              		.loc 2 100 0
 871 0190 9DED037A 		vldr.32	s14, [sp, #12]
 872 0194 37EE667A 		vsub.f32	s14, s14, s13
 873              		.loc 2 116 0
 874 0198 F0EE453A 		vmov.f32	s7, s10
 100:..\..\..\liblc3\src/fastmath.h **** 
 875              		.loc 2 100 0
 876 019c 77EEC77A 		vsub.f32	s15, s15, s14
 877              	.LVL104:
 878              		.loc 2 116 0
 879 01a0 B0EE657A 		vmov.f32	s14, s11
 880 01a4 A7EE867A 		vfma.f32	s14, s15, s12
 112:..\..\..\liblc3\src/fastmath.h **** 
 881              		.loc 2 112 0
 882 01a8 03F0070E 		and	lr, r3, #7
 883              	.LVL105:
 884 01ac 07EB8E0E 		add	lr, r7, lr, lsl #2
 885              	.LVL106:
 886              		.loc 2 116 0
 887 01b0 DB10     		asrs	r3, r3, #3
 888              	.LVL107:
 889 01b2 E7EE873A 		vfma.f32	s7, s15, s14
 890 01b6 B0EE637A 		vmov.f32	s14, s7
 891 01ba F0EE643A 		vmov.f32	s7, s9
 892 01be E7EE873A 		vfma.f32	s7, s15, s14
 893 01c2 B0EE637A 		vmov.f32	s14, s7
 894 01c6 F0EE443A 		vmov.f32	s7, s8
 895 01ca E7EE873A 		vfma.f32	s7, s15, s14
 896 01ce 9EED007A 		vldr.32	s14, [lr]
 897 01d2 63EE877A 		vmul.f32	s15, s7, s14
 898              	.LVL108:
 899 01d6 17EE905A 		vmov	r5, s15	@ int
 900 01da 05EBC353 		add	r3, r5, r3, lsl #23
 901 01de 07EE903A 		vmov	s15, r3	@ int
 902 01e2 8B00     		lsls	r3, r1, #2
 903 01e4 06EB030E 		add	lr, r6, r3
 904 01e8 019E     		ldr	r6, [sp, #4]
 905              	.LBE49:
 906              	.LBE51:
 759:..\..\..\liblc3\src/sns.c **** 
 760:..\..\..\liblc3\src/sns.c ****         for ( ; i < lim[ib+1]; i++)
 907              		.loc 1 760 0
 908 01ea 50F8045F 		ldr	r5, [r0, #4]!
 909 01ee 3344     		add	r3, r3, r6
 910              	.L78:
 911              		.loc 1 760 0 is_stmt 0 discriminator 1
 912 01f0 A942     		cmp	r1, r5
 913 01f2 07DA     		bge	.L87
 761:..\..\..\liblc3\src/sns.c ****             y[i] = x[i] * g_sns;
 914              		.loc 1 761 0 is_stmt 1 discriminator 2
 915 01f4 BEEC017A 		vldmia.32	lr!, {s14}
 916 01f8 27EE277A 		vmul.f32	s14, s14, s15
 760:..\..\..\liblc3\src/sns.c ****             y[i] = x[i] * g_sns;
ARM GAS  C:\Users\rdn\AppData\Local\Temp\cc92LAgm.s 			page 34


 917              		.loc 1 760 0 discriminator 2
 918 01fc 0131     		adds	r1, r1, #1
 919              	.LVL109:
 920              		.loc 1 761 0 discriminator 2
 921 01fe A3EC017A 		vstmia.32	r3!, {s14}
 922 0202 F5E7     		b	.L78
 923              	.L87:
 924              	.LBE53:
 757:..\..\..\liblc3\src/sns.c ****         float g_sns = lc3_exp2f(-scf[ib]);
 925              		.loc 1 757 0 discriminator 2
 926 0204 0132     		adds	r2, r2, #1
 927              	.LVL110:
 928 0206 B7E7     		b	.L77
 929              	.L86:
 930              	.LBE44:
 762:..\..\..\liblc3\src/sns.c ****     }
 763:..\..\..\liblc3\src/sns.c **** }
 931              		.loc 1 763 0
 932 0208 44B0     		add	sp, sp, #272
 933              		.cfi_def_cfa_offset 32
 934              		@ sp needed
 935 020a BDE8F087 		pop	{r4, r5, r6, r7, r8, r9, r10, pc}
 936              	.LVL111:
 937              	.L89:
 938 020e 00BF     		.align	2
 939              	.L88:
 940 0210 00000000 		.word	lc3_num_bands
 941 0214 00000000 		.word	lc3_band_lim
 942 0218 0000C049 		.word	1237319680
 943 021c 0093243C 		.word	1009029888
 944 0220 2C26633D 		.word	1029908012
 945 0224 87FE753E 		.word	1047920263
 946 0228 1772313F 		.word	1060205079
 947 022c 00040000 		.word	.LANCHOR0+1024
 948              		.cfi_endproc
 949              	.LFE32:
 950              		.size	spectral_shaping, .-spectral_shaping
 951              		.section	.text.lc3_put_bits,"ax",%progbits
 952              		.align	1
 953              		.thumb
 954              		.thumb_func
 955              		.type	lc3_put_bits, %function
 956              	lc3_put_bits:
 957              	.LFB8:
 958              		.file 3 "..\\..\\..\\liblc3\\src\\bits.h"
   1:..\..\..\liblc3\src/bits.h **** /******************************************************************************
   2:..\..\..\liblc3\src/bits.h ****  *
   3:..\..\..\liblc3\src/bits.h ****  *  Copyright 2022 Google LLC
   4:..\..\..\liblc3\src/bits.h ****  *
   5:..\..\..\liblc3\src/bits.h ****  *  Licensed under the Apache License, Version 2.0 (the "License");
   6:..\..\..\liblc3\src/bits.h ****  *  you may not use this file except in compliance with the License.
   7:..\..\..\liblc3\src/bits.h ****  *  You may obtain a copy of the License at:
   8:..\..\..\liblc3\src/bits.h ****  *
   9:..\..\..\liblc3\src/bits.h ****  *  http://www.apache.org/licenses/LICENSE-2.0
  10:..\..\..\liblc3\src/bits.h ****  *
  11:..\..\..\liblc3\src/bits.h ****  *  Unless required by applicable law or agreed to in writing, software
  12:..\..\..\liblc3\src/bits.h ****  *  distributed under the License is distributed on an "AS IS" BASIS,
ARM GAS  C:\Users\rdn\AppData\Local\Temp\cc92LAgm.s 			page 35


  13:..\..\..\liblc3\src/bits.h ****  *  WITHOUT WARRANTIES OR CONDITIONS OF ANY KIND, either express or implied.
  14:..\..\..\liblc3\src/bits.h ****  *  See the License for the specific language governing permissions and
  15:..\..\..\liblc3\src/bits.h ****  *  limitations under the License.
  16:..\..\..\liblc3\src/bits.h ****  *
  17:..\..\..\liblc3\src/bits.h ****  ******************************************************************************/
  18:..\..\..\liblc3\src/bits.h **** 
  19:..\..\..\liblc3\src/bits.h **** /**
  20:..\..\..\liblc3\src/bits.h ****  * The bitstream is written by the 2 ends of the buffer :
  21:..\..\..\liblc3\src/bits.h ****  *
  22:..\..\..\liblc3\src/bits.h ****  * - Arthmetic coder put bits while increasing memory addresses
  23:..\..\..\liblc3\src/bits.h ****  *   in the buffer (forward)
  24:..\..\..\liblc3\src/bits.h ****  *
  25:..\..\..\liblc3\src/bits.h ****  * - Plain bits are puts starting the end of the buffer, with memeory
  26:..\..\..\liblc3\src/bits.h ****  *   addresses decreasing (backward)
  27:..\..\..\liblc3\src/bits.h ****  *
  28:..\..\..\liblc3\src/bits.h ****  *       .---------------------------------------------------.
  29:..\..\..\liblc3\src/bits.h ****  *       | > > > > > > > > > > :         : < < < < < < < < < |
  30:..\..\..\liblc3\src/bits.h ****  *       '---------------------------------------------------'
  31:..\..\..\liblc3\src/bits.h ****  *       |---------------------> - - - - - - - - - - - - - ->|
  32:..\..\..\liblc3\src/bits.h ****  *                              |< - - - <-------------------|
  33:..\..\..\liblc3\src/bits.h ****  *          Arithmetic coding                  Plain bits
  34:..\..\..\liblc3\src/bits.h ****  *          `lc3_put_symbol()`               `lc3_put_bits()`
  35:..\..\..\liblc3\src/bits.h ****  *
  36:..\..\..\liblc3\src/bits.h ****  * - The forward writing is protected against buffer overflow, it cannot
  37:..\..\..\liblc3\src/bits.h ****  *   write after the buffer, but can overwrite plain bits previously
  38:..\..\..\liblc3\src/bits.h ****  *   written in the buffer.
  39:..\..\..\liblc3\src/bits.h ****  *
  40:..\..\..\liblc3\src/bits.h ****  * - The backward writing is protected against overwrite of the arithmetic
  41:..\..\..\liblc3\src/bits.h ****  *   coder bitstream. In such way, the backward bitstream is always limited
  42:..\..\..\liblc3\src/bits.h ****  *   by the aritmetic coder bitstream, and can be overwritten by him.
  43:..\..\..\liblc3\src/bits.h ****  *
  44:..\..\..\liblc3\src/bits.h ****  *       .---------------------------------------------------.
  45:..\..\..\liblc3\src/bits.h ****  *       | > > > > > > > > > > :         : < < < < < < < < < |
  46:..\..\..\liblc3\src/bits.h ****  *       '---------------------------------------------------'
  47:..\..\..\liblc3\src/bits.h ****  *       |---------------------> - - - - - - - - - - - - - ->|
  48:..\..\..\liblc3\src/bits.h ****  *       |< - - - - - - - - - - -  - - - <-------------------|
  49:..\..\..\liblc3\src/bits.h ****  *          Arithmetic coding                  Plain bits
  50:..\..\..\liblc3\src/bits.h ****  *          `lc3_get_symbol()`               `lc3_get_bits()`
  51:..\..\..\liblc3\src/bits.h ****  *
  52:..\..\..\liblc3\src/bits.h ****  * - Reading is limited to read of the complementary end of the buffer.
  53:..\..\..\liblc3\src/bits.h ****  *
  54:..\..\..\liblc3\src/bits.h ****  * - The procedure `lc3_check_bits()` returns indication that read has been
  55:..\..\..\liblc3\src/bits.h ****  *   made crossing the other bit plane.
  56:..\..\..\liblc3\src/bits.h ****  *
  57:..\..\..\liblc3\src/bits.h ****  */
  58:..\..\..\liblc3\src/bits.h **** 
  59:..\..\..\liblc3\src/bits.h **** #ifndef __LC3_BITS_H
  60:..\..\..\liblc3\src/bits.h **** #define __LC3_BITS_H
  61:..\..\..\liblc3\src/bits.h **** 
  62:..\..\..\liblc3\src/bits.h **** #include "common.h"
  63:..\..\..\liblc3\src/bits.h **** 
  64:..\..\..\liblc3\src/bits.h **** 
  65:..\..\..\liblc3\src/bits.h **** /**
  66:..\..\..\liblc3\src/bits.h ****  * Bitstream mode
  67:..\..\..\liblc3\src/bits.h ****  */
  68:..\..\..\liblc3\src/bits.h **** 
  69:..\..\..\liblc3\src/bits.h **** enum lc3_bits_mode {
ARM GAS  C:\Users\rdn\AppData\Local\Temp\cc92LAgm.s 			page 36


  70:..\..\..\liblc3\src/bits.h ****     LC3_BITS_MODE_READ,
  71:..\..\..\liblc3\src/bits.h ****     LC3_BITS_MODE_WRITE,
  72:..\..\..\liblc3\src/bits.h **** };
  73:..\..\..\liblc3\src/bits.h **** 
  74:..\..\..\liblc3\src/bits.h **** /**
  75:..\..\..\liblc3\src/bits.h ****  * Arithmetic coder symbol interval
  76:..\..\..\liblc3\src/bits.h ****  * The model split the interval in 17 symbols
  77:..\..\..\liblc3\src/bits.h ****  */
  78:..\..\..\liblc3\src/bits.h **** 
  79:..\..\..\liblc3\src/bits.h **** struct lc3_ac_symbol {
  80:..\..\..\liblc3\src/bits.h ****     uint16_t low   : 16;
  81:..\..\..\liblc3\src/bits.h ****     uint16_t range : 16;
  82:..\..\..\liblc3\src/bits.h **** };
  83:..\..\..\liblc3\src/bits.h **** 
  84:..\..\..\liblc3\src/bits.h **** struct lc3_ac_model {
  85:..\..\..\liblc3\src/bits.h ****     struct lc3_ac_symbol s[17];
  86:..\..\..\liblc3\src/bits.h **** };
  87:..\..\..\liblc3\src/bits.h **** 
  88:..\..\..\liblc3\src/bits.h **** /**
  89:..\..\..\liblc3\src/bits.h ****  * Bitstream context
  90:..\..\..\liblc3\src/bits.h ****  */
  91:..\..\..\liblc3\src/bits.h **** 
  92:..\..\..\liblc3\src/bits.h **** #define LC3_ACCU_BITS (int)(8 * sizeof(unsigned))
  93:..\..\..\liblc3\src/bits.h **** 
  94:..\..\..\liblc3\src/bits.h **** struct lc3_bits_accu {
  95:..\..\..\liblc3\src/bits.h ****     unsigned v;
  96:..\..\..\liblc3\src/bits.h ****     int n, nover;
  97:..\..\..\liblc3\src/bits.h **** };
  98:..\..\..\liblc3\src/bits.h **** 
  99:..\..\..\liblc3\src/bits.h **** #define LC3_AC_BITS (int)(24)
 100:..\..\..\liblc3\src/bits.h **** 
 101:..\..\..\liblc3\src/bits.h **** struct lc3_bits_ac {
 102:..\..\..\liblc3\src/bits.h ****     unsigned low, range;
 103:..\..\..\liblc3\src/bits.h ****     int cache, carry, carry_count;
 104:..\..\..\liblc3\src/bits.h ****     bool error;
 105:..\..\..\liblc3\src/bits.h **** };
 106:..\..\..\liblc3\src/bits.h **** 
 107:..\..\..\liblc3\src/bits.h **** struct lc3_bits_buffer {
 108:..\..\..\liblc3\src/bits.h ****     const uint8_t *start, *end;
 109:..\..\..\liblc3\src/bits.h ****     uint8_t *p_fw, *p_bw;
 110:..\..\..\liblc3\src/bits.h **** };
 111:..\..\..\liblc3\src/bits.h **** 
 112:..\..\..\liblc3\src/bits.h **** typedef struct lc3_bits {
 113:..\..\..\liblc3\src/bits.h ****     enum lc3_bits_mode mode;
 114:..\..\..\liblc3\src/bits.h ****     struct lc3_bits_ac ac;
 115:..\..\..\liblc3\src/bits.h ****     struct lc3_bits_accu accu;
 116:..\..\..\liblc3\src/bits.h ****     struct lc3_bits_buffer buffer;
 117:..\..\..\liblc3\src/bits.h **** } lc3_bits_t;
 118:..\..\..\liblc3\src/bits.h **** 
 119:..\..\..\liblc3\src/bits.h **** 
 120:..\..\..\liblc3\src/bits.h **** /**
 121:..\..\..\liblc3\src/bits.h ****  * Setup bitstream reading/writing
 122:..\..\..\liblc3\src/bits.h ****  * bits            Bitstream context
 123:..\..\..\liblc3\src/bits.h ****  * mode            Either READ or WRITE mode
 124:..\..\..\liblc3\src/bits.h ****  * buffer, len     Output buffer and length (in bytes)
 125:..\..\..\liblc3\src/bits.h ****  */
 126:..\..\..\liblc3\src/bits.h **** void lc3_setup_bits(lc3_bits_t *bits,
ARM GAS  C:\Users\rdn\AppData\Local\Temp\cc92LAgm.s 			page 37


 127:..\..\..\liblc3\src/bits.h ****     enum lc3_bits_mode mode, void *buffer, int len);
 128:..\..\..\liblc3\src/bits.h **** 
 129:..\..\..\liblc3\src/bits.h **** /**
 130:..\..\..\liblc3\src/bits.h ****  * Return number of bits left in the bitstream
 131:..\..\..\liblc3\src/bits.h ****  * bits            Bitstream context
 132:..\..\..\liblc3\src/bits.h ****  * return          Number of bits left
 133:..\..\..\liblc3\src/bits.h ****  */
 134:..\..\..\liblc3\src/bits.h **** int lc3_get_bits_left(const lc3_bits_t *bits);
 135:..\..\..\liblc3\src/bits.h **** 
 136:..\..\..\liblc3\src/bits.h **** /**
 137:..\..\..\liblc3\src/bits.h ****  * Check if error occured on bitstream reading/writing
 138:..\..\..\liblc3\src/bits.h ****  * bits            Bitstream context
 139:..\..\..\liblc3\src/bits.h ****  * return          0: Ok  -1: Bitstream overflow or AC reading error
 140:..\..\..\liblc3\src/bits.h ****  */
 141:..\..\..\liblc3\src/bits.h **** int lc3_check_bits(const lc3_bits_t *bits);
 142:..\..\..\liblc3\src/bits.h **** 
 143:..\..\..\liblc3\src/bits.h **** /**
 144:..\..\..\liblc3\src/bits.h ****  * Put a bit
 145:..\..\..\liblc3\src/bits.h ****  * bits            Bitstream context
 146:..\..\..\liblc3\src/bits.h ****  * v               Bit value, 0 or 1
 147:..\..\..\liblc3\src/bits.h ****  */
 148:..\..\..\liblc3\src/bits.h **** static inline void lc3_put_bit(lc3_bits_t *bits, int v);
 149:..\..\..\liblc3\src/bits.h **** 
 150:..\..\..\liblc3\src/bits.h **** /**
 151:..\..\..\liblc3\src/bits.h ****  * Put from 1 to 32 bits
 152:..\..\..\liblc3\src/bits.h ****  * bits            Bitstream context
 153:..\..\..\liblc3\src/bits.h ****  * v, n            Value, in range 0 to 2^n - 1, and bits count (1 to 32)
 154:..\..\..\liblc3\src/bits.h ****  */
 155:..\..\..\liblc3\src/bits.h **** static inline void lc3_put_bits(lc3_bits_t *bits, unsigned v, int n);
 156:..\..\..\liblc3\src/bits.h **** 
 157:..\..\..\liblc3\src/bits.h **** /**
 158:..\..\..\liblc3\src/bits.h ****  * Put arithmetic coder symbol
 159:..\..\..\liblc3\src/bits.h ****  * bits            Bitstream context
 160:..\..\..\liblc3\src/bits.h ****  * model, s        Model distribution and symbol value
 161:..\..\..\liblc3\src/bits.h ****  */
 162:..\..\..\liblc3\src/bits.h **** static inline void lc3_put_symbol(lc3_bits_t *bits,
 163:..\..\..\liblc3\src/bits.h ****     const struct lc3_ac_model *model, unsigned s);
 164:..\..\..\liblc3\src/bits.h **** 
 165:..\..\..\liblc3\src/bits.h **** /**
 166:..\..\..\liblc3\src/bits.h ****  * Flush and terminate bitstream writing
 167:..\..\..\liblc3\src/bits.h ****  * bits            Bitstream context
 168:..\..\..\liblc3\src/bits.h ****  */
 169:..\..\..\liblc3\src/bits.h **** void lc3_flush_bits(lc3_bits_t *bits);
 170:..\..\..\liblc3\src/bits.h **** 
 171:..\..\..\liblc3\src/bits.h **** /**
 172:..\..\..\liblc3\src/bits.h ****  * Get a bit
 173:..\..\..\liblc3\src/bits.h ****  * bits            Bitstream context
 174:..\..\..\liblc3\src/bits.h ****  */
 175:..\..\..\liblc3\src/bits.h **** static inline int lc3_get_bit(lc3_bits_t *bits);
 176:..\..\..\liblc3\src/bits.h **** 
 177:..\..\..\liblc3\src/bits.h **** /**
 178:..\..\..\liblc3\src/bits.h ****  * Get from 1 to 32 bits
 179:..\..\..\liblc3\src/bits.h ****  * bits            Bitstream context
 180:..\..\..\liblc3\src/bits.h ****  * n               Number of bits to read (1 to 32)
 181:..\..\..\liblc3\src/bits.h ****  * return          The value read
 182:..\..\..\liblc3\src/bits.h ****  */
 183:..\..\..\liblc3\src/bits.h **** static inline unsigned lc3_get_bits(lc3_bits_t *bits,  int n);
ARM GAS  C:\Users\rdn\AppData\Local\Temp\cc92LAgm.s 			page 38


 184:..\..\..\liblc3\src/bits.h **** 
 185:..\..\..\liblc3\src/bits.h **** /**
 186:..\..\..\liblc3\src/bits.h ****  * Get arithmetic coder symbol
 187:..\..\..\liblc3\src/bits.h ****  * bits            Bitstream context
 188:..\..\..\liblc3\src/bits.h ****  * model           Model distribution
 189:..\..\..\liblc3\src/bits.h ****  * return          The value read
 190:..\..\..\liblc3\src/bits.h ****  */
 191:..\..\..\liblc3\src/bits.h **** static inline unsigned lc3_get_symbol(lc3_bits_t *bits,
 192:..\..\..\liblc3\src/bits.h ****     const struct lc3_ac_model *model);
 193:..\..\..\liblc3\src/bits.h **** 
 194:..\..\..\liblc3\src/bits.h **** 
 195:..\..\..\liblc3\src/bits.h **** 
 196:..\..\..\liblc3\src/bits.h **** /* ----------------------------------------------------------------------------
 197:..\..\..\liblc3\src/bits.h ****  *  Inline implementations
 198:..\..\..\liblc3\src/bits.h ****  * -------------------------------------------------------------------------- */
 199:..\..\..\liblc3\src/bits.h **** 
 200:..\..\..\liblc3\src/bits.h **** void lc3_put_bits_generic(lc3_bits_t *bits, unsigned v, int n);
 201:..\..\..\liblc3\src/bits.h **** unsigned lc3_get_bits_generic(struct lc3_bits *bits, int n);
 202:..\..\..\liblc3\src/bits.h **** 
 203:..\..\..\liblc3\src/bits.h **** void lc3_ac_read_renorm(lc3_bits_t *bits);
 204:..\..\..\liblc3\src/bits.h **** void lc3_ac_write_renorm(lc3_bits_t *bits);
 205:..\..\..\liblc3\src/bits.h **** 
 206:..\..\..\liblc3\src/bits.h **** 
 207:..\..\..\liblc3\src/bits.h **** /**
 208:..\..\..\liblc3\src/bits.h ****  * Put a bit
 209:..\..\..\liblc3\src/bits.h ****  */
 210:..\..\..\liblc3\src/bits.h **** LC3_HOT static inline void lc3_put_bit(lc3_bits_t *bits, int v)
 211:..\..\..\liblc3\src/bits.h **** {
 212:..\..\..\liblc3\src/bits.h ****     lc3_put_bits(bits, v, 1);
 213:..\..\..\liblc3\src/bits.h **** }
 214:..\..\..\liblc3\src/bits.h **** 
 215:..\..\..\liblc3\src/bits.h **** /**
 216:..\..\..\liblc3\src/bits.h ****  * Put from 1 to 32 bits
 217:..\..\..\liblc3\src/bits.h ****  */
 218:..\..\..\liblc3\src/bits.h **** LC3_HOT static inline void lc3_put_bits(
 219:..\..\..\liblc3\src/bits.h ****     struct lc3_bits *bits, unsigned v, int n)
 220:..\..\..\liblc3\src/bits.h **** {
 959              		.loc 3 220 0
 960              		.cfi_startproc
 961              		@ args = 0, pretend = 0, frame = 0
 962              		@ frame_needed = 0, uses_anonymous_args = 0
 963              		@ link register save eliminated.
 964              	.LVL112:
 965 0000 70B4     		push	{r4, r5, r6}
 966              		.cfi_def_cfa_offset 12
 967              		.cfi_offset 4, -12
 968              		.cfi_offset 5, -8
 969              		.cfi_offset 6, -4
 221:..\..\..\liblc3\src/bits.h ****     struct lc3_bits_accu *accu = &bits->accu;
 222:..\..\..\liblc3\src/bits.h **** 
 223:..\..\..\liblc3\src/bits.h ****     if (accu->n + n <= LC3_ACCU_BITS) {
 970              		.loc 3 223 0
 971 0002 066A     		ldr	r6, [r0, #32]
 972 0004 B518     		adds	r5, r6, r2
 973 0006 202D     		cmp	r5, #32
 220:..\..\..\liblc3\src/bits.h ****     struct lc3_bits_accu *accu = &bits->accu;
 974              		.loc 3 220 0
ARM GAS  C:\Users\rdn\AppData\Local\Temp\cc92LAgm.s 			page 39


 975 0008 0B46     		mov	r3, r1
 976              		.loc 3 223 0
 977 000a 06DC     		bgt	.L91
 224:..\..\..\liblc3\src/bits.h ****         accu->v |= v << accu->n;
 978              		.loc 3 224 0
 979 000c C269     		ldr	r2, [r0, #28]
 980              	.LVL113:
 225:..\..\..\liblc3\src/bits.h ****         accu->n += n;
 981              		.loc 3 225 0
 982 000e 0562     		str	r5, [r0, #32]
 224:..\..\..\liblc3\src/bits.h ****         accu->v |= v << accu->n;
 983              		.loc 3 224 0
 984 0010 B340     		lsls	r3, r3, r6
 985 0012 1343     		orrs	r3, r3, r2
 986 0014 C361     		str	r3, [r0, #28]
 226:..\..\..\liblc3\src/bits.h ****     } else {
 227:..\..\..\liblc3\src/bits.h ****         lc3_put_bits_generic(bits, v, n);
 228:..\..\..\liblc3\src/bits.h ****     }
 229:..\..\..\liblc3\src/bits.h **** }
 987              		.loc 3 229 0
 988 0016 70BC     		pop	{r4, r5, r6}
 989              		.cfi_remember_state
 990              		.cfi_restore 6
 991              		.cfi_restore 5
 992              		.cfi_restore 4
 993              		.cfi_def_cfa_offset 0
 994 0018 7047     		bx	lr
 995              	.LVL114:
 996              	.L91:
 997              		.cfi_restore_state
 998 001a 70BC     		pop	{r4, r5, r6}
 999              		.cfi_restore 6
 1000              		.cfi_restore 5
 1001              		.cfi_restore 4
 1002              		.cfi_def_cfa_offset 0
 227:..\..\..\liblc3\src/bits.h ****     }
 1003              		.loc 3 227 0
 1004 001c FFF7FEBF 		b	lc3_put_bits_generic
 1005              	.LVL115:
 1006              		.cfi_endproc
 1007              	.LFE8:
 1008              		.size	lc3_put_bits, .-lc3_put_bits
 1009              		.section	.text.lc3_get_bits,"ax",%progbits
 1010              		.align	1
 1011              		.thumb
 1012              		.thumb_func
 1013              		.type	lc3_get_bits, %function
 1014              	lc3_get_bits:
 1015              	.LFB10:
 230:..\..\..\liblc3\src/bits.h **** 
 231:..\..\..\liblc3\src/bits.h **** /**
 232:..\..\..\liblc3\src/bits.h ****  * Get a bit
 233:..\..\..\liblc3\src/bits.h ****  */
 234:..\..\..\liblc3\src/bits.h **** LC3_HOT static inline int lc3_get_bit(lc3_bits_t *bits)
 235:..\..\..\liblc3\src/bits.h **** {
 236:..\..\..\liblc3\src/bits.h ****     return lc3_get_bits(bits, 1);
 237:..\..\..\liblc3\src/bits.h **** }
ARM GAS  C:\Users\rdn\AppData\Local\Temp\cc92LAgm.s 			page 40


 238:..\..\..\liblc3\src/bits.h **** 
 239:..\..\..\liblc3\src/bits.h **** /**
 240:..\..\..\liblc3\src/bits.h ****  * Get from 1 to 32 bits
 241:..\..\..\liblc3\src/bits.h ****  */
 242:..\..\..\liblc3\src/bits.h **** LC3_HOT static inline unsigned lc3_get_bits(struct lc3_bits *bits, int n)
 243:..\..\..\liblc3\src/bits.h **** {
 1016              		.loc 3 243 0
 1017              		.cfi_startproc
 1018              		@ args = 0, pretend = 0, frame = 0
 1019              		@ frame_needed = 0, uses_anonymous_args = 0
 1020              		@ link register save eliminated.
 1021              	.LVL116:
 1022 0000 30B4     		push	{r4, r5}
 1023              		.cfi_def_cfa_offset 8
 1024              		.cfi_offset 4, -8
 1025              		.cfi_offset 5, -4
 244:..\..\..\liblc3\src/bits.h ****     struct lc3_bits_accu *accu = &bits->accu;
 245:..\..\..\liblc3\src/bits.h **** 
 246:..\..\..\liblc3\src/bits.h ****     if (accu->n + n <= LC3_ACCU_BITS) {
 1026              		.loc 3 246 0
 1027 0002 056A     		ldr	r5, [r0, #32]
 1028 0004 6A18     		adds	r2, r5, r1
 1029 0006 202A     		cmp	r2, #32
 243:..\..\..\liblc3\src/bits.h ****     struct lc3_bits_accu *accu = &bits->accu;
 1030              		.loc 3 243 0
 1031 0008 0346     		mov	r3, r0
 1032 000a 0C46     		mov	r4, r1
 1033              		.loc 3 246 0
 1034 000c 02DD     		ble	.L98
 247:..\..\..\liblc3\src/bits.h ****         int v = (accu->v >> accu->n) & ((1u << n) - 1);
 248:..\..\..\liblc3\src/bits.h ****         return (accu->n += n), v;
 249:..\..\..\liblc3\src/bits.h ****     }
 250:..\..\..\liblc3\src/bits.h ****     else {
 251:..\..\..\liblc3\src/bits.h ****         return lc3_get_bits_generic(bits, n);
 252:..\..\..\liblc3\src/bits.h ****     }
 253:..\..\..\liblc3\src/bits.h **** }
 1035              		.loc 3 253 0
 1036 000e 30BC     		pop	{r4, r5}
 1037              		.cfi_remember_state
 1038              		.cfi_restore 5
 1039              		.cfi_restore 4
 1040              		.cfi_def_cfa_offset 0
 251:..\..\..\liblc3\src/bits.h ****     }
 1041              		.loc 3 251 0
 1042 0010 FFF7FEBF 		b	lc3_get_bits_generic
 1043              	.LVL117:
 1044              	.L98:
 1045              		.cfi_restore_state
 1046              	.LBB54:
 247:..\..\..\liblc3\src/bits.h ****         int v = (accu->v >> accu->n) & ((1u << n) - 1);
 1047              		.loc 3 247 0
 1048 0014 C069     		ldr	r0, [r0, #28]
 1049              	.LVL118:
 248:..\..\..\liblc3\src/bits.h ****     }
 1050              		.loc 3 248 0
 1051 0016 1A62     		str	r2, [r3, #32]
 247:..\..\..\liblc3\src/bits.h ****         int v = (accu->v >> accu->n) & ((1u << n) - 1);
ARM GAS  C:\Users\rdn\AppData\Local\Temp\cc92LAgm.s 			page 41


 1052              		.loc 3 247 0
 1053 0018 0121     		movs	r1, #1
 1054              	.LVL119:
 1055 001a A140     		lsls	r1, r1, r4
 1056 001c E840     		lsrs	r0, r0, r5
 1057 001e 0139     		subs	r1, r1, #1
 1058 0020 0840     		ands	r0, r0, r1
 1059              	.LVL120:
 1060              	.LBE54:
 1061              		.loc 3 253 0
 1062 0022 30BC     		pop	{r4, r5}
 1063              		.cfi_restore 5
 1064              		.cfi_restore 4
 1065              		.cfi_def_cfa_offset 0
 1066              	.LVL121:
 1067 0024 7047     		bx	lr
 1068              		.cfi_endproc
 1069              	.LFE10:
 1070              		.size	lc3_get_bits, .-lc3_get_bits
 1071              		.section	.text.lc3_sns_analyze,"ax",%progbits
 1072              		.align	1
 1073              		.global	lc3_sns_analyze
 1074              		.thumb
 1075              		.thumb_func
 1076              		.type	lc3_sns_analyze, %function
 1077              	lc3_sns_analyze:
 1078              	.LFB33:
 764:..\..\..\liblc3\src/sns.c **** 
 765:..\..\..\liblc3\src/sns.c **** 
 766:..\..\..\liblc3\src/sns.c **** /* ----------------------------------------------------------------------------
 767:..\..\..\liblc3\src/sns.c ****  *  Interface
 768:..\..\..\liblc3\src/sns.c ****  * -------------------------------------------------------------------------- */
 769:..\..\..\liblc3\src/sns.c **** 
 770:..\..\..\liblc3\src/sns.c **** /**
 771:..\..\..\liblc3\src/sns.c ****  * SNS analysis
 772:..\..\..\liblc3\src/sns.c ****  */
 773:..\..\..\liblc3\src/sns.c **** void lc3_sns_analyze(
 774:..\..\..\liblc3\src/sns.c ****     enum lc3_dt dt, enum lc3_srate sr, int nbytes,
 775:..\..\..\liblc3\src/sns.c ****     const float *eb, bool att, struct lc3_sns_data *data,
 776:..\..\..\liblc3\src/sns.c ****     const float *x, float *y)
 777:..\..\..\liblc3\src/sns.c **** {
 1079              		.loc 1 777 0
 1080              		.cfi_startproc
 1081              		@ args = 16, pretend = 0, frame = 784
 1082              		@ frame_needed = 0, uses_anonymous_args = 0
 1083              	.LVL122:
 1084 0000 2DE9F04F 		push	{r4, r5, r6, r7, r8, r9, r10, fp, lr}
 1085              		.cfi_def_cfa_offset 36
 1086              		.cfi_offset 4, -36
 1087              		.cfi_offset 5, -32
 1088              		.cfi_offset 6, -28
 1089              		.cfi_offset 7, -24
 1090              		.cfi_offset 8, -20
 1091              		.cfi_offset 9, -16
 1092              		.cfi_offset 10, -12
 1093              		.cfi_offset 11, -8
 1094              		.cfi_offset 14, -4
ARM GAS  C:\Users\rdn\AppData\Local\Temp\cc92LAgm.s 			page 42


 1095 0004 1646     		mov	r6, r2
 1096              	.LVL123:
 1097              	.LBB93:
 1098              	.LBB94:
 288:..\..\..\liblc3\src/sns.c ****     int n4 = nb < 32 ? 32 % nb : 0;
 1099              		.loc 1 288 0
 1100 0006 C0EBC002 		rsb	r2, r0, r0, lsl #3
 1101              	.LVL124:
 1102 000a 0A44     		add	r2, r2, r1
 1103              	.LBE94:
 1104              	.LBE93:
 1105              		.loc 1 777 0
 1106 000c 2DED088B 		vpush.64	{d8, d9, d10, d11}
 1107              		.cfi_def_cfa_offset 68
 1108              		.cfi_offset 80, -68
 1109              		.cfi_offset 81, -64
 1110              		.cfi_offset 82, -60
 1111              		.cfi_offset 83, -56
 1112              		.cfi_offset 84, -52
 1113              		.cfi_offset 85, -48
 1114              		.cfi_offset 86, -44
 1115              		.cfi_offset 87, -40
 1116 0010 8946     		mov	r9, r1
 1117              	.LBB113:
 1118              	.LBB109:
 288:..\..\..\liblc3\src/sns.c ****     int n4 = nb < 32 ? 32 % nb : 0;
 1119              		.loc 1 288 0
 1120 0012 E149     		ldr	r1, .L190
 1121              	.LVL125:
 1122 0014 51F82220 		ldr	r2, [r1, r2, lsl #2]
 1123              	.LBE109:
 1124              	.LBE113:
 1125              		.loc 1 777 0
 1126 0018 ADF5497D 		sub	sp, sp, #804
 1127              		.cfi_def_cfa_offset 872
 1128              	.LBB114:
 1129              	.LBB110:
 289:..\..\..\liblc3\src/sns.c ****     int n2 = nb < 32 ? nb - n4 : LC3_MAX_BANDS - nb;
 1130              		.loc 1 289 0
 1131 001c 1F2A     		cmp	r2, #31
 1132              	.LBE110:
 1133              	.LBE114:
 1134              		.loc 1 777 0
 1135 001e 8046     		mov	r8, r0
 1136 0020 9DF86873 		ldrb	r7, [sp, #872]	@ zero_extendqisi2
 1137              	.LVL126:
 1138 0024 DB9D     		ldr	r5, [sp, #876]
 1139              	.LBB115:
 1140              	.LBB111:
 289:..\..\..\liblc3\src/sns.c ****     int n2 = nb < 32 ? nb - n4 : LC3_MAX_BANDS - nb;
 1141              		.loc 1 289 0
 1142 0026 19DC     		bgt	.L100
 1143 0028 2024     		movs	r4, #32
 1144 002a 94FBF2F4 		sdiv	r4, r4, r2
 1145 002e 5443     		muls	r4, r2, r4
 1146 0030 C4F12004 		rsb	r4, r4, #32
 1147              	.LVL127:
ARM GAS  C:\Users\rdn\AppData\Local\Temp\cc92LAgm.s 			page 43


 290:..\..\..\liblc3\src/sns.c **** 
 1148              		.loc 1 290 0
 1149 0034 111B     		subs	r1, r2, r4
 1150              	.LVL128:
 1151 0036 9C46     		mov	ip, r3
 1152 0038 8BA8     		add	r0, sp, #556
 1153              	.LVL129:
 1154 003a 03EB840A 		add	r10, r3, r4, lsl #2
 1155              	.LVL130:
 1156              	.L101:
 1157              	.LBB95:
 292:..\..\..\liblc3\src/sns.c ****         e[4*i4 + 0] = e[4*i4 + 1] =
 1158              		.loc 1 292 0
 1159 003e D445     		cmp	ip, r10
 1160 0040 00F11000 		add	r0, r0, #16
 1161 0044 0DD0     		beq	.L145
 294:..\..\..\liblc3\src/sns.c **** 
 1162              		.loc 1 294 0
 1163 0046 5CF804EB 		ldr	lr, [ip], #4	@ float
 1164 004a 40F810EC 		str	lr, [r0, #-16]	@ float
 1165 004e 40F814EC 		str	lr, [r0, #-20]	@ float
 293:..\..\..\liblc3\src/sns.c ****         e[4*i4 + 2] = e[4*i4 + 3] = eb[i4];
 1166              		.loc 1 293 0
 1167 0052 40F818EC 		str	lr, [r0, #-24]	@ float
 1168 0056 40F81CEC 		str	lr, [r0, #-28]	@ float
 1169 005a F0E7     		b	.L101
 1170              	.LVL131:
 1171              	.L100:
 1172              	.LBE95:
 290:..\..\..\liblc3\src/sns.c **** 
 1173              		.loc 1 290 0
 1174 005c C2F14001 		rsb	r1, r2, #64
 1175              	.LVL132:
 289:..\..\..\liblc3\src/sns.c ****     int n2 = nb < 32 ? nb - n4 : LC3_MAX_BANDS - nb;
 1176              		.loc 1 289 0
 1177 0060 0024     		movs	r4, #0
 1178              	.LVL133:
 1179              	.L145:
 1180 0062 C8A8     		add	r0, sp, #800
 1181 0064 00EB0410 		add	r0, r0, r4, lsl #4
 1182 0068 03EB840C 		add	ip, r3, r4, lsl #2
 1183 006c FC38     		subs	r0, r0, #252
 1184 006e A646     		mov	lr, r4
 1185              	.LBB96:
 296:..\..\..\liblc3\src/sns.c ****         e[2*(n4+i2) + 0] = e[2*(n4+i2) + 1] = eb[i2];
 1186              		.loc 1 296 0
 1187 0070 01EB040B 		add	fp, r1, r4
 1188              	.L103:
 1189              	.LVL134:
 1190 0074 DE45     		cmp	lr, fp
 1191 0076 00F10800 		add	r0, r0, #8
 1192 007a 08DA     		bge	.L186
 297:..\..\..\liblc3\src/sns.c **** 
 1193              		.loc 1 297 0
 1194 007c 5CF804AB 		ldr	r10, [ip], #4	@ float
 1195 0080 40F808AC 		str	r10, [r0, #-8]	@ float
 1196 0084 40F80CAC 		str	r10, [r0, #-12]	@ float
ARM GAS  C:\Users\rdn\AppData\Local\Temp\cc92LAgm.s 			page 44


 296:..\..\..\liblc3\src/sns.c ****         e[2*(n4+i2) + 0] = e[2*(n4+i2) + 1] = eb[i2];
 1197              		.loc 1 296 0
 1198 0088 0EF1010E 		add	lr, lr, #1
 1199              	.LVL135:
 1200 008c F2E7     		b	.L103
 1201              	.L186:
 1202              	.LBE96:
 299:..\..\..\liblc3\src/sns.c **** 
 1203              		.loc 1 299 0
 1204 008e 121B     		subs	r2, r2, r4
 1205              	.LVL136:
 1206 0090 4800     		lsls	r0, r1, #1
 1207 0092 521A     		subs	r2, r2, r1
 1208 0094 2144     		add	r1, r1, r4
 1209              	.LVL137:
 1210 0096 03EB8101 		add	r1, r3, r1, lsl #2
 1211 009a 00EB8400 		add	r0, r0, r4, lsl #2
 1212 009e 88AB     		add	r3, sp, #544
 1213              	.LVL138:
 1214 00a0 9200     		lsls	r2, r2, #2
 1215 00a2 03EB8000 		add	r0, r3, r0, lsl #2
 1216 00a6 FFF7FEFF 		bl	memcpy
 1217              	.LVL139:
 303:..\..\..\liblc3\src/sns.c **** 
 1218              		.loc 1 303 0
 1219 00aa BC4B     		ldr	r3, .L190+4
 305:..\..\..\liblc3\src/sns.c ****     float e_sum = 0;
 1220              		.loc 1 305 0
 1221 00ac DDED884A 		vldr.32	s9, [sp, #544]
 306:..\..\..\liblc3\src/sns.c **** 
 1222              		.loc 1 306 0
 1223 00b0 DFEDC57A 		vldr.32	s15, .L190+48
 303:..\..\..\liblc3\src/sns.c **** 
 1224              		.loc 1 303 0
 1225 00b4 03EB8903 		add	r3, r3, r9, lsl #2
 305:..\..\..\liblc3\src/sns.c ****     float e_sum = 0;
 1226              		.loc 1 305 0
 1227 00b8 B0EE645A 		vmov.f32	s10, s9
 303:..\..\..\liblc3\src/sns.c **** 
 1228              		.loc 1 303 0
 1229 00bc D3F82014 		ldr	r1, [r3, #1056]
 1230              	.LVL140:
 1231              	.LBB97:
 309:..\..\..\liblc3\src/sns.c ****         e_sum += e[i++];
 1232              		.loc 1 309 0
 1233 00c0 F6EE003A 		vmov.f32	s7, #5.0e-1
 1234 00c4 0A46     		mov	r2, r1
 1235 00c6 8BAB     		add	r3, sp, #556
 1236 00c8 01F1FC00 		add	r0, r1, #252
 1237 00cc F5EE005A 		vmov.f32	s11, #2.5e-1
 1238              	.LVL141:
 1239              	.L105:
 1240 00d0 25EE237A 		vmul.f32	s14, s10, s7
 1241 00d4 13ED024A 		vldr.32	s8, [r3, #-8]
 1242              	.LVL142:
 1243 00d8 D2ED006A 		vldr.32	s13, [r2]
 1244 00dc A4EEA57A 		vfma.f32	s14, s9, s11
ARM GAS  C:\Users\rdn\AppData\Local\Temp\cc92LAgm.s 			page 45


 1245 00e0 0C32     		adds	r2, r2, #12
 1246 00e2 0C33     		adds	r3, r3, #12
 312:..\..\..\liblc3\src/sns.c ****         e_sum += e[i++];
 1247              		.loc 1 312 0
 1248 00e4 53ED044A 		vldr.32	s9, [r3, #-16]
 1249              	.LVL143:
 309:..\..\..\liblc3\src/sns.c ****         e_sum += e[i++];
 1250              		.loc 1 309 0
 1251 00e8 A4EE257A 		vfma.f32	s14, s8, s11
 312:..\..\..\liblc3\src/sns.c ****         e_sum += e[i++];
 1252              		.loc 1 312 0
 1253 00ec 24EEA56A 		vmul.f32	s12, s9, s11
 309:..\..\..\liblc3\src/sns.c ****         e_sum += e[i++];
 1254              		.loc 1 309 0
 1255 00f0 27EE267A 		vmul.f32	s14, s14, s13
 312:..\..\..\liblc3\src/sns.c ****         e_sum += e[i++];
 1256              		.loc 1 312 0
 1257 00f4 64EE236A 		vmul.f32	s13, s8, s7
 309:..\..\..\liblc3\src/sns.c ****         e_sum += e[i++];
 1258              		.loc 1 309 0
 1259 00f8 03ED067A 		vstr.32	s14, [r3, #-24]
 312:..\..\..\liblc3\src/sns.c ****         e_sum += e[i++];
 1260              		.loc 1 312 0
 1261 00fc E5EE256A 		vfma.f32	s13, s10, s11
 310:..\..\..\liblc3\src/sns.c **** 
 1262              		.loc 1 310 0
 1263 0100 37EE277A 		vadd.f32	s14, s14, s15
 1264              	.LVL144:
 312:..\..\..\liblc3\src/sns.c ****         e_sum += e[i++];
 1265              		.loc 1 312 0
 1266 0104 76EE866A 		vadd.f32	s13, s13, s12
 1267 0108 52ED027A 		vldr.32	s15, [r2, #-8]
 315:..\..\..\liblc3\src/sns.c ****         e_sum += e[i++];
 1268              		.loc 1 315 0
 1269 010c 13ED035A 		vldr.32	s10, [r3, #-12]
 1270              	.LVL145:
 312:..\..\..\liblc3\src/sns.c ****         e_sum += e[i++];
 1271              		.loc 1 312 0
 1272 0110 66EEA76A 		vmul.f32	s13, s13, s15
 315:..\..\..\liblc3\src/sns.c ****         e_sum += e[i++];
 1273              		.loc 1 315 0
 1274 0114 52ED017A 		vldr.32	s15, [r2, #-4]
 312:..\..\..\liblc3\src/sns.c ****         e_sum += e[i++];
 1275              		.loc 1 312 0
 1276 0118 43ED056A 		vstr.32	s13, [r3, #-20]
 313:..\..\..\liblc3\src/sns.c **** 
 1277              		.loc 1 313 0
 1278 011c 77EE266A 		vadd.f32	s13, s14, s13
 1279              	.LVL146:
 315:..\..\..\liblc3\src/sns.c ****         e_sum += e[i++];
 1280              		.loc 1 315 0
 1281 0120 24EEA37A 		vmul.f32	s14, s9, s7
 308:..\..\..\liblc3\src/sns.c ****         e[i] = (e0 * 0.25f + e1 * 0.5f + (e2 = e[i+1]) * 0.25f) * ge[i];
 1282              		.loc 1 308 0
 1283 0124 9042     		cmp	r0, r2
 315:..\..\..\liblc3\src/sns.c ****         e_sum += e[i++];
 1284              		.loc 1 315 0
ARM GAS  C:\Users\rdn\AppData\Local\Temp\cc92LAgm.s 			page 46


 1285 0126 A4EE257A 		vfma.f32	s14, s8, s11
 1286 012a F6EE008A 		vmov.f32	s17, #5.0e-1
 1287 012e A5EE257A 		vfma.f32	s14, s10, s11
 1288 0132 B5EE008A 		vmov.f32	s16, #2.5e-1
 1289 0136 27EE277A 		vmul.f32	s14, s14, s15
 1290 013a 03ED047A 		vstr.32	s14, [r3, #-16]
 316:..\..\..\liblc3\src/sns.c ****     }
 1291              		.loc 1 316 0
 1292 013e 76EE877A 		vadd.f32	s15, s13, s14
 1293              	.LVL147:
 308:..\..\..\liblc3\src/sns.c ****         e[i] = (e0 * 0.25f + e1 * 0.5f + (e2 = e[i+1]) * 0.25f) * ge[i];
 1294              		.loc 1 308 0
 1295 0142 C5D1     		bne	.L105
 1296              	.LBE97:
 319:..\..\..\liblc3\src/sns.c ****     e_sum += e[LC3_MAX_BANDS-1];
 1297              		.loc 1 319 0
 1298 0144 B6EE087A 		vmov.f32	s14, #7.5e-1
 1299 0148 A5EE076A 		vfma.f32	s12, s10, s14
 1300 014c 88AC     		add	r4, sp, #544
 1301 014e 0DF5487B 		add	fp, sp, #800
 1302 0152 91ED3F7A 		vldr.32	s14, [r1, #252]
 1303              	.LBB98:
 325:..\..\..\liblc3\src/sns.c **** 
 1304              		.loc 1 325 0
 1305 0156 9FED92BA 		vldr.32	s22, .L190+8
 1306 015a DFED92AA 		vldr.32	s21, .L190+12
 1307 015e 9FED92AA 		vldr.32	s20, .L190+16
 1308 0162 DFED929A 		vldr.32	s19, .L190+20
 1309 0166 9FED929A 		vldr.32	s18, .L190+24
 1310              	.LBE98:
 319:..\..\..\liblc3\src/sns.c ****     e_sum += e[LC3_MAX_BANDS-1];
 1311              		.loc 1 319 0
 1312 016a 26EE077A 		vmul.f32	s14, s12, s14
 322:..\..\..\liblc3\src/sns.c **** 
 1313              		.loc 1 322 0
 1314 016e 4FF03E51 		mov	r1, #796917760
 1315              	.LVL148:
 319:..\..\..\liblc3\src/sns.c ****     e_sum += e[LC3_MAX_BANDS-1];
 1316              		.loc 1 319 0
 1317 0172 8DEDC77A 		vstr.32	s14, [sp, #796]
 1318              	.LVL149:
 322:..\..\..\liblc3\src/sns.c **** 
 1319              		.loc 1 322 0
 1320 0176 77EE877A 		vadd.f32	s15, s15, s14
 1321              	.LVL150:
 1322 017a 9FED8E7A 		vldr.32	s14, .L190+28
 1323 017e 67EE877A 		vmul.f32	s15, s15, s14
 1324              	.LVL151:
 1325 0182 A246     		mov	r10, r4
 1326 0184 17EE900A 		vmov	r0, s15
 1327 0188 FFF7FEFF 		bl	fmaxf
 1328              	.LVL152:
 1329 018c 0346     		mov	r3, r0	@ float
 1330              	.LVL153:
 1331              	.L106:
 1332              	.LBB103:
 325:..\..\..\liblc3\src/sns.c **** 
ARM GAS  C:\Users\rdn\AppData\Local\Temp\cc92LAgm.s 			page 47


 1333              		.loc 1 325 0
 1334 018e 1946     		mov	r1, r3	@ float
 1335 0190 DAF80000 		ldr	r0, [r10]	@ float
 1336 0194 0593     		str	r3, [sp, #20]
 1337 0196 FFF7FEFF 		bl	fmaxf
 1338              	.LVL154:
 1339              	.LBB99:
 1340              	.LBB100:
 1341              	.LBB101:
 1342              	.LBB102:
  65:..\..\..\liblc3\src/fastmath.h ****         ((LC3_IEEE754_EXP_BIAS - 1) << LC3_IEEE754_EXP_SHL);
 1343              		.loc 2 65 0
 1344 019a 20F0FF42 		bic	r2, r0, #2139095040
 1345 019e 42F07C53 		orr	r3, r2, #1056964608
 1346 01a2 07EE903A 		vmov	s15, r3	@ int
 1347              	.LVL155:
 1348              	.LBE102:
 1349              	.LBE101:
 1350              	.LBE100:
 1351              	.LBE99:
 325:..\..\..\liblc3\src/sns.c **** 
 1352              		.loc 1 325 0
 1353 01a6 B0EE6A7A 		vmov.f32	s14, s21
 1354 01aa A7EE8B7A 		vfma.f32	s14, s15, s22
 1355 01ae C0F3C750 		ubfx	r0, r0, #23, #8
 1356 01b2 7E38     		subs	r0, r0, #126
 1357 01b4 F0EE4A6A 		vmov.f32	s13, s20
 1358 01b8 E7EE276A 		vfma.f32	s13, s14, s15
 324:..\..\..\liblc3\src/sns.c ****         e[i] = lc3_log2f(fmaxf(e[i], noise_floor)) * 0.5f;
 1359              		.loc 1 324 0
 1360 01bc 059B     		ldr	r3, [sp, #20]
 325:..\..\..\liblc3\src/sns.c **** 
 1361              		.loc 1 325 0
 1362 01be B0EE667A 		vmov.f32	s14, s13
 1363 01c2 F0EE696A 		vmov.f32	s13, s19
 1364 01c6 E7EE276A 		vfma.f32	s13, s14, s15
 1365 01ca B0EE667A 		vmov.f32	s14, s13
 1366 01ce F0EE496A 		vmov.f32	s13, s18
 1367 01d2 E7EE276A 		vfma.f32	s13, s14, s15
 1368 01d6 07EE900A 		vmov	s15, r0	@ int
 1369 01da F8EEE77A 		vcvt.f32.s32	s15, s15
 1370 01de 76EEA77A 		vadd.f32	s15, s13, s15
 1371 01e2 67EEA87A 		vmul.f32	s15, s15, s17
 1372 01e6 EAEC017A 		vstmia.32	r10!, {s15}
 324:..\..\..\liblc3\src/sns.c ****         e[i] = lc3_log2f(fmaxf(e[i], noise_floor)) * 0.5f;
 1373              		.loc 1 324 0
 1374 01ea DA45     		cmp	r10, fp
 1375 01ec CFD1     		bne	.L106
 1376              	.LBE103:
 331:..\..\..\liblc3\src/sns.c ****              (e[0] + e[3]) * 2.f/12 +
 1377              		.loc 1 331 0
 1378 01ee DDED886A 		vldr.32	s13, [sp, #544]
 332:..\..\..\liblc3\src/sns.c ****              (e[1] + e[2]) * 3.f/12  ;
 1379              		.loc 1 332 0
 1380 01f2 DDED8B7A 		vldr.32	s15, [sp, #556]
 1381 01f6 76EEA77A 		vadd.f32	s15, s13, s15
 1382 01fa B2EE087A 		vmov.f32	s14, #1.2e+1
ARM GAS  C:\Users\rdn\AppData\Local\Temp\cc92LAgm.s 			page 48


 1383 01fe 77EEA77A 		vadd.f32	s15, s15, s15
 1384 0202 09AB     		add	r3, sp, #36
 1385 0204 87EE876A 		vdiv.f32	s12, s15, s14
 1386 0208 C0AA     		add	r2, sp, #768
 1387 020a DDED8C7A 		vldr.32	s15, [sp, #560]
 1388 020e 76EEA76A 		vadd.f32	s13, s13, s15
 1389 0212 C6EE877A 		vdiv.f32	s15, s13, s14
 1390 0216 DDED896A 		vldr.32	s13, [sp, #548]
 1391 021a 76EE277A 		vadd.f32	s15, s12, s15
 1392 021e 9DED8A6A 		vldr.32	s12, [sp, #552]
 1393 0222 36EE866A 		vadd.f32	s12, s13, s12
 1394 0226 F0EE086A 		vmov.f32	s13, #3.0e+0
 1395 022a 26EE266A 		vmul.f32	s12, s12, s13
 1396 022e C6EE075A 		vdiv.f32	s11, s12, s14
 1397 0232 77EEA57A 		vadd.f32	s15, s15, s11
 331:..\..\..\liblc3\src/sns.c ****              (e[0] + e[3]) * 2.f/12 +
 1398              		.loc 1 331 0
 1399 0236 CDED087A 		vstr.32	s15, [sp, #32]
 1400              	.LVL156:
 1401              	.L107:
 1402              	.LBB104:
 338:..\..\..\liblc3\src/sns.c ****                  (e[4*i+1] + e[4*i+2]) * 3.f/12  ;
 1403              		.loc 1 338 0
 1404 023a D4ED075A 		vldr.32	s11, [r4, #28]
 1405 023e 94ED046A 		vldr.32	s12, [r4, #16]
 1406 0242 D4ED084A 		vldr.32	s9, [r4, #32]
 1407 0246 36EE256A 		vadd.f32	s12, s12, s11
 1408 024a 1034     		adds	r4, r4, #16
 1409 024c 76EE065A 		vadd.f32	s11, s12, s12
 1410 0250 B2EE085A 		vmov.f32	s10, #1.2e+1
 1411 0254 85EE876A 		vdiv.f32	s12, s11, s14
 1412 0258 54ED015A 		vldr.32	s11, [r4, #-4]
 1413 025c 75EEA45A 		vadd.f32	s11, s11, s9
 1414 0260 C5EE874A 		vdiv.f32	s9, s11, s14
 1415 0264 D4ED015A 		vldr.32	s11, [r4, #4]
 1416 0268 36EE246A 		vadd.f32	s12, s12, s9
 1417 026c D4ED024A 		vldr.32	s9, [r4, #8]
 1418 0270 75EEA45A 		vadd.f32	s11, s11, s9
 336:..\..\..\liblc3\src/sns.c ****         scf[i] = (e[4*i-1] + e[4*i+4]) * 1.f/12 +
 1419              		.loc 1 336 0
 1420 0274 9442     		cmp	r4, r2
 338:..\..\..\liblc3\src/sns.c ****                  (e[4*i+1] + e[4*i+2]) * 3.f/12  ;
 1421              		.loc 1 338 0
 1422 0276 65EEA65A 		vmul.f32	s11, s11, s13
 1423 027a C5EE874A 		vdiv.f32	s9, s11, s14
 1424 027e 36EE246A 		vadd.f32	s12, s12, s9
 337:..\..\..\liblc3\src/sns.c ****                  (e[4*i  ] + e[4*i+3]) * 2.f/12 +
 1425              		.loc 1 337 0
 1426 0282 A3EC016A 		vstmia.32	r3!, {s12}
 340:..\..\..\liblc3\src/sns.c ****     }
 1427              		.loc 1 340 0
 1428 0286 77EE867A 		vadd.f32	s15, s15, s12
 1429              	.LVL157:
 336:..\..\..\liblc3\src/sns.c ****         scf[i] = (e[4*i-1] + e[4*i+4]) * 1.f/12 +
 1430              		.loc 1 336 0
 1431 028a D6D1     		bne	.L107
 1432              	.LBE104:
ARM GAS  C:\Users\rdn\AppData\Local\Temp\cc92LAgm.s 			page 49


 343:..\..\..\liblc3\src/sns.c ****               (e[60] + e[63]) * 2.f/12 +
 1433              		.loc 1 343 0
 1434 028c DDEDC75A 		vldr.32	s11, [sp, #796]
 344:..\..\..\liblc3\src/sns.c ****               (e[61] + e[62]) * 3.f/12  ;
 1435              		.loc 1 344 0
 1436 0290 9DEDC47A 		vldr.32	s14, [sp, #784]
 1437 0294 35EE877A 		vadd.f32	s14, s11, s14
 348:..\..\..\liblc3\src/sns.c ****     if (lc3_hr(sr) && 8 * nbytes >
 1438              		.loc 1 348 0
 1439 0298 B9F1040F 		cmp	r9, #4
 344:..\..\..\liblc3\src/sns.c ****               (e[61] + e[62]) * 3.f/12  ;
 1440              		.loc 1 344 0
 1441 029c 37EE076A 		vadd.f32	s12, s14, s14
 1442 02a0 86EE057A 		vdiv.f32	s14, s12, s10
 1443 02a4 9DEDC36A 		vldr.32	s12, [sp, #780]
 1444 02a8 75EE865A 		vadd.f32	s11, s11, s12
 1445 02ac 85EE856A 		vdiv.f32	s12, s11, s10
 1446 02b0 DDEDC65A 		vldr.32	s11, [sp, #792]
 1447 02b4 37EE067A 		vadd.f32	s14, s14, s12
 1448 02b8 9DEDC56A 		vldr.32	s12, [sp, #788]
 1449 02bc 36EE256A 		vadd.f32	s12, s12, s11
 1450 02c0 F0EE085A 		vmov.f32	s11, #3.0e+0
 1451 02c4 26EE256A 		vmul.f32	s12, s12, s11
 1452 02c8 C6EE055A 		vdiv.f32	s11, s12, s10
 1453 02cc 37EE257A 		vadd.f32	s14, s14, s11
 343:..\..\..\liblc3\src/sns.c ****               (e[60] + e[63]) * 2.f/12 +
 1454              		.loc 1 343 0
 1455 02d0 8DED177A 		vstr.32	s14, [sp, #92]
 346:..\..\..\liblc3\src/sns.c **** 
 1456              		.loc 1 346 0
 1457 02d4 77EE877A 		vadd.f32	s15, s15, s14
 1458              	.LVL158:
 348:..\..\..\liblc3\src/sns.c ****     if (lc3_hr(sr) && 8 * nbytes >
 1459              		.loc 1 348 0
 1460 02d8 02D8     		bhi	.L108
 1461 02da 9FED377A 		vldr.32	s14, .L190+32
 1462 02de 11E0     		b	.L109
 1463              	.L108:
 1464              	.LVL159:
 350:..\..\..\liblc3\src/sns.c ****         cf *= dt < LC3_DT_10M ? 0.25f : 0.35f;
 1465              		.loc 1 350 0
 1466 02e0 B8F1020F 		cmp	r8, #2
 349:..\..\..\liblc3\src/sns.c ****             (dt < LC3_DT_10M ? 1150 * (int)(1 + dt) : 4400))
 1467              		.loc 1 349 0
 1468 02e4 4FEAC606 		lsl	r6, r6, #3
 1469              	.LVL160:
 1470 02e8 9FED347A 		vldr.32	s14, .L190+36
 350:..\..\..\liblc3\src/sns.c ****         cf *= dt < LC3_DT_10M ? 0.25f : 0.35f;
 1471              		.loc 1 350 0
 1472 02ec 00F28B82 		bhi	.L187
 349:..\..\..\liblc3\src/sns.c ****             (dt < LC3_DT_10M ? 1150 * (int)(1 + dt) : 4400))
 1473              		.loc 1 349 0
 1474 02f0 40F27E43 		movw	r3, #1150
 1475 02f4 08FB0333 		mla	r3, r8, r3, r3
 1476 02f8 9E42     		cmp	r6, r3
 1477 02fa 03DD     		ble	.L109
 351:..\..\..\liblc3\src/sns.c **** 
ARM GAS  C:\Users\rdn\AppData\Local\Temp\cc92LAgm.s 			page 50


 1478              		.loc 1 351 0
 1479 02fc B5EE006A 		vmov.f32	s12, #2.5e-1
 1480              	.L147:
 1481 0300 26EE077A 		vmul.f32	s14, s12, s14
 1482              	.LVL161:
 1483              	.L109:
 1484              	.LBB105:
 354:..\..\..\liblc3\src/sns.c **** 
 1485              		.loc 1 354 0
 1486 0304 9FED2E6A 		vldr.32	s12, .L190+40
 1487 0308 08AB     		add	r3, sp, #32
 1488              	.LVL162:
 1489 030a 67EE867A 		vmul.f32	s15, s15, s12
 1490              	.LVL163:
 1491 030e 18A8     		add	r0, sp, #96
 1492 0310 1A46     		mov	r2, r3
 1493 0312 F0EE465A 		vmov.f32	s11, s12
 1494              	.LVL164:
 1495              	.L110:
 1496 0316 92ED006A 		vldr.32	s12, [r2]
 1497 031a 36EE676A 		vsub.f32	s12, s12, s15
 1498 031e 26EE076A 		vmul.f32	s12, s12, s14
 1499 0322 A2EC016A 		vstmia.32	r2!, {s12}
 353:..\..\..\liblc3\src/sns.c ****         scf[i] = cf * (scf[i] - scf_sum * 1.f/16);
 1500              		.loc 1 353 0
 1501 0326 8242     		cmp	r2, r0
 1502 0328 F5D1     		bne	.L110
 1503              	.LBE105:
 358:..\..\..\liblc3\src/sns.c ****         return;
 1504              		.loc 1 358 0
 1505 032a 002F     		cmp	r7, #0
 1506 032c 6FD0     		beq	.L114
 361:..\..\..\liblc3\src/sns.c ****     float sn = s1 + s2;
 1507              		.loc 1 361 0
 1508 032e 9DED084A 		vldr.32	s8, [sp, #32]
 1509              	.LVL165:
 1510 0332 9DED096A 		vldr.32	s12, [sp, #36]
 1511              	.LVL166:
 1512 0336 9DED0A5A 		vldr.32	s10, [sp, #40]
 1513              	.LVL167:
 1514 033a DDED0B4A 		vldr.32	s9, [sp, #44]
 1515              	.LVL168:
 362:..\..\..\liblc3\src/sns.c **** 
 1516              		.loc 1 362 0
 1517 033e 74EE067A 		vadd.f32	s15, s8, s12
 1518              	.LVL169:
 1519 0342 0CAA     		add	r2, sp, #48
 364:..\..\..\liblc3\src/sns.c ****     scf[1] = (sn += s4) * 1.f/4;
 1520              		.loc 1 364 0
 1521 0344 75EE277A 		vadd.f32	s15, s10, s15
 1522              	.LVL170:
 1523              	.LBB106:
 370:..\..\..\liblc3\src/sns.c ****         scf_sum += scf[i];
 1524              		.loc 1 370 0
 1525 0348 F1EE042A 		vmov.f32	s5, #5.0e+0
 1526              	.LBE106:
 364:..\..\..\liblc3\src/sns.c ****     scf[1] = (sn += s4) * 1.f/4;
ARM GAS  C:\Users\rdn\AppData\Local\Temp\cc92LAgm.s 			page 51


 1527              		.loc 1 364 0
 1528 034c 87EEA67A 		vdiv.f32	s14, s15, s13
 1529              	.LVL171:
 365:..\..\..\liblc3\src/sns.c ****     scf_sum = scf[0] + scf[1];
 1530              		.loc 1 365 0
 1531 0350 74EEA77A 		vadd.f32	s15, s9, s15
 1532              	.LVL172:
 364:..\..\..\liblc3\src/sns.c ****     scf[1] = (sn += s4) * 1.f/4;
 1533              		.loc 1 364 0
 1534 0354 8DED087A 		vstr.32	s14, [sp, #32]
 365:..\..\..\liblc3\src/sns.c ****     scf_sum = scf[0] + scf[1];
 1535              		.loc 1 365 0
 1536 0358 67EE883A 		vmul.f32	s7, s15, s16
 366:..\..\..\liblc3\src/sns.c **** 
 1537              		.loc 1 366 0
 1538 035c 37EE237A 		vadd.f32	s14, s14, s7
 1539              	.LVL173:
 365:..\..\..\liblc3\src/sns.c ****     scf_sum = scf[0] + scf[1];
 1540              		.loc 1 365 0
 1541 0360 CDED093A 		vstr.32	s7, [sp, #36]
 1542              	.LVL174:
 1543              	.L112:
 1544              	.LBB107:
 369:..\..\..\liblc3\src/sns.c ****         scf[i] = (sn += s4) * 1.f/5;
 1545              		.loc 1 369 0
 1546 0364 B2EC013A 		vldmia.32	r2!, {s6}
 1547              	.LVL175:
 370:..\..\..\liblc3\src/sns.c ****         scf_sum += scf[i];
 1548              		.loc 1 370 0
 1549 0368 73EE277A 		vadd.f32	s15, s6, s15
 1550              	.LVL176:
 368:..\..\..\liblc3\src/sns.c ****         s0 = s1, s1 = s2, s2 = s3, s3 = s4, s4 = scf[i+2];
 1551              		.loc 1 368 0
 1552 036c 8242     		cmp	r2, r0
 370:..\..\..\liblc3\src/sns.c ****         scf_sum += scf[i];
 1553              		.loc 1 370 0
 1554 036e C7EEA23A 		vdiv.f32	s7, s15, s5
 368:..\..\..\liblc3\src/sns.c ****         s0 = s1, s1 = s2, s2 = s3, s3 = s4, s4 = scf[i+2];
 1555              		.loc 1 368 0
 1556 0372 77EEC47A 		vsub.f32	s15, s15, s8
 1557              	.LVL177:
 370:..\..\..\liblc3\src/sns.c ****         scf_sum += scf[i];
 1558              		.loc 1 370 0
 1559 0376 42ED033A 		vstr.32	s7, [r2, #-12]
 371:..\..\..\liblc3\src/sns.c ****     }
 1560              		.loc 1 371 0
 1561 037a 37EE237A 		vadd.f32	s14, s14, s7
 1562              	.LVL178:
 1563 037e B0EE464A 		vmov.f32	s8, s12
 1564              	.LVL179:
 1565 0382 F0EE453A 		vmov.f32	s7, s10
 1566 0386 B0EE645A 		vmov.f32	s10, s9
 1567              	.LVL180:
 368:..\..\..\liblc3\src/sns.c ****         s0 = s1, s1 = s2, s2 = s3, s3 = s4, s4 = scf[i+2];
 1568              		.loc 1 368 0
 1569 038a 1FD0     		beq	.L188
 1570              	.LVL181:
ARM GAS  C:\Users\rdn\AppData\Local\Temp\cc92LAgm.s 			page 52


 369:..\..\..\liblc3\src/sns.c ****         scf[i] = (sn += s4) * 1.f/5;
 1571              		.loc 1 369 0
 1572 038c F0EE434A 		vmov.f32	s9, s6
 1573              	.LVL182:
 368:..\..\..\liblc3\src/sns.c ****         s0 = s1, s1 = s2, s2 = s3, s3 = s4, s4 = scf[i+2];
 1574              		.loc 1 368 0
 1575 0390 B0EE636A 		vmov.f32	s12, s7
 1576 0394 E6E7     		b	.L112
 1577              	.L191:
 1578 0396 00BF     		.align	2
 1579              	.L190:
 1580 0398 00000000 		.word	lc3_num_bands
 1581 039c 00000000 		.word	.LANCHOR0
 1582 03a0 E7BBA5BF 		.word	-1079657497
 1583 03a4 1EC4A340 		.word	1084474398
 1584 03a8 6AC406C1 		.word	-1056521110
 1585 03ac 74B00141 		.word	1090629748
 1586 03b0 F55C60C0 		.word	-1067426571
 1587 03b4 17B7D135 		.word	902936343
 1588 03b8 9A99593F 		.word	1062836634
 1589 03bc 9A99193F 		.word	1058642330
 1590 03c0 0000803D 		.word	1031798784
 1591 03c4 9A99993E 		.word	1050253722
 1592 03c8 00000000 		.word	0
 1593              	.LVL183:
 1594              	.L188:
 1595              	.LBE107:
 374:..\..\..\liblc3\src/sns.c ****     scf[15] = (sn -= s1) * 1.f/3;
 1596              		.loc 1 374 0
 1597 03cc 27EE888A 		vmul.f32	s16, s15, s16
 375:..\..\..\liblc3\src/sns.c ****     scf_sum += scf[14] + scf[15];
 1598              		.loc 1 375 0
 1599 03d0 77EEC67A 		vsub.f32	s15, s15, s12
 1600              	.LVL184:
 374:..\..\..\liblc3\src/sns.c ****     scf[15] = (sn -= s1) * 1.f/3;
 1601              		.loc 1 374 0
 1602 03d4 8DED168A 		vstr.32	s16, [sp, #88]
 375:..\..\..\liblc3\src/sns.c ****     scf_sum += scf[14] + scf[15];
 1603              		.loc 1 375 0
 1604 03d8 87EEA66A 		vdiv.f32	s12, s15, s13
 1605 03dc B8F1020F 		cmp	r8, #2
 1606 03e0 5FED087A 		vldr.32	s15, .L190+44
 1607 03e4 8DED176A 		vstr.32	s12, [sp, #92]
 1608              	.LVL185:
 1609              	.LBB108:
 380:..\..\..\liblc3\src/sns.c **** }
 1610              		.loc 1 380 0
 1611 03e8 38EE068A 		vadd.f32	s16, s16, s12
 1612              	.LVL186:
 1613 03ec 08BF     		it	eq
 1614 03ee F0EE678A 		vmoveq.f32	s17, s15
 1615 03f2 38EE078A 		vadd.f32	s16, s16, s14
 1616              	.LVL187:
 1617 03f6 28EE258A 		vmul.f32	s16, s16, s11
 1618              	.LVL188:
 1619              	.L113:
 379:..\..\..\liblc3\src/sns.c ****                  (scf[i] - scf_sum * 1.f/16);
ARM GAS  C:\Users\rdn\AppData\Local\Temp\cc92LAgm.s 			page 53


 1620              		.loc 1 379 0
 1621 03fa D3ED007A 		vldr.32	s15, [r3]
 1622 03fe 77EEC87A 		vsub.f32	s15, s15, s16
 1623 0402 67EEA87A 		vmul.f32	s15, s15, s17
 1624 0406 E3EC017A 		vstmia.32	r3!, {s15}
 378:..\..\..\liblc3\src/sns.c ****         scf[i] = (dt == LC3_DT_7M5 ? 0.3f : 0.5f) *
 1625              		.loc 1 378 0
 1626 040a 9842     		cmp	r0, r3
 1627 040c F5D1     		bne	.L113
 1628              	.LVL189:
 1629              	.L114:
 1630              	.LBE108:
 1631              	.LBE111:
 1632              	.LBE115:
 1633              	.LBB116:
 1634              	.LBB117:
 391:..\..\..\liblc3\src/sns.c ****     *lfcb_idx = *hfcb_idx = 0;
 1635              		.loc 1 391 0
 1636 040e 5FED125A 		vldr.32	s11, .L190+48
 1637 0412 DFF84CE3 		ldr	lr, .L192+4
 1638 0416 DFF84CA3 		ldr	r10, .L192+8
 392:..\..\..\liblc3\src/sns.c **** 
 1639              		.loc 1 392 0
 1640 041a 0023     		movs	r3, #0
 1641 041c 6B60     		str	r3, [r5, #4]
 1642 041e 2B60     		str	r3, [r5]
 1643              	.LVL190:
 391:..\..\..\liblc3\src/sns.c ****     *lfcb_idx = *hfcb_idx = 0;
 1644              		.loc 1 391 0
 1645 0420 F0EE656A 		vmov.f32	s13, s11
 1646              	.LBB118:
 394:..\..\..\liblc3\src/sns.c ****         const float *lfcb = lc3_sns_lfcb[icb];
 1647              		.loc 1 394 0
 1648 0424 1A46     		mov	r2, r3
 1649              	.LVL191:
 1650              	.L122:
 1651              	.LBB119:
 397:..\..\..\liblc3\src/sns.c **** 
 1652              		.loc 1 397 0
 1653 0426 9FEDCD7A 		vldr.32	s14, .L192
 1654 042a 03EB0E06 		add	r6, r3, lr
 1655 042e 10A9     		add	r1, sp, #64
 1656 0430 03EB0A0C 		add	ip, r3, r10
 1657 0434 2033     		adds	r3, r3, #32
 1658              	.LVL192:
 1659 0436 03EB0E0B 		add	fp, r3, lr
 1660              	.LBE119:
 394:..\..\..\liblc3\src/sns.c ****         const float *lfcb = lc3_sns_lfcb[icb];
 1661              		.loc 1 394 0
 1662 043a 0C46     		mov	r4, r1
 1663              	.LBB122:
 397:..\..\..\liblc3\src/sns.c **** 
 1664              		.loc 1 397 0
 1665 043c F0EE477A 		vmov.f32	s15, s14
 1666              	.LVL193:
 1667              	.L115:
 1668              	.LBB120:
ARM GAS  C:\Users\rdn\AppData\Local\Temp\cc92LAgm.s 			page 54


 400:..\..\..\liblc3\src/sns.c ****             dhfcb += (scf[8+i] - hfcb[i]) * (scf[8+i] - hfcb[i]);
 1669              		.loc 1 400 0
 1670 0440 B6EC015A 		vldmia.32	r6!, {s10}
 1671 0444 14ED086A 		vldr.32	s12, [r4, #-32]
 1672 0448 36EE456A 		vsub.f32	s12, s12, s10
 1673              	.LVL194:
 401:..\..\..\liblc3\src/sns.c ****         }
 1674              		.loc 1 401 0
 1675 044c BCEC015A 		vldmia.32	ip!, {s10}
 400:..\..\..\liblc3\src/sns.c ****             dhfcb += (scf[8+i] - hfcb[i]) * (scf[8+i] - hfcb[i]);
 1676              		.loc 1 400 0
 1677 0450 E6EE067A 		vfma.f32	s15, s12, s12
 1678              	.LVL195:
 399:..\..\..\liblc3\src/sns.c ****             dlfcb += (scf[  i] - lfcb[i]) * (scf[  i] - lfcb[i]);
 1679              		.loc 1 399 0
 1680 0454 5E45     		cmp	r6, fp
 401:..\..\..\liblc3\src/sns.c ****         }
 1681              		.loc 1 401 0
 1682 0456 04F10404 		add	r4, r4, #4
 1683 045a 14ED016A 		vldr.32	s12, [r4, #-4]
 1684 045e 36EE456A 		vsub.f32	s12, s12, s10
 1685 0462 A6EE067A 		vfma.f32	s14, s12, s12
 1686              	.LVL196:
 399:..\..\..\liblc3\src/sns.c ****             dlfcb += (scf[  i] - lfcb[i]) * (scf[  i] - lfcb[i]);
 1687              		.loc 1 399 0
 1688 0466 EBD1     		bne	.L115
 1689              	.LBE120:
 404:..\..\..\liblc3\src/sns.c ****             *lfcb_idx = icb, dlfcb_max = dlfcb;
 1690              		.loc 1 404 0
 1691 0468 22B1     		cbz	r2, .L116
 1692 046a F4EEE67A 		vcmpe.f32	s15, s13
 1693 046e F1EE10FA 		vmrs	APSR_nzcv, FPSCR
 1694 0472 02D5     		bpl	.L182
 1695              	.L116:
 405:..\..\..\liblc3\src/sns.c **** 
 1696              		.loc 1 405 0
 1697 0474 2A60     		str	r2, [r5]
 1698              	.LVL197:
 407:..\..\..\liblc3\src/sns.c ****             *hfcb_idx = icb, dhfcb_max = dhfcb;
 1699              		.loc 1 407 0
 1700 0476 12B9     		cbnz	r2, .L117
 1701 0478 06E0     		b	.L119
 1702              	.LVL198:
 1703              	.L182:
 404:..\..\..\liblc3\src/sns.c ****             *lfcb_idx = icb, dlfcb_max = dlfcb;
 1704              		.loc 1 404 0
 1705 047a F0EE667A 		vmov.f32	s15, s13
 1706              	.LVL199:
 1707              	.L117:
 407:..\..\..\liblc3\src/sns.c ****             *hfcb_idx = icb, dhfcb_max = dhfcb;
 1708              		.loc 1 407 0
 1709 047e B4EEE57A 		vcmpe.f32	s14, s11
 1710 0482 F1EE10FA 		vmrs	APSR_nzcv, FPSCR
 1711 0486 05D5     		bpl	.L183
 1712              	.L119:
 408:..\..\..\liblc3\src/sns.c ****     }
 1713              		.loc 1 408 0
ARM GAS  C:\Users\rdn\AppData\Local\Temp\cc92LAgm.s 			page 55


 1714 0488 6A60     		str	r2, [r5, #4]
 1715              	.LVL200:
 1716 048a F0EE676A 		vmov.f32	s13, s15
 1717              	.LBB121:
 401:..\..\..\liblc3\src/sns.c ****         }
 1718              		.loc 1 401 0
 1719 048e F0EE475A 		vmov.f32	s11, s14
 1720 0492 01E0     		b	.L120
 1721              	.LVL201:
 1722              	.L183:
 1723              	.LBE121:
 407:..\..\..\liblc3\src/sns.c ****             *hfcb_idx = icb, dhfcb_max = dhfcb;
 1724              		.loc 1 407 0
 1725 0494 F0EE676A 		vmov.f32	s13, s15
 1726              	.LVL202:
 1727              	.L120:
 1728              	.LBE122:
 394:..\..\..\liblc3\src/sns.c ****         const float *lfcb = lc3_sns_lfcb[icb];
 1729              		.loc 1 394 0
 1730 0498 0132     		adds	r2, r2, #1
 1731              	.LVL203:
 1732 049a 202A     		cmp	r2, #32
 1733 049c C3D1     		bne	.L122
 1734              	.LVL204:
 1735              	.LBE118:
 1736              	.LBE117:
 1737              	.LBE116:
 1738              	.LBB123:
 1739              	.LBB124:
 469:..\..\..\liblc3\src/sns.c ****     const float *hfcb = lc3_sns_hfcb[hfcb_idx];
 1740              		.loc 1 469 0
 1741 049e 2A68     		ldr	r2, [r5]
 1742 04a0 AF4B     		ldr	r3, .L192+4
 470:..\..\..\liblc3\src/sns.c ****     float r[16], x[16];
 1743              		.loc 1 470 0
 1744 04a2 6C68     		ldr	r4, [r5, #4]
 469:..\..\..\liblc3\src/sns.c ****     const float *hfcb = lc3_sns_hfcb[hfcb_idx];
 1745              		.loc 1 469 0
 1746 04a4 03EB4213 		add	r3, r3, r2, lsl #5
 1747              	.LVL205:
 470:..\..\..\liblc3\src/sns.c ****     float r[16], x[16];
 1748              		.loc 1 470 0
 1749 04a8 AE4A     		ldr	r2, .L192+8
 1750 04aa 03F12007 		add	r7, r3, #32
 1751 04ae 02EB4412 		add	r2, r2, r4, lsl #5
 1752 04b2 20AC     		add	r4, sp, #128
 1753              	.LVL206:
 1754              	.L123:
 1755              	.LBB125:
 474:..\..\..\liblc3\src/sns.c ****         r[8+i] = scf[8+i] - hfcb[i];
 1756              		.loc 1 474 0
 1757 04b4 B3EC017A 		vldmia.32	r3!, {s14}
 1758 04b8 51ED087A 		vldr.32	s15, [r1, #-32]
 1759 04bc 77EEC77A 		vsub.f32	s15, s15, s14
 475:..\..\..\liblc3\src/sns.c ****     }
 1760              		.loc 1 475 0
 1761 04c0 B2EC017A 		vldmia.32	r2!, {s14}
ARM GAS  C:\Users\rdn\AppData\Local\Temp\cc92LAgm.s 			page 56


 474:..\..\..\liblc3\src/sns.c ****         r[8+i] = scf[8+i] - hfcb[i];
 1762              		.loc 1 474 0
 1763 04c4 44ED087A 		vstr.32	s15, [r4, #-32]
 475:..\..\..\liblc3\src/sns.c ****     }
 1764              		.loc 1 475 0
 1765 04c8 D1ED007A 		vldr.32	s15, [r1]
 1766 04cc 77EEC77A 		vsub.f32	s15, s15, s14
 473:..\..\..\liblc3\src/sns.c ****         r[  i] = scf[  i] - lfcb[i];
 1767              		.loc 1 473 0
 1768 04d0 BB42     		cmp	r3, r7
 475:..\..\..\liblc3\src/sns.c ****     }
 1769              		.loc 1 475 0
 1770 04d2 01F10401 		add	r1, r1, #4
 1771 04d6 E4EC017A 		vstmia.32	r4!, {s15}
 473:..\..\..\liblc3\src/sns.c ****         r[  i] = scf[  i] - lfcb[i];
 1772              		.loc 1 473 0
 1773 04da EBD1     		bne	.L123
 1774              	.LBE125:
 1775              	.LBB126:
 1776              	.LBB127:
 127:..\..\..\liblc3\src/sns.c **** }
 1777              		.loc 1 127 0
 1778 04dc A24E     		ldr	r6, .L192+12
 1779              	.LBE127:
 1780              	.LBE126:
 1781              	.LBB129:
 473:..\..\..\liblc3\src/sns.c ****         r[  i] = scf[  i] - lfcb[i];
 1782              		.loc 1 473 0
 1783 04de 28AC     		add	r4, sp, #160
 1784 04e0 0022     		movs	r2, #0
 1785              	.LVL207:
 1786              	.L125:
 1787 04e2 DFED9E7A 		vldr.32	s15, .L192
 1788 04e6 0023     		movs	r3, #0
 1789              	.LVL208:
 1790              	.L124:
 1791              	.LBE129:
 1792              	.LBB130:
 1793              	.LBB128:
 127:..\..\..\liblc3\src/sns.c **** }
 1794              		.loc 1 127 0
 1795 04e8 02EB0311 		add	r1, r2, r3, lsl #4
 1796 04ec C718     		adds	r7, r0, r3
 1797 04ee 3144     		add	r1, r1, r6
 1798 04f0 D7ED006A 		vldr.32	s13, [r7]
 1799 04f4 91ED007A 		vldr.32	s14, [r1]
 1800 04f8 0433     		adds	r3, r3, #4
 126:..\..\..\liblc3\src/sns.c ****             y[i] += x[j] * dct16_m[j][i];
 1801              		.loc 1 126 0
 1802 04fa 402B     		cmp	r3, #64
 127:..\..\..\liblc3\src/sns.c **** }
 1803              		.loc 1 127 0
 1804 04fc E6EE877A 		vfma.f32	s15, s13, s14
 126:..\..\..\liblc3\src/sns.c ****             y[i] += x[j] * dct16_m[j][i];
 1805              		.loc 1 126 0
 1806 0500 F2D1     		bne	.L124
 1807 0502 0432     		adds	r2, r2, #4
ARM GAS  C:\Users\rdn\AppData\Local\Temp\cc92LAgm.s 			page 57


 125:..\..\..\liblc3\src/sns.c ****         for (y[i] = 0, j = 0; j < 16; j++)
 1808              		.loc 1 125 0
 1809 0504 402A     		cmp	r2, #64
 1810 0506 E4EC017A 		vstmia.32	r4!, {s15}
 1811              	.LVL209:
 1812 050a EAD1     		bne	.L125
 1813 050c 38AB     		add	r3, sp, #224
 1814 050e 9FED937A 		vldr.32	s14, .L192
 1815 0512 1946     		mov	r1, r3
 1816 0514 28AA     		add	r2, sp, #160
 1817 0516 9A46     		mov	r10, r3
 1818              	.L126:
 1819              	.LVL210:
 1820              	.LBE128:
 1821              	.LBE130:
 1822              	.LBB131:
 488:..\..\..\liblc3\src/sns.c ****         xm_sum += xm[i];
 1823              		.loc 1 488 0
 1824 0518 F2EC017A 		vldmia.32	r2!, {s15}
 1825 051c F0EEE77A 		vabs.f32	s15, s15
 487:..\..\..\liblc3\src/sns.c ****         xm[i] = fabsf(x[i]);
 1826              		.loc 1 487 0
 1827 0520 8A42     		cmp	r2, r1
 488:..\..\..\liblc3\src/sns.c ****         xm_sum += xm[i];
 1828              		.loc 1 488 0
 1829 0522 E3EC017A 		vstmia.32	r3!, {s15}
 489:..\..\..\liblc3\src/sns.c ****     }
 1830              		.loc 1 489 0
 1831 0526 37EE277A 		vadd.f32	s14, s14, s15
 1832              	.LVL211:
 487:..\..\..\liblc3\src/sns.c ****         xm[i] = fabsf(x[i]);
 1833              		.loc 1 487 0
 1834 052a F5D1     		bne	.L126
 1835              	.LBE131:
 492:..\..\..\liblc3\src/sns.c ****     float corr = 0, energy = 0;
 1836              		.loc 1 492 0
 1837 052c 17EE100A 		vmov	r0, s14
 1838 0530 8E49     		ldr	r1, .L192+16
 1839 0532 9FED8A8A 		vldr.32	s16, .L192
 1840 0536 FFF7FEFF 		bl	fmaxf
 1841              	.LVL212:
 1842 053a 07EE100A 		vmov	s14, r0
 1843 053e F1EE047A 		vmov.f32	s15, #5.0e+0
 1844 0542 C7EE879A 		vdiv.f32	s19, s15, s14
 1845              	.LVL213:
 1846 0546 0024     		movs	r4, #0
 494:..\..\..\liblc3\src/sns.c **** 
 1847              		.loc 1 494 0
 1848 0548 2346     		mov	r3, r4
 492:..\..\..\liblc3\src/sns.c ****     float corr = 0, energy = 0;
 1849              		.loc 1 492 0
 1850 054a F0EE488A 		vmov.f32	s17, s16
 1851              	.LVL214:
 1852              	.L127:
 1853              	.LBB132:
 497:..\..\..\liblc3\src/sns.c ****         npulses += c[3][i];
 1854              		.loc 1 497 0
ARM GAS  C:\Users\rdn\AppData\Local\Temp\cc92LAgm.s 			page 58


 1855 054e 0AEB0402 		add	r2, r10, r4
 1856 0552 92ED009A 		vldr.32	s18, [r2]
 1857 0556 0593     		str	r3, [sp, #20]
 1858              	.LVL215:
 1859 0558 69EE897A 		vmul.f32	s15, s19, s18
 1860 055c 17EE900A 		vmov	r0, s15
 1861 0560 FFF7FEFF 		bl	floorf
 1862              	.LVL216:
 1863 0564 07EE900A 		vmov	s15, r0
 1864 0568 FDEEE77A 		vcvt.s32.f32	s15, s15
 1865 056c 88AB     		add	r3, sp, #544
 1866              	.LVL217:
 1867 056e 17EE900A 		vmov	r0, s15	@ int
 1868 0572 1A19     		adds	r2, r3, r4
 498:..\..\..\liblc3\src/sns.c ****         corr    += c[3][i] * xm[i];
 1869              		.loc 1 498 0
 1870 0574 059B     		ldr	r3, [sp, #20]
 1871              	.LVL218:
 497:..\..\..\liblc3\src/sns.c ****         npulses += c[3][i];
 1872              		.loc 1 497 0
 1873 0576 C2ED307A 		vstr.32	s15, [r2, #192]	@ int
 499:..\..\..\liblc3\src/sns.c ****         energy  += c[3][i] * c[3][i];
 1874              		.loc 1 499 0
 1875 057a F8EEE77A 		vcvt.f32.s32	s15, s15
 498:..\..\..\liblc3\src/sns.c ****         corr    += c[3][i] * xm[i];
 1876              		.loc 1 498 0
 1877 057e 0344     		add	r3, r3, r0
 1878              	.LVL219:
 500:..\..\..\liblc3\src/sns.c ****     }
 1879              		.loc 1 500 0
 1880 0580 4043     		muls	r0, r0, r0
 499:..\..\..\liblc3\src/sns.c ****         energy  += c[3][i] * c[3][i];
 1881              		.loc 1 499 0
 1882 0582 E9EE278A 		vfma.f32	s17, s18, s15
 1883 0586 0434     		adds	r4, r4, #4
 496:..\..\..\liblc3\src/sns.c ****         c[3][i] = floorf(xm[i] * proj_factor);
 1884              		.loc 1 496 0
 1885 0588 402C     		cmp	r4, #64
 500:..\..\..\liblc3\src/sns.c ****     }
 1886              		.loc 1 500 0
 1887 058a 07EE900A 		vmov	s15, r0	@ int
 1888 058e F8EEE77A 		vcvt.f32.s32	s15, s15
 1889 0592 38EE278A 		vadd.f32	s16, s16, s15
 496:..\..\..\liblc3\src/sns.c ****         c[3][i] = floorf(xm[i] * proj_factor);
 1890              		.loc 1 496 0
 1891 0596 DAD1     		bne	.L127
 1892 0598 06AE     		add	r6, sp, #24
 1893 059a 07AF     		add	r7, sp, #28
 1894              	.LBE132:
 503:..\..\..\liblc3\src/sns.c ****     npulses = 6;
 1895              		.loc 1 503 0
 1896 059c 4FF0060B 		mov	fp, #6
 1897 05a0 C6ED008A 		vstr.32	s17, [r6]
 1898 05a4 87ED008A 		vstr.32	s16, [r7]
 1899 05a8 1022     		movs	r2, #16
 1900 05aa B8A9     		add	r1, sp, #736
 1901 05ac 5046     		mov	r0, r10
ARM GAS  C:\Users\rdn\AppData\Local\Temp\cc92LAgm.s 			page 59


 1902 05ae 0297     		str	r7, [sp, #8]
 1903 05b0 0196     		str	r6, [sp, #4]
 1904 05b2 CDF800B0 		str	fp, [sp]
 1905 05b6 FFF7FEFF 		bl	add_pulse
 1906              	.LVL220:
 509:..\..\..\liblc3\src/sns.c **** 
 1907              		.loc 1 509 0
 1908 05ba 0DF5387E 		add	lr, sp, #736
 1909 05be BEE80F00 		ldmia	lr!, {r0, r1, r2, r3}
 1910 05c2 A8AC     		add	r4, sp, #672
 1911 05c4 0FC4     		stmia	r4!, {r0, r1, r2, r3}
 1912 05c6 BEE80F00 		ldmia	lr!, {r0, r1, r2, r3}
 1913 05ca 0FC4     		stmia	r4!, {r0, r1, r2, r3}
 1914 05cc BEE80F00 		ldmia	lr!, {r0, r1, r2, r3}
 1915 05d0 0FC4     		stmia	r4!, {r0, r1, r2, r3}
 1916 05d2 9EE80F00 		ldmia	lr, {r0, r1, r2, r3}
 1917 05d6 84E80F00 		stmia	r4, {r0, r1, r2, r3}
 511:..\..\..\liblc3\src/sns.c ****     npulses = 8;
 1918              		.loc 1 511 0
 1919 05da 0823     		movs	r3, #8
 1920 05dc 0297     		str	r7, [sp, #8]
 1921 05de 1022     		movs	r2, #16
 1922 05e0 0093     		str	r3, [sp]
 1923 05e2 A8A9     		add	r1, sp, #672
 1924 05e4 5B46     		mov	r3, fp
 1925 05e6 5046     		mov	r0, r10
 1926 05e8 0196     		str	r6, [sp, #4]
 1927 05ea FFF7FEFF 		bl	add_pulse
 1928              	.LVL221:
 519:..\..\..\liblc3\src/sns.c **** 
 1929              		.loc 1 519 0
 1930 05ee 0DF5287C 		add	ip, sp, #672
 1931 05f2 BCE80F00 		ldmia	ip!, {r0, r1, r2, r3}
 1932 05f6 0DF5187E 		add	lr, sp, #608
 1933 05fa AEE80F00 		stmia	lr!, {r0, r1, r2, r3}
 1934 05fe BCE80F00 		ldmia	ip!, {r0, r1, r2, r3}
 1935 0602 AEE80F00 		stmia	lr!, {r0, r1, r2, r3}
 1936 0606 BCE80F00 		ldmia	ip!, {r0, r1, r2, r3}
 1937 060a AEE80F00 		stmia	lr!, {r0, r1, r2, r3}
 1938 060e 94E80F00 		ldmia	r4, {r0, r1, r2, r3}
 1939 0612 8EE80F00 		stmia	lr, {r0, r1, r2, r3}
 1940              	.LVL222:
 1941 0616 D6ED006A 		vldr.32	s13, [r6]
 1942 061a 97ED007A 		vldr.32	s14, [r7]
 1943 061e A1A8     		add	r0, sp, #644
 1944 0620 42A9     		add	r1, sp, #264
 1945 0622 48AC     		add	r4, sp, #288
 1946              	.LVL223:
 512:..\..\..\liblc3\src/sns.c **** 
 1947              		.loc 1 512 0
 1948 0624 0823     		movs	r3, #8
 1949              	.LBB133:
 522:..\..\..\liblc3\src/sns.c ****         npulses -= c[2][i];
 1950              		.loc 1 522 0
 1951 0626 4FF0000E 		mov	lr, #0
 1952              	.LVL224:
 1953              	.L128:
ARM GAS  C:\Users\rdn\AppData\Local\Temp\cc92LAgm.s 			page 60


 1954 062a 40F804EF 		str	lr, [r0, #4]!
 523:..\..\..\liblc3\src/sns.c ****         corr    -= c[2][i] * xm[i];
 1955              		.loc 1 523 0
 1956 062e 026C     		ldr	r2, [r0, #64]
 524:..\..\..\liblc3\src/sns.c ****         energy  -= c[2][i] * c[2][i];
 1957              		.loc 1 524 0
 1958 0630 F1EC017A 		vldmia.32	r1!, {s15}
 1959 0634 06EE102A 		vmov	s12, r2	@ int
 1960 0638 B8EEC66A 		vcvt.f32.s32	s12, s12
 523:..\..\..\liblc3\src/sns.c ****         corr    -= c[2][i] * xm[i];
 1961              		.loc 1 523 0
 1962 063c 9B1A     		subs	r3, r3, r2
 1963              	.LVL225:
 525:..\..\..\liblc3\src/sns.c ****     }
 1964              		.loc 1 525 0
 1965 063e 5243     		muls	r2, r2, r2
 524:..\..\..\liblc3\src/sns.c ****         energy  -= c[2][i] * c[2][i];
 1966              		.loc 1 524 0
 1967 0640 E6EE676A 		vfms.f32	s13, s12, s15
 521:..\..\..\liblc3\src/sns.c ****         c[1][i] = 0;
 1968              		.loc 1 521 0
 1969 0644 A142     		cmp	r1, r4
 525:..\..\..\liblc3\src/sns.c ****     }
 1970              		.loc 1 525 0
 1971 0646 07EE902A 		vmov	s15, r2	@ int
 1972 064a F8EEE77A 		vcvt.f32.s32	s15, s15
 1973 064e 37EE677A 		vsub.f32	s14, s14, s15
 521:..\..\..\liblc3\src/sns.c ****         c[1][i] = 0;
 1974              		.loc 1 521 0
 1975 0652 EAD1     		bne	.L128
 1976              	.LBE133:
 528:..\..\..\liblc3\src/sns.c ****     npulses = 10;
 1977              		.loc 1 528 0
 1978 0654 0A22     		movs	r2, #10
 1979 0656 C6ED006A 		vstr.32	s13, [r6]
 1980 065a 87ED007A 		vstr.32	s14, [r7]
 1981 065e 98A9     		add	r1, sp, #608
 1982 0660 0092     		str	r2, [sp]
 1983 0662 38A8     		add	r0, sp, #224
 1984 0664 0297     		str	r7, [sp, #8]
 1985 0666 0196     		str	r6, [sp, #4]
 1986 0668 FFF7FEFF 		bl	add_pulse
 1987              	.LVL226:
 534:..\..\..\liblc3\src/sns.c **** 
 1988              		.loc 1 534 0
 1989 066c 0DF5187E 		add	lr, sp, #608
 1990 0670 BEE80F00 		ldmia	lr!, {r0, r1, r2, r3}
 1991 0674 88AC     		add	r4, sp, #544
 1992              	.LVL227:
 1993 0676 0FC4     		stmia	r4!, {r0, r1, r2, r3}
 1994              	.LVL228:
 1995 0678 BEE80F00 		ldmia	lr!, {r0, r1, r2, r3}
 1996 067c 0FC4     		stmia	r4!, {r0, r1, r2, r3}
 1997              	.LVL229:
 1998 067e BEE80F00 		ldmia	lr!, {r0, r1, r2, r3}
 1999 0682 0FC4     		stmia	r4!, {r0, r1, r2, r3}
 2000              	.LVL230:
ARM GAS  C:\Users\rdn\AppData\Local\Temp\cc92LAgm.s 			page 61


 2001 0684 9EE80F00 		ldmia	lr, {r0, r1, r2, r3}
 2002 0688 84E80F00 		stmia	r4, {r0, r1, r2, r3}
 536:..\..\..\liblc3\src/sns.c **** 
 2003              		.loc 1 536 0
 2004 068c 0123     		movs	r3, #1
 2005 068e 0297     		str	r7, [sp, #8]
 2006 0690 0622     		movs	r2, #6
 2007 0692 0093     		str	r3, [sp]
 2008 0694 92A9     		add	r1, sp, #584
 2009 0696 0196     		str	r6, [sp, #4]
 2010 0698 0023     		movs	r3, #0
 2011 069a 42A8     		add	r0, sp, #264
 2012 069c FFF7FEFF 		bl	add_pulse
 2013              	.LVL231:
 2014 06a0 28AC     		add	r4, sp, #160
 2015              	.LVL232:
 2016 06a2 88AA     		add	r2, sp, #544
 2017              	.LVL233:
 2018              	.LBB134:
 540:..\..\..\liblc3\src/sns.c ****         for (int i = 0; i < 4; i++)
 2019              		.loc 1 540 0
 2020 06a4 0021     		movs	r1, #0
 2021              	.LVL234:
 2022              	.L129:
 2023              	.LBB135:
 542:..\..\..\liblc3\src/sns.c **** 
 2024              		.loc 1 542 0
 2025 06a6 F4EC017A 		vldmia.32	r4!, {s15}
 2026 06aa 0023     		movs	r3, #0
 2027              	.LVL235:
 2028              	.L133:
 2029 06ac 88A8     		add	r0, sp, #544
 2030              	.LVL236:
 2031 06ae C618     		adds	r6, r0, r3
 2032 06b0 F5EEC07A 		vcmpe.f32	s15, #0
 2033 06b4 D058     		ldr	r0, [r2, r3]
 2034              	.LVL237:
 2035 06b6 F1EE10FA 		vmrs	APSR_nzcv, FPSCR
 2036 06ba 03F14003 		add	r3, r3, #64
 2037 06be 48BF     		it	mi
 2038 06c0 4042     		rsbmi	r0, r0, #0
 541:..\..\..\liblc3\src/sns.c ****             c[i][j] = x[j] < 0 ? -c[i][j] : c[i][j];
 2039              		.loc 1 541 0
 2040 06c2 B3F5807F 		cmp	r3, #256
 542:..\..\..\liblc3\src/sns.c **** 
 2041              		.loc 1 542 0
 2042 06c6 46F82100 		str	r0, [r6, r1, lsl #2]
 541:..\..\..\liblc3\src/sns.c ****             c[i][j] = x[j] < 0 ? -c[i][j] : c[i][j];
 2043              		.loc 1 541 0
 2044 06ca EFD1     		bne	.L133
 2045              	.LBE135:
 540:..\..\..\liblc3\src/sns.c ****         for (int i = 0; i < 4; i++)
 2046              		.loc 1 540 0
 2047 06cc 0131     		adds	r1, r1, #1
 2048              	.LVL238:
 2049 06ce 1029     		cmp	r1, #16
 2050 06d0 02F10402 		add	r2, r2, #4
ARM GAS  C:\Users\rdn\AppData\Local\Temp\cc92LAgm.s 			page 62


 2051 06d4 E7D1     		bne	.L129
 2052              	.LVL239:
 2053              	.LBE134:
 2054              	.LBB136:
 545:..\..\..\liblc3\src/sns.c **** 
 2055              		.loc 1 545 0
 2056 06d6 48A9     		add	r1, sp, #288
 2057              	.LVL240:
 2058 06d8 88A8     		add	r0, sp, #544
 2059              	.LVL241:
 2060 06da FFF7FEFF 		bl	normalize
 2061              	.LVL242:
 2062 06de 58A9     		add	r1, sp, #352
 2063 06e0 98A8     		add	r0, sp, #608
 2064 06e2 FFF7FEFF 		bl	normalize
 2065              	.LVL243:
 2066 06e6 68A9     		add	r1, sp, #416
 2067 06e8 A8A8     		add	r0, sp, #672
 2068 06ea FFF7FEFF 		bl	normalize
 2069              	.LVL244:
 2070 06ee B8A8     		add	r0, sp, #736
 2071 06f0 78A9     		add	r1, sp, #480
 2072 06f2 FFF7FEFF 		bl	normalize
 2073              	.LVL245:
 2074              	.LBE136:
 2075              	.LBB137:
 2076              	.LBB138:
 2077              	.LBB139:
 558:..\..\..\liblc3\src/sns.c ****             float g = cgains->v[ig];
 2078              		.loc 1 558 0
 2079 06f6 1E4C     		ldr	r4, .L192+20
 2080              	.LBE139:
 2081              	.LBE138:
 2082              	.LBE137:
 550:..\..\..\liblc3\src/sns.c ****     *shape_idx = *gain_idx = 0;
 2083              		.loc 1 550 0
 2084 06f8 DFED1E5A 		vldr.32	s11, .L192+24
 551:..\..\..\liblc3\src/sns.c **** 
 2085              		.loc 1 551 0
 2086 06fc 0023     		movs	r3, #0
 2087 06fe EB60     		str	r3, [r5, #12]
 2088 0700 AB60     		str	r3, [r5, #8]
 2089              	.LVL246:
 2090 0702 58A8     		add	r0, sp, #352
 2091              	.LVL247:
 2092              	.L142:
 2093              	.LBB148:
 2094              	.LBB146:
 2095              	.LBB143:
 558:..\..\..\liblc3\src/sns.c ****             float g = cgains->v[ig];
 2096              		.loc 1 558 0
 2097 0704 0022     		movs	r2, #0
 2098 0706 54F833E0 		ldr	lr, [r4, r3, lsl #3]
 2099              	.LBE143:
 555:..\..\..\liblc3\src/sns.c ****         int cgain_idx = 0;
 2100              		.loc 1 555 0
 2101 070a DFED1A7A 		vldr.32	s15, .L192+24
ARM GAS  C:\Users\rdn\AppData\Local\Temp\cc92LAgm.s 			page 63


 2102              	.LBB144:
 558:..\..\..\liblc3\src/sns.c ****             float g = cgains->v[ig];
 2103              		.loc 1 558 0
 2104 070e 04EBC30C 		add	ip, r4, r3, lsl #3
 2105              	.LBE144:
 556:..\..\..\liblc3\src/sns.c **** 
 2106              		.loc 1 556 0
 2107 0712 1646     		mov	r6, r2
 2108              	.LVL248:
 2109              	.L135:
 2110              	.LBB145:
 558:..\..\..\liblc3\src/sns.c ****             float g = cgains->v[ig];
 2111              		.loc 1 558 0
 2112 0714 7245     		cmp	r2, lr
 2113 0716 31DA     		bge	.L189
 2114              	.LBB140:
 559:..\..\..\liblc3\src/sns.c **** 
 2115              		.loc 1 559 0
 2116 0718 DCF80410 		ldr	r1, [ip, #4]
 561:..\..\..\liblc3\src/sns.c ****             for (int i = 0; i < 16; i++)
 2117              		.loc 1 561 0
 2118 071c 9FED0F7A 		vldr.32	s14, .L192
 559:..\..\..\liblc3\src/sns.c **** 
 2119              		.loc 1 559 0
 2120 0720 01EB8201 		add	r1, r1, r2, lsl #2
 2121 0724 91ED006A 		vldr.32	s12, [r1]
 2122              	.LVL249:
 2123 0728 28AF     		add	r7, sp, #160
 2124 072a A0F14001 		sub	r1, r0, #64
 2125              	.LBB141:
 563:..\..\..\liblc3\src/sns.c **** 
 2126              		.loc 1 563 0
 2127 072e B1EE466A 		vneg.f32	s12, s12
 2128              	.LVL250:
 2129              	.L136:
 2130 0732 B1EC015A 		vldmia.32	r1!, {s10}
 2131 0736 F7EC016A 		vldmia.32	r7!, {s13}
 2132 073a E6EE056A 		vfma.f32	s13, s12, s10
 562:..\..\..\liblc3\src/sns.c ****                 mse += (x[i] - g * cn[ic][i]) * (x[i] - g * cn[ic][i]);
 2133              		.loc 1 562 0
 2134 073e 8842     		cmp	r0, r1
 563:..\..\..\liblc3\src/sns.c **** 
 2135              		.loc 1 563 0
 2136 0740 A6EEA67A 		vfma.f32	s14, s13, s13
 2137              	.LVL251:
 562:..\..\..\liblc3\src/sns.c ****                 mse += (x[i] - g * cn[ic][i]) * (x[i] - g * cn[ic][i]);
 2138              		.loc 1 562 0
 2139 0744 F5D1     		bne	.L136
 2140              	.LBE141:
 565:..\..\..\liblc3\src/sns.c ****                 cgain_idx = ig,
 2141              		.loc 1 565 0
 2142 0746 B4EEE77A 		vcmpe.f32	s14, s15
 2143 074a F1EE10FA 		vmrs	APSR_nzcv, FPSCR
 2144 074e 44BF     		itt	mi
 2145 0750 1646     		movmi	r6, r2
 2146              	.LBB142:
 563:..\..\..\liblc3\src/sns.c **** 
ARM GAS  C:\Users\rdn\AppData\Local\Temp\cc92LAgm.s 			page 64


 2147              		.loc 1 563 0
 2148 0752 F0EE477A 		vmovmi.f32	s15, s14
 2149              	.LVL252:
 2150              	.LBE142:
 2151              	.LBE140:
 558:..\..\..\liblc3\src/sns.c ****             float g = cgains->v[ig];
 2152              		.loc 1 558 0
 2153 0756 0132     		adds	r2, r2, #1
 2154              	.LVL253:
 2155 0758 DCE7     		b	.L135
 2156              	.L193:
 2157 075a 00BF     		.align	2
 2158              	.L192:
 2159 075c 00000000 		.word	0
 2160 0760 00000000 		.word	lc3_sns_lfcb
 2161 0764 00000000 		.word	lc3_sns_hfcb
 2162 0768 00000000 		.word	.LANCHOR0
 2163 076c B3CE010C 		.word	201445043
 2164 0770 00000000 		.word	lc3_sns_vq_gains
 2165 0774 0000807F 		.word	2139095040
 2166 0778 3333B33E 		.word	1051931443
 2167              	.LVL254:
 2168              	.L189:
 2169              	.LBE145:
 571:..\..\..\liblc3\src/sns.c ****             *shape_idx = ic, *gain_idx = cgain_idx;
 2170              		.loc 1 571 0
 2171 077c F4EEE57A 		vcmpe.f32	s15, s11
 2172 0780 F1EE10FA 		vmrs	APSR_nzcv, FPSCR
 572:..\..\..\liblc3\src/sns.c ****             mse_min = cmse_min;
 2173              		.loc 1 572 0
 2174 0784 48BF     		it	mi
 2175 0786 AB60     		strmi	r3, [r5, #8]
 2176              	.LBE146:
 553:..\..\..\liblc3\src/sns.c ****         const struct lc3_sns_vq_gains *cgains = lc3_sns_vq_gains + ic;
 2177              		.loc 1 553 0
 2178 0788 03F10103 		add	r3, r3, #1
 2179              	.LVL255:
 2180              	.LBB147:
 572:..\..\..\liblc3\src/sns.c ****             mse_min = cmse_min;
 2181              		.loc 1 572 0
 2182 078c 44BF     		itt	mi
 2183 078e EE60     		strmi	r6, [r5, #12]
 2184              	.LVL256:
 2185 0790 F0EE675A 		vmovmi.f32	s11, s15
 2186              	.LVL257:
 2187              	.LBE147:
 553:..\..\..\liblc3\src/sns.c ****         const struct lc3_sns_vq_gains *cgains = lc3_sns_vq_gains + ic;
 2188              		.loc 1 553 0
 2189 0794 042B     		cmp	r3, #4
 2190 0796 00F14000 		add	r0, r0, #64
 2191 079a B3D1     		bne	.L142
 2192              	.LVL258:
 2193              	.LBE148:
 2194              	.LBE124:
 2195              	.LBE123:
 778:..\..\..\liblc3\src/sns.c ****     /* Processing steps :
 779:..\..\..\liblc3\src/sns.c ****      * - Determine 16 scale factors from bands energy estimation
ARM GAS  C:\Users\rdn\AppData\Local\Temp\cc92LAgm.s 			page 65


 780:..\..\..\liblc3\src/sns.c ****      * - Get codebooks indexes that match thoses scale factors
 781:..\..\..\liblc3\src/sns.c ****      * - Quantize the residual with the selected codebook
 782:..\..\..\liblc3\src/sns.c ****      * - The pulse configuration `c[]` is enumerated
 783:..\..\..\liblc3\src/sns.c ****      * - Finally shape the spectrum coefficients accordingly */
 784:..\..\..\liblc3\src/sns.c **** 
 785:..\..\..\liblc3\src/sns.c ****     float scf[16], cn[4][16];
 786:..\..\..\liblc3\src/sns.c ****     int c[4][16];
 787:..\..\..\liblc3\src/sns.c **** 
 788:..\..\..\liblc3\src/sns.c ****     compute_scale_factors(dt, sr, nbytes, eb, att, scf);
 789:..\..\..\liblc3\src/sns.c **** 
 790:..\..\..\liblc3\src/sns.c ****     resolve_codebooks(scf, &data->lfcb, &data->hfcb);
 791:..\..\..\liblc3\src/sns.c **** 
 792:..\..\..\liblc3\src/sns.c ****     quantize(scf, data->lfcb, data->hfcb,
 793:..\..\..\liblc3\src/sns.c ****         c, cn, &data->shape, &data->gain);
 794:..\..\..\liblc3\src/sns.c **** 
 795:..\..\..\liblc3\src/sns.c ****     unquantize(data->lfcb, data->hfcb,
 2196              		.loc 1 795 0
 2197 079c 08AF     		add	r7, sp, #32
 2198 079e 0197     		str	r7, [sp, #4]
 2199 07a0 EB68     		ldr	r3, [r5, #12]
 2200 07a2 0093     		str	r3, [sp]
 2201 07a4 AB68     		ldr	r3, [r5, #8]
 2202 07a6 48AA     		add	r2, sp, #288
 2203              	.LVL259:
 2204 07a8 95E80300 		ldmia	r5, {r0, r1}
 2205 07ac 02EB8312 		add	r2, r2, r3, lsl #6
 2206 07b0 FFF7FEFF 		bl	unquantize
 2207              	.LVL260:
 796:..\..\..\liblc3\src/sns.c ****         cn[data->shape], data->shape, data->gain, scf);
 797:..\..\..\liblc3\src/sns.c **** 
 798:..\..\..\liblc3\src/sns.c ****     enumerate(data->shape, c[data->shape],
 2208              		.loc 1 798 0
 2209 07b4 AE68     		ldr	r6, [r5, #8]
 2210              	.LVL261:
 2211 07b6 88AB     		add	r3, sp, #544
 2212              	.LBB149:
 2213              	.LBB150:
 680:..\..\..\liblc3\src/sns.c **** 
 2214              		.loc 1 680 0
 2215 07b8 022E     		cmp	r6, #2
 2216              	.LBE150:
 2217              	.LBE149:
 2218              		.loc 1 798 0
 2219 07ba 03EB8614 		add	r4, r3, r6, lsl #6
 2220              	.LVL262:
 2221              	.LBB152:
 2222              	.LBB151:
 680:..\..\..\liblc3\src/sns.c **** 
 2223              		.loc 1 680 0
 2224 07be B4BF     		ite	lt
 2225 07c0 0A21     		movlt	r1, #10
 2226 07c2 1021     		movge	r1, #16
 2227 07c4 05F11803 		add	r3, r5, #24
 2228              	.LVL263:
 2229 07c8 05F11002 		add	r2, r5, #16
 2230              	.LVL264:
 2231 07cc 2046     		mov	r0, r4
ARM GAS  C:\Users\rdn\AppData\Local\Temp\cc92LAgm.s 			page 66


 2232 07ce FFF7FEFF 		bl	enum_mvpq
 2233              	.LVL265:
 682:..\..\..\liblc3\src/sns.c ****         enum_mvpq(c + 10, 6, idx_b, ls_b);
 2234              		.loc 1 682 0
 2235 07d2 46B9     		cbnz	r6, .L144
 683:..\..\..\liblc3\src/sns.c **** }
 2236              		.loc 1 683 0
 2237 07d4 05F11903 		add	r3, r5, #25
 2238              	.LVL266:
 2239 07d8 05F11402 		add	r2, r5, #20
 2240              	.LVL267:
 2241 07dc 0621     		movs	r1, #6
 2242 07de 04F12800 		add	r0, r4, #40
 2243 07e2 FFF7FEFF 		bl	enum_mvpq
 2244              	.LVL268:
 2245              	.L144:
 2246              	.LBE151:
 2247              	.LBE152:
 799:..\..\..\liblc3\src/sns.c ****         &data->idx_a, &data->ls_a, &data->idx_b, &data->ls_b);
 800:..\..\..\liblc3\src/sns.c **** 
 801:..\..\..\liblc3\src/sns.c ****     spectral_shaping(dt, sr, scf, false, x, y);
 2248              		.loc 1 801 0
 2249 07e6 DD9B     		ldr	r3, [sp, #884]
 2250 07e8 0193     		str	r3, [sp, #4]
 2251 07ea DC9B     		ldr	r3, [sp, #880]
 2252 07ec 0093     		str	r3, [sp]
 2253 07ee 3A46     		mov	r2, r7
 2254 07f0 0023     		movs	r3, #0
 2255 07f2 4946     		mov	r1, r9
 2256 07f4 4046     		mov	r0, r8
 2257 07f6 FFF7FEFF 		bl	spectral_shaping
 2258              	.LVL269:
 802:..\..\..\liblc3\src/sns.c **** }
 2259              		.loc 1 802 0
 2260 07fa 0DF5497D 		add	sp, sp, #804
 2261              		.cfi_remember_state
 2262              		.cfi_def_cfa_offset 68
 2263              		@ sp needed
 2264 07fe BDEC088B 		vldm	sp!, {d8-d11}
 2265              		.cfi_restore 86
 2266              		.cfi_restore 87
 2267              		.cfi_restore 84
 2268              		.cfi_restore 85
 2269              		.cfi_restore 82
 2270              		.cfi_restore 83
 2271              		.cfi_restore 80
 2272              		.cfi_restore 81
 2273              		.cfi_def_cfa_offset 36
 2274 0802 BDE8F08F 		pop	{r4, r5, r6, r7, r8, r9, r10, fp, pc}
 2275              	.LVL270:
 2276              	.L187:
 2277              		.cfi_restore_state
 2278              	.LBB153:
 2279              	.LBB112:
 349:..\..\..\liblc3\src/sns.c ****             (dt < LC3_DT_10M ? 1150 * (int)(1 + dt) : 4400))
 2280              		.loc 1 349 0
 2281 0806 41F23013 		movw	r3, #4400
ARM GAS  C:\Users\rdn\AppData\Local\Temp\cc92LAgm.s 			page 67


 2282 080a 9E42     		cmp	r6, r3
 2283 080c 7FF77AAD 		ble	.L109
 351:..\..\..\liblc3\src/sns.c **** 
 2284              		.loc 1 351 0
 2285 0810 1FED276A 		vldr.32	s12, .L192+28
 2286 0814 74E5     		b	.L147
 2287              	.LBE112:
 2288              	.LBE153:
 2289              		.cfi_endproc
 2290              	.LFE33:
 2291              		.size	lc3_sns_analyze, .-lc3_sns_analyze
 2292 0816 00BF     		.section	.text.lc3_sns_synthesize,"ax",%progbits
 2293              		.align	1
 2294              		.global	lc3_sns_synthesize
 2295              		.thumb
 2296              		.thumb_func
 2297              		.type	lc3_sns_synthesize, %function
 2298              	lc3_sns_synthesize:
 2299              	.LFB34:
 803:..\..\..\liblc3\src/sns.c **** 
 804:..\..\..\liblc3\src/sns.c **** /**
 805:..\..\..\liblc3\src/sns.c ****  * SNS synthesis
 806:..\..\..\liblc3\src/sns.c ****  */
 807:..\..\..\liblc3\src/sns.c **** void lc3_sns_synthesize(
 808:..\..\..\liblc3\src/sns.c ****     enum lc3_dt dt, enum lc3_srate sr,
 809:..\..\..\liblc3\src/sns.c ****     const lc3_sns_data_t *data, const float *x, float *y)
 810:..\..\..\liblc3\src/sns.c **** {
 2300              		.loc 1 810 0
 2301              		.cfi_startproc
 2302              		@ args = 4, pretend = 0, frame = 208
 2303              		@ frame_needed = 0, uses_anonymous_args = 0
 2304              	.LVL271:
 2305 0000 2DE9F04F 		push	{r4, r5, r6, r7, r8, r9, r10, fp, lr}
 2306              		.cfi_def_cfa_offset 36
 2307              		.cfi_offset 4, -36
 2308              		.cfi_offset 5, -32
 2309              		.cfi_offset 6, -28
 2310              		.cfi_offset 7, -24
 2311              		.cfi_offset 8, -20
 2312              		.cfi_offset 9, -16
 2313              		.cfi_offset 10, -12
 2314              		.cfi_offset 11, -8
 2315              		.cfi_offset 14, -4
 2316 0004 9946     		mov	r9, r3
 2317              	.LBB156:
 2318              	.LBB157:
 696:..\..\..\liblc3\src/sns.c **** 
 2319              		.loc 1 696 0
 2320 0006 254B     		ldr	r3, .L199
 2321              	.LVL272:
 2322              	.LBE157:
 2323              	.LBE156:
 811:..\..\..\liblc3\src/sns.c ****     float scf[16], cn[16];
 812:..\..\..\liblc3\src/sns.c ****     int c[16];
 813:..\..\..\liblc3\src/sns.c **** 
 814:..\..\..\liblc3\src/sns.c ****     deenumerate(data->shape,
 2324              		.loc 1 814 0
ARM GAS  C:\Users\rdn\AppData\Local\Temp\cc92LAgm.s 			page 68


 2325 0008 9568     		ldr	r5, [r2, #8]
 2326 000a 92F818E0 		ldrb	lr, [r2, #24]	@ zero_extendqisi2
 2327 000e D2F814A0 		ldr	r10, [r2, #20]
 2328 0012 92F819B0 		ldrb	fp, [r2, #25]	@ zero_extendqisi2
 2329              	.LVL273:
 810:..\..\..\liblc3\src/sns.c ****     float scf[16], cn[16];
 2330              		.loc 1 810 0
 2331 0016 1446     		mov	r4, r2
 2332              	.LVL274:
 2333 0018 0746     		mov	r7, r0
 2334 001a 8846     		mov	r8, r1
 2335              	.LBB160:
 2336              	.LBB158:
 696:..\..\..\liblc3\src/sns.c **** 
 2337              		.loc 1 696 0
 2338 001c 0FCB     		ldmia	r3, {r0, r1, r2, r3}
 2339              	.LVL275:
 2340              	.LBE158:
 2341              	.LBE160:
 810:..\..\..\liblc3\src/sns.c ****     float scf[16], cn[16];
 2342              		.loc 1 810 0
 2343 001e B7B0     		sub	sp, sp, #220
 2344              		.cfi_def_cfa_offset 256
 2345              	.LVL276:
 2346              	.LBB161:
 2347              	.LBB159:
 696:..\..\..\liblc3\src/sns.c **** 
 2348              		.loc 1 696 0
 2349 0020 02AE     		add	r6, sp, #8
 2350 0022 86E80F00 		stmia	r6, {r0, r1, r2, r3}
 2351 0026 36AB     		add	r3, sp, #216
 2352 0028 03EB8503 		add	r3, r3, r5, lsl #2
 698:..\..\..\liblc3\src/sns.c **** 
 2353              		.loc 1 698 0
 2354 002c 022D     		cmp	r5, #2
 696:..\..\..\liblc3\src/sns.c **** 
 2355              		.loc 1 696 0
 2356 002e 53F8D02C 		ldr	r2, [r3, #-208]
 2357              	.LVL277:
 698:..\..\..\liblc3\src/sns.c **** 
 2358              		.loc 1 698 0
 2359 0032 2069     		ldr	r0, [r4, #16]
 2360 0034 B4BF     		ite	lt
 2361 0036 0A23     		movlt	r3, #10
 2362 0038 1023     		movge	r3, #16
 2363 003a 0093     		str	r3, [sp]
 2364              	.LVL278:
 2365 003c 7146     		mov	r1, lr
 2366 003e 26AB     		add	r3, sp, #152
 2367              	.LVL279:
 2368 0040 FFF7FEFF 		bl	deenum_mvpq
 2369              	.LVL280:
 700:..\..\..\liblc3\src/sns.c ****         deenum_mvpq(idx_b, ls_b, 1, c + 10, 6);
 2370              		.loc 1 700 0
 2371 0044 45B9     		cbnz	r5, .L196
 701:..\..\..\liblc3\src/sns.c ****     else if (shape == 1)
 2372              		.loc 1 701 0
ARM GAS  C:\Users\rdn\AppData\Local\Temp\cc92LAgm.s 			page 69


 2373 0046 0623     		movs	r3, #6
 2374 0048 0093     		str	r3, [sp]
 2375 004a 0122     		movs	r2, #1
 2376 004c 30AB     		add	r3, sp, #192
 2377 004e 5946     		mov	r1, fp
 2378 0050 5046     		mov	r0, r10
 2379 0052 FFF7FEFF 		bl	deenum_mvpq
 2380              	.LVL281:
 2381 0056 06E0     		b	.L197
 2382              	.L196:
 702:..\..\..\liblc3\src/sns.c ****         memset(c + 10, 0, 6 * sizeof(*c));
 2383              		.loc 1 702 0
 2384 0058 012D     		cmp	r5, #1
 2385 005a 04D1     		bne	.L197
 703:..\..\..\liblc3\src/sns.c **** }
 2386              		.loc 1 703 0
 2387 005c 1822     		movs	r2, #24
 2388 005e 0021     		movs	r1, #0
 2389 0060 30A8     		add	r0, sp, #192
 2390 0062 FFF7FEFF 		bl	memset
 2391              	.LVL282:
 2392              	.L197:
 2393              	.LBE159:
 2394              	.LBE161:
 815:..\..\..\liblc3\src/sns.c ****         data->idx_a, data->ls_a, data->idx_b, data->ls_b, c);
 816:..\..\..\liblc3\src/sns.c **** 
 817:..\..\..\liblc3\src/sns.c ****     normalize(c, cn);
 2395              		.loc 1 817 0
 2396 0066 16A9     		add	r1, sp, #88
 2397 0068 26A8     		add	r0, sp, #152
 2398 006a FFF7FEFF 		bl	normalize
 2399              	.LVL283:
 818:..\..\..\liblc3\src/sns.c **** 
 819:..\..\..\liblc3\src/sns.c ****     unquantize(data->lfcb, data->hfcb, cn, data->shape, data->gain, scf);
 2400              		.loc 1 819 0
 2401 006e 06AD     		add	r5, sp, #24
 2402 0070 E368     		ldr	r3, [r4, #12]
 2403 0072 0093     		str	r3, [sp]
 2404 0074 94E80300 		ldmia	r4, {r0, r1}
 2405 0078 A368     		ldr	r3, [r4, #8]
 2406 007a 0195     		str	r5, [sp, #4]
 2407 007c 16AA     		add	r2, sp, #88
 2408 007e FFF7FEFF 		bl	unquantize
 2409              	.LVL284:
 820:..\..\..\liblc3\src/sns.c **** 
 821:..\..\..\liblc3\src/sns.c ****     spectral_shaping(dt, sr, scf, true, x, y);
 2410              		.loc 1 821 0
 2411 0082 409B     		ldr	r3, [sp, #256]
 2412 0084 0193     		str	r3, [sp, #4]
 2413 0086 CDF80090 		str	r9, [sp]
 2414 008a 0123     		movs	r3, #1
 2415 008c 2A46     		mov	r2, r5
 2416 008e 4146     		mov	r1, r8
 2417 0090 3846     		mov	r0, r7
 2418 0092 FFF7FEFF 		bl	spectral_shaping
 2419              	.LVL285:
 822:..\..\..\liblc3\src/sns.c **** }
ARM GAS  C:\Users\rdn\AppData\Local\Temp\cc92LAgm.s 			page 70


 2420              		.loc 1 822 0
 2421 0096 37B0     		add	sp, sp, #220
 2422              		.cfi_def_cfa_offset 36
 2423              		@ sp needed
 2424 0098 BDE8F08F 		pop	{r4, r5, r6, r7, r8, r9, r10, fp, pc}
 2425              	.LVL286:
 2426              	.L200:
 2427              		.align	2
 2428              	.L199:
 2429 009c 3C040000 		.word	.LANCHOR0+1084
 2430              		.cfi_endproc
 2431              	.LFE34:
 2432              		.size	lc3_sns_synthesize, .-lc3_sns_synthesize
 2433              		.section	.text.lc3_sns_get_nbits,"ax",%progbits
 2434              		.align	1
 2435              		.global	lc3_sns_get_nbits
 2436              		.thumb
 2437              		.thumb_func
 2438              		.type	lc3_sns_get_nbits, %function
 2439              	lc3_sns_get_nbits:
 2440              	.LFB35:
 823:..\..\..\liblc3\src/sns.c **** 
 824:..\..\..\liblc3\src/sns.c **** /**
 825:..\..\..\liblc3\src/sns.c ****  * Return number of bits coding the bitstream data
 826:..\..\..\liblc3\src/sns.c ****  */
 827:..\..\..\liblc3\src/sns.c **** int lc3_sns_get_nbits(void)
 828:..\..\..\liblc3\src/sns.c **** {
 2441              		.loc 1 828 0
 2442              		.cfi_startproc
 2443              		@ args = 0, pretend = 0, frame = 0
 2444              		@ frame_needed = 0, uses_anonymous_args = 0
 2445              		@ link register save eliminated.
 829:..\..\..\liblc3\src/sns.c ****     return 38;
 830:..\..\..\liblc3\src/sns.c **** }
 2446              		.loc 1 830 0
 2447 0000 2620     		movs	r0, #38
 2448 0002 7047     		bx	lr
 2449              		.cfi_endproc
 2450              	.LFE35:
 2451              		.size	lc3_sns_get_nbits, .-lc3_sns_get_nbits
 2452              		.section	.text.lc3_sns_put_data,"ax",%progbits
 2453              		.align	1
 2454              		.global	lc3_sns_put_data
 2455              		.thumb
 2456              		.thumb_func
 2457              		.type	lc3_sns_put_data, %function
 2458              	lc3_sns_put_data:
 2459              	.LFB36:
 831:..\..\..\liblc3\src/sns.c **** 
 832:..\..\..\liblc3\src/sns.c **** /**
 833:..\..\..\liblc3\src/sns.c ****  * Put bitstream data
 834:..\..\..\liblc3\src/sns.c ****  */
 835:..\..\..\liblc3\src/sns.c **** void lc3_sns_put_data(lc3_bits_t *bits, const struct lc3_sns_data *data)
 836:..\..\..\liblc3\src/sns.c **** {
 2460              		.loc 1 836 0
 2461              		.cfi_startproc
 2462              		@ args = 0, pretend = 0, frame = 0
ARM GAS  C:\Users\rdn\AppData\Local\Temp\cc92LAgm.s 			page 71


 2463              		@ frame_needed = 0, uses_anonymous_args = 0
 2464              	.LVL287:
 2465 0000 70B5     		push	{r4, r5, r6, lr}
 2466              		.cfi_def_cfa_offset 16
 2467              		.cfi_offset 4, -16
 2468              		.cfi_offset 5, -12
 2469              		.cfi_offset 6, -8
 2470              		.cfi_offset 14, -4
 2471              		.loc 1 836 0
 2472 0002 0C46     		mov	r4, r1
 2473 0004 0646     		mov	r6, r0
 837:..\..\..\liblc3\src/sns.c ****     /* --- Codebooks --- */
 838:..\..\..\liblc3\src/sns.c **** 
 839:..\..\..\liblc3\src/sns.c ****     lc3_put_bits(bits, data->lfcb, 5);
 2474              		.loc 1 839 0
 2475 0006 0522     		movs	r2, #5
 2476 0008 0968     		ldr	r1, [r1]
 2477              	.LVL288:
 2478 000a FFF7FEFF 		bl	lc3_put_bits
 2479              	.LVL289:
 840:..\..\..\liblc3\src/sns.c ****     lc3_put_bits(bits, data->hfcb, 5);
 2480              		.loc 1 840 0
 2481 000e 0522     		movs	r2, #5
 2482 0010 6168     		ldr	r1, [r4, #4]
 2483 0012 3046     		mov	r0, r6
 2484 0014 FFF7FEFF 		bl	lc3_put_bits
 2485              	.LVL290:
 841:..\..\..\liblc3\src/sns.c **** 
 842:..\..\..\liblc3\src/sns.c ****     /* --- Shape, gain and vectors --- *
 843:..\..\..\liblc3\src/sns.c ****      * Write MSB bit of shape index, next LSB bits of shape and gain,
 844:..\..\..\liblc3\src/sns.c ****      * and MVPQ vectors indexes are muxed */
 845:..\..\..\liblc3\src/sns.c **** 
 846:..\..\..\liblc3\src/sns.c ****     int shape_msb = data->shape >> 1;
 2486              		.loc 1 846 0
 2487 0018 A568     		ldr	r5, [r4, #8]
 2488 001a 6D10     		asrs	r5, r5, #1
 2489              	.LVL291:
 2490              	.LBB166:
 2491              	.LBB167:
 212:..\..\..\liblc3\src/bits.h **** }
 2492              		.loc 3 212 0
 2493 001c 0122     		movs	r2, #1
 2494 001e 2946     		mov	r1, r5
 2495 0020 3046     		mov	r0, r6
 2496 0022 FFF7FEFF 		bl	lc3_put_bits
 2497              	.LVL292:
 2498 0026 A268     		ldr	r2, [r4, #8]
 2499 0028 E168     		ldr	r1, [r4, #12]
 2500 002a 2369     		ldr	r3, [r4, #16]
 2501              	.LBE167:
 2502              	.LBE166:
 847:..\..\..\liblc3\src/sns.c ****     lc3_put_bit(bits, shape_msb);
 848:..\..\..\liblc3\src/sns.c **** 
 849:..\..\..\liblc3\src/sns.c ****     if (shape_msb == 0) {
 2503              		.loc 1 849 0
 2504 002c CDB9     		cbnz	r5, .L203
 2505              	.LVL293:
ARM GAS  C:\Users\rdn\AppData\Local\Temp\cc92LAgm.s 			page 72


 2506              	.LBB168:
 850:..\..\..\liblc3\src/sns.c ****         const int size_a = 2390004;
 851:..\..\..\liblc3\src/sns.c ****         int submode = data->shape & 1;
 852:..\..\..\liblc3\src/sns.c **** 
 853:..\..\..\liblc3\src/sns.c ****         int mux_high = submode == 0 ?
 854:..\..\..\liblc3\src/sns.c ****             2 * (data->idx_b + 1) + data->ls_b : data->gain & 1;
 2507              		.loc 1 854 0
 2508 002e 12F00100 		ands	r0, r2, #1
 2509              	.LVL294:
 2510 0032 01BF     		itttt	eq
 2511 0034 6269     		ldreq	r2, [r4, #20]
 2512 0036 551C     		addeq	r5, r2, #1
 2513              	.LVL295:
 2514 0038 627E     		ldrbeq	r2, [r4, #25]	@ zero_extendqisi2
 2515 003a 02EB4502 		addeq	r2, r2, r5, lsl #1
 855:..\..\..\liblc3\src/sns.c ****         int mux_code = mux_high * size_a + data->idx_a;
 2516              		.loc 1 855 0
 2517 003e 194D     		ldr	r5, .L209
 854:..\..\..\liblc3\src/sns.c ****         int mux_code = mux_high * size_a + data->idx_a;
 2518              		.loc 1 854 0
 2519 0040 18BF     		it	ne
 2520 0042 01F00102 		andne	r2, r1, #1
 2521              	.LVL296:
 2522              		.loc 1 855 0
 2523 0046 05FB0235 		mla	r5, r5, r2, r3
 2524              	.LVL297:
 856:..\..\..\liblc3\src/sns.c **** 
 857:..\..\..\liblc3\src/sns.c ****         lc3_put_bits(bits, data->gain >> submode, 1);
 2525              		.loc 1 857 0
 2526 004a 0141     		asrs	r1, r1, r0
 2527 004c 0122     		movs	r2, #1
 2528              	.LVL298:
 2529 004e 3046     		mov	r0, r6
 2530              	.LVL299:
 2531 0050 FFF7FEFF 		bl	lc3_put_bits
 2532              	.LVL300:
 858:..\..\..\liblc3\src/sns.c ****         lc3_put_bits(bits, data->ls_a, 1);
 2533              		.loc 1 858 0
 2534 0054 0122     		movs	r2, #1
 2535 0056 217E     		ldrb	r1, [r4, #24]	@ zero_extendqisi2
 2536 0058 3046     		mov	r0, r6
 2537 005a FFF7FEFF 		bl	lc3_put_bits
 2538              	.LVL301:
 859:..\..\..\liblc3\src/sns.c ****         lc3_put_bits(bits, mux_code, 25);
 2539              		.loc 1 859 0
 2540 005e 1922     		movs	r2, #25
 2541 0060 19E0     		b	.L208
 2542              	.LVL302:
 2543              	.L203:
 2544              	.LBE168:
 2545              	.LBB169:
 860:..\..\..\liblc3\src/sns.c **** 
 861:..\..\..\liblc3\src/sns.c ****     } else {
 862:..\..\..\liblc3\src/sns.c ****         const int size_a = 15158272;
 863:..\..\..\liblc3\src/sns.c ****         int submode = data->shape & 1;
 864:..\..\..\liblc3\src/sns.c **** 
 865:..\..\..\liblc3\src/sns.c ****         int mux_code = submode == 0 ?
ARM GAS  C:\Users\rdn\AppData\Local\Temp\cc92LAgm.s 			page 73


 866:..\..\..\liblc3\src/sns.c ****             data->idx_a : size_a + 2 * data->idx_a + (data->gain & 1);
 2546              		.loc 1 866 0
 2547 0062 12F00100 		ands	r0, r2, #1
 2548              	.LVL303:
 2549 0066 1EBF     		ittt	ne
 2550 0068 03F5E703 		addne	r3, r3, #7569408
 2551 006c 01F00105 		andne	r5, r1, #1
 2552              	.LVL304:
 2553 0070 03F51853 		addne	r3, r3, #9728
 867:..\..\..\liblc3\src/sns.c **** 
 868:..\..\..\liblc3\src/sns.c ****         lc3_put_bits(bits, data->gain >> submode, 2);
 2554              		.loc 1 868 0
 2555 0074 41FA00F1 		asr	r1, r1, r0
 2556 0078 4FF00202 		mov	r2, #2
 2557 007c 3046     		mov	r0, r6
 2558              	.LVL305:
 866:..\..\..\liblc3\src/sns.c **** 
 2559              		.loc 1 866 0
 2560 007e 0CBF     		ite	eq
 2561 0080 1D46     		moveq	r5, r3
 2562 0082 05EB4305 		addne	r5, r5, r3, lsl #1
 2563              	.LVL306:
 2564              		.loc 1 868 0
 2565 0086 FFF7FEFF 		bl	lc3_put_bits
 2566              	.LVL307:
 869:..\..\..\liblc3\src/sns.c ****         lc3_put_bits(bits, data->ls_a, 1);
 2567              		.loc 1 869 0
 2568 008a 0122     		movs	r2, #1
 2569 008c 217E     		ldrb	r1, [r4, #24]	@ zero_extendqisi2
 2570 008e 3046     		mov	r0, r6
 2571 0090 FFF7FEFF 		bl	lc3_put_bits
 2572              	.LVL308:
 870:..\..\..\liblc3\src/sns.c ****         lc3_put_bits(bits, mux_code, 24);
 2573              		.loc 1 870 0
 2574 0094 1822     		movs	r2, #24
 2575              	.LVL309:
 2576              	.L208:
 2577 0096 2946     		mov	r1, r5
 2578 0098 3046     		mov	r0, r6
 2579              	.LBE169:
 871:..\..\..\liblc3\src/sns.c ****     }
 872:..\..\..\liblc3\src/sns.c **** }
 2580              		.loc 1 872 0
 2581 009a BDE87040 		pop	{r4, r5, r6, lr}
 2582              		.cfi_restore 14
 2583              		.cfi_restore 6
 2584              		.cfi_restore 5
 2585              		.cfi_restore 4
 2586              		.cfi_def_cfa_offset 0
 2587              	.LVL310:
 2588              	.LBB170:
 870:..\..\..\liblc3\src/sns.c ****         lc3_put_bits(bits, mux_code, 24);
 2589              		.loc 1 870 0
 2590 009e FFF7FEBF 		b	lc3_put_bits
 2591              	.LVL311:
 2592              	.L210:
 2593 00a2 00BF     		.align	2
ARM GAS  C:\Users\rdn\AppData\Local\Temp\cc92LAgm.s 			page 74


 2594              	.L209:
 2595 00a4 F4772400 		.word	2390004
 2596              	.LBE170:
 2597              		.cfi_endproc
 2598              	.LFE36:
 2599              		.size	lc3_sns_put_data, .-lc3_sns_put_data
 2600              		.section	.text.lc3_sns_get_data,"ax",%progbits
 2601              		.align	1
 2602              		.global	lc3_sns_get_data
 2603              		.thumb
 2604              		.thumb_func
 2605              		.type	lc3_sns_get_data, %function
 2606              	lc3_sns_get_data:
 2607              	.LFB37:
 873:..\..\..\liblc3\src/sns.c **** 
 874:..\..\..\liblc3\src/sns.c **** /**
 875:..\..\..\liblc3\src/sns.c ****  * Get bitstream data
 876:..\..\..\liblc3\src/sns.c ****  */
 877:..\..\..\liblc3\src/sns.c **** int lc3_sns_get_data(lc3_bits_t *bits, struct lc3_sns_data *data)
 878:..\..\..\liblc3\src/sns.c **** {
 2608              		.loc 1 878 0
 2609              		.cfi_startproc
 2610              		@ args = 0, pretend = 0, frame = 0
 2611              		@ frame_needed = 0, uses_anonymous_args = 0
 2612              	.LVL312:
 2613 0000 F8B5     		push	{r3, r4, r5, r6, r7, lr}
 2614              		.cfi_def_cfa_offset 24
 2615              		.cfi_offset 3, -24
 2616              		.cfi_offset 4, -20
 2617              		.cfi_offset 5, -16
 2618              		.cfi_offset 6, -12
 2619              		.cfi_offset 7, -8
 2620              		.cfi_offset 14, -4
 2621              		.loc 1 878 0
 2622 0002 0C46     		mov	r4, r1
 879:..\..\..\liblc3\src/sns.c ****     /* --- Codebooks --- */
 880:..\..\..\liblc3\src/sns.c **** 
 881:..\..\..\liblc3\src/sns.c ****     *data = (struct lc3_sns_data){
 882:..\..\..\liblc3\src/sns.c ****         .lfcb = lc3_get_bits(bits, 5),
 2623              		.loc 1 882 0
 2624 0004 0521     		movs	r1, #5
 2625              	.LVL313:
 878:..\..\..\liblc3\src/sns.c ****     /* --- Codebooks --- */
 2626              		.loc 1 878 0
 2627 0006 0646     		mov	r6, r0
 2628              		.loc 1 882 0
 2629 0008 FFF7FEFF 		bl	lc3_get_bits
 2630              	.LVL314:
 883:..\..\..\liblc3\src/sns.c ****         .hfcb = lc3_get_bits(bits, 5)
 2631              		.loc 1 883 0
 2632 000c 0521     		movs	r1, #5
 882:..\..\..\liblc3\src/sns.c ****         .hfcb = lc3_get_bits(bits, 5)
 2633              		.loc 1 882 0
 2634 000e 0746     		mov	r7, r0
 2635              		.loc 1 883 0
 2636 0010 3046     		mov	r0, r6
 2637 0012 FFF7FEFF 		bl	lc3_get_bits
ARM GAS  C:\Users\rdn\AppData\Local\Temp\cc92LAgm.s 			page 75


 2638              	.LVL315:
 881:..\..\..\liblc3\src/sns.c ****         .lfcb = lc3_get_bits(bits, 5),
 2639              		.loc 1 881 0
 2640 0016 1C22     		movs	r2, #28
 2641              		.loc 1 883 0
 2642 0018 0546     		mov	r5, r0
 881:..\..\..\liblc3\src/sns.c ****         .lfcb = lc3_get_bits(bits, 5),
 2643              		.loc 1 881 0
 2644 001a 0021     		movs	r1, #0
 2645 001c 2046     		mov	r0, r4
 2646 001e FFF7FEFF 		bl	memset
 2647              	.LVL316:
 2648 0022 6560     		str	r5, [r4, #4]
 2649              	.LVL317:
 2650              	.LBB177:
 2651              	.LBB178:
 236:..\..\..\liblc3\src/bits.h **** }
 2652              		.loc 3 236 0
 2653 0024 0121     		movs	r1, #1
 2654              	.LBE178:
 2655              	.LBE177:
 881:..\..\..\liblc3\src/sns.c ****         .lfcb = lc3_get_bits(bits, 5),
 2656              		.loc 1 881 0
 2657 0026 2760     		str	r7, [r4]
 2658              	.LBB180:
 2659              	.LBB179:
 236:..\..\..\liblc3\src/bits.h **** }
 2660              		.loc 3 236 0
 2661 0028 3046     		mov	r0, r6
 2662 002a FFF7FEFF 		bl	lc3_get_bits
 2663              	.LVL318:
 2664 002e 0546     		mov	r5, r0
 2665              	.LVL319:
 2666              	.LBE179:
 2667              	.LBE180:
 884:..\..\..\liblc3\src/sns.c ****     };
 885:..\..\..\liblc3\src/sns.c **** 
 886:..\..\..\liblc3\src/sns.c ****     /* --- Shape, gain and vectors --- */
 887:..\..\..\liblc3\src/sns.c **** 
 888:..\..\..\liblc3\src/sns.c ****     int shape_msb = lc3_get_bit(bits);
 889:..\..\..\liblc3\src/sns.c ****     data->gain = lc3_get_bits(bits, 1 + shape_msb);
 2668              		.loc 1 889 0
 2669 0030 411C     		adds	r1, r0, #1
 2670 0032 3046     		mov	r0, r6
 2671 0034 FFF7FEFF 		bl	lc3_get_bits
 2672              	.LVL320:
 2673              	.LBB181:
 2674              	.LBB182:
 236:..\..\..\liblc3\src/bits.h **** }
 2675              		.loc 3 236 0
 2676 0038 0121     		movs	r1, #1
 2677              	.LBE182:
 2678              	.LBE181:
 2679              		.loc 1 889 0
 2680 003a E060     		str	r0, [r4, #12]
 2681              	.LVL321:
 2682              	.LBB184:
ARM GAS  C:\Users\rdn\AppData\Local\Temp\cc92LAgm.s 			page 76


 2683              	.LBB183:
 236:..\..\..\liblc3\src/bits.h **** }
 2684              		.loc 3 236 0
 2685 003c 3046     		mov	r0, r6
 2686 003e FFF7FEFF 		bl	lc3_get_bits
 2687              	.LVL322:
 2688              	.LBE183:
 2689              	.LBE184:
 890:..\..\..\liblc3\src/sns.c ****     data->ls_a = lc3_get_bit(bits);
 2690              		.loc 1 890 0
 2691 0042 0030     		adds	r0, r0, #0
 2692 0044 18BF     		it	ne
 2693 0046 0120     		movne	r0, #1
 2694 0048 2076     		strb	r0, [r4, #24]
 891:..\..\..\liblc3\src/sns.c **** 
 892:..\..\..\liblc3\src/sns.c ****     int mux_code = lc3_get_bits(bits, 25 - shape_msb);
 2695              		.loc 1 892 0
 2696 004a C5F11901 		rsb	r1, r5, #25
 2697 004e 3046     		mov	r0, r6
 2698 0050 FFF7FEFF 		bl	lc3_get_bits
 2699              	.LVL323:
 893:..\..\..\liblc3\src/sns.c **** 
 894:..\..\..\liblc3\src/sns.c ****     if (shape_msb == 0) {
 2700              		.loc 1 894 0
 2701 0054 1DBB     		cbnz	r5, .L212
 2702              	.LVL324:
 2703              	.LBB185:
 895:..\..\..\liblc3\src/sns.c ****         const int size_a = 2390004;
 896:..\..\..\liblc3\src/sns.c **** 
 897:..\..\..\liblc3\src/sns.c ****         if (mux_code >= size_a * 14)
 2704              		.loc 1 897 0
 2705 0056 274B     		ldr	r3, .L223
 2706 0058 9842     		cmp	r0, r3
 2707 005a 47DC     		bgt	.L220
 898:..\..\..\liblc3\src/sns.c ****             return -1;
 899:..\..\..\liblc3\src/sns.c **** 
 900:..\..\..\liblc3\src/sns.c ****         data->idx_a = mux_code % size_a;
 2708              		.loc 1 900 0
 2709 005c 264B     		ldr	r3, .L223+4
 2710 005e 90FBF3F2 		sdiv	r2, r0, r3
 901:..\..\..\liblc3\src/sns.c ****         mux_code = mux_code / size_a;
 902:..\..\..\liblc3\src/sns.c **** 
 903:..\..\..\liblc3\src/sns.c ****         data->shape = (mux_code < 2);
 2711              		.loc 1 903 0
 2712 0062 012A     		cmp	r2, #1
 900:..\..\..\liblc3\src/sns.c ****         mux_code = mux_code / size_a;
 2713              		.loc 1 900 0
 2714 0064 03FB1200 		mls	r0, r3, r2, r0
 2715              	.LVL325:
 2716              		.loc 1 903 0
 2717 0068 D4BF     		ite	le
 2718 006a 0123     		movle	r3, #1
 2719 006c 0023     		movgt	r3, #0
 900:..\..\..\liblc3\src/sns.c ****         mux_code = mux_code / size_a;
 2720              		.loc 1 900 0
 2721 006e 2061     		str	r0, [r4, #16]
 2722              	.LVL326:
ARM GAS  C:\Users\rdn\AppData\Local\Temp\cc92LAgm.s 			page 77


 2723              		.loc 1 903 0
 2724 0070 A360     		str	r3, [r4, #8]
 904:..\..\..\liblc3\src/sns.c **** 
 905:..\..\..\liblc3\src/sns.c ****         if (data->shape == 0) {
 2725              		.loc 1 905 0
 2726 0072 06DD     		ble	.L214
 906:..\..\..\liblc3\src/sns.c ****             data->idx_b = (mux_code - 2) / 2;
 2727              		.loc 1 906 0
 2728 0074 023A     		subs	r2, r2, #2
 2729              	.LVL327:
 2730 0076 5310     		asrs	r3, r2, #1
 907:..\..\..\liblc3\src/sns.c ****             data->ls_b  = (mux_code - 2) % 2;
 2731              		.loc 1 907 0
 2732 0078 02F00102 		and	r2, r2, #1
 2733              	.LVL328:
 906:..\..\..\liblc3\src/sns.c ****             data->idx_b = (mux_code - 2) / 2;
 2734              		.loc 1 906 0
 2735 007c 6361     		str	r3, [r4, #20]
 2736              		.loc 1 907 0
 2737 007e 6276     		strb	r2, [r4, #25]
 2738 0080 36E0     		b	.L213
 2739              	.LVL329:
 2740              	.L214:
 908:..\..\..\liblc3\src/sns.c ****         } else {
 909:..\..\..\liblc3\src/sns.c ****             data->gain = (data->gain << 1) + (mux_code % 2);
 2741              		.loc 1 909 0
 2742 0082 E368     		ldr	r3, [r4, #12]
 2743 0084 5900     		lsls	r1, r3, #1
 2744 0086 1D4B     		ldr	r3, .L223+8
 2745 0088 1340     		ands	r3, r3, r2
 2746 008a 002B     		cmp	r3, #0
 2747 008c BEBF     		ittt	lt
 2748 008e 03F1FF33 		addlt	r3, r3, #-1
 2749 0092 63F00103 		ornlt	r3, r3, #1
 2750 0096 0133     		addlt	r3, r3, #1
 2751 0098 0B44     		add	r3, r3, r1
 2752 009a E360     		str	r3, [r4, #12]
 2753 009c 28E0     		b	.L213
 2754              	.LVL330:
 2755              	.L212:
 2756              	.LBE185:
 2757              	.LBB186:
 910:..\..\..\liblc3\src/sns.c ****         }
 911:..\..\..\liblc3\src/sns.c **** 
 912:..\..\..\liblc3\src/sns.c ****     } else {
 913:..\..\..\liblc3\src/sns.c ****         const int size_a = 15158272;
 914:..\..\..\liblc3\src/sns.c **** 
 915:..\..\..\liblc3\src/sns.c ****         if (mux_code >= size_a + 1549824)
 2758              		.loc 1 915 0
 2759 009e 184B     		ldr	r3, .L223+12
 2760 00a0 9842     		cmp	r0, r3
 2761 00a2 23DC     		bgt	.L220
 916:..\..\..\liblc3\src/sns.c ****             return -1;
 917:..\..\..\liblc3\src/sns.c **** 
 918:..\..\..\liblc3\src/sns.c ****         data->shape = 2 + (mux_code >= size_a);
 2762              		.loc 1 918 0
 2763 00a4 A3F5BD13 		sub	r3, r3, #1548288
ARM GAS  C:\Users\rdn\AppData\Local\Temp\cc92LAgm.s 			page 78


 2764 00a8 A3F5C063 		sub	r3, r3, #1536
 2765 00ac 9842     		cmp	r0, r3
 2766 00ae CCBF     		ite	gt
 2767 00b0 0323     		movgt	r3, #3
 2768 00b2 0223     		movle	r3, #2
 919:..\..\..\liblc3\src/sns.c ****         if (data->shape == 2) {
 2769              		.loc 1 919 0
 2770 00b4 022B     		cmp	r3, #2
 918:..\..\..\liblc3\src/sns.c ****         if (data->shape == 2) {
 2771              		.loc 1 918 0
 2772 00b6 A360     		str	r3, [r4, #8]
 2773              		.loc 1 919 0
 2774 00b8 01D1     		bne	.L217
 920:..\..\..\liblc3\src/sns.c ****             data->idx_a = mux_code;
 2775              		.loc 1 920 0
 2776 00ba 2061     		str	r0, [r4, #16]
 2777 00bc 14E0     		b	.L222
 2778              	.L217:
 921:..\..\..\liblc3\src/sns.c ****         } else {
 922:..\..\..\liblc3\src/sns.c ****             mux_code -= size_a;
 2779              		.loc 1 922 0
 2780 00be A0F56700 		sub	r0, r0, #15138816
 2781              	.LVL331:
 2782 00c2 A0F59840 		sub	r0, r0, #19456
 2783              	.LVL332:
 923:..\..\..\liblc3\src/sns.c ****             data->idx_a = mux_code / 2;
 2784              		.loc 1 923 0
 2785 00c6 0223     		movs	r3, #2
 2786 00c8 90FBF3F3 		sdiv	r3, r0, r3
 2787 00cc 2361     		str	r3, [r4, #16]
 924:..\..\..\liblc3\src/sns.c ****             data->gain = (data->gain << 1) + (mux_code % 2);
 2788              		.loc 1 924 0
 2789 00ce E368     		ldr	r3, [r4, #12]
 2790 00d0 5A00     		lsls	r2, r3, #1
 2791 00d2 0A4B     		ldr	r3, .L223+8
 2792 00d4 0340     		ands	r3, r3, r0
 2793 00d6 002B     		cmp	r3, #0
 2794 00d8 BEBF     		ittt	lt
 2795 00da 03F1FF33 		addlt	r3, r3, #-1
 2796 00de 63F00103 		ornlt	r3, r3, #1
 2797 00e2 0133     		addlt	r3, r3, #1
 2798 00e4 1344     		add	r3, r3, r2
 2799 00e6 E360     		str	r3, [r4, #12]
 2800              	.L222:
 2801              	.LBE186:
 925:..\..\..\liblc3\src/sns.c ****         }
 926:..\..\..\liblc3\src/sns.c ****     }
 927:..\..\..\liblc3\src/sns.c **** 
 928:..\..\..\liblc3\src/sns.c ****     return 0;
 2802              		.loc 1 928 0
 2803 00e8 0025     		movs	r5, #0
 2804 00ea 01E0     		b	.L213
 2805              	.LVL333:
 2806              	.L220:
 2807              	.LBB187:
 898:..\..\..\liblc3\src/sns.c **** 
 2808              		.loc 1 898 0
ARM GAS  C:\Users\rdn\AppData\Local\Temp\cc92LAgm.s 			page 79


 2809 00ec 4FF0FF35 		mov	r5, #-1
 2810              	.LVL334:
 2811              	.L213:
 2812              	.LBE187:
 929:..\..\..\liblc3\src/sns.c **** }
 2813              		.loc 1 929 0
 2814 00f0 2846     		mov	r0, r5
 2815 00f2 F8BD     		pop	{r3, r4, r5, r6, r7, pc}
 2816              	.LVL335:
 2817              	.L224:
 2818              		.align	2
 2819              	.L223:
 2820 00f4 578FFE01 		.word	33460055
 2821 00f8 F4772400 		.word	2390004
 2822 00fc 01000080 		.word	-2147483647
 2823 0100 FFF1FE00 		.word	16708095
 2824              		.cfi_endproc
 2825              	.LFE37:
 2826              		.size	lc3_sns_get_data, .-lc3_sns_get_data
 2827              		.section	.rodata
 2828              		.align	2
 2829              		.set	.LANCHOR0,. + 0
 2830              		.type	dct16_m, %object
 2831              		.size	dct16_m, 1024
 2832              	dct16_m:
 2833 0000 0000803E 		.word	1048576000
 2834 0004 CE25B43E 		.word	1051993550
 2835 0008 868AB13E 		.word	1051822726
 2836 000c 8639AD3E 		.word	1051539846
 2837 0010 753DA73E 		.word	1051147637
 2838 0014 12A59F3E 		.word	1050649874
 2839 0018 1783963E 		.word	1050051351
 2840 001c 0AEE8B3E 		.word	1049357834
 2841 0020 0000803E 		.word	1048576000
 2842 0024 C6AC653E 		.word	1046850758
 2843 0028 4E23493E 		.word	1044980558
 2844 002c F2A92A3E 		.word	1042983410
 2845 0030 D48B0A3E 		.word	1040878548
 2846 0034 4530D23D 		.word	1037185093
 2847 0038 AF428D3D 		.word	1032667823
 2848 003c A9F10D3D 		.word	1024324009
 2849 0040 0000803E 		.word	1048576000
 2850 0044 8639AD3E 		.word	1051539846
 2851 0048 1783963E 		.word	1050051351
 2852 004c C6AC653E 		.word	1046850758
 2853 0050 D48B0A3E 		.word	1040878548
 2854 0054 A9F10D3D 		.word	1024324009
 2855 0058 AF428DBD 		.word	-1114815825
 2856 005c F2A92ABE 		.word	-1104500238
 2857 0060 000080BE 		.word	-1098907648
 2858 0064 12A59FBE 		.word	-1096833774
 2859 0068 868AB1BE 		.word	-1095660922
 2860 006c CE25B4BE 		.word	-1095490098
 2861 0070 753DA7BE 		.word	-1096336011
 2862 0074 0AEE8BBE 		.word	-1098125814
 2863 0078 4E2349BE 		.word	-1102503090
 2864 007c 4530D2BD 		.word	-1110298555
ARM GAS  C:\Users\rdn\AppData\Local\Temp\cc92LAgm.s 			page 80


 2865 0080 0000803E 		.word	1048576000
 2866 0084 12A59F3E 		.word	1050649874
 2867 0088 4E23493E 		.word	1044980558
 2868 008c A9F10D3D 		.word	1024324009
 2869 0090 D48B0ABE 		.word	-1106605100
 2870 0094 0AEE8BBE 		.word	-1098125814
 2871 0098 868AB1BE 		.word	-1095660922
 2872 009c 8639ADBE 		.word	-1095943802
 2873 00a0 000080BE 		.word	-1098907648
 2874 00a4 4530D2BD 		.word	-1110298555
 2875 00a8 AF428D3D 		.word	1032667823
 2876 00ac C6AC653E 		.word	1046850758
 2877 00b0 753DA73E 		.word	1051147637
 2878 00b4 CE25B43E 		.word	1051993550
 2879 00b8 1783963E 		.word	1050051351
 2880 00bc F2A92A3E 		.word	1042983410
 2881 00c0 0000803E 		.word	1048576000
 2882 00c4 0AEE8B3E 		.word	1049357834
 2883 00c8 AF428D3D 		.word	1032667823
 2884 00cc F2A92ABE 		.word	-1104500238
 2885 00d0 753DA7BE 		.word	-1096336011
 2886 00d4 8639ADBE 		.word	-1095943802
 2887 00d8 4E2349BE 		.word	-1102503090
 2888 00dc A9F10D3D 		.word	1024324009
 2889 00e0 0000803E 		.word	1048576000
 2890 00e4 CE25B43E 		.word	1051993550
 2891 00e8 1783963E 		.word	1050051351
 2892 00ec 4530D23D 		.word	1037185093
 2893 00f0 D48B0ABE 		.word	-1106605100
 2894 00f4 12A59FBE 		.word	-1096833774
 2895 00f8 868AB1BE 		.word	-1095660922
 2896 00fc C6AC65BE 		.word	-1100632890
 2897 0100 0000803E 		.word	1048576000
 2898 0104 C6AC653E 		.word	1046850758
 2899 0108 AF428DBD 		.word	-1114815825
 2900 010c 12A59FBE 		.word	-1096833774
 2901 0110 753DA7BE 		.word	-1096336011
 2902 0114 4530D2BD 		.word	-1110298555
 2903 0118 4E23493E 		.word	1044980558
 2904 011c CE25B43E 		.word	1051993550
 2905 0120 0000803E 		.word	1048576000
 2906 0124 A9F10DBD 		.word	-1123159639
 2907 0128 178396BE 		.word	-1097432297
 2908 012c 8639ADBE 		.word	-1095943802
 2909 0130 D48B0ABE 		.word	-1106605100
 2910 0134 F2A92A3E 		.word	1042983410
 2911 0138 868AB13E 		.word	1051822726
 2912 013c 0AEE8B3E 		.word	1049357834
 2913 0140 0000803E 		.word	1048576000
 2914 0144 F2A92A3E 		.word	1042983410
 2915 0148 4E2349BE 		.word	-1102503090
 2916 014c CE25B4BE 		.word	-1095490098
 2917 0150 D48B0ABE 		.word	-1106605100
 2918 0154 C6AC653E 		.word	1046850758
 2919 0158 868AB13E 		.word	1051822726
 2920 015c 4530D23D 		.word	1037185093
 2921 0160 000080BE 		.word	-1098907648
ARM GAS  C:\Users\rdn\AppData\Local\Temp\cc92LAgm.s 			page 81


 2922 0164 8639ADBE 		.word	-1095943802
 2923 0168 AF428DBD 		.word	-1114815825
 2924 016c 0AEE8B3E 		.word	1049357834
 2925 0170 753DA73E 		.word	1051147637
 2926 0174 A9F10D3D 		.word	1024324009
 2927 0178 178396BE 		.word	-1097432297
 2928 017c 12A59FBE 		.word	-1096833774
 2929 0180 0000803E 		.word	1048576000
 2930 0184 4530D23D 		.word	1037185093
 2931 0188 178396BE 		.word	-1097432297
 2932 018c 0AEE8BBE 		.word	-1098125814
 2933 0190 D48B0A3E 		.word	1040878548
 2934 0194 CE25B43E 		.word	1051993550
 2935 0198 AF428D3D 		.word	1032667823
 2936 019c 12A59FBE 		.word	-1096833774
 2937 01a0 000080BE 		.word	-1098907648
 2938 01a4 F2A92A3E 		.word	1042983410
 2939 01a8 868AB13E 		.word	1051822726
 2940 01ac A9F10D3D 		.word	1024324009
 2941 01b0 753DA7BE 		.word	-1096336011
 2942 01b4 C6AC65BE 		.word	-1100632890
 2943 01b8 4E23493E 		.word	1044980558
 2944 01bc 8639AD3E 		.word	1051539846
 2945 01c0 0000803E 		.word	1048576000
 2946 01c4 A9F10D3D 		.word	1024324009
 2947 01c8 868AB1BE 		.word	-1095660922
 2948 01cc 4530D2BD 		.word	-1110298555
 2949 01d0 753DA73E 		.word	1051147637
 2950 01d4 F2A92A3E 		.word	1042983410
 2951 01d8 178396BE 		.word	-1097432297
 2952 01dc C6AC65BE 		.word	-1100632890
 2953 01e0 0000803E 		.word	1048576000
 2954 01e4 0AEE8B3E 		.word	1049357834
 2955 01e8 4E2349BE 		.word	-1102503090
 2956 01ec 12A59FBE 		.word	-1096833774
 2957 01f0 D48B0A3E 		.word	1040878548
 2958 01f4 8639AD3E 		.word	1051539846
 2959 01f8 AF428DBD 		.word	-1114815825
 2960 01fc CE25B4BE 		.word	-1095490098
 2961 0200 0000803E 		.word	1048576000
 2962 0204 A9F10DBD 		.word	-1123159639
 2963 0208 868AB1BE 		.word	-1095660922
 2964 020c 4530D23D 		.word	1037185093
 2965 0210 753DA73E 		.word	1051147637
 2966 0214 F2A92ABE 		.word	-1104500238
 2967 0218 178396BE 		.word	-1097432297
 2968 021c C6AC653E 		.word	1046850758
 2969 0220 0000803E 		.word	1048576000
 2970 0224 0AEE8BBE 		.word	-1098125814
 2971 0228 4E2349BE 		.word	-1102503090
 2972 022c 12A59F3E 		.word	1050649874
 2973 0230 D48B0A3E 		.word	1040878548
 2974 0234 8639ADBE 		.word	-1095943802
 2975 0238 AF428DBD 		.word	-1114815825
 2976 023c CE25B43E 		.word	1051993550
 2977 0240 0000803E 		.word	1048576000
 2978 0244 4530D2BD 		.word	-1110298555
ARM GAS  C:\Users\rdn\AppData\Local\Temp\cc92LAgm.s 			page 82


 2979 0248 178396BE 		.word	-1097432297
 2980 024c 0AEE8B3E 		.word	1049357834
 2981 0250 D48B0A3E 		.word	1040878548
 2982 0254 CE25B4BE 		.word	-1095490098
 2983 0258 AF428D3D 		.word	1032667823
 2984 025c 12A59F3E 		.word	1050649874
 2985 0260 000080BE 		.word	-1098907648
 2986 0264 F2A92ABE 		.word	-1104500238
 2987 0268 868AB13E 		.word	1051822726
 2988 026c A9F10DBD 		.word	-1123159639
 2989 0270 753DA7BE 		.word	-1096336011
 2990 0274 C6AC653E 		.word	1046850758
 2991 0278 4E23493E 		.word	1044980558
 2992 027c 8639ADBE 		.word	-1095943802
 2993 0280 0000803E 		.word	1048576000
 2994 0284 F2A92ABE 		.word	-1104500238
 2995 0288 4E2349BE 		.word	-1102503090
 2996 028c CE25B43E 		.word	1051993550
 2997 0290 D48B0ABE 		.word	-1106605100
 2998 0294 C6AC65BE 		.word	-1100632890
 2999 0298 868AB13E 		.word	1051822726
 3000 029c 4530D2BD 		.word	-1110298555
 3001 02a0 000080BE 		.word	-1098907648
 3002 02a4 8639AD3E 		.word	1051539846
 3003 02a8 AF428DBD 		.word	-1114815825
 3004 02ac 0AEE8BBE 		.word	-1098125814
 3005 02b0 753DA73E 		.word	1051147637
 3006 02b4 A9F10DBD 		.word	-1123159639
 3007 02b8 178396BE 		.word	-1097432297
 3008 02bc 12A59F3E 		.word	1050649874
 3009 02c0 0000803E 		.word	1048576000
 3010 02c4 C6AC65BE 		.word	-1100632890
 3011 02c8 AF428DBD 		.word	-1114815825
 3012 02cc 12A59F3E 		.word	1050649874
 3013 02d0 753DA7BE 		.word	-1096336011
 3014 02d4 4530D23D 		.word	1037185093
 3015 02d8 4E23493E 		.word	1044980558
 3016 02dc CE25B4BE 		.word	-1095490098
 3017 02e0 0000803E 		.word	1048576000
 3018 02e4 A9F10D3D 		.word	1024324009
 3019 02e8 178396BE 		.word	-1097432297
 3020 02ec 8639AD3E 		.word	1051539846
 3021 02f0 D48B0ABE 		.word	-1106605100
 3022 02f4 F2A92ABE 		.word	-1104500238
 3023 02f8 868AB13E 		.word	1051822726
 3024 02fc 0AEE8BBE 		.word	-1098125814
 3025 0300 0000803E 		.word	1048576000
 3026 0304 0AEE8BBE 		.word	-1098125814
 3027 0308 AF428D3D 		.word	1032667823
 3028 030c F2A92A3E 		.word	1042983410
 3029 0310 753DA7BE 		.word	-1096336011
 3030 0314 8639AD3E 		.word	1051539846
 3031 0318 4E2349BE 		.word	-1102503090
 3032 031c A9F10DBD 		.word	-1123159639
 3033 0320 0000803E 		.word	1048576000
 3034 0324 CE25B4BE 		.word	-1095490098
 3035 0328 1783963E 		.word	1050051351
ARM GAS  C:\Users\rdn\AppData\Local\Temp\cc92LAgm.s 			page 83


 3036 032c 4530D2BD 		.word	-1110298555
 3037 0330 D48B0ABE 		.word	-1106605100
 3038 0334 12A59F3E 		.word	1050649874
 3039 0338 868AB1BE 		.word	-1095660922
 3040 033c C6AC653E 		.word	1046850758
 3041 0340 0000803E 		.word	1048576000
 3042 0344 12A59FBE 		.word	-1096833774
 3043 0348 4E23493E 		.word	1044980558
 3044 034c A9F10DBD 		.word	-1123159639
 3045 0350 D48B0ABE 		.word	-1106605100
 3046 0354 0AEE8B3E 		.word	1049357834
 3047 0358 868AB1BE 		.word	-1095660922
 3048 035c 8639AD3E 		.word	1051539846
 3049 0360 000080BE 		.word	-1098907648
 3050 0364 4530D23D 		.word	1037185093
 3051 0368 AF428D3D 		.word	1032667823
 3052 036c C6AC65BE 		.word	-1100632890
 3053 0370 753DA73E 		.word	1051147637
 3054 0374 CE25B4BE 		.word	-1095490098
 3055 0378 1783963E 		.word	1050051351
 3056 037c F2A92ABE 		.word	-1104500238
 3057 0380 0000803E 		.word	1048576000
 3058 0384 8639ADBE 		.word	-1095943802
 3059 0388 1783963E 		.word	1050051351
 3060 038c C6AC65BE 		.word	-1100632890
 3061 0390 D48B0A3E 		.word	1040878548
 3062 0394 A9F10DBD 		.word	-1123159639
 3063 0398 AF428DBD 		.word	-1114815825
 3064 039c F2A92A3E 		.word	1042983410
 3065 03a0 000080BE 		.word	-1098907648
 3066 03a4 12A59F3E 		.word	1050649874
 3067 03a8 868AB1BE 		.word	-1095660922
 3068 03ac CE25B43E 		.word	1051993550
 3069 03b0 753DA7BE 		.word	-1096336011
 3070 03b4 0AEE8B3E 		.word	1049357834
 3071 03b8 4E2349BE 		.word	-1102503090
 3072 03bc 4530D23D 		.word	1037185093
 3073 03c0 0000803E 		.word	1048576000
 3074 03c4 CE25B4BE 		.word	-1095490098
 3075 03c8 868AB13E 		.word	1051822726
 3076 03cc 8639ADBE 		.word	-1095943802
 3077 03d0 753DA73E 		.word	1051147637
 3078 03d4 12A59FBE 		.word	-1096833774
 3079 03d8 1783963E 		.word	1050051351
 3080 03dc 0AEE8BBE 		.word	-1098125814
 3081 03e0 0000803E 		.word	1048576000
 3082 03e4 C6AC65BE 		.word	-1100632890
 3083 03e8 4E23493E 		.word	1044980558
 3084 03ec F2A92ABE 		.word	-1104500238
 3085 03f0 D48B0A3E 		.word	1040878548
 3086 03f4 4530D2BD 		.word	-1110298555
 3087 03f8 AF428D3D 		.word	1032667823
 3088 03fc A9F10DBD 		.word	-1123159639
 3089              		.type	e.5111, %object
 3090              		.size	e.5111, 32
 3091              	e.5111:
 3092 0400 0000803F 		.word	1065353216
ARM GAS  C:\Users\rdn\AppData\Local\Temp\cc92LAgm.s 			page 84


 3093 0404 C2958B3F 		.word	1066112450
 3094 0408 F037983F 		.word	1066940400
 3095 040c D7FEA53F 		.word	1067843287
 3096 0410 F304B53F 		.word	1068827891
 3097 0414 2A67C53F 		.word	1069901610
 3098 0418 FD44D73F 		.word	1071072509
 3099 041c C7C0EA3F 		.word	1072349383
 3100              		.type	ge_table.5565, %object
 3101              		.size	ge_table.5565, 28
 3102              	ge_table.5565:
 3103 0420 4C040000 		.word	ge_14.5559
 3104 0424 4C050000 		.word	ge_18.5560
 3105 0428 4C060000 		.word	ge_22.5561
 3106 042c 4C070000 		.word	ge_26.5562
 3107 0430 4C080000 		.word	ge_30.5563
 3108 0434 4C080000 		.word	ge_30.5563
 3109 0438 4C090000 		.word	ge_34.5564
 3110              	.LC0:
 3111 043c 0A000000 		.word	10
 3112 0440 0A000000 		.word	10
 3113 0444 08000000 		.word	8
 3114 0448 06000000 		.word	6
 3115              		.type	ge_14.5559, %object
 3116              		.size	ge_14.5559, 256
 3117              	ge_14.5559:
 3118 044c 0000803F 		.word	1065353216
 3119 0450 54B8863F 		.word	1065793620
 3120 0454 FACA8D3F 		.word	1066257146
 3121 0458 AF3C953F 		.word	1066745007
 3122 045c 71129D3F 		.word	1067258481
 3123 0460 8051A53F 		.word	1067798912
 3124 0464 64FFAD3F 		.word	1068367716
 3125 0468 EE21B73F 		.word	1068966382
 3126 046c 3FBFC03F 		.word	1069596479
 3127 0470 C8DDCA3F 		.word	1070259656
 3128 0474 5284D53F 		.word	1070957650
 3129 0478 00BAE03F 		.word	1071692288
 3130 047c 5886EC3F 		.word	1072465496
 3131 0480 41F1F83F 		.word	1073279297
 3132 0484 87010340 		.word	1073938823
 3133 0488 42E20940 		.word	1074389570
 3134 048c 6D1F1140 		.word	1074863981
 3135 0490 E3BD1840 		.word	1075363299
 3136 0494 BFC22040 		.word	1075888831
 3137 0498 62332940 		.word	1076441954
 3138 049c 74153240 		.word	1077024116
 3139 04a0 EA6E3B40 		.word	1077636842
 3140 04a4 07464540 		.word	1078281735
 3141 04a8 66A14F40 		.word	1078960486
 3142 04ac F8875A40 		.word	1079674872
 3143 04b0 0B016640 		.word	1080426763
 3144 04b4 51147240 		.word	1081218129
 3145 04b8 E1C97E40 		.word	1082051041
 3146 04bc 21158640 		.word	1082529057
 3147 04c0 351F8D40 		.word	1082990389
 3148 04c4 E5879440 		.word	1083475941
 3149 04c8 29549C40 		.word	1083986985
ARM GAS  C:\Users\rdn\AppData\Local\Temp\cc92LAgm.s 			page 85


 3150 04cc 3B89A440 		.word	1084524859
 3151 04d0 9C2CAD40 		.word	1085090972
 3152 04d4 1544B640 		.word	1085686805
 3153 04d8 C0D5BF40 		.word	1086313920
 3154 04dc 07E8C940 		.word	1086973959
 3155 04e0 A981D440 		.word	1087668649
 3156 04e4 C4A9DF40 		.word	1088399812
 3157 04e8 D067EB40 		.word	1089169360
 3158 04ec AEC3F740 		.word	1089979310
 3159 04f0 D3620241 		.word	1090675411
 3160 04f4 393B0941 		.word	1091124025
 3161 04f8 A06F1041 		.word	1091596192
 3162 04fc DB041841 		.word	1092093147
 3163 0500 00002041 		.word	1092616192
 3164 0504 69662841 		.word	1093166697
 3165 0508 B83D3141 		.word	1093746104
 3166 050c DB8B3A41 		.word	1094355931
 3167 0510 0D574441 		.word	1094997773
 3168 0514 E0A54E41 		.word	1095673312
 3169 0518 3D7F5941 		.word	1096384317
 3170 051c 6AEA6441 		.word	1097132650
 3171 0520 0FEF7041 		.word	1097920271
 3172 0524 3A957D41 		.word	1098749242
 3173 0528 B3728541 		.word	1099264691
 3174 052c 40748C41 		.word	1099723840
 3175 0530 F7D39341 		.word	1100207095
 3176 0534 C8969B41 		.word	1100715720
 3177 0538 E9C1A341 		.word	1101251049
 3178 053c D35AAC41 		.word	1101814483
 3179 0540 4967B541 		.word	1102407497
 3180 0544 5CEDBE41 		.word	1103031644
 3181 0548 6FF3C841 		.word	1103688559
 3182              		.type	ge_18.5560, %object
 3183              		.size	ge_18.5560, 256
 3184              	ge_18.5560:
 3185 054c 0000803F 		.word	1065353216
 3186 0550 3DB4883F 		.word	1065923645
 3187 0554 FFFF913F 		.word	1066532863
 3188 0558 95ED9B3F 		.word	1067183509
 3189 055c FF87A63F 		.word	1067878399
 3190 0560 FDDAB13F 		.word	1068620541
 3191 0564 1EF3BD3F 		.word	1069413150
 3192 0568 C8DDCA3F 		.word	1070259656
 3193 056c 4DA9D83F 		.word	1071163725
 3194 0570 F764E73F 		.word	1072129271
 3195 0574 1A21F73F 		.word	1073160474
 3196 0578 94F70340 		.word	1074001812
 3197 057c E0F00C40 		.word	1074589920
 3198 0580 64861640 		.word	1075218020
 3199 0584 BFC22040 		.word	1075888831
 3200 0588 4AB12B40 		.word	1076605258
 3201 058c 215E3740 		.word	1077370401
 3202 0590 37D64340 		.word	1078187575
 3203 0594 5D275140 		.word	1079060317
 3204 0598 56605F40 		.word	1079992406
 3205 059c E5906E40 		.word	1080987877
 3206 05a0 E1C97E40 		.word	1082051041
ARM GAS  C:\Users\rdn\AppData\Local\Temp\cc92LAgm.s 			page 86


 3207 05a4 A20E8840 		.word	1082658466
 3208 05a8 224F9140 		.word	1083264802
 3209 05ac B0309B40 		.word	1083912368
 3210 05b0 42BEA540 		.word	1084603970
 3211 05b4 8803B140 		.word	1085342600
 3212 05b8 020DBD40 		.word	1086131458
 3213 05bc 07E8C940 		.word	1086973959
 3214 05c0 D5A2D740 		.word	1087873749
 3215 05c4 A64CE640 		.word	1088834726
 3216 05c8 BAF5F540 		.word	1089861050
 3217 05cc B6570341 		.word	1090738102
 3218 05d0 24460C41 		.word	1091323428
 3219 05d4 0BD01541 		.word	1091948555
 3220 05d8 00002041 		.word	1092616192
 3221 05dc 4CE12A41 		.word	1093329228
 3222 05e0 FF7F3641 		.word	1094090751
 3223 05e4 FAE84241 		.word	1094904058
 3224 05e8 FE295041 		.word	1095772670
 3225 05ec BC515E41 		.word	1096700348
 3226 05f0 E56F6D41 		.word	1097691109
 3227 05f4 3A957D41 		.word	1098749242
 3228 05f8 D0698741 		.word	1099393488
 3229 05fc 1A9F9041 		.word	1099996954
 3230 0600 B1749A41 		.word	1100641457
 3231 0604 79F5A441 		.word	1101329785
 3232 0608 192DB041 		.word	1102064921
 3233 060c FD27BC41 		.word	1102850045
 3234 0610 6FF3C841 		.word	1103688559
 3235 0614 9C9DD641 		.word	1104584092
 3236 0618 AA35E541 		.word	1105540522
 3237 061c C5CBF441 		.word	1106561989
 3238 0620 9AB80242 		.word	1107474586
 3239 0624 369C0B42 		.word	1108057142
 3240 0628 8F1A1542 		.word	1108679311
 3241 062c 2D3E1F42 		.word	1109343789
 3242 0630 4B122A42 		.word	1110053451
 3243 0634 EAA23542 		.word	1110811370
 3244 0638 DCFC4142 		.word	1111620828
 3245 063c D22D4F42 		.word	1112485330
 3246 0640 6A445D42 		.word	1113408618
 3247 0644 43506C42 		.word	1114394691
 3248 0648 08627C42 		.word	1115447816
 3249              		.type	ge_22.5561, %object
 3250              		.size	ge_22.5561, 256
 3251              	ge_22.5561:
 3252 064c 0000803F 		.word	1065353216
 3253 0650 A1B78A3F 		.word	1066055585
 3254 0654 FA54963F 		.word	1066816762
 3255 0658 47EBA23F 		.word	1067641671
 3256 065c 618FB03F 		.word	1068535649
 3257 0660 DF57BF3F 		.word	1069504479
 3258 0664 3C5DCF3F 		.word	1070554428
 3259 0668 00BAE03F 		.word	1071692288
 3260 066c EC8AF33F 		.word	1072925420
 3261 0670 94F70340 		.word	1074001812
 3262 0674 3D040F40 		.word	1074725949
 3263 0678 BDFD1A40 		.word	1075510717
ARM GAS  C:\Users\rdn\AppData\Local\Temp\cc92LAgm.s 			page 87


 3264 067c E9F72740 		.word	1076361193
 3265 0680 3F083640 		.word	1077282879
 3266 0684 07464540 		.word	1078281735
 3267 0688 82CA5540 		.word	1079364226
 3268 068c 07B16740 		.word	1080537351
 3269 0690 3D177B40 		.word	1081808701
 3270 0694 A20E8840 		.word	1082658466
 3271 0698 F6729340 		.word	1083405046
 3272 069c 79CB9F40 		.word	1084214137
 3273 06a0 9C2CAD40 		.word	1085090972
 3274 06a4 87ACBB40 		.word	1086041223
 3275 06a8 3D63CB40 		.word	1087071037
 3276 06ac C56ADC40 		.word	1088187077
 3277 06b0 51DFEE40 		.word	1089396561
 3278 06b4 B96F0141 		.word	1090613177
 3279 06b8 24460C41 		.word	1091323428
 3280 06bc DB041841 		.word	1092093147
 3281 06c0 51BF2441 		.word	1092927313
 3282 06c4 9C8A3241 		.word	1093831324
 3283 06c8 927D4141 		.word	1094811026
 3284 06cc F6B05141 		.word	1095872758
 3285 06d0 9B3F6341 		.word	1097023387
 3286 06d4 95467641 		.word	1098270357
 3287 06d8 B3728541 		.word	1099264691
 3288 06dc 1A9F9041 		.word	1099996954
 3289 06e0 01BB9C41 		.word	1100790529
 3290 06e4 75DAA941 		.word	1101650549
 3291 06e8 3213B841 		.word	1102582578
 3292 06ec C47CC741 		.word	1103592644
 3293 06f0 B130D841 		.word	1104687281
 3294 06f4 A44AEA41 		.word	1105873572
 3295 06f8 95E8FD41 		.word	1107159189
 3296 06fc 81950942 		.word	1107924353
 3297 0700 8F1A1542 		.word	1108679311
 3298 0704 89962142 		.word	1109497481
 3299 0708 1C1E2F42 		.word	1110384156
 3300 070c AFC73D42 		.word	1111345071
 3301 0710 8AAB4D42 		.word	1112386442
 3302 0714 FEE35E42 		.word	1113515006
 3303 0718 8F8D7142 		.word	1114738063
 3304 071c 93E38242 		.word	1115874195
 3305 0720 20D98D42 		.word	1116592416
 3306 0724 94B99942 		.word	1117370772
 3307 0728 9C98A642 		.word	1118214300
 3308 072c 878BB442 		.word	1119128455
 3309 0730 70A9C342 		.word	1120119152
 3310 0734 5E0BD442 		.word	1121192798
 3311 0738 74CCE542 		.word	1122356340
 3312 073c 170AF942 		.word	1123617303
 3313 0740 13F20643 		.word	1124528659
 3314 0744 943E1243 		.word	1125269140
 3315 0748 447D1E43 		.word	1126071620
 3316              		.type	ge_26.5562, %object
 3317              		.size	ge_26.5562, 256
 3318              	ge_26.5562:
 3319 074c 0000803F 		.word	1065353216
 3320 0750 9BC28C3F 		.word	1066189467
ARM GAS  C:\Users\rdn\AppData\Local\Temp\cc92LAgm.s 			page 88


 3321 0754 DBCA9A3F 		.word	1067109083
 3322 0758 3739AA3F 		.word	1068120375
 3323 075c 6131BB3F 		.word	1069232481
 3324 0760 9CDACD3F 		.word	1070455452
 3325 0764 1360E23F 		.word	1071800339
 3326 0768 41F1F83F 		.word	1073279297
 3327 076c 2DE10840 		.word	1074323757
 3328 0770 64861640 		.word	1075218020
 3329 0774 D8872540 		.word	1076201432
 3330 0778 3F083640 		.word	1077282879
 3331 077c C52D4840 		.word	1078472133
 3332 0780 68225C40 		.word	1079779944
 3333 0784 51147240 		.word	1081218129
 3334 0788 221B8540 		.word	1082465058
 3335 078c 0C609240 		.word	1083334668
 3336 0790 98F7A040 		.word	1084290968
 3337 0794 8803B140 		.word	1085342600
 3338 0798 FDA8C240 		.word	1086499069
 3339 079c C910D640 		.word	1087770825
 3340 07a0 D067EB40 		.word	1089169360
 3341 07a4 B96F0141 		.word	1090613177
 3342 07a8 FD560E41 		.word	1091458813
 3343 07ac 8D871C41 		.word	1092388749
 3344 07b0 3D222C41 		.word	1093411389
 3345 07b4 274B3D41 		.word	1094535975
 3346 07b8 FE295041 		.word	1095772670
 3347 07bc 6AEA6441 		.word	1097132650
 3348 07c0 6CBC7B41 		.word	1098628204
 3349 07c4 696A8A41 		.word	1099590249
 3350 07c8 D3369841 		.word	1100494547
 3351 07cc 6363A741 		.word	1101488995
 3352 07d0 3213B841 		.word	1102582578
 3353 07d4 DA6CCA41 		.word	1103785178
 3354 07d8 D19ADE41 		.word	1105107665
 3355 07dc C5CBF441 		.word	1106561989
 3356 07e0 86990642 		.word	1107728774
 3357 07e4 8F041442 		.word	1108608143
 3358 07e8 07C62242 		.word	1109575175
 3359 07ec 11003342 		.word	1110638609
 3360 07f0 37D84442 		.word	1111808055
 3361 07f4 C2775842 		.word	1113094082
 3362 07f8 180C6E42 		.word	1114508312
 3363 07fc 93E38242 		.word	1115874195
 3364 0800 E8EF8F42 		.word	1116729320
 3365 0804 3C499E42 		.word	1117669692
 3366 0808 C010AE42 		.word	1118703808
 3367 080c F76ABF42 		.word	1119841015
 3368 0810 0480D242 		.word	1121091588
 3369 0814 0D7CE742 		.word	1122466829
 3370 0818 9F8FFE42 		.word	1123979167
 3371 081c 0EF80B43 		.word	1124857870
 3372 0820 1DEC1943 		.word	1125772317
 3373 0824 44442943 		.word	1126777924
 3374 0828 03243A43 		.word	1127883779
 3375 082c 63B24C43 		.word	1129099875
 3376 0830 531A6143 		.word	1130437203
 3377 0834 078B7743 		.word	1131907847
ARM GAS  C:\Users\rdn\AppData\Local\Temp\cc92LAgm.s 			page 89


 3378 0838 351C8843 		.word	1132993589
 3379 083c CAAD9543 		.word	1133882826
 3380 0840 A699A443 		.word	1134860710
 3381 0844 4E02B543 		.word	1135936078
 3382 0848 B80DC743 		.word	1137118648
 3383              		.type	ge_30.5563, %object
 3384              		.size	ge_30.5563, 256
 3385              	ge_30.5563:
 3386 084c 0000803F 		.word	1065353216
 3387 0850 49D58E3F 		.word	1066325321
 3388 0854 9E629F3F 		.word	1067410078
 3389 0858 FDDAB13F 		.word	1068620541
 3390 085c 4D77C63F 		.word	1069971277
 3391 0860 0E77DD3F 		.word	1071478542
 3392 0864 1A21F73F 		.word	1073160474
 3393 0868 42E20940 		.word	1074389570
 3394 086c C3DC1940 		.word	1075436739
 3395 0870 4AB12B40 		.word	1076605258
 3396 0874 C5963F40 		.word	1077909189
 3397 0878 82CA5540 		.word	1079364226
 3398 087c E5906E40 		.word	1080987877
 3399 0880 221B8540 		.word	1082465058
 3400 0884 E5879440 		.word	1083475941
 3401 0888 42BEA540 		.word	1084603970
 3402 088c 3EF3B840 		.word	1085862718
 3403 0890 0862CE40 		.word	1087267336
 3404 0894 A64CE640 		.word	1088834726
 3405 0898 647E0041 		.word	1090551396
 3406 089c 53620F41 		.word	1091527251
 3407 08a0 00002041 		.word	1092616192
 3408 08a4 9C8A3241 		.word	1093831324
 3409 08a8 463B4741 		.word	1095187270
 3410 08ac BC515E41 		.word	1096700348
 3411 08b0 20157841 		.word	1098388768
 3412 08b4 696A8A41 		.word	1099590249
 3413 08b8 B1749A41 		.word	1100641457
 3414 08bc D35AAC41 		.word	1101814483
 3415 08c0 F453C041 		.word	1103123444
 3416 08c4 9C9DD641 		.word	1104584092
 3417 08c8 777CEF41 		.word	1106214007
 3418 08cc 919E0542 		.word	1107664529
 3419 08d0 8F1A1542 		.word	1108679311
 3420 08d4 EB612642 		.word	1109811691
 3421 08d8 DFA93942 		.word	1111075295
 3422 08dc D22D4F42 		.word	1112485330
 3423 08e0 0E306742 		.word	1114058766
 3424 08e4 45FD8042 		.word	1115749701
 3425 08e8 E8EF8F42 		.word	1116729320
 3426 08ec FD9DA042 		.word	1117822461
 3427 08f0 E83AB342 		.word	1119042280
 3428 08f4 0000C842 		.word	1120403456
 3429 08f8 432DDF42 		.word	1121922371
 3430 08fc 170AF942 		.word	1123617303
 3431 0900 16F30A43 		.word	1124791062
 3432 0904 340D1B43 		.word	1125846324
 3433 0908 03052D43 		.word	1127023875
 3434 090c DD114143 		.word	1128337885
ARM GAS  C:\Users\rdn\AppData\Local\Temp\cc92LAgm.s 			page 90


 3435 0910 87715743 		.word	1129804167
 3436 0914 F0687043 		.word	1131440368
 3437 0918 82228643 		.word	1132864130
 3438 091c CAAD9543 		.word	1133882826
 3439 0920 3506A743 		.word	1135019573
 3440 0924 3361BA43 		.word	1136288051
 3441 0928 65FACF43 		.word	1137703525
 3442 092c 5614E843 		.word	1139283030
 3443 0930 A37C0144 		.word	1140948131
 3444 0934 097E1044 		.word	1141931529
 3445 0938 963C2144 		.word	1143028886
 3446 093c E2EB3344 		.word	1144253410
 3447 0940 7CC54844 		.word	1145619836
 3448 0944 A2096044 		.word	1147144610
 3449 0948 00007A44 		.word	1148846080
 3450              		.type	ge_34.5564, %object
 3451              		.size	ge_34.5564, 256
 3452              	ge_34.5564:
 3453 094c 0000803F 		.word	1065353216
 3454 0950 C8EF903F 		.word	1066463176
 3455 0954 441DA43F 		.word	1067720004
 3456 0958 5CD4B93F 		.word	1069143132
 3457 095c 056BD23F 		.word	1070754565
 3458 0960 9342EE3F 		.word	1072579219
 3459 0964 9DE40640 		.word	1074193565
 3460 0968 E3BD1840 		.word	1075363299
 3461 096c C1F32C40 		.word	1076687809
 3462 0970 37D64340 		.word	1078187575
 3463 0974 DBBF5D40 		.word	1079885787
 3464 0978 3D177B40 		.word	1081808701
 3465 097c 42288E40 		.word	1083058242
 3466 0980 98F7A040 		.word	1084290968
 3467 0984 1544B640 		.word	1085686805
 3468 0988 0862CE40 		.word	1087267336
 3469 098c E7B0E940 		.word	1089056999
 3470 0990 654E0441 		.word	1090801253
 3471 0994 0BD01541 		.word	1091948555
 3472 0998 B2A22941 		.word	1093247666
 3473 099c CF144041 		.word	1094718671
 3474 09a0 3D7F5941 		.word	1096384317
 3475 09a4 95467641 		.word	1098270357
 3476 09a8 606E8B41 		.word	1099656800
 3477 09ac 5FE19D41 		.word	1100865887
 3478 09b0 4CC5B241 		.word	1102234956
 3479 09b4 DA6CCA41 		.word	1103785178
 3480 09b8 AA35E541 		.word	1105540522
 3481 09bc E0C40142 		.word	1107412192
 3482 09c0 95F01242 		.word	1108537493
 3483 09c4 EB612642 		.word	1109811691
 3484 09c8 D7653C42 		.word	1111254487
 3485 09cc 7F535542 		.word	1112888191
 3486 09d0 8F8D7142 		.word	1114738063
 3487 09d4 E1C18842 		.word	1116258785
 3488 09d8 4DDA9A42 		.word	1117444685
 3489 09dc AD57AF42 		.word	1118787501
 3490 09e0 1A8BC642 		.word	1120307994
 3491 09e4 6CD0E042 		.word	1122029676
ARM GAS  C:\Users\rdn\AppData\Local\Temp\cc92LAgm.s 			page 91


 3492 09e8 9F8FFE42 		.word	1123979167
 3493 09ec 391F1043 		.word	1125130041
 3494 09f0 1C312343 		.word	1126379804
 3495 09f4 F4C83843 		.word	1127794932
 3496 09f8 3C3C5143 		.word	1129397308
 3497 09fc B9EB6C43 		.word	1131211705
 3498 0a00 82228643 		.word	1132864130
 3499 0a04 18E29743 		.word	1134027288
 3500 0a08 E1FAAB43 		.word	1135344353
 3501 0a0c 69BCC243 		.word	1136835689
 3502 0a10 C380DC43 		.word	1138524355
 3503 0a14 EDADF943 		.word	1140436461
 3504 0a18 B25B0D44 		.word	1141726130
 3505 0a1c F70F2044 		.word	1142951927
 3506 0a20 CE3D3544 		.word	1144339918
 3507 0a24 0D394D44 		.word	1145911565
 3508 0a28 A0606844 		.word	1147691168
 3509 0a2c 02908344 		.word	1149472770
 3510 0a30 78F89444 		.word	1150613624
 3511 0a34 98AEA844 		.word	1151905432
 3512 0a38 6900BF44 		.word	1153368169
 3513 0a3c 4446D844 		.word	1155024452
 3514 0a40 32E4F444 		.word	1156899890
 3515 0a44 BDA50A45 		.word	1158325693
 3516 0a48 2FFE1C45 		.word	1159527983
 3517              		.text
 3518              	.Letext0:
 3519              		.file 4 "c:\\program files (x86)\\cypress\\psoc creator\\4.4\\psoc creator\\import\\gnu\\arm\\5.4.
 3520              		.file 5 "c:\\program files (x86)\\cypress\\psoc creator\\4.4\\psoc creator\\import\\gnu\\arm\\5.4.
 3521              		.file 6 "./liblc3/include/lc3_private.h"
 3522              		.file 7 "..\\..\\..\\liblc3\\src\\sns.h"
 3523              		.file 8 "..\\..\\..\\liblc3\\src\\tables.h"
 3524              		.file 9 "..\\..\\..\\liblc3\\src\\common.h"
 3525              		.file 10 "c:\\program files (x86)\\cypress\\psoc creator\\4.4\\psoc creator\\import\\gnu\\arm\\5.4
 3526              		.file 11 "c:\\program files (x86)\\cypress\\psoc creator\\4.4\\psoc creator\\import\\gnu\\arm\\5.4