ARM GAS  C:\Users\rdn\AppData\Local\Temp\ccYcaPXH.s 			page 1


   1              		.syntax unified
   2              		.cpu cortex-m4
   3              		.eabi_attribute 27, 1
   4              		.fpu fpv4-sp-d16
   5              		.eabi_attribute 20, 1
   6              		.eabi_attribute 21, 1
   7              		.eabi_attribute 23, 3
   8              		.eabi_attribute 24, 1
   9              		.eabi_attribute 25, 1
  10              		.eabi_attribute 26, 1
  11              		.eabi_attribute 30, 4
  12              		.eabi_attribute 34, 1
  13              		.eabi_attribute 18, 4
  14              		.thumb
  15              		.syntax unified
  16              		.file	"spec.c"
  17              		.text
  18              	.Ltext0:
  19              		.cfi_sections	.debug_frame
  20              		.section	.text.resolve_gain_offset,"ax",%progbits
  21              		.align	1
  22              		.thumb
  23              		.thumb_func
  24              		.type	resolve_gain_offset, %function
  25              	resolve_gain_offset:
  26              	.LFB20:
  27              		.file 1 "..\\..\\..\\liblc3\\src\\spec.c"
   1:..\..\..\liblc3\src/spec.c **** /******************************************************************************
   2:..\..\..\liblc3\src/spec.c ****  *
   3:..\..\..\liblc3\src/spec.c ****  *  Copyright 2022 Google LLC
   4:..\..\..\liblc3\src/spec.c ****  *
   5:..\..\..\liblc3\src/spec.c ****  *  Licensed under the Apache License, Version 2.0 (the "License");
   6:..\..\..\liblc3\src/spec.c ****  *  you may not use this file except in compliance with the License.
   7:..\..\..\liblc3\src/spec.c ****  *  You may obtain a copy of the License at:
   8:..\..\..\liblc3\src/spec.c ****  *
   9:..\..\..\liblc3\src/spec.c ****  *  http://www.apache.org/licenses/LICENSE-2.0
  10:..\..\..\liblc3\src/spec.c ****  *
  11:..\..\..\liblc3\src/spec.c ****  *  Unless required by applicable law or agreed to in writing, software
  12:..\..\..\liblc3\src/spec.c ****  *  distributed under the License is distributed on an "AS IS" BASIS,
  13:..\..\..\liblc3\src/spec.c ****  *  WITHOUT WARRANTIES OR CONDITIONS OF ANY KIND, either express or implied.
  14:..\..\..\liblc3\src/spec.c ****  *  See the License for the specific language governing permissions and
  15:..\..\..\liblc3\src/spec.c ****  *  limitations under the License.
  16:..\..\..\liblc3\src/spec.c ****  *
  17:..\..\..\liblc3\src/spec.c ****  ******************************************************************************/
  18:..\..\..\liblc3\src/spec.c **** 
  19:..\..\..\liblc3\src/spec.c **** #include "spec.h"
  20:..\..\..\liblc3\src/spec.c **** #include "bits.h"
  21:..\..\..\liblc3\src/spec.c **** #include "tables.h"
  22:..\..\..\liblc3\src/spec.c **** 
  23:..\..\..\liblc3\src/spec.c **** 
  24:..\..\..\liblc3\src/spec.c **** /* ----------------------------------------------------------------------------
  25:..\..\..\liblc3\src/spec.c ****  *  Global Gain / Quantization
  26:..\..\..\liblc3\src/spec.c ****  * -------------------------------------------------------------------------- */
  27:..\..\..\liblc3\src/spec.c **** 
  28:..\..\..\liblc3\src/spec.c **** /**
  29:..\..\..\liblc3\src/spec.c ****  * Resolve quantized gain index offset
  30:..\..\..\liblc3\src/spec.c ****  * sr, nbytes      Samplerate and size of the frame
ARM GAS  C:\Users\rdn\AppData\Local\Temp\ccYcaPXH.s 			page 2


  31:..\..\..\liblc3\src/spec.c ****  * return          Gain index offset
  32:..\..\..\liblc3\src/spec.c ****  */
  33:..\..\..\liblc3\src/spec.c **** static int resolve_gain_offset(enum lc3_srate sr, int nbytes)
  34:..\..\..\liblc3\src/spec.c **** {
  28              		.loc 1 34 0
  29              		.cfi_startproc
  30              		@ args = 0, pretend = 0, frame = 0
  31              		@ frame_needed = 0, uses_anonymous_args = 0
  32              		@ link register save eliminated.
  33              	.LVL0:
  35:..\..\..\liblc3\src/spec.c ****     int sr_ind = lc3_hr(sr) ? 4 + (sr - LC3_SRATE_48K_HR) : sr;
  34              		.loc 1 35 0
  35 0000 0428     		cmp	r0, #4
  36 0002 8CBF     		ite	hi
  37 0004 00F1FF33 		addhi	r3, r0, #-1
  38 0008 0346     		movls	r3, r0
  39              	.LVL1:
  36:..\..\..\liblc3\src/spec.c **** 
  37:..\..\..\liblc3\src/spec.c ****     int g_off = (nbytes * 8) / (10 * (1 + sr_ind));
  40              		.loc 1 37 0
  41 000a 0133     		adds	r3, r3, #1
  42              	.LVL2:
  38:..\..\..\liblc3\src/spec.c ****     return LC3_MIN(sr >= LC3_SRATE_96K_HR ? 181 : 255,
  43              		.loc 1 38 0
  44 000c 0A22     		movs	r2, #10
  45 000e 5A43     		muls	r2, r3, r2
  46 0010 03EB8303 		add	r3, r3, r3, lsl #2
  47              	.LVL3:
  48 0014 6933     		adds	r3, r3, #105
  49 0016 C900     		lsls	r1, r1, #3
  50              	.LVL4:
  51 0018 91FBF2F1 		sdiv	r1, r1, r2
  52              	.LVL5:
  53 001c 7329     		cmp	r1, #115
  54 001e D4BF     		ite	le
  55 0020 5B18     		addle	r3, r3, r1
  56 0022 7333     		addgt	r3, r3, #115
  57 0024 0528     		cmp	r0, #5
  58 0026 8CBF     		ite	hi
  59 0028 B520     		movhi	r0, #181
  60              	.LVL6:
  61 002a FF20     		movls	r0, #255
  39:..\..\..\liblc3\src/spec.c ****         105 + 5*(1 + sr_ind) + LC3_MIN(g_off, 115));
  40:..\..\..\liblc3\src/spec.c **** }
  62              		.loc 1 40 0
  63 002c 9842     		cmp	r0, r3
  64 002e A8BF     		it	ge
  65 0030 1846     		movge	r0, r3
  66 0032 7047     		bx	lr
  67              		.cfi_endproc
  68              	.LFE20:
  69              		.size	resolve_gain_offset, .-resolve_gain_offset
  70              		.section	.text.unquantize_gain,"ax",%progbits
  71              		.align	1
  72              		.thumb
  73              		.thumb_func
  74              		.type	unquantize_gain, %function
ARM GAS  C:\Users\rdn\AppData\Local\Temp\ccYcaPXH.s 			page 3


  75              	unquantize_gain:
  76              	.LFB21:
  41:..\..\..\liblc3\src/spec.c **** 
  42:..\..\..\liblc3\src/spec.c **** /**
  43:..\..\..\liblc3\src/spec.c ****  * Unquantize gain
  44:..\..\..\liblc3\src/spec.c ****  * g_int           Quantization gain value
  45:..\..\..\liblc3\src/spec.c ****  * return          Unquantized gain value
  46:..\..\..\liblc3\src/spec.c ****  */
  47:..\..\..\liblc3\src/spec.c **** static float unquantize_gain(int g_int)
  48:..\..\..\liblc3\src/spec.c **** {
  77              		.loc 1 48 0
  78              		.cfi_startproc
  79              		@ args = 0, pretend = 0, frame = 0
  80              		@ frame_needed = 0, uses_anonymous_args = 0
  81              		@ link register save eliminated.
  82              	.LVL7:
  49:..\..\..\liblc3\src/spec.c ****     /* Unquantization gain table :
  50:..\..\..\liblc3\src/spec.c ****      * G[i] = 10 ^ (i / 28) , i = [0..27] */
  51:..\..\..\liblc3\src/spec.c **** 
  52:..\..\..\liblc3\src/spec.c ****     static const float iq_table[] = {
  53:..\..\..\liblc3\src/spec.c ****         1.00000000e+00, 1.08571112e+00, 1.17876863e+00, 1.27980221e+00,
  54:..\..\..\liblc3\src/spec.c ****         1.38949549e+00, 1.50859071e+00, 1.63789371e+00, 1.77827941e+00,
  55:..\..\..\liblc3\src/spec.c ****         1.93069773e+00, 2.09617999e+00, 2.27584593e+00, 2.47091123e+00,
  56:..\..\..\liblc3\src/spec.c ****         2.68269580e+00, 2.91263265e+00, 3.16227766e+00, 3.43332002e+00,
  57:..\..\..\liblc3\src/spec.c ****         3.72759372e+00, 4.04708995e+00, 4.39397056e+00, 4.77058270e+00,
  58:..\..\..\liblc3\src/spec.c ****         5.17947468e+00, 5.62341325e+00, 6.10540230e+00, 6.62870316e+00,
  59:..\..\..\liblc3\src/spec.c ****         7.19685673e+00, 7.81370738e+00, 8.48342898e+00, 9.21055318e+00
  60:..\..\..\liblc3\src/spec.c ****     };
  61:..\..\..\liblc3\src/spec.c **** 
  62:..\..\..\liblc3\src/spec.c ****     float g = 1.f;
  63:..\..\..\liblc3\src/spec.c **** 
  64:..\..\..\liblc3\src/spec.c ****     for ( ; g_int <   0; g_int += 28, g *= 0.1f);
  83              		.loc 1 64 0
  84 0000 9FED0C7A 		vldr.32	s14, .L14
  62:..\..\..\liblc3\src/spec.c **** 
  85              		.loc 1 62 0
  86 0004 F7EE007A 		vmov.f32	s15, #1.0e+0
  87              	.LVL8:
  88              	.L7:
  89              		.loc 1 64 0 discriminator 1
  90 0008 0028     		cmp	r0, #0
  91 000a 03DA     		bge	.L12
  92              		.loc 1 64 0 is_stmt 0 discriminator 2
  93 000c 1C30     		adds	r0, r0, #28
  94              	.LVL9:
  95 000e 67EE877A 		vmul.f32	s15, s15, s14
  96              	.LVL10:
  97 0012 F9E7     		b	.L7
  98              	.L12:
  65:..\..\..\liblc3\src/spec.c ****     for ( ; g_int >= 28; g_int -= 28, g *= 10.f);
  99              		.loc 1 65 0 is_stmt 1 discriminator 1
 100 0014 B2EE047A 		vmov.f32	s14, #1.0e+1
 101              	.L9:
 102 0018 1B28     		cmp	r0, #27
 103 001a 03DD     		ble	.L13
 104              		.loc 1 65 0 is_stmt 0 discriminator 2
 105 001c 1C38     		subs	r0, r0, #28
ARM GAS  C:\Users\rdn\AppData\Local\Temp\ccYcaPXH.s 			page 4


 106              	.LVL11:
 107 001e 67EE877A 		vmul.f32	s15, s15, s14
 108              	.LVL12:
 109 0022 F9E7     		b	.L9
 110              	.L13:
  66:..\..\..\liblc3\src/spec.c **** 
  67:..\..\..\liblc3\src/spec.c ****     return g * iq_table[g_int];
 111              		.loc 1 67 0 is_stmt 1
 112 0024 044B     		ldr	r3, .L14+4
 113 0026 03EB8000 		add	r0, r3, r0, lsl #2
 114              	.LVL13:
 115 002a 90ED000A 		vldr.32	s0, [r0]
  68:..\..\..\liblc3\src/spec.c **** }
 116              		.loc 1 68 0
 117 002e 27EE800A 		vmul.f32	s0, s15, s0
 118 0032 7047     		bx	lr
 119              	.L15:
 120              		.align	2
 121              	.L14:
 122 0034 CDCCCC3D 		.word	1036831949
 123 0038 00000000 		.word	.LANCHOR0
 124              		.cfi_endproc
 125              	.LFE21:
 126              		.size	unquantize_gain, .-unquantize_gain
 127              		.section	.text.quantize,"ax",%progbits
 128              		.align	1
 129              		.thumb
 130              		.thumb_func
 131              		.type	quantize, %function
 132              	quantize:
 133              	.LFB24:
  69:..\..\..\liblc3\src/spec.c **** 
  70:..\..\..\liblc3\src/spec.c **** /**
  71:..\..\..\liblc3\src/spec.c ****  * Global Gain Estimation
  72:..\..\..\liblc3\src/spec.c ****  * dt, sr          Duration and samplerate of the frame
  73:..\..\..\liblc3\src/spec.c ****  * x               Spectral coefficients
  74:..\..\..\liblc3\src/spec.c ****  * nbytes          Size of the frame
  75:..\..\..\liblc3\src/spec.c ****  * nbits_budget    Number of bits available coding the spectrum
  76:..\..\..\liblc3\src/spec.c ****  * nbits_off       Offset on the available bits, temporarily smoothed
  77:..\..\..\liblc3\src/spec.c ****  * g_off           Gain index offset
  78:..\..\..\liblc3\src/spec.c ****  * reset_off       Return True when the nbits_off must be reset
  79:..\..\..\liblc3\src/spec.c ****  * g_min           Return lower bound of quantized gain value
  80:..\..\..\liblc3\src/spec.c ****  * return          The quantized gain value
  81:..\..\..\liblc3\src/spec.c ****  */
  82:..\..\..\liblc3\src/spec.c **** LC3_HOT static int estimate_gain(
  83:..\..\..\liblc3\src/spec.c ****     enum lc3_dt dt, enum lc3_srate sr, const float *x,
  84:..\..\..\liblc3\src/spec.c ****     int nbytes, int nbits_budget, float nbits_off, int g_off,
  85:..\..\..\liblc3\src/spec.c ****     bool *reset_off, int *g_min)
  86:..\..\..\liblc3\src/spec.c **** {
  87:..\..\..\liblc3\src/spec.c ****     int n4 = lc3_ne(dt, sr) / 4;
  88:..\..\..\liblc3\src/spec.c ****     union { float f; int32_t q16; } e[LC3_MAX_NE / 4];
  89:..\..\..\liblc3\src/spec.c **** 
  90:..\..\..\liblc3\src/spec.c ****     /* --- Signal adaptative noise floor --- */
  91:..\..\..\liblc3\src/spec.c **** 
  92:..\..\..\liblc3\src/spec.c ****     int reg_bits = 0;
  93:..\..\..\liblc3\src/spec.c ****     float low_bits = 0;
  94:..\..\..\liblc3\src/spec.c **** 
ARM GAS  C:\Users\rdn\AppData\Local\Temp\ccYcaPXH.s 			page 5


  95:..\..\..\liblc3\src/spec.c ****     if (lc3_hr(sr)) {
  96:..\..\..\liblc3\src/spec.c ****         int reg_c = (const int [LC3_NUM_DT][LC3_NUM_SRATE - LC3_SRATE_48K_HR]){
  97:..\..\..\liblc3\src/spec.c ****             [LC3_DT_2M5] = { -6, -6 },
  98:..\..\..\liblc3\src/spec.c ****             [LC3_DT_5M ] = {  0,  0 },
  99:..\..\..\liblc3\src/spec.c ****             [LC3_DT_10M] = {  2,  5 }
 100:..\..\..\liblc3\src/spec.c ****         }[dt][sr - LC3_SRATE_48K_HR];
 101:..\..\..\liblc3\src/spec.c **** 
 102:..\..\..\liblc3\src/spec.c ****         reg_bits = (8*nbytes * 4) / (125 * (1 + dt));
 103:..\..\..\liblc3\src/spec.c ****         reg_bits = LC3_CLIP(reg_bits + reg_c, 6, 23);
 104:..\..\..\liblc3\src/spec.c **** 
 105:..\..\..\liblc3\src/spec.c ****         float m0 = 1e-5f, m1 = 1e-5f, k = 0;
 106:..\..\..\liblc3\src/spec.c **** 
 107:..\..\..\liblc3\src/spec.c ****         for (int i = 0; i < n4; i++) {
 108:..\..\..\liblc3\src/spec.c ****             m0 += fabsf(x[4*i + 0]),  m1 += fabsf(x[4*i + 0]) * k++;
 109:..\..\..\liblc3\src/spec.c ****             m0 += fabsf(x[4*i + 1]),  m1 += fabsf(x[4*i + 1]) * k++;
 110:..\..\..\liblc3\src/spec.c ****             m0 += fabsf(x[4*i + 2]),  m1 += fabsf(x[4*i + 2]) * k++;
 111:..\..\..\liblc3\src/spec.c ****             m0 += fabsf(x[4*i + 3]),  m1 += fabsf(x[4*i + 3]) * k++;
 112:..\..\..\liblc3\src/spec.c ****         }
 113:..\..\..\liblc3\src/spec.c **** 
 114:..\..\..\liblc3\src/spec.c ****         int m = roundf((1.6f * m0) / ((1 + dt) * m1));
 115:..\..\..\liblc3\src/spec.c ****         low_bits = 8 - LC3_MIN(m, 8);
 116:..\..\..\liblc3\src/spec.c ****     }
 117:..\..\..\liblc3\src/spec.c **** 
 118:..\..\..\liblc3\src/spec.c ****     /* --- Energy (dB) by 4 MDCT blocks --- */
 119:..\..\..\liblc3\src/spec.c **** 
 120:..\..\..\liblc3\src/spec.c ****     float x2_max = 0;
 121:..\..\..\liblc3\src/spec.c **** 
 122:..\..\..\liblc3\src/spec.c ****     for (int i = 0; i < n4; i++) {
 123:..\..\..\liblc3\src/spec.c ****         float x0 = x[4*i + 0] * x[4*i + 0];
 124:..\..\..\liblc3\src/spec.c ****         float x1 = x[4*i + 1] * x[4*i + 1];
 125:..\..\..\liblc3\src/spec.c ****         float x2 = x[4*i + 2] * x[4*i + 2];
 126:..\..\..\liblc3\src/spec.c ****         float x3 = x[4*i + 3] * x[4*i + 3];
 127:..\..\..\liblc3\src/spec.c **** 
 128:..\..\..\liblc3\src/spec.c ****         x2_max = fmaxf(x2_max, x0);
 129:..\..\..\liblc3\src/spec.c ****         x2_max = fmaxf(x2_max, x1);
 130:..\..\..\liblc3\src/spec.c ****         x2_max = fmaxf(x2_max, x2);
 131:..\..\..\liblc3\src/spec.c ****         x2_max = fmaxf(x2_max, x3);
 132:..\..\..\liblc3\src/spec.c **** 
 133:..\..\..\liblc3\src/spec.c ****         e[i].f = x0 + x1 + x2 + x3;
 134:..\..\..\liblc3\src/spec.c ****     }
 135:..\..\..\liblc3\src/spec.c **** 
 136:..\..\..\liblc3\src/spec.c ****     float x_max = sqrtf(x2_max);
 137:..\..\..\liblc3\src/spec.c ****     float nf = lc3_hr(sr) ?
 138:..\..\..\liblc3\src/spec.c ****         lc3_ldexpf(x_max, -reg_bits) * lc3_exp2f(-low_bits) : 0;
 139:..\..\..\liblc3\src/spec.c **** 
 140:..\..\..\liblc3\src/spec.c ****     for (int i = 0; i < n4; i++)
 141:..\..\..\liblc3\src/spec.c ****         e[i].q16 = lc3_db_q16(fmaxf(e[i].f + nf, 1e-10f));
 142:..\..\..\liblc3\src/spec.c **** 
 143:..\..\..\liblc3\src/spec.c ****     /* --- Determine gain index --- */
 144:..\..\..\liblc3\src/spec.c **** 
 145:..\..\..\liblc3\src/spec.c ****     int nbits = nbits_budget + nbits_off + 0.5f;
 146:..\..\..\liblc3\src/spec.c ****     int g_int = 255 - g_off;
 147:..\..\..\liblc3\src/spec.c **** 
 148:..\..\..\liblc3\src/spec.c ****     const int k_20_28 = 20.f/28 * 0x1p16f + 0.5f;
 149:..\..\..\liblc3\src/spec.c ****     const int k_2u7 = 2.7f * 0x1p16f + 0.5f;
 150:..\..\..\liblc3\src/spec.c ****     const int k_1u4 = 1.4f * 0x1p16f + 0.5f;
 151:..\..\..\liblc3\src/spec.c **** 
ARM GAS  C:\Users\rdn\AppData\Local\Temp\ccYcaPXH.s 			page 6


 152:..\..\..\liblc3\src/spec.c ****     for (int i = 128, j, j0 = n4-1, j1 ; i > 0; i >>= 1) {
 153:..\..\..\liblc3\src/spec.c ****         int gn = (g_int - i) * k_20_28;
 154:..\..\..\liblc3\src/spec.c ****         int v = 0;
 155:..\..\..\liblc3\src/spec.c **** 
 156:..\..\..\liblc3\src/spec.c ****         for (j = j0; j >= 0 && e[j].q16 < gn; j--);
 157:..\..\..\liblc3\src/spec.c **** 
 158:..\..\..\liblc3\src/spec.c ****         for (j1 = j; j >= 0; j--) {
 159:..\..\..\liblc3\src/spec.c ****             int e_diff = e[j].q16 - gn;
 160:..\..\..\liblc3\src/spec.c **** 
 161:..\..\..\liblc3\src/spec.c ****             v += e_diff < 0 ? k_2u7 :
 162:..\..\..\liblc3\src/spec.c ****                  e_diff < 43 << 16 ?   e_diff + ( 7 << 16)
 163:..\..\..\liblc3\src/spec.c ****                                    : 2*e_diff - (36 << 16);
 164:..\..\..\liblc3\src/spec.c ****         }
 165:..\..\..\liblc3\src/spec.c **** 
 166:..\..\..\liblc3\src/spec.c ****         if (v > nbits * k_1u4)
 167:..\..\..\liblc3\src/spec.c ****             j0 = j1;
 168:..\..\..\liblc3\src/spec.c ****         else
 169:..\..\..\liblc3\src/spec.c ****             g_int = g_int - i;
 170:..\..\..\liblc3\src/spec.c ****     }
 171:..\..\..\liblc3\src/spec.c **** 
 172:..\..\..\liblc3\src/spec.c ****     /* --- Limit gain index --- */
 173:..\..\..\liblc3\src/spec.c **** 
 174:..\..\..\liblc3\src/spec.c ****     float x_lim = lc3_hr(sr) ? 0x7fffp8f : 0x7fffp0f;
 175:..\..\..\liblc3\src/spec.c **** 
 176:..\..\..\liblc3\src/spec.c ****     *g_min = 255 - g_off;
 177:..\..\..\liblc3\src/spec.c ****     for (int i = 128 ; i > 0; i >>= 1)
 178:..\..\..\liblc3\src/spec.c ****         if (x_lim * unquantize_gain(*g_min - i) > x_max)
 179:..\..\..\liblc3\src/spec.c ****             *g_min -= i;
 180:..\..\..\liblc3\src/spec.c **** 
 181:..\..\..\liblc3\src/spec.c ****     *reset_off = g_int < *g_min || x_max == 0;
 182:..\..\..\liblc3\src/spec.c ****     if (*reset_off)
 183:..\..\..\liblc3\src/spec.c ****         g_int = *g_min;
 184:..\..\..\liblc3\src/spec.c **** 
 185:..\..\..\liblc3\src/spec.c ****     return g_int;
 186:..\..\..\liblc3\src/spec.c **** }
 187:..\..\..\liblc3\src/spec.c **** 
 188:..\..\..\liblc3\src/spec.c **** /**
 189:..\..\..\liblc3\src/spec.c ****  * Global Gain Adjustment
 190:..\..\..\liblc3\src/spec.c ****  * dt, sr          Duration and samplerate of the frame
 191:..\..\..\liblc3\src/spec.c ****  * g_idx           The estimated quantized gain index
 192:..\..\..\liblc3\src/spec.c ****  * nbits           Computed number of bits coding the spectrum
 193:..\..\..\liblc3\src/spec.c ****  * nbits_budget    Number of bits available for coding the spectrum
 194:..\..\..\liblc3\src/spec.c ****  * g_idx_min       Minimum gain index value
 195:..\..\..\liblc3\src/spec.c ****  * return          Gain adjust value (-1 to 2)
 196:..\..\..\liblc3\src/spec.c ****  */
 197:..\..\..\liblc3\src/spec.c **** LC3_HOT static int adjust_gain(
 198:..\..\..\liblc3\src/spec.c ****     enum lc3_dt dt, enum lc3_srate sr,
 199:..\..\..\liblc3\src/spec.c ****     int g_idx, int nbits, int nbits_budget, int g_idx_min)
 200:..\..\..\liblc3\src/spec.c **** {
 201:..\..\..\liblc3\src/spec.c ****     /* --- Compute delta threshold --- */
 202:..\..\..\liblc3\src/spec.c **** 
 203:..\..\..\liblc3\src/spec.c ****     const int *t = (const int [LC3_NUM_SRATE][3]){
 204:..\..\..\liblc3\src/spec.c ****         {  80,  500,  850 }, { 230, 1025, 1700 }, { 380, 1550, 2550 },
 205:..\..\..\liblc3\src/spec.c ****         { 530, 2075, 3400 }, { 680, 2600, 4250 },
 206:..\..\..\liblc3\src/spec.c ****         { 680, 2600, 4250 }, { 830, 3125, 5100 }
 207:..\..\..\liblc3\src/spec.c ****     }[sr];
 208:..\..\..\liblc3\src/spec.c **** 
ARM GAS  C:\Users\rdn\AppData\Local\Temp\ccYcaPXH.s 			page 7


 209:..\..\..\liblc3\src/spec.c ****     int delta, den = 48;
 210:..\..\..\liblc3\src/spec.c **** 
 211:..\..\..\liblc3\src/spec.c ****     if (nbits < t[0]) {
 212:..\..\..\liblc3\src/spec.c ****         delta = 3*(nbits + 48);
 213:..\..\..\liblc3\src/spec.c **** 
 214:..\..\..\liblc3\src/spec.c ****     } else if (nbits < t[1]) {
 215:..\..\..\liblc3\src/spec.c ****         int n0 = 3*(t[0] + 48), range = t[1] - t[0];
 216:..\..\..\liblc3\src/spec.c ****         delta = n0 * range + (nbits - t[0]) * (t[1] - n0);
 217:..\..\..\liblc3\src/spec.c ****         den *= range;
 218:..\..\..\liblc3\src/spec.c **** 
 219:..\..\..\liblc3\src/spec.c ****     } else {
 220:..\..\..\liblc3\src/spec.c ****         delta = LC3_MIN(nbits, t[2]);
 221:..\..\..\liblc3\src/spec.c ****     }
 222:..\..\..\liblc3\src/spec.c **** 
 223:..\..\..\liblc3\src/spec.c ****     delta = (delta + den/2) / den;
 224:..\..\..\liblc3\src/spec.c **** 
 225:..\..\..\liblc3\src/spec.c ****     /* --- Adjust gain --- */
 226:..\..\..\liblc3\src/spec.c **** 
 227:..\..\..\liblc3\src/spec.c ****     if (lc3_hr(sr) && nbits > nbits_budget) {
 228:..\..\..\liblc3\src/spec.c ****         int factor = 1 + (dt <= LC3_DT_5M) +
 229:..\..\..\liblc3\src/spec.c ****             (dt <= LC3_DT_2M5) * (1 + (nbits >= 520));
 230:..\..\..\liblc3\src/spec.c **** 
 231:..\..\..\liblc3\src/spec.c ****         int g_incr = factor + (factor * (nbits - nbits_budget)) / delta;
 232:..\..\..\liblc3\src/spec.c ****         return LC3_MIN(g_idx + g_incr, 255) - g_idx;
 233:..\..\..\liblc3\src/spec.c ****     }
 234:..\..\..\liblc3\src/spec.c **** 
 235:..\..\..\liblc3\src/spec.c ****     if (!lc3_hr(sr) && nbits < nbits_budget - (delta + 2))
 236:..\..\..\liblc3\src/spec.c ****         return -(g_idx > g_idx_min);
 237:..\..\..\liblc3\src/spec.c **** 
 238:..\..\..\liblc3\src/spec.c ****     if (!lc3_hr(sr) && nbits > nbits_budget)
 239:..\..\..\liblc3\src/spec.c ****         return (g_idx < 255) + (g_idx < 254 && nbits >= nbits_budget + delta);
 240:..\..\..\liblc3\src/spec.c **** 
 241:..\..\..\liblc3\src/spec.c ****     return 0;
 242:..\..\..\liblc3\src/spec.c **** }
 243:..\..\..\liblc3\src/spec.c **** 
 244:..\..\..\liblc3\src/spec.c **** /**
 245:..\..\..\liblc3\src/spec.c ****  * Spectrum quantization
 246:..\..\..\liblc3\src/spec.c ****  * dt, sr          Duration and samplerate of the frame
 247:..\..\..\liblc3\src/spec.c ****  * g_int           Quantization gain value
 248:..\..\..\liblc3\src/spec.c ****  * x               Spectral coefficients, scaled as output
 249:..\..\..\liblc3\src/spec.c ****  * n               Return count of significants
 250:..\..\..\liblc3\src/spec.c ****  */
 251:..\..\..\liblc3\src/spec.c **** LC3_HOT static void quantize(
 252:..\..\..\liblc3\src/spec.c ****     enum lc3_dt dt, enum lc3_srate sr, int g_int, float *x, int *n)
 253:..\..\..\liblc3\src/spec.c **** {
 134              		.loc 1 253 0
 135              		.cfi_startproc
 136              		@ args = 4, pretend = 0, frame = 0
 137              		@ frame_needed = 0, uses_anonymous_args = 0
 138              	.LVL14:
 139 0000 70B5     		push	{r4, r5, r6, lr}
 140              		.cfi_def_cfa_offset 16
 141              		.cfi_offset 4, -16
 142              		.cfi_offset 5, -12
 143              		.cfi_offset 6, -8
 144              		.cfi_offset 14, -4
 145              		.loc 1 253 0
ARM GAS  C:\Users\rdn\AppData\Local\Temp\ccYcaPXH.s 			page 8


 146 0002 0646     		mov	r6, r0
 254:..\..\..\liblc3\src/spec.c ****     float g_inv = unquantize_gain(-g_int);
 147              		.loc 1 254 0
 148 0004 5042     		negs	r0, r2
 149              	.LVL15:
 253:..\..\..\liblc3\src/spec.c ****     float g_inv = unquantize_gain(-g_int);
 150              		.loc 1 253 0
 151 0006 1C46     		mov	r4, r3
 152              		.loc 1 254 0
 153 0008 FFF7FEFF 		bl	unquantize_gain
 154              	.LVL16:
 155              	.LBB78:
 156              	.LBB79:
 157              		.file 2 "..\\..\\..\\liblc3\\src\\tables.h"
   1:..\..\..\liblc3\src/tables.h **** /******************************************************************************
   2:..\..\..\liblc3\src/tables.h ****  *
   3:..\..\..\liblc3\src/tables.h ****  *  Copyright 2022 Google LLC
   4:..\..\..\liblc3\src/tables.h ****  *
   5:..\..\..\liblc3\src/tables.h ****  *  Licensed under the Apache License, Version 2.0 (the "License");
   6:..\..\..\liblc3\src/tables.h ****  *  you may not use this file except in compliance with the License.
   7:..\..\..\liblc3\src/tables.h ****  *  You may obtain a copy of the License at:
   8:..\..\..\liblc3\src/tables.h ****  *
   9:..\..\..\liblc3\src/tables.h ****  *  http://www.apache.org/licenses/LICENSE-2.0
  10:..\..\..\liblc3\src/tables.h ****  *
  11:..\..\..\liblc3\src/tables.h ****  *  Unless required by applicable law or agreed to in writing, software
  12:..\..\..\liblc3\src/tables.h ****  *  distributed under the License is distributed on an "AS IS" BASIS,
  13:..\..\..\liblc3\src/tables.h ****  *  WITHOUT WARRANTIES OR CONDITIONS OF ANY KIND, either express or implied.
  14:..\..\..\liblc3\src/tables.h ****  *  See the License for the specific language governing permissions and
  15:..\..\..\liblc3\src/tables.h ****  *  limitations under the License.
  16:..\..\..\liblc3\src/tables.h ****  *
  17:..\..\..\liblc3\src/tables.h ****  ******************************************************************************/
  18:..\..\..\liblc3\src/tables.h **** 
  19:..\..\..\liblc3\src/tables.h **** #ifndef __LC3_TABLES_H
  20:..\..\..\liblc3\src/tables.h **** #define __LC3_TABLES_H
  21:..\..\..\liblc3\src/tables.h **** 
  22:..\..\..\liblc3\src/tables.h **** #include "common.h"
  23:..\..\..\liblc3\src/tables.h **** #include "bits.h"
  24:..\..\..\liblc3\src/tables.h **** 
  25:..\..\..\liblc3\src/tables.h **** 
  26:..\..\..\liblc3\src/tables.h **** /**
  27:..\..\..\liblc3\src/tables.h ****  * Characteristics
  28:..\..\..\liblc3\src/tables.h ****  *
  29:..\..\..\liblc3\src/tables.h ****  *   ns   Number of temporal samples / frequency coefficients within a frame
  30:..\..\..\liblc3\src/tables.h ****  *
  31:..\..\..\liblc3\src/tables.h ****  *   ne   Number of encoded frequency coefficients
  32:..\..\..\liblc3\src/tables.h ****  *
  33:..\..\..\liblc3\src/tables.h ****  *   nd   Number of MDCT delayed samples, sum of half a frame and an ovelap
  34:..\..\..\liblc3\src/tables.h ****  *        of future by 1.25 ms (2.5ms, 5ms and 10ms frame durations),
  35:..\..\..\liblc3\src/tables.h ****  *        or 2 ms (7.5ms frame duration).
  36:..\..\..\liblc3\src/tables.h ****  *
  37:..\..\..\liblc3\src/tables.h ****  *   nh   Number of 18 ms samples of the history buffer, aligned on a frame
  38:..\..\..\liblc3\src/tables.h ****  *
  39:..\..\..\liblc3\src/tables.h ****  *   nt   Number of 1.25 ms previous samples
  40:..\..\..\liblc3\src/tables.h ****  */
  41:..\..\..\liblc3\src/tables.h **** 
  42:..\..\..\liblc3\src/tables.h **** extern const int lc3_ns_2m5[LC3_NUM_SRATE];
  43:..\..\..\liblc3\src/tables.h **** extern const int lc3_ne_2m5[LC3_NUM_SRATE];
ARM GAS  C:\Users\rdn\AppData\Local\Temp\ccYcaPXH.s 			page 9


  44:..\..\..\liblc3\src/tables.h **** extern const int lc3_ns_4m [LC3_NUM_SRATE];
  45:..\..\..\liblc3\src/tables.h **** 
  46:..\..\..\liblc3\src/tables.h **** static inline int lc3_ns(enum lc3_dt dt, enum lc3_srate sr) {
  47:..\..\..\liblc3\src/tables.h ****     return lc3_ns_2m5[sr] * (1 + dt);
  48:..\..\..\liblc3\src/tables.h **** }
  49:..\..\..\liblc3\src/tables.h **** 
  50:..\..\..\liblc3\src/tables.h **** static inline int lc3_ne(enum lc3_dt dt, enum lc3_srate sr) {
  51:..\..\..\liblc3\src/tables.h ****     return lc3_ne_2m5[sr] * (1 + dt);
 158              		.loc 2 51 0
 159 000c 1A4B     		ldr	r3, .L23
 160              	.LBE79:
 161              	.LBE78:
 253:..\..\..\liblc3\src/spec.c ****     float g_inv = unquantize_gain(-g_int);
 162              		.loc 1 253 0
 163 000e 049D     		ldr	r5, [sp, #16]
 164              	.LBB81:
 165              	.LBB80:
 166              		.loc 2 51 0
 167 0010 53F82100 		ldr	r0, [r3, r1, lsl #2]
 168 0014 0429     		cmp	r1, #4
 169 0016 06FB0000 		mla	r0, r6, r0, r0
 170              	.LVL17:
 171 001a F6EE046A 		vmov.f32	s13, #6.25e-1
 172 001e F6EE007A 		vmov.f32	s15, #5.0e-1
 173              	.LBE80:
 174              	.LBE81:
 255:..\..\..\liblc3\src/spec.c ****     int ne = lc3_ne(dt, sr);
 256:..\..\..\liblc3\src/spec.c **** 
 257:..\..\..\liblc3\src/spec.c ****     *n = ne;
 175              		.loc 1 257 0
 176 0022 2860     		str	r0, [r5]
 177              	.LVL18:
 178 0024 88BF     		it	hi
 179 0026 F0EE676A 		vmovhi.f32	s13, s15
 180 002a 231D     		adds	r3, r4, #4
 181              	.LBB82:
 258:..\..\..\liblc3\src/spec.c **** 
 259:..\..\..\liblc3\src/spec.c ****     for (int i = 0; i < ne; i += 2) {
 182              		.loc 1 259 0
 183 002c 0021     		movs	r1, #0
 184              	.LVL19:
 185              	.L17:
 186              		.loc 1 259 0 is_stmt 0 discriminator 1
 187 002e 8142     		cmp	r1, r0
 188 0030 21DA     		bge	.L22
 189              	.LVL20:
 190              	.LBB83:
 260:..\..\..\liblc3\src/spec.c ****         float xq_min = lc3_hr(sr) ? 0.5f : 10.f/16;
 261:..\..\..\liblc3\src/spec.c **** 
 262:..\..\..\liblc3\src/spec.c ****         x[i+0] *= g_inv;
 191              		.loc 1 262 0 is_stmt 1 discriminator 4
 192 0032 13ED017A 		vldr.32	s14, [r3, #-4]
 263:..\..\..\liblc3\src/spec.c ****         x[i+1] *= g_inv;
 193              		.loc 1 263 0 discriminator 4
 194 0036 D3ED007A 		vldr.32	s15, [r3]
 262:..\..\..\liblc3\src/spec.c ****         x[i+1] *= g_inv;
 195              		.loc 1 262 0 discriminator 4
ARM GAS  C:\Users\rdn\AppData\Local\Temp\ccYcaPXH.s 			page 10


 196 003a 20EE077A 		vmul.f32	s14, s0, s14
 197              		.loc 1 263 0 discriminator 4
 198 003e 60EE277A 		vmul.f32	s15, s0, s15
 262:..\..\..\liblc3\src/spec.c ****         x[i+1] *= g_inv;
 199              		.loc 1 262 0 discriminator 4
 200 0042 03ED017A 		vstr.32	s14, [r3, #-4]
 264:..\..\..\liblc3\src/spec.c **** 
 265:..\..\..\liblc3\src/spec.c ****         *n = fabsf(x[i+0]) >= xq_min ||
 266:..\..\..\liblc3\src/spec.c ****              fabsf(x[i+1]) >= xq_min   ? ne : *n - 2;
 201              		.loc 1 266 0 discriminator 4
 202 0046 B0EEC77A 		vabs.f32	s14, s14
 203 004a F4EEC76A 		vcmpe.f32	s13, s14
 204 004e F1EE10FA 		vmrs	APSR_nzcv, FPSCR
 263:..\..\..\liblc3\src/spec.c **** 
 205              		.loc 1 263 0 discriminator 4
 206 0052 C3ED007A 		vstr.32	s15, [r3]
 207              		.loc 1 266 0 discriminator 4
 208 0056 09D9     		bls	.L21
 265:..\..\..\liblc3\src/spec.c ****              fabsf(x[i+1]) >= xq_min   ? ne : *n - 2;
 209              		.loc 1 265 0 discriminator 1
 210 0058 F0EEE77A 		vabs.f32	s15, s15
 211 005c F4EEE76A 		vcmpe.f32	s13, s15
 212 0060 F1EE10FA 		vmrs	APSR_nzcv, FPSCR
 213 0064 02D9     		bls	.L21
 214              		.loc 1 266 0
 215 0066 2A68     		ldr	r2, [r5]
 216 0068 023A     		subs	r2, r2, #2
 217 006a 00E0     		b	.L18
 218              	.L21:
 219 006c 0246     		mov	r2, r0
 220              	.L18:
 265:..\..\..\liblc3\src/spec.c ****              fabsf(x[i+1]) >= xq_min   ? ne : *n - 2;
 221              		.loc 1 265 0 discriminator 2
 222 006e 2A60     		str	r2, [r5]
 223              	.LBE83:
 259:..\..\..\liblc3\src/spec.c ****         float xq_min = lc3_hr(sr) ? 0.5f : 10.f/16;
 224              		.loc 1 259 0 discriminator 2
 225 0070 0231     		adds	r1, r1, #2
 226              	.LVL21:
 227 0072 0833     		adds	r3, r3, #8
 228 0074 DBE7     		b	.L17
 229              	.LVL22:
 230              	.L22:
 231              	.LBE82:
 267:..\..\..\liblc3\src/spec.c ****     }
 268:..\..\..\liblc3\src/spec.c **** }
 232              		.loc 1 268 0
 233 0076 70BD     		pop	{r4, r5, r6, pc}
 234              	.LVL23:
 235              	.L24:
 236              		.align	2
 237              	.L23:
 238 0078 00000000 		.word	lc3_ne_2m5
 239              		.cfi_endproc
 240              	.LFE24:
 241              		.size	quantize, .-quantize
 242              		.section	.text.compute_nbits,"ax",%progbits
ARM GAS  C:\Users\rdn\AppData\Local\Temp\ccYcaPXH.s 			page 11


 243              		.align	1
 244              		.thumb
 245              		.thumb_func
 246              		.type	compute_nbits, %function
 247              	compute_nbits:
 248              	.LFB27:
 269:..\..\..\liblc3\src/spec.c **** 
 270:..\..\..\liblc3\src/spec.c **** /**
 271:..\..\..\liblc3\src/spec.c ****  * Spectrum quantization inverse
 272:..\..\..\liblc3\src/spec.c ****  * dt, sr          Duration and samplerate of the frame
 273:..\..\..\liblc3\src/spec.c ****  * g_int           Quantization gain value
 274:..\..\..\liblc3\src/spec.c ****  * x, nq           Spectral quantized, and count of significants
 275:..\..\..\liblc3\src/spec.c ****  * return          Unquantized gain value
 276:..\..\..\liblc3\src/spec.c ****  */
 277:..\..\..\liblc3\src/spec.c **** LC3_HOT static float unquantize(
 278:..\..\..\liblc3\src/spec.c ****     enum lc3_dt dt, enum lc3_srate sr,
 279:..\..\..\liblc3\src/spec.c ****     int g_int, float *x, int nq)
 280:..\..\..\liblc3\src/spec.c **** {
 281:..\..\..\liblc3\src/spec.c ****     float g = unquantize_gain(g_int);
 282:..\..\..\liblc3\src/spec.c ****     int i, ne = lc3_ne(dt, sr);
 283:..\..\..\liblc3\src/spec.c **** 
 284:..\..\..\liblc3\src/spec.c ****     for (i = 0; i < nq; i++)
 285:..\..\..\liblc3\src/spec.c ****         x[i] = x[i] * g;
 286:..\..\..\liblc3\src/spec.c **** 
 287:..\..\..\liblc3\src/spec.c ****     for ( ; i < ne; i++)
 288:..\..\..\liblc3\src/spec.c ****         x[i] = 0;
 289:..\..\..\liblc3\src/spec.c **** 
 290:..\..\..\liblc3\src/spec.c ****     return g;
 291:..\..\..\liblc3\src/spec.c **** }
 292:..\..\..\liblc3\src/spec.c **** 
 293:..\..\..\liblc3\src/spec.c **** 
 294:..\..\..\liblc3\src/spec.c **** /* ----------------------------------------------------------------------------
 295:..\..\..\liblc3\src/spec.c ****  *  Spectrum coding
 296:..\..\..\liblc3\src/spec.c ****  * -------------------------------------------------------------------------- */
 297:..\..\..\liblc3\src/spec.c **** 
 298:..\..\..\liblc3\src/spec.c **** /**
 299:..\..\..\liblc3\src/spec.c ****  * Resolve High-bitrate and LSB modes according size of the frame
 300:..\..\..\liblc3\src/spec.c ****  * sr, nbytes      Samplerate and size of the frame
 301:..\..\..\liblc3\src/spec.c ****  * p_lsb_mode      True when LSB mode allowed, when not NULL
 302:..\..\..\liblc3\src/spec.c ****  * return          True when High-Rate mode enabled
 303:..\..\..\liblc3\src/spec.c ****  */
 304:..\..\..\liblc3\src/spec.c **** static bool resolve_modes(enum lc3_srate sr, int nbytes, bool *p_lsb_mode)
 305:..\..\..\liblc3\src/spec.c **** {
 306:..\..\..\liblc3\src/spec.c ****     int sr_ind = lc3_hr(sr) ? 4 + (sr - LC3_SRATE_48K_HR) : sr;
 307:..\..\..\liblc3\src/spec.c **** 
 308:..\..\..\liblc3\src/spec.c ****     if (p_lsb_mode)
 309:..\..\..\liblc3\src/spec.c ****       *p_lsb_mode = (nbytes >= 20 * (3 + sr_ind)) && (sr < LC3_SRATE_96K_HR);
 310:..\..\..\liblc3\src/spec.c **** 
 311:..\..\..\liblc3\src/spec.c ****     return (nbytes > 20 * (1 + sr_ind)) && (sr < LC3_SRATE_96K_HR);
 312:..\..\..\liblc3\src/spec.c **** }
 313:..\..\..\liblc3\src/spec.c **** 
 314:..\..\..\liblc3\src/spec.c **** /**
 315:..\..\..\liblc3\src/spec.c ****  * Bit consumption
 316:..\..\..\liblc3\src/spec.c ****  * dt, sr, nbytes  Duration, samplerate and size of the frame
 317:..\..\..\liblc3\src/spec.c ****  * x               Spectral quantized coefficients
 318:..\..\..\liblc3\src/spec.c ****  * n               Count of significant coefficients, updated on truncation
 319:..\..\..\liblc3\src/spec.c ****  * nbits_budget    Truncate to stay in budget, when not zero
ARM GAS  C:\Users\rdn\AppData\Local\Temp\ccYcaPXH.s 			page 12


 320:..\..\..\liblc3\src/spec.c ****  * p_lsb_mode      Return True when LSB's are not AC coded, or NULL
 321:..\..\..\liblc3\src/spec.c ****  * return          The number of bits coding the spectrum
 322:..\..\..\liblc3\src/spec.c ****  */
 323:..\..\..\liblc3\src/spec.c **** LC3_HOT static int compute_nbits(
 324:..\..\..\liblc3\src/spec.c ****     enum lc3_dt dt, enum lc3_srate sr, int nbytes,
 325:..\..\..\liblc3\src/spec.c ****     const float *x, int *n, int nbits_budget, bool *p_lsb_mode)
 326:..\..\..\liblc3\src/spec.c **** {
 249              		.loc 1 326 0
 250              		.cfi_startproc
 251              		@ args = 12, pretend = 0, frame = 48
 252              		@ frame_needed = 0, uses_anonymous_args = 0
 253              	.LVL24:
 254 0000 2DE9F04F 		push	{r4, r5, r6, r7, r8, r9, r10, fp, lr}
 255              		.cfi_def_cfa_offset 36
 256              		.cfi_offset 4, -36
 257              		.cfi_offset 5, -32
 258              		.cfi_offset 6, -28
 259              		.cfi_offset 7, -24
 260              		.cfi_offset 8, -20
 261              		.cfi_offset 9, -16
 262              		.cfi_offset 10, -12
 263              		.cfi_offset 11, -8
 264              		.cfi_offset 14, -4
 265 0004 8DB0     		sub	sp, sp, #52
 266              		.cfi_def_cfa_offset 88
 267              	.LBB91:
 268              	.LBB92:
 306:..\..\..\liblc3\src/spec.c **** 
 269              		.loc 1 306 0
 270 0006 0429     		cmp	r1, #4
 271              	.LBE92:
 272              	.LBE91:
 273              		.loc 1 326 0
 274 0008 0B93     		str	r3, [sp, #44]
 275              	.LBB95:
 276              	.LBB93:
 306:..\..\..\liblc3\src/spec.c **** 
 277              		.loc 1 306 0
 278 000a 8CBF     		ite	hi
 279 000c 01F1FF33 		addhi	r3, r1, #-1
 280              	.LVL25:
 281 0010 0B46     		movls	r3, r1
 282              	.LVL26:
 309:..\..\..\liblc3\src/spec.c **** 
 283              		.loc 1 309 0
 284 0012 DC1C     		adds	r4, r3, #3
 285 0014 1423     		movs	r3, #20
 286              	.LVL27:
 287 0016 6343     		muls	r3, r4, r3
 288 0018 9A42     		cmp	r2, r3
 289              	.LBE93:
 290              	.LBE95:
 291              		.loc 1 326 0
 292 001a 179E     		ldr	r6, [sp, #92]
 293              	.LBB96:
 294              	.LBB94:
 309:..\..\..\liblc3\src/spec.c **** 
ARM GAS  C:\Users\rdn\AppData\Local\Temp\ccYcaPXH.s 			page 13


 295              		.loc 1 309 0
 296 001c 04DB     		blt	.L48
 297 001e 0529     		cmp	r1, #5
 298 0020 8CBF     		ite	hi
 299 0022 0025     		movhi	r5, #0
 300 0024 0125     		movls	r5, #1
 301 0026 00E0     		b	.L28
 302              	.L48:
 303 0028 0025     		movs	r5, #0
 304              	.L28:
 305              	.LVL28:
 311:..\..\..\liblc3\src/spec.c **** }
 306              		.loc 1 311 0
 307 002a 283B     		subs	r3, r3, #40
 308 002c 9A42     		cmp	r2, r3
 309 002e 04DD     		ble	.L49
 310 0030 0529     		cmp	r1, #5
 311 0032 8CBF     		ite	hi
 312 0034 0023     		movhi	r3, #0
 313 0036 0123     		movls	r3, #1
 314 0038 00E0     		b	.L29
 315              	.L49:
 316 003a 0023     		movs	r3, #0
 317              	.L29:
 318              	.LVL29:
 319              	.LBE94:
 320              	.LBE96:
 321              	.LBB97:
 322              	.LBB98:
 323              		.loc 2 51 0
 324 003c 784A     		ldr	r2, .L67
 325              	.LVL30:
 326 003e 52F82120 		ldr	r2, [r2, r1, lsl #2]
 327 0042 00FB0222 		mla	r2, r0, r2, r2
 328 0046 0992     		str	r2, [sp, #36]
 329              	.LVL31:
 330              	.LBE98:
 331              	.LBE97:
 327:..\..\..\liblc3\src/spec.c ****     bool lsb_mode, high_rate = resolve_modes(sr, nbytes, &lsb_mode);
 328:..\..\..\liblc3\src/spec.c ****     int ne = lc3_ne(dt, sr);
 329:..\..\..\liblc3\src/spec.c **** 
 330:..\..\..\liblc3\src/spec.c ****     /* --- Loop on quantized coefficients --- */
 331:..\..\..\liblc3\src/spec.c **** 
 332:..\..\..\liblc3\src/spec.c ****     int nbits = 0, nbits_lsb = 0;
 333:..\..\..\liblc3\src/spec.c ****     uint8_t state = 0;
 334:..\..\..\liblc3\src/spec.c **** 
 335:..\..\..\liblc3\src/spec.c ****     int nbits_end = 0;
 336:..\..\..\liblc3\src/spec.c ****     int n_end = 0;
 337:..\..\..\liblc3\src/spec.c **** 
 338:..\..\..\liblc3\src/spec.c ****     nbits_budget = nbits_budget ? nbits_budget * 2048 : INT_MAX;
 332              		.loc 1 338 0
 333 0048 0EB1     		cbz	r6, .L50
 334              		.loc 1 338 0 is_stmt 0 discriminator 1
 335 004a F602     		lsls	r6, r6, #11
 336 004c 01E0     		b	.L30
 337              	.L50:
 338              		.loc 1 338 0
ARM GAS  C:\Users\rdn\AppData\Local\Temp\ccYcaPXH.s 			page 14


 339 004e 6FF00046 		mvn	r6, #-2147483648
 340              	.L30:
 341              	.LVL32:
 342              	.LBB99:
 343              	.LBB100:
 339:..\..\..\liblc3\src/spec.c **** 
 340:..\..\..\liblc3\src/spec.c ****     for (int i = 0, h = 0; h < 2; h++) {
 341:..\..\..\liblc3\src/spec.c ****         const uint8_t (*lut_coeff)[4] = lc3_spectrum_lookup[high_rate][h];
 342:..\..\..\liblc3\src/spec.c **** 
 343:..\..\..\liblc3\src/spec.c ****         for ( ; i < LC3_MIN(*n, (ne + 2) >> (1 - h))
 344              		.loc 1 343 0 is_stmt 1 discriminator 4
 345 0052 169A     		ldr	r2, [sp, #88]
 346              	.LBE100:
 340:..\..\..\liblc3\src/spec.c ****         const uint8_t (*lut_coeff)[4] = lc3_spectrum_lookup[high_rate][h];
 347              		.loc 1 340 0 discriminator 4
 348 0054 0024     		movs	r4, #0
 349              	.LBB102:
 350              		.loc 1 343 0 discriminator 4
 351 0056 1268     		ldr	r2, [r2]
 352 0058 0692     		str	r2, [sp, #24]
 353 005a 0429     		cmp	r1, #4
 354 005c B5EE087A 		vmov.f32	s14, #3.75e-1
 355 0060 F6EE007A 		vmov.f32	s15, #5.0e-1
 356 0064 4FEA4303 		lsl	r3, r3, #1
 357 0068 88BF     		it	hi
 358 006a B0EE677A 		vmovhi.f32	s14, s15
 359 006e 0893     		str	r3, [sp, #32]
 360              	.LBE102:
 340:..\..\..\liblc3\src/spec.c ****         const uint8_t (*lut_coeff)[4] = lc3_spectrum_lookup[high_rate][h];
 361              		.loc 1 340 0 discriminator 4
 362 0070 A446     		mov	ip, r4
 363              	.LBE99:
 336:..\..\..\liblc3\src/spec.c **** 
 364              		.loc 1 336 0 discriminator 4
 365 0072 0494     		str	r4, [sp, #16]
 335:..\..\..\liblc3\src/spec.c ****     int n_end = 0;
 366              		.loc 1 335 0 discriminator 4
 367 0074 0194     		str	r4, [sp, #4]
 333:..\..\..\liblc3\src/spec.c **** 
 368              		.loc 1 333 0 discriminator 4
 369 0076 0294     		str	r4, [sp, #8]
 332:..\..\..\liblc3\src/spec.c ****     uint8_t state = 0;
 370              		.loc 1 332 0 discriminator 4
 371 0078 A346     		mov	fp, r4
 372 007a A646     		mov	lr, r4
 373              	.LVL33:
 374              	.L41:
 375 007c 089B     		ldr	r3, [sp, #32]
 376 007e E318     		adds	r3, r4, r3
 377 0080 9B02     		lsls	r3, r3, #10
 378 0082 0A93     		str	r3, [sp, #40]
 379              	.LVL34:
 380              	.LBB105:
 381              	.LBB103:
 382              		.loc 1 343 0
 383 0084 099B     		ldr	r3, [sp, #36]
 384              	.LVL35:
ARM GAS  C:\Users\rdn\AppData\Local\Temp\ccYcaPXH.s 			page 15


 385 0086 C4F10102 		rsb	r2, r4, #1
 386 008a 0233     		adds	r3, r3, #2
 387 008c 1341     		asrs	r3, r3, r2
 388 008e 069A     		ldr	r2, [sp, #24]
 389 0090 9342     		cmp	r3, r2
 390 0092 A8BF     		it	ge
 391 0094 1346     		movge	r3, r2
 392 0096 0793     		str	r3, [sp, #28]
 393 0098 0B9B     		ldr	r3, [sp, #44]
 394 009a 03EB8C08 		add	r8, r3, ip, lsl #2
 395              	.L31:
 396 009e 079B     		ldr	r3, [sp, #28]
 397 00a0 9C45     		cmp	ip, r3
 398 00a2 04DB     		blt	.L40
 399              	.L44:
 400              	.LBE103:
 340:..\..\..\liblc3\src/spec.c ****         const uint8_t (*lut_coeff)[4] = lc3_spectrum_lookup[high_rate][h];
 401              		.loc 1 340 0
 402 00a4 0134     		adds	r4, r4, #1
 403              	.LVL36:
 404 00a6 022C     		cmp	r4, #2
 405 00a8 00F09780 		beq	.L64
 406 00ac E6E7     		b	.L41
 407              	.L40:
 408              	.LBB104:
 344:..\..\..\liblc3\src/spec.c ****                 && nbits <= nbits_budget; i += 2) {
 409              		.loc 1 344 0
 410 00ae B645     		cmp	lr, r6
 411 00b0 F8DC     		bgt	.L44
 412              	.LVL37:
 413              	.LBB101:
 345:..\..\..\liblc3\src/spec.c **** 
 346:..\..\..\liblc3\src/spec.c ****             float xq_off = lc3_hr(sr) ? 0.5f : 6.f/16;
 347:..\..\..\liblc3\src/spec.c ****             uint32_t a = fabsf(x[i+0]) + xq_off;
 414              		.loc 1 347 0 discriminator 4
 415 00b2 D8ED007A 		vldr.32	s15, [r8]
 348:..\..\..\liblc3\src/spec.c ****             uint32_t b = fabsf(x[i+1]) + xq_off;
 349:..\..\..\liblc3\src/spec.c **** 
 350:..\..\..\liblc3\src/spec.c ****             const uint8_t *lut = lut_coeff[state];
 416              		.loc 1 350 0 discriminator 4
 417 00b6 BDF80870 		ldrh	r7, [sp, #8]
 347:..\..\..\liblc3\src/spec.c ****             uint32_t b = fabsf(x[i+1]) + xq_off;
 418              		.loc 1 347 0 discriminator 4
 419 00ba F0EEE77A 		vabs.f32	s15, s15
 420 00be 77EE877A 		vadd.f32	s15, s15, s14
 421              		.loc 1 350 0 discriminator 4
 422 00c2 0423     		movs	r3, #4
 347:..\..\..\liblc3\src/spec.c ****             uint32_t b = fabsf(x[i+1]) + xq_off;
 423              		.loc 1 347 0 discriminator 4
 424 00c4 FCEEE77A 		vcvt.u32.f32	s15, s15
 425              		.loc 1 350 0 discriminator 4
 426 00c8 1846     		mov	r0, r3	@ movhi
 347:..\..\..\liblc3\src/spec.c ****             uint32_t b = fabsf(x[i+1]) + xq_off;
 427              		.loc 1 347 0 discriminator 4
 428 00ca 17EE901A 		vmov	r1, s15	@ int
 429              	.LVL38:
 348:..\..\..\liblc3\src/spec.c ****             uint32_t b = fabsf(x[i+1]) + xq_off;
ARM GAS  C:\Users\rdn\AppData\Local\Temp\ccYcaPXH.s 			page 16


 430              		.loc 1 348 0 discriminator 4
 431 00ce D8ED017A 		vldr.32	s15, [r8, #4]
 432              		.loc 1 350 0 discriminator 4
 433 00d2 0A9B     		ldr	r3, [sp, #40]
 348:..\..\..\liblc3\src/spec.c ****             uint32_t b = fabsf(x[i+1]) + xq_off;
 434              		.loc 1 348 0 discriminator 4
 435 00d4 F0EEE77A 		vabs.f32	s15, s15
 436 00d8 77EE877A 		vadd.f32	s15, s15, s14
 437              		.loc 1 350 0 discriminator 4
 438 00dc 10FB073A 		smlabb	r10, r0, r7, r3
 348:..\..\..\liblc3\src/spec.c ****             uint32_t b = fabsf(x[i+1]) + xq_off;
 439              		.loc 1 348 0 discriminator 4
 440 00e0 FCEEE77A 		vcvt.u32.f32	s15, s15
 441              		.loc 1 350 0 discriminator 4
 442 00e4 4F4B     		ldr	r3, .L67+4
 348:..\..\..\liblc3\src/spec.c ****             uint32_t b = fabsf(x[i+1]) + xq_off;
 443              		.loc 1 348 0 discriminator 4
 444 00e6 17EE902A 		vmov	r2, s15	@ int
 445              	.LVL39:
 446              		.loc 1 350 0 discriminator 4
 447 00ea 5344     		add	r3, r10, r3
 351:..\..\..\liblc3\src/spec.c **** 
 352:..\..\..\liblc3\src/spec.c ****             /* --- Sign values --- */
 353:..\..\..\liblc3\src/spec.c **** 
 354:..\..\..\liblc3\src/spec.c ****             int s = (a != 0) + (b != 0);
 448              		.loc 1 354 0 discriminator 4
 449 00ec 12F10009 		adds	r9, r2, #0
 450 00f0 18BF     		it	ne
 451 00f2 4FF00109 		movne	r9, #1
 350:..\..\..\liblc3\src/spec.c **** 
 452              		.loc 1 350 0 discriminator 4
 453 00f6 0593     		str	r3, [sp, #20]
 454              	.LVL40:
 355:..\..\..\liblc3\src/spec.c ****             nbits += s * 2048;
 356:..\..\..\liblc3\src/spec.c **** 
 357:..\..\..\liblc3\src/spec.c ****             /* --- LSB values Reduce to 2*2 bits MSB values ---
 358:..\..\..\liblc3\src/spec.c ****              * Reduce to 2x2 bits MSB values. The LSB's pair are arithmetic
 359:..\..\..\liblc3\src/spec.c ****              * coded with an escape code followed by 1 bit for each values.
 360:..\..\..\liblc3\src/spec.c ****              * The LSB mode does not arthmetic code the first LSB,
 361:..\..\..\liblc3\src/spec.c ****              * add the sign of the LSB when one of pair was at value 1 */
 362:..\..\..\liblc3\src/spec.c **** 
 363:..\..\..\liblc3\src/spec.c ****             uint32_t m = (a | b) >> 2;
 455              		.loc 1 363 0 discriminator 4
 456 00f8 41EA0203 		orr	r3, r1, r2
 457              	.LVL41:
 354:..\..\..\liblc3\src/spec.c ****             nbits += s * 2048;
 458              		.loc 1 354 0 discriminator 4
 459 00fc 0029     		cmp	r1, #0
 460 00fe 18BF     		it	ne
 461 0100 09F10109 		addne	r9, r9, #1
 462              	.LVL42:
 364:..\..\..\liblc3\src/spec.c ****             unsigned k = 0;
 365:..\..\..\liblc3\src/spec.c **** 
 366:..\..\..\liblc3\src/spec.c ****             if (m) {
 463              		.loc 1 366 0 discriminator 4
 464 0104 9B08     		lsrs	r3, r3, #2
 355:..\..\..\liblc3\src/spec.c **** 
ARM GAS  C:\Users\rdn\AppData\Local\Temp\ccYcaPXH.s 			page 17


 465              		.loc 1 355 0 discriminator 4
 466 0106 0EEBC92E 		add	lr, lr, r9, lsl #11
 467              	.LVL43:
 468              		.loc 1 366 0 discriminator 4
 469 010a 39D0     		beq	.L51
 367:..\..\..\liblc3\src/spec.c **** 
 368:..\..\..\liblc3\src/spec.c ****                 if (lsb_mode) {
 470              		.loc 1 368 0
 471 010c ADB1     		cbz	r5, .L52
 472              	.LVL44:
 369:..\..\..\liblc3\src/spec.c ****                     nbits += lc3_spectrum_bits[lut[k++]][16] - 2*2048;
 473              		.loc 1 369 0
 474 010e 454F     		ldr	r7, .L67+4
 475 0110 4548     		ldr	r0, .L67+8
 476 0112 1AF80770 		ldrb	r7, [r10, r7]	@ zero_extendqisi2
 477 0116 4FF0220A 		mov	r10, #34
 478 011a 0AFB0707 		mla	r7, r10, r7, r0
 370:..\..\..\liblc3\src/spec.c ****                     nbits_lsb += 2 + (a == 1) + (b == 1);
 479              		.loc 1 370 0
 480 011e 0129     		cmp	r1, #1
 369:..\..\..\liblc3\src/spec.c ****                     nbits += lc3_spectrum_bits[lut[k++]][16] - 2*2048;
 481              		.loc 1 369 0
 482 0120 3F8C     		ldrh	r7, [r7, #32]
 483 0122 A7F58057 		sub	r7, r7, #4096
 484 0126 BE44     		add	lr, lr, r7
 485              	.LVL45:
 486              		.loc 1 370 0
 487 0128 0CBF     		ite	eq
 488 012a 0327     		moveq	r7, #3
 489 012c 0227     		movne	r7, #2
 490 012e 012A     		cmp	r2, #1
 491 0130 08BF     		it	eq
 492 0132 0137     		addeq	r7, r7, #1
 493 0134 BB44     		add	fp, fp, r7
 494              	.LVL46:
 369:..\..\..\liblc3\src/spec.c ****                     nbits += lc3_spectrum_bits[lut[k++]][16] - 2*2048;
 495              		.loc 1 369 0
 496 0136 0127     		movs	r7, #1
 497 0138 00E0     		b	.L33
 498              	.LVL47:
 499              	.L52:
 364:..\..\..\liblc3\src/spec.c **** 
 500              		.loc 1 364 0
 501 013a 2F46     		mov	r7, r5
 502              	.LVL48:
 503              	.L33:
 371:..\..\..\liblc3\src/spec.c ****                 }
 372:..\..\..\liblc3\src/spec.c **** 
 373:..\..\..\liblc3\src/spec.c ****                 for (m >>= lsb_mode; m; m >>= 1, k++)
 504              		.loc 1 373 0
 505 013c EB40     		lsrs	r3, r3, r5
 506 013e 0393     		str	r3, [sp, #12]
 507              	.LVL49:
 508              	.L35:
 509              		.loc 1 373 0 is_stmt 0 discriminator 1
 510 0140 039B     		ldr	r3, [sp, #12]
 511 0142 9BB1     		cbz	r3, .L66
ARM GAS  C:\Users\rdn\AppData\Local\Temp\ccYcaPXH.s 			page 18


 374:..\..\..\liblc3\src/spec.c ****                     nbits += lc3_spectrum_bits[lut[LC3_MIN(k, 3)]][16];
 512              		.loc 1 374 0 is_stmt 1 discriminator 3
 513 0144 032F     		cmp	r7, #3
 514 0146 BA46     		mov	r10, r7
 515 0148 0598     		ldr	r0, [sp, #20]
 516 014a 28BF     		it	cs
 517 014c 4FF0030A 		movcs	r10, #3
 518 0150 2223     		movs	r3, #34
 519 0152 10F80AA0 		ldrb	r10, [r0, r10]	@ zero_extendqisi2
 520 0156 3448     		ldr	r0, .L67+8
 521 0158 03FB0A0A 		mla	r10, r3, r10, r0
 373:..\..\..\liblc3\src/spec.c ****                     nbits += lc3_spectrum_bits[lut[LC3_MIN(k, 3)]][16];
 522              		.loc 1 373 0 discriminator 3
 523 015c 039B     		ldr	r3, [sp, #12]
 524              		.loc 1 374 0 discriminator 3
 525 015e BAF820A0 		ldrh	r10, [r10, #32]
 373:..\..\..\liblc3\src/spec.c ****                     nbits += lc3_spectrum_bits[lut[LC3_MIN(k, 3)]][16];
 526              		.loc 1 373 0 discriminator 3
 527 0162 5B08     		lsrs	r3, r3, #1
 528              		.loc 1 374 0 discriminator 3
 529 0164 D644     		add	lr, lr, r10
 530              	.LVL50:
 373:..\..\..\liblc3\src/spec.c ****                     nbits += lc3_spectrum_bits[lut[LC3_MIN(k, 3)]][16];
 531              		.loc 1 373 0 discriminator 3
 532 0166 0393     		str	r3, [sp, #12]
 533              	.LVL51:
 534 0168 0137     		adds	r7, r7, #1
 535              	.LVL52:
 536 016a E9E7     		b	.L35
 537              	.L66:
 375:..\..\..\liblc3\src/spec.c **** 
 376:..\..\..\liblc3\src/spec.c ****                 nbits += k * 2*2048;
 377:..\..\..\liblc3\src/spec.c ****                 a >>= k;
 378:..\..\..\liblc3\src/spec.c ****                 b >>= k;
 379:..\..\..\liblc3\src/spec.c **** 
 380:..\..\..\liblc3\src/spec.c ****                 k = LC3_MIN(k, 3);
 538              		.loc 1 380 0
 539 016c 032F     		cmp	r7, #3
 376:..\..\..\liblc3\src/spec.c ****                 a >>= k;
 540              		.loc 1 376 0
 541 016e 0EEB073E 		add	lr, lr, r7, lsl #12
 542              	.LVL53:
 377:..\..\..\liblc3\src/spec.c ****                 b >>= k;
 543              		.loc 1 377 0
 544 0172 21FA07F1 		lsr	r1, r1, r7
 545              	.LVL54:
 378:..\..\..\liblc3\src/spec.c **** 
 546              		.loc 1 378 0
 547 0176 22FA07F2 		lsr	r2, r2, r7
 548              	.LVL55:
 549              		.loc 1 380 0
 550 017a 28BF     		it	cs
 551 017c 0327     		movcs	r7, #3
 552              	.LVL56:
 553 017e 00E0     		b	.L32
 554              	.LVL57:
 555              	.L51:
ARM GAS  C:\Users\rdn\AppData\Local\Temp\ccYcaPXH.s 			page 19


 364:..\..\..\liblc3\src/spec.c **** 
 556              		.loc 1 364 0
 557 0180 1F46     		mov	r7, r3
 558              	.LVL58:
 559              	.L32:
 381:..\..\..\liblc3\src/spec.c ****             }
 382:..\..\..\liblc3\src/spec.c **** 
 383:..\..\..\liblc3\src/spec.c ****             /* --- MSB values --- */
 384:..\..\..\liblc3\src/spec.c **** 
 385:..\..\..\liblc3\src/spec.c ****             nbits += lc3_spectrum_bits[lut[k]][a + 4*b];
 560              		.loc 1 385 0
 561 0182 059B     		ldr	r3, [sp, #20]
 562 0184 2848     		ldr	r0, .L67+8
 563 0186 DB5D     		ldrb	r3, [r3, r7]	@ zero_extendqisi2
 564 0188 01EB820A 		add	r10, r1, r2, lsl #2
 565 018c 03EB0313 		add	r3, r3, r3, lsl #4
 566 0190 5344     		add	r3, r3, r10
 567 0192 30F81330 		ldrh	r3, [r0, r3, lsl #1]
 568 0196 9E44     		add	lr, lr, r3
 569              	.LVL59:
 386:..\..\..\liblc3\src/spec.c **** 
 387:..\..\..\liblc3\src/spec.c ****             /* --- Update state --- */
 388:..\..\..\liblc3\src/spec.c **** 
 389:..\..\..\liblc3\src/spec.c ****             if (s && nbits <= nbits_budget) {
 570              		.loc 1 389 0
 571 0198 B9F1000F 		cmp	r9, #0
 572 019c 06D0     		beq	.L37
 573              		.loc 1 389 0 is_stmt 0 discriminator 1
 574 019e 7645     		cmp	r6, lr
 575 01a0 A2BF     		ittt	ge
 576 01a2 0CF10203 		addge	r3, ip, #2
 577 01a6 0493     		strge	r3, [sp, #16]
 578              	.LVL60:
 579 01a8 CDF804E0 		strge	lr, [sp, #4]
 580              	.LVL61:
 581              	.L37:
 390:..\..\..\liblc3\src/spec.c ****                 n_end = i + 2;
 391:..\..\..\liblc3\src/spec.c ****                 nbits_end = nbits;
 392:..\..\..\liblc3\src/spec.c ****             }
 393:..\..\..\liblc3\src/spec.c **** 
 394:..\..\..\liblc3\src/spec.c ****             state = (state << 4) + (k > 1 ? 12 + k : 1 + (a + b) * (k + 1));
 582              		.loc 1 394 0 is_stmt 1
 583 01ac 012F     		cmp	r7, #1
 584 01ae 029B     		ldr	r3, [sp, #8]
 585 01b0 9EBF     		ittt	ls
 586 01b2 0137     		addls	r7, r7, #1
 587              	.LVL62:
 588 01b4 5218     		addls	r2, r2, r1
 589              	.LVL63:
 590 01b6 12FB07F7 		smulbbls	r7, r2, r7
 591 01ba 4FEA0319 		lsl	r9, r3, #4
 592              	.LVL64:
 593 01be 8CBF     		ite	hi
 594 01c0 0C37     		addhi	r7, r7, #12
 595 01c2 0137     		addls	r7, r7, #1
 596 01c4 5FFA89F9 		uxtb	r9, r9
 597 01c8 FFB2     		uxtb	r7, r7
ARM GAS  C:\Users\rdn\AppData\Local\Temp\ccYcaPXH.s 			page 20


 598 01ca 4F44     		add	r7, r7, r9
 599 01cc FBB2     		uxtb	r3, r7
 600 01ce 0293     		str	r3, [sp, #8]
 601              	.LVL65:
 602              	.LBE101:
 344:..\..\..\liblc3\src/spec.c **** 
 603              		.loc 1 344 0
 604 01d0 0CF1020C 		add	ip, ip, #2
 605              	.LVL66:
 606 01d4 08F10808 		add	r8, r8, #8
 607              	.LVL67:
 608 01d8 61E7     		b	.L31
 609              	.LVL68:
 610              	.L64:
 611              	.LBE104:
 612              	.LBE105:
 395:..\..\..\liblc3\src/spec.c ****         }
 396:..\..\..\liblc3\src/spec.c ****     }
 397:..\..\..\liblc3\src/spec.c **** 
 398:..\..\..\liblc3\src/spec.c ****     /* --- Return --- */
 399:..\..\..\liblc3\src/spec.c **** 
 400:..\..\..\liblc3\src/spec.c ****     *n = n_end;
 613              		.loc 1 400 0
 614 01da 169B     		ldr	r3, [sp, #88]
 615 01dc 1A46     		mov	r2, r3
 616 01de 049B     		ldr	r3, [sp, #16]
 617 01e0 1360     		str	r3, [r2]
 401:..\..\..\liblc3\src/spec.c **** 
 402:..\..\..\liblc3\src/spec.c ****     if (p_lsb_mode)
 618              		.loc 1 402 0
 619 01e2 189B     		ldr	r3, [sp, #96]
 620 01e4 4BB1     		cbz	r3, .L45
 403:..\..\..\liblc3\src/spec.c ****         *p_lsb_mode = lsb_mode &&
 621              		.loc 1 403 0
 622 01e6 35B1     		cbz	r5, .L46
 623              		.loc 1 403 0 is_stmt 0 discriminator 1
 624 01e8 019B     		ldr	r3, [sp, #4]
 625 01ea 03EBCB25 		add	r5, r3, fp, lsl #11
 626              	.LVL69:
 627 01ee AE42     		cmp	r6, r5
 628 01f0 ACBF     		ite	ge
 629 01f2 0025     		movge	r5, #0
 630 01f4 0125     		movlt	r5, #1
 631              	.L46:
 632              		.loc 1 403 0 discriminator 6
 633 01f6 189B     		ldr	r3, [sp, #96]
 634 01f8 1D70     		strb	r5, [r3]
 635              	.L45:
 404:..\..\..\liblc3\src/spec.c ****             nbits_end + nbits_lsb * 2048 > nbits_budget;
 405:..\..\..\liblc3\src/spec.c **** 
 406:..\..\..\liblc3\src/spec.c ****     if (nbits_budget >= INT_MAX)
 636              		.loc 1 406 0 is_stmt 1
 637 01fa 6FF00043 		mvn	r3, #-2147483648
 638 01fe 9E42     		cmp	r6, r3
 407:..\..\..\liblc3\src/spec.c ****         nbits_end += nbits_lsb * 2048;
 639              		.loc 1 407 0
 640 0200 02BF     		ittt	eq
ARM GAS  C:\Users\rdn\AppData\Local\Temp\ccYcaPXH.s 			page 21


 641 0202 019B     		ldreq	r3, [sp, #4]
 642 0204 03EBCB23 		addeq	r3, r3, fp, lsl #11
 643 0208 0193     		streq	r3, [sp, #4]
 644              	.LVL70:
 408:..\..\..\liblc3\src/spec.c **** 
 409:..\..\..\liblc3\src/spec.c ****     return (nbits_end + 2047) / 2048;
 645              		.loc 1 409 0
 646 020a 019B     		ldr	r3, [sp, #4]
 647 020c 03F2FF70 		addw	r0, r3, #2047
 410:..\..\..\liblc3\src/spec.c **** }
 648              		.loc 1 410 0
 649 0210 4FF40063 		mov	r3, #2048
 650 0214 90FBF3F0 		sdiv	r0, r0, r3
 651 0218 0DB0     		add	sp, sp, #52
 652              		.cfi_def_cfa_offset 36
 653              		@ sp needed
 654 021a BDE8F08F 		pop	{r4, r5, r6, r7, r8, r9, r10, fp, pc}
 655              	.LVL71:
 656              	.L68:
 657 021e 00BF     		.align	2
 658              	.L67:
 659 0220 00000000 		.word	lc3_ne_2m5
 660 0224 00000000 		.word	lc3_spectrum_lookup
 661 0228 00000000 		.word	lc3_spectrum_bits
 662              		.cfi_endproc
 663              	.LFE27:
 664              		.size	compute_nbits, .-compute_nbits
 665              		.section	.text.get_nbits_nq,"ax",%progbits
 666              		.align	1
 667              		.thumb
 668              		.thumb_func
 669              		.type	get_nbits_nq, %function
 670              	get_nbits_nq:
 671              	.LFB38:
 411:..\..\..\liblc3\src/spec.c **** 
 412:..\..\..\liblc3\src/spec.c **** /**
 413:..\..\..\liblc3\src/spec.c ****  * Put quantized spectrum
 414:..\..\..\liblc3\src/spec.c ****  * bits            Bitstream context
 415:..\..\..\liblc3\src/spec.c ****  * dt, sr, nbytes  Duration, samplerate and size of the frame
 416:..\..\..\liblc3\src/spec.c ****  * x               Spectral quantized coefficients
 417:..\..\..\liblc3\src/spec.c ****  * nq, lsb_mode    Count of significants, and LSB discard indication
 418:..\..\..\liblc3\src/spec.c ****  */
 419:..\..\..\liblc3\src/spec.c **** LC3_HOT static void put_quantized(lc3_bits_t *bits,
 420:..\..\..\liblc3\src/spec.c ****     enum lc3_dt dt, enum lc3_srate sr, int nbytes,
 421:..\..\..\liblc3\src/spec.c ****     const float *x, int nq, bool lsb_mode)
 422:..\..\..\liblc3\src/spec.c **** {
 423:..\..\..\liblc3\src/spec.c ****     bool high_rate = resolve_modes(sr, nbytes, NULL);
 424:..\..\..\liblc3\src/spec.c ****     int ne = lc3_ne(dt, sr);
 425:..\..\..\liblc3\src/spec.c **** 
 426:..\..\..\liblc3\src/spec.c ****     /* --- Loop on quantized coefficients --- */
 427:..\..\..\liblc3\src/spec.c **** 
 428:..\..\..\liblc3\src/spec.c ****     uint8_t state = 0;
 429:..\..\..\liblc3\src/spec.c **** 
 430:..\..\..\liblc3\src/spec.c ****     for (int i = 0, h = 0; h < 2; h++) {
 431:..\..\..\liblc3\src/spec.c ****         const uint8_t (*lut_coeff)[4] = lc3_spectrum_lookup[high_rate][h];
 432:..\..\..\liblc3\src/spec.c **** 
 433:..\..\..\liblc3\src/spec.c ****         for ( ; i < LC3_MIN(nq, (ne + 2) >> (1 - h)); i += 2) {
ARM GAS  C:\Users\rdn\AppData\Local\Temp\ccYcaPXH.s 			page 22


 434:..\..\..\liblc3\src/spec.c **** 
 435:..\..\..\liblc3\src/spec.c ****             float xq_off = lc3_hr(sr) ? 0.5f : 6.f/16;
 436:..\..\..\liblc3\src/spec.c ****             uint32_t a = fabsf(x[i+0]) + xq_off;
 437:..\..\..\liblc3\src/spec.c ****             uint32_t b = fabsf(x[i+1]) + xq_off;
 438:..\..\..\liblc3\src/spec.c **** 
 439:..\..\..\liblc3\src/spec.c ****             const uint8_t *lut = lut_coeff[state];
 440:..\..\..\liblc3\src/spec.c **** 
 441:..\..\..\liblc3\src/spec.c ****             /* --- LSB values Reduce to 2*2 bits MSB values ---
 442:..\..\..\liblc3\src/spec.c ****              * Reduce to 2x2 bits MSB values. The LSB's pair are arithmetic
 443:..\..\..\liblc3\src/spec.c ****              * coded with an escape code and 1 bits for each values.
 444:..\..\..\liblc3\src/spec.c ****              * The LSB mode discard the first LSB (at this step) */
 445:..\..\..\liblc3\src/spec.c **** 
 446:..\..\..\liblc3\src/spec.c ****             uint32_t m = (a | b) >> 2;
 447:..\..\..\liblc3\src/spec.c ****             unsigned k = 0, shr = 0;
 448:..\..\..\liblc3\src/spec.c **** 
 449:..\..\..\liblc3\src/spec.c ****             if (m) {
 450:..\..\..\liblc3\src/spec.c **** 
 451:..\..\..\liblc3\src/spec.c ****                 if (lsb_mode)
 452:..\..\..\liblc3\src/spec.c ****                     lc3_put_symbol(bits,
 453:..\..\..\liblc3\src/spec.c ****                         lc3_spectrum_models + lut[k++], 16);
 454:..\..\..\liblc3\src/spec.c **** 
 455:..\..\..\liblc3\src/spec.c ****                 for (m >>= lsb_mode; m; m >>= 1, k++) {
 456:..\..\..\liblc3\src/spec.c ****                     lc3_put_bit(bits, (a >> k) & 1);
 457:..\..\..\liblc3\src/spec.c ****                     lc3_put_bit(bits, (b >> k) & 1);
 458:..\..\..\liblc3\src/spec.c ****                     lc3_put_symbol(bits,
 459:..\..\..\liblc3\src/spec.c ****                         lc3_spectrum_models + lut[LC3_MIN(k, 3)], 16);
 460:..\..\..\liblc3\src/spec.c ****                 }
 461:..\..\..\liblc3\src/spec.c **** 
 462:..\..\..\liblc3\src/spec.c ****                 a >>= lsb_mode;
 463:..\..\..\liblc3\src/spec.c ****                 b >>= lsb_mode;
 464:..\..\..\liblc3\src/spec.c **** 
 465:..\..\..\liblc3\src/spec.c ****                 shr = k - lsb_mode;
 466:..\..\..\liblc3\src/spec.c ****                 k = LC3_MIN(k, 3);
 467:..\..\..\liblc3\src/spec.c ****             }
 468:..\..\..\liblc3\src/spec.c **** 
 469:..\..\..\liblc3\src/spec.c ****             /* --- Sign values --- */
 470:..\..\..\liblc3\src/spec.c **** 
 471:..\..\..\liblc3\src/spec.c ****             if (a) lc3_put_bit(bits, x[i+0] < 0);
 472:..\..\..\liblc3\src/spec.c ****             if (b) lc3_put_bit(bits, x[i+1] < 0);
 473:..\..\..\liblc3\src/spec.c **** 
 474:..\..\..\liblc3\src/spec.c ****             /* --- MSB values --- */
 475:..\..\..\liblc3\src/spec.c **** 
 476:..\..\..\liblc3\src/spec.c ****             a >>= shr;
 477:..\..\..\liblc3\src/spec.c ****             b >>= shr;
 478:..\..\..\liblc3\src/spec.c **** 
 479:..\..\..\liblc3\src/spec.c ****             lc3_put_symbol(bits, lc3_spectrum_models + lut[k], a + 4*b);
 480:..\..\..\liblc3\src/spec.c **** 
 481:..\..\..\liblc3\src/spec.c ****             /* --- Update state --- */
 482:..\..\..\liblc3\src/spec.c **** 
 483:..\..\..\liblc3\src/spec.c ****             state = (state << 4) + (k > 1 ? 12 + k : 1 + (a + b) * (k + 1));
 484:..\..\..\liblc3\src/spec.c ****         }
 485:..\..\..\liblc3\src/spec.c ****     }
 486:..\..\..\liblc3\src/spec.c **** }
 487:..\..\..\liblc3\src/spec.c **** 
 488:..\..\..\liblc3\src/spec.c **** /**
 489:..\..\..\liblc3\src/spec.c ****  * Get quantized spectrum
 490:..\..\..\liblc3\src/spec.c ****  * bits            Bitstream context
ARM GAS  C:\Users\rdn\AppData\Local\Temp\ccYcaPXH.s 			page 23


 491:..\..\..\liblc3\src/spec.c ****  * dt, sr, nbytes  Duration, samplerate and size of the frame
 492:..\..\..\liblc3\src/spec.c ****  * nq, lsb_mode    Count of significants, and LSB discard indication
 493:..\..\..\liblc3\src/spec.c ****  * x               Return `nq` spectral quantized coefficients
 494:..\..\..\liblc3\src/spec.c ****  * nf_seed         Return the noise factor seed associated
 495:..\..\..\liblc3\src/spec.c ****  * return          0: Ok  -1: Invalid bitstream data
 496:..\..\..\liblc3\src/spec.c ****  */
 497:..\..\..\liblc3\src/spec.c **** LC3_HOT static int get_quantized(lc3_bits_t *bits,
 498:..\..\..\liblc3\src/spec.c ****     enum lc3_dt dt, enum lc3_srate sr, int nbytes,
 499:..\..\..\liblc3\src/spec.c ****     int nq, bool lsb_mode, float *x, uint16_t *nf_seed)
 500:..\..\..\liblc3\src/spec.c **** {
 501:..\..\..\liblc3\src/spec.c ****     bool high_rate = resolve_modes(sr, nbytes, NULL);
 502:..\..\..\liblc3\src/spec.c ****     int ne = lc3_ne(dt, sr);
 503:..\..\..\liblc3\src/spec.c **** 
 504:..\..\..\liblc3\src/spec.c ****     *nf_seed = 0;
 505:..\..\..\liblc3\src/spec.c **** 
 506:..\..\..\liblc3\src/spec.c ****     /* --- Loop on quantized coefficients --- */
 507:..\..\..\liblc3\src/spec.c **** 
 508:..\..\..\liblc3\src/spec.c ****     uint8_t state = 0;
 509:..\..\..\liblc3\src/spec.c **** 
 510:..\..\..\liblc3\src/spec.c ****     for (int i = 0, h = 0; h < 2; h++) {
 511:..\..\..\liblc3\src/spec.c ****         const uint8_t (*lut_coeff)[4] = lc3_spectrum_lookup[high_rate][h];
 512:..\..\..\liblc3\src/spec.c **** 
 513:..\..\..\liblc3\src/spec.c ****         for ( ; i < LC3_MIN(nq, (ne + 2) >> (1 - h)); i += 2) {
 514:..\..\..\liblc3\src/spec.c **** 
 515:..\..\..\liblc3\src/spec.c ****             const uint8_t *lut = lut_coeff[state];
 516:..\..\..\liblc3\src/spec.c ****             int max_shl = lc3_hr(sr) ? 22 : 14;
 517:..\..\..\liblc3\src/spec.c **** 
 518:..\..\..\liblc3\src/spec.c ****             /* --- LSB values ---
 519:..\..\..\liblc3\src/spec.c ****              * Until the symbol read indicates the escape value 16,
 520:..\..\..\liblc3\src/spec.c ****              * read an LSB bit for each values.
 521:..\..\..\liblc3\src/spec.c ****              * The LSB mode discard the first LSB (at this step) */
 522:..\..\..\liblc3\src/spec.c **** 
 523:..\..\..\liblc3\src/spec.c ****             int u = 0, v = 0;
 524:..\..\..\liblc3\src/spec.c ****             int k = 0, shl = 0;
 525:..\..\..\liblc3\src/spec.c **** 
 526:..\..\..\liblc3\src/spec.c ****             unsigned s = lc3_get_symbol(bits, lc3_spectrum_models + lut[k]);
 527:..\..\..\liblc3\src/spec.c **** 
 528:..\..\..\liblc3\src/spec.c ****             if (lsb_mode && s >= 16) {
 529:..\..\..\liblc3\src/spec.c ****                 s = lc3_get_symbol(bits, lc3_spectrum_models + lut[++k]);
 530:..\..\..\liblc3\src/spec.c ****                 shl++;
 531:..\..\..\liblc3\src/spec.c ****             }
 532:..\..\..\liblc3\src/spec.c **** 
 533:..\..\..\liblc3\src/spec.c ****             for ( ; s >= 16 && shl < max_shl; shl++) {
 534:..\..\..\liblc3\src/spec.c ****                 u |= lc3_get_bit(bits) << shl;
 535:..\..\..\liblc3\src/spec.c ****                 v |= lc3_get_bit(bits) << shl;
 536:..\..\..\liblc3\src/spec.c **** 
 537:..\..\..\liblc3\src/spec.c ****                 k += (k < 3);
 538:..\..\..\liblc3\src/spec.c ****                 s  = lc3_get_symbol(bits, lc3_spectrum_models + lut[k]);
 539:..\..\..\liblc3\src/spec.c ****             }
 540:..\..\..\liblc3\src/spec.c **** 
 541:..\..\..\liblc3\src/spec.c ****             if (s >= 16)
 542:..\..\..\liblc3\src/spec.c ****                 return -1;
 543:..\..\..\liblc3\src/spec.c **** 
 544:..\..\..\liblc3\src/spec.c ****             /* --- MSB & sign values --- */
 545:..\..\..\liblc3\src/spec.c **** 
 546:..\..\..\liblc3\src/spec.c ****             int a = s % 4;
 547:..\..\..\liblc3\src/spec.c ****             int b = s / 4;
ARM GAS  C:\Users\rdn\AppData\Local\Temp\ccYcaPXH.s 			page 24


 548:..\..\..\liblc3\src/spec.c **** 
 549:..\..\..\liblc3\src/spec.c ****             u |= a << shl;
 550:..\..\..\liblc3\src/spec.c ****             v |= b << shl;
 551:..\..\..\liblc3\src/spec.c **** 
 552:..\..\..\liblc3\src/spec.c ****             x[i+0] = u && lc3_get_bit(bits) ? -u : u;
 553:..\..\..\liblc3\src/spec.c ****             x[i+1] = v && lc3_get_bit(bits) ? -v : v;
 554:..\..\..\liblc3\src/spec.c **** 
 555:..\..\..\liblc3\src/spec.c ****             *nf_seed = (*nf_seed + (u & 0x7fff) * (i  )
 556:..\..\..\liblc3\src/spec.c ****                                  + (v & 0x7fff) * (i+1)) & 0xffff;
 557:..\..\..\liblc3\src/spec.c **** 
 558:..\..\..\liblc3\src/spec.c ****             /* --- Update state --- */
 559:..\..\..\liblc3\src/spec.c **** 
 560:..\..\..\liblc3\src/spec.c ****             state = (state << 4) + (k > 1 ? 12 + k : 1 + (a + b) * (k + 1));
 561:..\..\..\liblc3\src/spec.c ****         }
 562:..\..\..\liblc3\src/spec.c ****     }
 563:..\..\..\liblc3\src/spec.c **** 
 564:..\..\..\liblc3\src/spec.c ****     return 0;
 565:..\..\..\liblc3\src/spec.c **** }
 566:..\..\..\liblc3\src/spec.c **** 
 567:..\..\..\liblc3\src/spec.c **** /**
 568:..\..\..\liblc3\src/spec.c ****  * Put residual bits of quantization
 569:..\..\..\liblc3\src/spec.c ****  * bits            Bitstream context
 570:..\..\..\liblc3\src/spec.c ****  * nbits           Maximum number of bits to output
 571:..\..\..\liblc3\src/spec.c ****  * hrmode          High-Resolution mode
 572:..\..\..\liblc3\src/spec.c ****  * x, n            Spectral quantized, and count of significants
 573:..\..\..\liblc3\src/spec.c ****  */
 574:..\..\..\liblc3\src/spec.c **** LC3_HOT static void put_residual(lc3_bits_t *bits,
 575:..\..\..\liblc3\src/spec.c ****     int nbits, bool hrmode, float *x, int n)
 576:..\..\..\liblc3\src/spec.c **** {
 577:..\..\..\liblc3\src/spec.c ****     float xq_lim = hrmode ? 0.5f : 10.f/16;
 578:..\..\..\liblc3\src/spec.c ****     float xq_off = xq_lim / 2;
 579:..\..\..\liblc3\src/spec.c **** 
 580:..\..\..\liblc3\src/spec.c ****     for (int iter = 0; iter < (hrmode ? 20 : 1) && nbits > 0; iter++) {
 581:..\..\..\liblc3\src/spec.c ****         for (int i = 0; i < n && nbits > 0; i++) {
 582:..\..\..\liblc3\src/spec.c **** 
 583:..\..\..\liblc3\src/spec.c ****             float xr = fabsf(x[i]);
 584:..\..\..\liblc3\src/spec.c ****             if (xr < xq_lim)
 585:..\..\..\liblc3\src/spec.c ****                 continue;
 586:..\..\..\liblc3\src/spec.c **** 
 587:..\..\..\liblc3\src/spec.c ****             bool b = (xr - truncf(xr) < xq_lim) ^ (x[i] < 0);
 588:..\..\..\liblc3\src/spec.c ****             lc3_put_bit(bits, b);
 589:..\..\..\liblc3\src/spec.c ****             nbits--;
 590:..\..\..\liblc3\src/spec.c **** 
 591:..\..\..\liblc3\src/spec.c ****             x[i] += b ? -xq_off : xq_off;
 592:..\..\..\liblc3\src/spec.c ****         }
 593:..\..\..\liblc3\src/spec.c **** 
 594:..\..\..\liblc3\src/spec.c ****         xq_off *= xq_lim;
 595:..\..\..\liblc3\src/spec.c ****     }
 596:..\..\..\liblc3\src/spec.c **** }
 597:..\..\..\liblc3\src/spec.c **** 
 598:..\..\..\liblc3\src/spec.c **** /**
 599:..\..\..\liblc3\src/spec.c ****  * Get residual bits of quantization
 600:..\..\..\liblc3\src/spec.c ****  * bits            Bitstream context
 601:..\..\..\liblc3\src/spec.c ****  * nbits           Maximum number of bits to output
 602:..\..\..\liblc3\src/spec.c ****  * hrmode          High-Resolution mode
 603:..\..\..\liblc3\src/spec.c ****  * x, nq           Spectral quantized, and count of significants
 604:..\..\..\liblc3\src/spec.c ****  */
ARM GAS  C:\Users\rdn\AppData\Local\Temp\ccYcaPXH.s 			page 25


 605:..\..\..\liblc3\src/spec.c **** LC3_HOT static void get_residual(lc3_bits_t *bits,
 606:..\..\..\liblc3\src/spec.c ****     int nbits, bool hrmode, float *x, int n)
 607:..\..\..\liblc3\src/spec.c **** {
 608:..\..\..\liblc3\src/spec.c ****     float xq_off_1 = hrmode ? 0.25f : 5.f/16;
 609:..\..\..\liblc3\src/spec.c ****     float xq_off_2 = hrmode ? 0.25f : 3.f/16;
 610:..\..\..\liblc3\src/spec.c **** 
 611:..\..\..\liblc3\src/spec.c ****     for (int iter = 0; iter < (hrmode ? 20 : 1) && nbits > 0; iter++) {
 612:..\..\..\liblc3\src/spec.c ****         for (int i = 0; i < n && nbits > 0; i++) {
 613:..\..\..\liblc3\src/spec.c **** 
 614:..\..\..\liblc3\src/spec.c ****             if (x[i] == 0)
 615:..\..\..\liblc3\src/spec.c ****               continue;
 616:..\..\..\liblc3\src/spec.c **** 
 617:..\..\..\liblc3\src/spec.c ****             if (lc3_get_bit(bits) == 0)
 618:..\..\..\liblc3\src/spec.c ****                 x[i] -= x[i] < 0 ? xq_off_1 : xq_off_2;
 619:..\..\..\liblc3\src/spec.c ****             else
 620:..\..\..\liblc3\src/spec.c ****                 x[i] += x[i] > 0 ? xq_off_1 : xq_off_2;
 621:..\..\..\liblc3\src/spec.c **** 
 622:..\..\..\liblc3\src/spec.c ****             nbits--;
 623:..\..\..\liblc3\src/spec.c ****         }
 624:..\..\..\liblc3\src/spec.c **** 
 625:..\..\..\liblc3\src/spec.c ****         xq_off_1 *= 0.5f;
 626:..\..\..\liblc3\src/spec.c ****         xq_off_2 *= 0.5f;
 627:..\..\..\liblc3\src/spec.c ****     }
 628:..\..\..\liblc3\src/spec.c **** }
 629:..\..\..\liblc3\src/spec.c **** 
 630:..\..\..\liblc3\src/spec.c **** /**
 631:..\..\..\liblc3\src/spec.c ****  * Put LSB values of quantized spectrum values
 632:..\..\..\liblc3\src/spec.c ****  * bits            Bitstream context
 633:..\..\..\liblc3\src/spec.c ****  * nbits           Maximum number of bits to output
 634:..\..\..\liblc3\src/spec.c ****  * hrmode          High-Resolution mode
 635:..\..\..\liblc3\src/spec.c ****  * x, n            Spectral quantized, and count of significants
 636:..\..\..\liblc3\src/spec.c ****  */
 637:..\..\..\liblc3\src/spec.c **** LC3_HOT static void put_lsb(lc3_bits_t *bits,
 638:..\..\..\liblc3\src/spec.c ****     int nbits, bool hrmode, const float *x, int n)
 639:..\..\..\liblc3\src/spec.c **** {
 640:..\..\..\liblc3\src/spec.c ****     for (int i = 0; i < n && nbits > 0; i += 2) {
 641:..\..\..\liblc3\src/spec.c **** 
 642:..\..\..\liblc3\src/spec.c ****         float xq_off = hrmode ? 0.5f : 6.f/16;
 643:..\..\..\liblc3\src/spec.c ****         uint32_t a = fabsf(x[i+0]) + xq_off;
 644:..\..\..\liblc3\src/spec.c ****         uint32_t b = fabsf(x[i+1]) + xq_off;
 645:..\..\..\liblc3\src/spec.c **** 
 646:..\..\..\liblc3\src/spec.c ****         if ((a | b) >> 2 == 0)
 647:..\..\..\liblc3\src/spec.c ****             continue;
 648:..\..\..\liblc3\src/spec.c **** 
 649:..\..\..\liblc3\src/spec.c ****         if (nbits-- > 0)
 650:..\..\..\liblc3\src/spec.c ****             lc3_put_bit(bits, a & 1);
 651:..\..\..\liblc3\src/spec.c **** 
 652:..\..\..\liblc3\src/spec.c ****         if (a == 1 && nbits-- > 0)
 653:..\..\..\liblc3\src/spec.c ****             lc3_put_bit(bits, x[i+0] < 0);
 654:..\..\..\liblc3\src/spec.c **** 
 655:..\..\..\liblc3\src/spec.c ****         if (nbits-- > 0)
 656:..\..\..\liblc3\src/spec.c ****             lc3_put_bit(bits, b & 1);
 657:..\..\..\liblc3\src/spec.c **** 
 658:..\..\..\liblc3\src/spec.c ****         if (b == 1 && nbits-- > 0)
 659:..\..\..\liblc3\src/spec.c ****             lc3_put_bit(bits, x[i+1] < 0);
 660:..\..\..\liblc3\src/spec.c ****     }
 661:..\..\..\liblc3\src/spec.c **** }
ARM GAS  C:\Users\rdn\AppData\Local\Temp\ccYcaPXH.s 			page 26


 662:..\..\..\liblc3\src/spec.c **** 
 663:..\..\..\liblc3\src/spec.c **** /**
 664:..\..\..\liblc3\src/spec.c ****  * Get LSB values of quantized spectrum values
 665:..\..\..\liblc3\src/spec.c ****  * bits            Bitstream context
 666:..\..\..\liblc3\src/spec.c ****  * nbits           Maximum number of bits to output
 667:..\..\..\liblc3\src/spec.c ****  * x, nq           Spectral quantized, and count of significants
 668:..\..\..\liblc3\src/spec.c ****  * nf_seed         Update the noise factor seed according
 669:..\..\..\liblc3\src/spec.c ****  */
 670:..\..\..\liblc3\src/spec.c **** LC3_HOT static void get_lsb(lc3_bits_t *bits,
 671:..\..\..\liblc3\src/spec.c ****     int nbits, float *x, int nq, uint16_t *nf_seed)
 672:..\..\..\liblc3\src/spec.c **** {
 673:..\..\..\liblc3\src/spec.c ****     for (int i = 0; i < nq && nbits > 0; i += 2) {
 674:..\..\..\liblc3\src/spec.c **** 
 675:..\..\..\liblc3\src/spec.c ****         float a = fabsf(x[i]), b = fabsf(x[i+1]);
 676:..\..\..\liblc3\src/spec.c **** 
 677:..\..\..\liblc3\src/spec.c ****         if (fmaxf(a, b) < 4)
 678:..\..\..\liblc3\src/spec.c ****             continue;
 679:..\..\..\liblc3\src/spec.c **** 
 680:..\..\..\liblc3\src/spec.c ****         if (nbits-- > 0 && lc3_get_bit(bits)) {
 681:..\..\..\liblc3\src/spec.c ****             if (a) {
 682:..\..\..\liblc3\src/spec.c ****                 x[i] += x[i] < 0 ? -1 : 1;
 683:..\..\..\liblc3\src/spec.c ****                 *nf_seed = (*nf_seed + i) & 0xffff;
 684:..\..\..\liblc3\src/spec.c ****             } else if (nbits-- > 0) {
 685:..\..\..\liblc3\src/spec.c ****                 x[i] = lc3_get_bit(bits) ? -1 : 1;
 686:..\..\..\liblc3\src/spec.c ****                 *nf_seed = (*nf_seed + i) & 0xffff;
 687:..\..\..\liblc3\src/spec.c ****             }
 688:..\..\..\liblc3\src/spec.c ****         }
 689:..\..\..\liblc3\src/spec.c **** 
 690:..\..\..\liblc3\src/spec.c ****         if (nbits-- > 0 && lc3_get_bit(bits)) {
 691:..\..\..\liblc3\src/spec.c ****             if (b) {
 692:..\..\..\liblc3\src/spec.c ****                 x[i+1] += x[i+1] < 0 ? -1 : 1;
 693:..\..\..\liblc3\src/spec.c ****                 *nf_seed = (*nf_seed + i+1) & 0xffff;
 694:..\..\..\liblc3\src/spec.c ****             } else if (nbits-- > 0) {
 695:..\..\..\liblc3\src/spec.c ****                 x[i+1] = lc3_get_bit(bits) ? -1 : 1;
 696:..\..\..\liblc3\src/spec.c ****                 *nf_seed = (*nf_seed + i+1) & 0xffff;
 697:..\..\..\liblc3\src/spec.c ****             }
 698:..\..\..\liblc3\src/spec.c ****         }
 699:..\..\..\liblc3\src/spec.c ****     }
 700:..\..\..\liblc3\src/spec.c **** }
 701:..\..\..\liblc3\src/spec.c **** 
 702:..\..\..\liblc3\src/spec.c **** 
 703:..\..\..\liblc3\src/spec.c **** /* ----------------------------------------------------------------------------
 704:..\..\..\liblc3\src/spec.c ****  *  Noise coding
 705:..\..\..\liblc3\src/spec.c ****  * -------------------------------------------------------------------------- */
 706:..\..\..\liblc3\src/spec.c **** 
 707:..\..\..\liblc3\src/spec.c **** /**
 708:..\..\..\liblc3\src/spec.c ****  * Estimate noise level
 709:..\..\..\liblc3\src/spec.c ****  * dt, bw          Duration and bandwidth of the frame
 710:..\..\..\liblc3\src/spec.c ****  * hrmode          High-Resolution mode
 711:..\..\..\liblc3\src/spec.c ****  * x, n            Spectral quantized, and count of significants
 712:..\..\..\liblc3\src/spec.c ****  * return          Noise factor (0 to 7)
 713:..\..\..\liblc3\src/spec.c ****  */
 714:..\..\..\liblc3\src/spec.c **** LC3_HOT static int estimate_noise(
 715:..\..\..\liblc3\src/spec.c ****     enum lc3_dt dt, enum lc3_bandwidth bw, bool hrmode, const float *x, int n)
 716:..\..\..\liblc3\src/spec.c **** {
 717:..\..\..\liblc3\src/spec.c ****     int bw_stop = lc3_ne(dt, (enum lc3_srate)LC3_MIN(bw, LC3_BANDWIDTH_FB));
 718:..\..\..\liblc3\src/spec.c ****     int w = 1 + (dt >= LC3_DT_7M5) + (dt>= LC3_DT_10M);
ARM GAS  C:\Users\rdn\AppData\Local\Temp\ccYcaPXH.s 			page 27


 719:..\..\..\liblc3\src/spec.c **** 
 720:..\..\..\liblc3\src/spec.c ****     float xq_lim = hrmode ? 0.5f : 10.f/16;
 721:..\..\..\liblc3\src/spec.c ****     float sum = 0;
 722:..\..\..\liblc3\src/spec.c ****     int i, ns = 0, z = 0;
 723:..\..\..\liblc3\src/spec.c **** 
 724:..\..\..\liblc3\src/spec.c ****     for (i = 6 * (1 + dt) - w; i < LC3_MIN(n, bw_stop); i++) {
 725:..\..\..\liblc3\src/spec.c ****         z = fabsf(x[i]) < xq_lim ? z + 1 : 0;
 726:..\..\..\liblc3\src/spec.c ****         if (z > 2*w)
 727:..\..\..\liblc3\src/spec.c ****             sum += fabsf(x[i - w]), ns++;
 728:..\..\..\liblc3\src/spec.c ****     }
 729:..\..\..\liblc3\src/spec.c **** 
 730:..\..\..\liblc3\src/spec.c ****     for ( ; i < bw_stop + w; i++)
 731:..\..\..\liblc3\src/spec.c ****         if (++z > 2*w)
 732:..\..\..\liblc3\src/spec.c ****             sum += fabsf(x[i - w]), ns++;
 733:..\..\..\liblc3\src/spec.c **** 
 734:..\..\..\liblc3\src/spec.c ****     int nf = ns ? 8 - (int)((16 * sum) / ns + 0.5f) : 8;
 735:..\..\..\liblc3\src/spec.c **** 
 736:..\..\..\liblc3\src/spec.c ****     return LC3_CLIP(nf, 0, 7);
 737:..\..\..\liblc3\src/spec.c **** }
 738:..\..\..\liblc3\src/spec.c **** 
 739:..\..\..\liblc3\src/spec.c **** /**
 740:..\..\..\liblc3\src/spec.c ****  * Noise filling
 741:..\..\..\liblc3\src/spec.c ****  * dt, bw          Duration and bandwidth of the frame
 742:..\..\..\liblc3\src/spec.c ****  * nf, nf_seed     The noise factor and pseudo-random seed
 743:..\..\..\liblc3\src/spec.c ****  * g               Quantization gain
 744:..\..\..\liblc3\src/spec.c ****  * x, nq           Spectral quantized, and count of significants
 745:..\..\..\liblc3\src/spec.c ****  */
 746:..\..\..\liblc3\src/spec.c **** LC3_HOT static void fill_noise(enum lc3_dt dt, enum lc3_bandwidth bw,
 747:..\..\..\liblc3\src/spec.c ****     int nf, uint16_t nf_seed, float g, float *x, int nq)
 748:..\..\..\liblc3\src/spec.c **** {
 749:..\..\..\liblc3\src/spec.c ****     int bw_stop = lc3_ne(dt, (enum lc3_srate)LC3_MIN(bw, LC3_BANDWIDTH_FB));
 750:..\..\..\liblc3\src/spec.c ****     int w = 1 + (dt >= LC3_DT_7M5) + (dt>= LC3_DT_10M);
 751:..\..\..\liblc3\src/spec.c **** 
 752:..\..\..\liblc3\src/spec.c ****     float s = g * (float)(8 - nf) / 16;
 753:..\..\..\liblc3\src/spec.c ****     int i, z = 0;
 754:..\..\..\liblc3\src/spec.c **** 
 755:..\..\..\liblc3\src/spec.c ****     for (i = 6 * (1 + dt) - w; i < LC3_MIN(nq, bw_stop); i++) {
 756:..\..\..\liblc3\src/spec.c ****         z = x[i] ? 0 : z + 1;
 757:..\..\..\liblc3\src/spec.c ****         if (z > 2*w) {
 758:..\..\..\liblc3\src/spec.c ****             nf_seed = (13849 + nf_seed*31821) & 0xffff;
 759:..\..\..\liblc3\src/spec.c ****             x[i - w] = nf_seed & 0x8000 ? -s : s;
 760:..\..\..\liblc3\src/spec.c ****         }
 761:..\..\..\liblc3\src/spec.c ****     }
 762:..\..\..\liblc3\src/spec.c **** 
 763:..\..\..\liblc3\src/spec.c ****     for ( ; i < bw_stop + w; i++)
 764:..\..\..\liblc3\src/spec.c ****         if (++z > 2*w) {
 765:..\..\..\liblc3\src/spec.c ****             nf_seed = (13849 + nf_seed*31821) & 0xffff;
 766:..\..\..\liblc3\src/spec.c ****             x[i - w] = nf_seed & 0x8000 ? -s : s;
 767:..\..\..\liblc3\src/spec.c ****         }
 768:..\..\..\liblc3\src/spec.c **** }
 769:..\..\..\liblc3\src/spec.c **** 
 770:..\..\..\liblc3\src/spec.c **** /**
 771:..\..\..\liblc3\src/spec.c ****  * Put noise factor
 772:..\..\..\liblc3\src/spec.c ****  * bits            Bitstream context
 773:..\..\..\liblc3\src/spec.c ****  * nf              Noise factor (0 to 7)
 774:..\..\..\liblc3\src/spec.c ****  */
 775:..\..\..\liblc3\src/spec.c **** static void put_noise_factor(lc3_bits_t *bits, int nf)
ARM GAS  C:\Users\rdn\AppData\Local\Temp\ccYcaPXH.s 			page 28


 776:..\..\..\liblc3\src/spec.c **** {
 777:..\..\..\liblc3\src/spec.c ****     lc3_put_bits(bits, nf, 3);
 778:..\..\..\liblc3\src/spec.c **** }
 779:..\..\..\liblc3\src/spec.c **** 
 780:..\..\..\liblc3\src/spec.c **** /**
 781:..\..\..\liblc3\src/spec.c ****  * Get noise factor
 782:..\..\..\liblc3\src/spec.c ****  * bits            Bitstream context
 783:..\..\..\liblc3\src/spec.c ****  * return          Noise factor (0 to 7)
 784:..\..\..\liblc3\src/spec.c ****  */
 785:..\..\..\liblc3\src/spec.c **** static int get_noise_factor(lc3_bits_t *bits)
 786:..\..\..\liblc3\src/spec.c **** {
 787:..\..\..\liblc3\src/spec.c ****     return lc3_get_bits(bits, 3);
 788:..\..\..\liblc3\src/spec.c **** }
 789:..\..\..\liblc3\src/spec.c **** 
 790:..\..\..\liblc3\src/spec.c **** 
 791:..\..\..\liblc3\src/spec.c **** /* ----------------------------------------------------------------------------
 792:..\..\..\liblc3\src/spec.c ****  *  Encoding
 793:..\..\..\liblc3\src/spec.c ****  * -------------------------------------------------------------------------- */
 794:..\..\..\liblc3\src/spec.c **** 
 795:..\..\..\liblc3\src/spec.c **** /**
 796:..\..\..\liblc3\src/spec.c ****  * Bit consumption of the number of coded coefficients
 797:..\..\..\liblc3\src/spec.c ****  * dt, sr, nbytes  Duration, samplerate and size of the frame
 798:..\..\..\liblc3\src/spec.c ****  * return          Bit consumpution of the number of coded coefficients
 799:..\..\..\liblc3\src/spec.c ****  */
 800:..\..\..\liblc3\src/spec.c **** static int get_nbits_nq(enum lc3_dt dt, enum lc3_srate sr)
 801:..\..\..\liblc3\src/spec.c **** {
 672              		.loc 1 801 0
 673              		.cfi_startproc
 674              		@ args = 0, pretend = 0, frame = 0
 675              		@ frame_needed = 0, uses_anonymous_args = 0
 676              		@ link register save eliminated.
 677              	.LVL72:
 678              	.LBB106:
 679              	.LBB107:
 680              		.loc 2 51 0
 681 0000 0C4B     		ldr	r3, .L72
 682 0002 53F82130 		ldr	r3, [r3, r1, lsl #2]
 683 0006 00FB0330 		mla	r0, r0, r3, r3
 684              	.LVL73:
 685              	.LBE107:
 686              	.LBE106:
 802:..\..\..\liblc3\src/spec.c ****     int ne = lc3_ne(dt, sr);
 803:..\..\..\liblc3\src/spec.c ****     return 4 + (ne > 32) + (ne > 64) + (ne > 128) + (ne > 256) + (ne > 512);
 687              		.loc 1 803 0
 688 000a 2028     		cmp	r0, #32
 689 000c CCBF     		ite	gt
 690 000e 0523     		movgt	r3, #5
 691 0010 0423     		movle	r3, #4
 692 0012 4028     		cmp	r0, #64
 693 0014 C8BF     		it	gt
 694 0016 0133     		addgt	r3, r3, #1
 695 0018 8028     		cmp	r0, #128
 696 001a C8BF     		it	gt
 697 001c 0133     		addgt	r3, r3, #1
 698 001e B0F5807F 		cmp	r0, #256
 699 0022 C8BF     		it	gt
 700 0024 0133     		addgt	r3, r3, #1
ARM GAS  C:\Users\rdn\AppData\Local\Temp\ccYcaPXH.s 			page 29


 804:..\..\..\liblc3\src/spec.c **** }
 701              		.loc 1 804 0
 702 0026 B0F5007F 		cmp	r0, #512
 703 002a D4BF     		ite	le
 704 002c 1846     		movle	r0, r3
 705 002e 581C     		addgt	r0, r3, #1
 706 0030 7047     		bx	lr
 707              	.L73:
 708 0032 00BF     		.align	2
 709              	.L72:
 710 0034 00000000 		.word	lc3_ne_2m5
 711              		.cfi_endproc
 712              	.LFE38:
 713              		.size	get_nbits_nq, .-get_nbits_nq
 714              		.section	.text.estimate_gain,"ax",%progbits
 715              		.align	1
 716              		.thumb
 717              		.thumb_func
 718              		.type	estimate_gain, %function
 719              	estimate_gain:
 720              	.LFB22:
  86:..\..\..\liblc3\src/spec.c ****     int n4 = lc3_ne(dt, sr) / 4;
 721              		.loc 1 86 0
 722              		.cfi_startproc
 723              		@ args = 16, pretend = 0, frame = 1008
 724              		@ frame_needed = 0, uses_anonymous_args = 0
 725              	.LVL74:
 726 0000 2DE9F04F 		push	{r4, r5, r6, r7, r8, r9, r10, fp, lr}
 727              		.cfi_def_cfa_offset 36
 728              		.cfi_offset 4, -36
 729              		.cfi_offset 5, -32
 730              		.cfi_offset 6, -28
 731              		.cfi_offset 7, -24
 732              		.cfi_offset 8, -20
 733              		.cfi_offset 9, -16
 734              		.cfi_offset 10, -12
 735              		.cfi_offset 11, -8
 736              		.cfi_offset 14, -4
 737 0004 2DED068B 		vpush.64	{d8, d9, d10}
 738              		.cfi_def_cfa_offset 60
 739              		.cfi_offset 80, -60
 740              		.cfi_offset 81, -56
 741              		.cfi_offset 82, -52
 742              		.cfi_offset 83, -48
 743              		.cfi_offset 84, -44
 744              		.cfi_offset 85, -40
 745 0008 9846     		mov	r8, r3
 746              	.LBB125:
 747              	.LBB126:
 748              		.loc 2 51 0
 749 000a E04B     		ldr	r3, .L119
 750              	.LVL75:
 751              	.LBE126:
 752              	.LBE125:
  86:..\..\..\liblc3\src/spec.c ****     int n4 = lc3_ne(dt, sr) / 4;
 753              		.loc 1 86 0
 754 000c ADF57D7D 		sub	sp, sp, #1012
ARM GAS  C:\Users\rdn\AppData\Local\Temp\ccYcaPXH.s 			page 30


 755              		.cfi_def_cfa_offset 1072
  87:..\..\..\liblc3\src/spec.c ****     union { float f; int32_t q16; } e[LC3_MAX_NE / 4];
 756              		.loc 1 87 0
 757 0010 53F82130 		ldr	r3, [r3, r1, lsl #2]
  86:..\..\..\liblc3\src/spec.c ****     int n4 = lc3_ne(dt, sr) / 4;
 758              		.loc 1 86 0
 759 0014 DDF83C64 		ldr	r6, [sp, #1084]
 760              	.LBB128:
 761              	.LBB127:
 762              		.loc 2 51 0
 763 0018 00F10109 		add	r9, r0, #1
 764              	.LVL76:
 765              	.LBE127:
 766              	.LBE128:
  95:..\..\..\liblc3\src/spec.c ****         int reg_c = (const int [LC3_NUM_DT][LC3_NUM_SRATE - LC3_SRATE_48K_HR]){
 767              		.loc 1 95 0
 768 001c 0429     		cmp	r1, #4
  87:..\..\..\liblc3\src/spec.c ****     union { float f; int32_t q16; } e[LC3_MAX_NE / 4];
 769              		.loc 1 87 0
 770 001e 03FB09F3 		mul	r3, r3, r9
 771 0022 4FF00407 		mov	r7, #4
  86:..\..\..\liblc3\src/spec.c ****     int n4 = lc3_ne(dt, sr) / 4;
 772              		.loc 1 86 0
 773 0026 8346     		mov	fp, r0
 774 0028 0D46     		mov	r5, r1
 775 002a 1446     		mov	r4, r2
 776 002c B0EE409A 		vmov.f32	s18, s0
  87:..\..\..\liblc3\src/spec.c ****     union { float f; int32_t q16; } e[LC3_MAX_NE / 4];
 777              		.loc 1 87 0
 778 0030 93FBF7F7 		sdiv	r7, r3, r7
 779              	.LVL77:
  95:..\..\..\liblc3\src/spec.c ****         int reg_c = (const int [LC3_NUM_DT][LC3_NUM_SRATE - LC3_SRATE_48K_HR]){
 780              		.loc 1 95 0
 781 0034 40F28380 		bls	.L99
 782              	.LBB129:
  96:..\..\..\liblc3\src/spec.c ****             [LC3_DT_2M5] = { -6, -6 },
 783              		.loc 1 96 0
 784 0038 0DF1100A 		add	r10, sp, #16
 785 003c 2022     		movs	r2, #32
 786              	.LVL78:
 787 003e 0021     		movs	r1, #0
 788              	.LVL79:
 789 0040 5046     		mov	r0, r10
 790              	.LVL80:
 791 0042 FFF7FEFF 		bl	memset
 792              	.LVL81:
 793 0046 6FF00503 		mvn	r3, #5
 794 004a CAF80030 		str	r3, [r10]
 795 004e CAF80430 		str	r3, [r10, #4]
 796 0052 0223     		movs	r3, #2
 797 0054 CAF81830 		str	r3, [r10, #24]
 798 0058 0523     		movs	r3, #5
 799 005a CAF81C30 		str	r3, [r10, #28]
 800              	.LVL82:
 103:..\..\..\liblc3\src/spec.c **** 
 801              		.loc 1 103 0
 802 005e 08FA03F8 		lsl	r8, r8, r3
ARM GAS  C:\Users\rdn\AppData\Local\Temp\ccYcaPXH.s 			page 31


 803              	.LVL83:
 804 0062 7D23     		movs	r3, #125
 805 0064 03FB09F3 		mul	r3, r3, r9
 806 0068 98FBF3F8 		sdiv	r8, r8, r3
 807              	.LVL84:
  96:..\..\..\liblc3\src/spec.c ****             [LC3_DT_2M5] = { -6, -6 },
 808              		.loc 1 96 0
 809 006c 6B1F     		subs	r3, r5, #5
 810 006e 03EB4B0B 		add	fp, r3, fp, lsl #1
 811              	.LVL85:
 103:..\..\..\liblc3\src/spec.c **** 
 812              		.loc 1 103 0
 813 0072 5AF82B30 		ldr	r3, [r10, fp, lsl #2]
 814 0076 9844     		add	r8, r8, r3
 815              	.LVL86:
 816 0078 B8F1160F 		cmp	r8, #22
 817 007c 05DC     		bgt	.L100
 103:..\..\..\liblc3\src/spec.c **** 
 818              		.loc 1 103 0 is_stmt 0 discriminator 1
 819 007e B8F1060F 		cmp	r8, #6
 820 0082 B8BF     		it	lt
 821 0084 4FF00608 		movlt	r8, #6
 822 0088 01E0     		b	.L76
 823              	.L100:
 103:..\..\..\liblc3\src/spec.c **** 
 824              		.loc 1 103 0
 825 008a 4FF01708 		mov	r8, #23
 826              	.L76:
 827              	.LVL87:
 105:..\..\..\liblc3\src/spec.c **** 
 828              		.loc 1 105 0 is_stmt 1 discriminator 4
 829 008e 9FEDC07A 		vldr.32	s14, .L119+4
 830 0092 DFEDC05A 		vldr.32	s11, .L119+8
 831 0096 2346     		mov	r3, r4
 832              	.LBB130:
 107:..\..\..\liblc3\src/spec.c ****             m0 += fabsf(x[4*i + 0]),  m1 += fabsf(x[4*i + 0]) * k++;
 833              		.loc 1 107 0 discriminator 4
 834 0098 0022     		movs	r2, #0
 835              	.LBE130:
 105:..\..\..\liblc3\src/spec.c **** 
 836              		.loc 1 105 0 discriminator 4
 837 009a F0EE477A 		vmov.f32	s15, s14
 838              	.LBB131:
 108:..\..\..\liblc3\src/spec.c ****             m0 += fabsf(x[4*i + 1]),  m1 += fabsf(x[4*i + 1]) * k++;
 839              		.loc 1 108 0 discriminator 4
 840 009e F7EE006A 		vmov.f32	s13, #1.0e+0
 841              	.LVL88:
 842              	.L77:
 107:..\..\..\liblc3\src/spec.c ****             m0 += fabsf(x[4*i + 0]),  m1 += fabsf(x[4*i + 0]) * k++;
 843              		.loc 1 107 0 discriminator 1
 844 00a2 BA42     		cmp	r2, r7
 845 00a4 03F11003 		add	r3, r3, #16
 846 00a8 29DA     		bge	.L115
 108:..\..\..\liblc3\src/spec.c ****             m0 += fabsf(x[4*i + 1]),  m1 += fabsf(x[4*i + 1]) * k++;
 847              		.loc 1 108 0 discriminator 3
 848 00aa 13ED046A 		vldr.32	s12, [r3, #-16]
 849 00ae B0EEC66A 		vabs.f32	s12, s12
ARM GAS  C:\Users\rdn\AppData\Local\Temp\ccYcaPXH.s 			page 32


 850 00b2 A5EE867A 		vfma.f32	s14, s11, s12
 851              	.LVL89:
 107:..\..\..\liblc3\src/spec.c ****             m0 += fabsf(x[4*i + 0]),  m1 += fabsf(x[4*i + 0]) * k++;
 852              		.loc 1 107 0 discriminator 3
 853 00b6 0132     		adds	r2, r2, #1
 854              	.LVL90:
 108:..\..\..\liblc3\src/spec.c ****             m0 += fabsf(x[4*i + 1]),  m1 += fabsf(x[4*i + 1]) * k++;
 855              		.loc 1 108 0 discriminator 3
 856 00b8 77EE867A 		vadd.f32	s15, s15, s12
 857              	.LVL91:
 109:..\..\..\liblc3\src/spec.c ****             m0 += fabsf(x[4*i + 2]),  m1 += fabsf(x[4*i + 2]) * k++;
 858              		.loc 1 109 0 discriminator 3
 859 00bc 13ED036A 		vldr.32	s12, [r3, #-12]
 108:..\..\..\liblc3\src/spec.c ****             m0 += fabsf(x[4*i + 1]),  m1 += fabsf(x[4*i + 1]) * k++;
 860              		.loc 1 108 0 discriminator 3
 861 00c0 35EEA65A 		vadd.f32	s10, s11, s13
 862              	.LVL92:
 109:..\..\..\liblc3\src/spec.c ****             m0 += fabsf(x[4*i + 2]),  m1 += fabsf(x[4*i + 2]) * k++;
 863              		.loc 1 109 0 discriminator 3
 864 00c4 B0EEC66A 		vabs.f32	s12, s12
 865 00c8 A5EE067A 		vfma.f32	s14, s10, s12
 866              	.LVL93:
 867 00cc 77EE867A 		vadd.f32	s15, s15, s12
 868              	.LVL94:
 110:..\..\..\liblc3\src/spec.c ****             m0 += fabsf(x[4*i + 3]),  m1 += fabsf(x[4*i + 3]) * k++;
 869              		.loc 1 110 0 discriminator 3
 870 00d0 13ED026A 		vldr.32	s12, [r3, #-8]
 109:..\..\..\liblc3\src/spec.c ****             m0 += fabsf(x[4*i + 2]),  m1 += fabsf(x[4*i + 2]) * k++;
 871              		.loc 1 109 0 discriminator 3
 872 00d4 75EE265A 		vadd.f32	s11, s10, s13
 873              	.LVL95:
 110:..\..\..\liblc3\src/spec.c ****             m0 += fabsf(x[4*i + 3]),  m1 += fabsf(x[4*i + 3]) * k++;
 874              		.loc 1 110 0 discriminator 3
 875 00d8 B0EEC66A 		vabs.f32	s12, s12
 876 00dc A5EE867A 		vfma.f32	s14, s11, s12
 877              	.LVL96:
 878 00e0 77EE867A 		vadd.f32	s15, s15, s12
 879              	.LVL97:
 111:..\..\..\liblc3\src/spec.c ****         }
 880              		.loc 1 111 0 discriminator 3
 881 00e4 13ED016A 		vldr.32	s12, [r3, #-4]
 110:..\..\..\liblc3\src/spec.c ****             m0 += fabsf(x[4*i + 3]),  m1 += fabsf(x[4*i + 3]) * k++;
 882              		.loc 1 110 0 discriminator 3
 883 00e8 35EEA65A 		vadd.f32	s10, s11, s13
 884              	.LVL98:
 111:..\..\..\liblc3\src/spec.c ****         }
 885              		.loc 1 111 0 discriminator 3
 886 00ec B0EEC66A 		vabs.f32	s12, s12
 887 00f0 77EE867A 		vadd.f32	s15, s15, s12
 888              	.LVL99:
 889 00f4 75EE265A 		vadd.f32	s11, s10, s13
 890              	.LVL100:
 891 00f8 A5EE067A 		vfma.f32	s14, s10, s12
 892              	.LVL101:
 893 00fc D1E7     		b	.L77
 894              	.L115:
 895              	.LBE131:
ARM GAS  C:\Users\rdn\AppData\Local\Temp\ccYcaPXH.s 			page 33


 114:..\..\..\liblc3\src/spec.c ****         low_bits = 8 - LC3_MIN(m, 8);
 896              		.loc 1 114 0
 897 00fe DFEDA66A 		vldr.32	s13, .L119+12
 898 0102 67EEA67A 		vmul.f32	s15, s15, s13
 899              	.LVL102:
 900 0106 06EE909A 		vmov	s13, r9	@ int
 901 010a F8EEE66A 		vcvt.f32.s32	s13, s13
 902 010e 26EE877A 		vmul.f32	s14, s13, s14
 903              	.LVL103:
 904 0112 C7EE876A 		vdiv.f32	s13, s15, s14
 905 0116 16EE900A 		vmov	r0, s13
 906 011a FFF7FEFF 		bl	roundf
 907              	.LVL104:
 115:..\..\..\liblc3\src/spec.c ****     }
 908              		.loc 1 115 0
 909 011e 07EE900A 		vmov	s15, r0
 910 0122 FDEEE77A 		vcvt.s32.f32	s15, s15
 911 0126 17EE900A 		vmov	r0, s15	@ int
 912              	.LVL105:
 913 012a 0828     		cmp	r0, #8
 914 012c A8BF     		it	ge
 915 012e 0820     		movge	r0, #8
 916 0130 C0F10800 		rsb	r0, r0, #8
 917 0134 07EE900A 		vmov	s15, r0	@ int
 918 0138 B8EEE78A 		vcvt.f32.s32	s16, s15
 919              	.LVL106:
 920 013c 03E0     		b	.L75
 921              	.LVL107:
 922              	.L99:
 923              	.LBE129:
  93:..\..\..\liblc3\src/spec.c **** 
 924              		.loc 1 93 0
 925 013e 9FED958A 		vldr.32	s16, .L119+8
  92:..\..\..\liblc3\src/spec.c ****     float low_bits = 0;
 926              		.loc 1 92 0
 927 0142 4FF00008 		mov	r8, #0
 928              	.LVL108:
 929              	.L75:
 930 0146 0DF1300A 		add	r10, sp, #48
 931              	.LBB132:
 122:..\..\..\liblc3\src/spec.c ****         float x0 = x[4*i + 0] * x[4*i + 0];
 932              		.loc 1 122 0
 933 014a 4FF00009 		mov	r9, #0
 934              	.LBE132:
 120:..\..\..\liblc3\src/spec.c **** 
 935              		.loc 1 120 0
 936 014e 0020     		movs	r0, #0
 937              	.LVL109:
 938              	.L79:
 939              	.LBB135:
 122:..\..\..\liblc3\src/spec.c ****         float x0 = x[4*i + 0] * x[4*i + 0];
 940              		.loc 1 122 0 discriminator 1
 941 0150 B945     		cmp	r9, r7
 942 0152 04F11004 		add	r4, r4, #16
 943 0156 2ADA     		bge	.L116
 944              	.LBB133:
 123:..\..\..\liblc3\src/spec.c ****         float x1 = x[4*i + 1] * x[4*i + 1];
ARM GAS  C:\Users\rdn\AppData\Local\Temp\ccYcaPXH.s 			page 34


 945              		.loc 1 123 0 discriminator 3
 946 0158 54ED048A 		vldr.32	s17, [r4, #-16]
 124:..\..\..\liblc3\src/spec.c ****         float x2 = x[4*i + 2] * x[4*i + 2];
 947              		.loc 1 124 0 discriminator 3
 948 015c 54ED037A 		vldr.32	s15, [r4, #-12]
 125:..\..\..\liblc3\src/spec.c ****         float x3 = x[4*i + 3] * x[4*i + 3];
 949              		.loc 1 125 0 discriminator 3
 950 0160 14ED02AA 		vldr.32	s20, [r4, #-8]
 126:..\..\..\liblc3\src/spec.c **** 
 951              		.loc 1 126 0 discriminator 3
 952 0164 54ED019A 		vldr.32	s19, [r4, #-4]
 123:..\..\..\liblc3\src/spec.c ****         float x1 = x[4*i + 1] * x[4*i + 1];
 953              		.loc 1 123 0 discriminator 3
 954 0168 68EEA88A 		vmul.f32	s17, s17, s17
 955              	.LVL110:
 124:..\..\..\liblc3\src/spec.c ****         float x2 = x[4*i + 2] * x[4*i + 2];
 956              		.loc 1 124 0 discriminator 3
 957 016c 67EEA7AA 		vmul.f32	s21, s15, s15
 958              	.LVL111:
 128:..\..\..\liblc3\src/spec.c ****         x2_max = fmaxf(x2_max, x1);
 959              		.loc 1 128 0 discriminator 3
 960 0170 18EE901A 		vmov	r1, s17
 125:..\..\..\liblc3\src/spec.c ****         float x3 = x[4*i + 3] * x[4*i + 3];
 961              		.loc 1 125 0 discriminator 3
 962 0174 2AEE0AAA 		vmul.f32	s20, s20, s20
 963              	.LVL112:
 128:..\..\..\liblc3\src/spec.c ****         x2_max = fmaxf(x2_max, x1);
 964              		.loc 1 128 0 discriminator 3
 965 0178 FFF7FEFF 		bl	fmaxf
 966              	.LVL113:
 126:..\..\..\liblc3\src/spec.c **** 
 967              		.loc 1 126 0 discriminator 3
 968 017c 69EEA99A 		vmul.f32	s19, s19, s19
 969              	.LVL114:
 129:..\..\..\liblc3\src/spec.c ****         x2_max = fmaxf(x2_max, x2);
 970              		.loc 1 129 0 discriminator 3
 971 0180 1AEE901A 		vmov	r1, s21
 972 0184 FFF7FEFF 		bl	fmaxf
 973              	.LVL115:
 130:..\..\..\liblc3\src/spec.c ****         x2_max = fmaxf(x2_max, x3);
 974              		.loc 1 130 0 discriminator 3
 975 0188 1AEE101A 		vmov	r1, s20
 976 018c FFF7FEFF 		bl	fmaxf
 977              	.LVL116:
 131:..\..\..\liblc3\src/spec.c **** 
 978              		.loc 1 131 0 discriminator 3
 979 0190 19EE901A 		vmov	r1, s19
 980 0194 FFF7FEFF 		bl	fmaxf
 981              	.LVL117:
 133:..\..\..\liblc3\src/spec.c ****     }
 982              		.loc 1 133 0 discriminator 3
 983 0198 78EEAA7A 		vadd.f32	s15, s17, s21
 984              	.LBE133:
 122:..\..\..\liblc3\src/spec.c ****         float x0 = x[4*i + 0] * x[4*i + 0];
 985              		.loc 1 122 0 discriminator 3
 986 019c 09F10109 		add	r9, r9, #1
 987              	.LVL118:
ARM GAS  C:\Users\rdn\AppData\Local\Temp\ccYcaPXH.s 			page 35


 988              	.LBB134:
 133:..\..\..\liblc3\src/spec.c ****     }
 989              		.loc 1 133 0 discriminator 3
 990 01a0 77EE8A8A 		vadd.f32	s17, s15, s20
 991              	.LVL119:
 992 01a4 78EEA98A 		vadd.f32	s17, s17, s19
 993 01a8 EAEC018A 		vstmia.32	r10!, {s17}
 994 01ac D0E7     		b	.L79
 995              	.LVL120:
 996              	.L116:
 997              	.LBE134:
 998              	.LBE135:
 136:..\..\..\liblc3\src/spec.c ****     float nf = lc3_hr(sr) ?
 999              		.loc 1 136 0
 1000 01ae FFF7FEFF 		bl	sqrtf
 1001              	.LVL121:
 138:..\..\..\liblc3\src/spec.c **** 
 1002              		.loc 1 138 0
 1003 01b2 042D     		cmp	r5, #4
 136:..\..\..\liblc3\src/spec.c ****     float nf = lc3_hr(sr) ?
 1004              		.loc 1 136 0
 1005 01b4 08EE900A 		vmov	s17, r0
 1006              	.LVL122:
 138:..\..\..\liblc3\src/spec.c **** 
 1007              		.loc 1 138 0
 1008 01b8 3FD9     		bls	.L101
 1009              	.LVL123:
 1010              	.LBB136:
 1011              	.LBB137:
 1012              		.file 3 "..\\..\\..\\liblc3\\src\\fastmath.h"
   1:..\..\..\liblc3\src/fastmath.h **** /******************************************************************************
   2:..\..\..\liblc3\src/fastmath.h ****  *
   3:..\..\..\liblc3\src/fastmath.h ****  *  Copyright 2022 Google LLC
   4:..\..\..\liblc3\src/fastmath.h ****  *
   5:..\..\..\liblc3\src/fastmath.h ****  *  Licensed under the Apache License, Version 2.0 (the "License");
   6:..\..\..\liblc3\src/fastmath.h ****  *  you may not use this file except in compliance with the License.
   7:..\..\..\liblc3\src/fastmath.h ****  *  You may obtain a copy of the License at:
   8:..\..\..\liblc3\src/fastmath.h ****  *
   9:..\..\..\liblc3\src/fastmath.h ****  *  http://www.apache.org/licenses/LICENSE-2.0
  10:..\..\..\liblc3\src/fastmath.h ****  *
  11:..\..\..\liblc3\src/fastmath.h ****  *  Unless required by applicable law or agreed to in writing, software
  12:..\..\..\liblc3\src/fastmath.h ****  *  distributed under the License is distributed on an "AS IS" BASIS,
  13:..\..\..\liblc3\src/fastmath.h ****  *  WITHOUT WARRANTIES OR CONDITIONS OF ANY KIND, either express or implied.
  14:..\..\..\liblc3\src/fastmath.h ****  *  See the License for the specific language governing permissions and
  15:..\..\..\liblc3\src/fastmath.h ****  *  limitations under the License.
  16:..\..\..\liblc3\src/fastmath.h ****  *
  17:..\..\..\liblc3\src/fastmath.h ****  ******************************************************************************/
  18:..\..\..\liblc3\src/fastmath.h **** 
  19:..\..\..\liblc3\src/fastmath.h **** #ifndef __LC3_FASTMATH_H
  20:..\..\..\liblc3\src/fastmath.h **** #define __LC3_FASTMATH_H
  21:..\..\..\liblc3\src/fastmath.h **** 
  22:..\..\..\liblc3\src/fastmath.h **** #include <stdint.h>
  23:..\..\..\liblc3\src/fastmath.h **** #include <math.h>
  24:..\..\..\liblc3\src/fastmath.h **** 
  25:..\..\..\liblc3\src/fastmath.h **** 
  26:..\..\..\liblc3\src/fastmath.h **** /**
  27:..\..\..\liblc3\src/fastmath.h ****  * IEEE 754 Floating point representation
ARM GAS  C:\Users\rdn\AppData\Local\Temp\ccYcaPXH.s 			page 36


  28:..\..\..\liblc3\src/fastmath.h ****  */
  29:..\..\..\liblc3\src/fastmath.h **** 
  30:..\..\..\liblc3\src/fastmath.h **** #define LC3_IEEE754_SIGN_SHL   (31)
  31:..\..\..\liblc3\src/fastmath.h **** #define LC3_IEEE754_SIGN_MASK  (1 << LC3_IEEE754_SIGN_SHL)
  32:..\..\..\liblc3\src/fastmath.h **** 
  33:..\..\..\liblc3\src/fastmath.h **** #define LC3_IEEE754_EXP_SHL    (23)
  34:..\..\..\liblc3\src/fastmath.h **** #define LC3_IEEE754_EXP_MASK   (0xff << LC3_IEEE754_EXP_SHL)
  35:..\..\..\liblc3\src/fastmath.h **** #define LC3_IEEE754_EXP_BIAS   (127)
  36:..\..\..\liblc3\src/fastmath.h **** 
  37:..\..\..\liblc3\src/fastmath.h **** 
  38:..\..\..\liblc3\src/fastmath.h **** /**
  39:..\..\..\liblc3\src/fastmath.h ****  * Fast multiply floating-point number by integral power of 2
  40:..\..\..\liblc3\src/fastmath.h ****  * x               Operand, finite number
  41:..\..\..\liblc3\src/fastmath.h ****  * exp             Exponent such that 2^x is finite
  42:..\..\..\liblc3\src/fastmath.h ****  * return          2^exp
  43:..\..\..\liblc3\src/fastmath.h ****  */
  44:..\..\..\liblc3\src/fastmath.h **** static inline float lc3_ldexpf(float _x, int exp) {
  45:..\..\..\liblc3\src/fastmath.h ****     union { float f; int32_t s; } x = { .f = _x };
  46:..\..\..\liblc3\src/fastmath.h **** 
  47:..\..\..\liblc3\src/fastmath.h ****     if (x.s & LC3_IEEE754_EXP_MASK)
  48:..\..\..\liblc3\src/fastmath.h ****         x.s += exp << LC3_IEEE754_EXP_SHL;
  49:..\..\..\liblc3\src/fastmath.h **** 
  50:..\..\..\liblc3\src/fastmath.h ****     return x.f;
  51:..\..\..\liblc3\src/fastmath.h **** }
  52:..\..\..\liblc3\src/fastmath.h **** 
  53:..\..\..\liblc3\src/fastmath.h **** /**
  54:..\..\..\liblc3\src/fastmath.h ****  * Fast convert floating-point number to fractional and integral components
  55:..\..\..\liblc3\src/fastmath.h ****  * x               Operand, finite number
  56:..\..\..\liblc3\src/fastmath.h ****  * exp             Return the exponent part
  57:..\..\..\liblc3\src/fastmath.h ****  * return          The normalized fraction in [0.5:1[
  58:..\..\..\liblc3\src/fastmath.h ****  */
  59:..\..\..\liblc3\src/fastmath.h **** static inline float lc3_frexpf(float _x, int *exp) {
  60:..\..\..\liblc3\src/fastmath.h ****     union { float f; uint32_t u; } x = { .f = _x };
  61:..\..\..\liblc3\src/fastmath.h **** 
  62:..\..\..\liblc3\src/fastmath.h ****     int e = (x.u & LC3_IEEE754_EXP_MASK) >> LC3_IEEE754_EXP_SHL;
  63:..\..\..\liblc3\src/fastmath.h ****     *exp = e - (LC3_IEEE754_EXP_BIAS - 1);
  64:..\..\..\liblc3\src/fastmath.h **** 
  65:..\..\..\liblc3\src/fastmath.h ****     x.u = (x.u & ~LC3_IEEE754_EXP_MASK) |
  66:..\..\..\liblc3\src/fastmath.h ****         ((LC3_IEEE754_EXP_BIAS - 1) << LC3_IEEE754_EXP_SHL);
  67:..\..\..\liblc3\src/fastmath.h **** 
  68:..\..\..\liblc3\src/fastmath.h ****     return x.f;
  69:..\..\..\liblc3\src/fastmath.h **** }
  70:..\..\..\liblc3\src/fastmath.h **** 
  71:..\..\..\liblc3\src/fastmath.h **** /**
  72:..\..\..\liblc3\src/fastmath.h ****  * Fast 2^n approximation
  73:..\..\..\liblc3\src/fastmath.h ****  * x               Operand, range -100 to 100
  74:..\..\..\liblc3\src/fastmath.h ****  * return          2^x approximation (max relative error ~ 4e-7)
  75:..\..\..\liblc3\src/fastmath.h ****  */
  76:..\..\..\liblc3\src/fastmath.h **** static inline float lc3_exp2f(float x)
  77:..\..\..\liblc3\src/fastmath.h **** {
  78:..\..\..\liblc3\src/fastmath.h ****     /* --- 2^(i/8) for i from 0 to 7 --- */
  79:..\..\..\liblc3\src/fastmath.h **** 
  80:..\..\..\liblc3\src/fastmath.h ****     static const float e[] = {
  81:..\..\..\liblc3\src/fastmath.h ****         1.00000000e+00, 1.09050773e+00, 1.18920712e+00, 1.29683955e+00,
  82:..\..\..\liblc3\src/fastmath.h ****         1.41421356e+00, 1.54221083e+00, 1.68179283e+00, 1.83400809e+00 };
  83:..\..\..\liblc3\src/fastmath.h **** 
  84:..\..\..\liblc3\src/fastmath.h ****     /* --- Polynomial approx in range 0 to 1/8 --- */
ARM GAS  C:\Users\rdn\AppData\Local\Temp\ccYcaPXH.s 			page 37


  85:..\..\..\liblc3\src/fastmath.h **** 
  86:..\..\..\liblc3\src/fastmath.h ****     static const float p[] = {
  87:..\..\..\liblc3\src/fastmath.h ****         1.00448128e-02, 5.54563260e-02, 2.40228756e-01, 6.93147140e-01 };
  88:..\..\..\liblc3\src/fastmath.h **** 
  89:..\..\..\liblc3\src/fastmath.h ****     /* --- Split the operand ---
  90:..\..\..\liblc3\src/fastmath.h ****      *
  91:..\..\..\liblc3\src/fastmath.h ****      * Such as x = k/8 + y, with k an integer, and |y| < 0.5/8
  92:..\..\..\liblc3\src/fastmath.h ****      *
  93:..\..\..\liblc3\src/fastmath.h ****      * Note that `fast-math` compiler option leads to rounding error,
  94:..\..\..\liblc3\src/fastmath.h ****      * disable optimisation with `volatile`. */
  95:..\..\..\liblc3\src/fastmath.h **** 
  96:..\..\..\liblc3\src/fastmath.h ****     volatile union { float f; int32_t s; } v;
  97:..\..\..\liblc3\src/fastmath.h **** 
  98:..\..\..\liblc3\src/fastmath.h ****     v.f = x + 0x1.8p20f;
 1013              		.loc 3 98 0 discriminator 1
 1014 01ba DFED786A 		vldr.32	s13, .L119+16
  99:..\..\..\liblc3\src/fastmath.h ****     int k = v.s;
 100:..\..\..\liblc3\src/fastmath.h ****     x -= v.f - 0x1.8p20f;
 101:..\..\..\liblc3\src/fastmath.h **** 
 102:..\..\..\liblc3\src/fastmath.h ****     /* --- Compute 2^x, with |x| < 1 ---
 103:..\..\..\liblc3\src/fastmath.h ****      * Perform polynomial approximation in range -0.5/8 to 0.5/8,
 104:..\..\..\liblc3\src/fastmath.h ****      * and muplity by precomputed value of 2^(i/8), i in [0:7] */
 105:..\..\..\liblc3\src/fastmath.h **** 
 106:..\..\..\liblc3\src/fastmath.h ****     union { float f; int32_t s; } y;
 107:..\..\..\liblc3\src/fastmath.h **** 
 108:..\..\..\liblc3\src/fastmath.h ****     y.f = (      p[0]) * x;
 109:..\..\..\liblc3\src/fastmath.h ****     y.f = (y.f + p[1]) * x;
 110:..\..\..\liblc3\src/fastmath.h ****     y.f = (y.f + p[2]) * x;
 111:..\..\..\liblc3\src/fastmath.h ****     y.f = (y.f + p[3]) * x;
 112:..\..\..\liblc3\src/fastmath.h ****     y.f = (y.f +  1.f) * e[k & 7];
 113:..\..\..\liblc3\src/fastmath.h **** 
 114:..\..\..\liblc3\src/fastmath.h ****     /* --- Add the exponent --- */
 115:..\..\..\liblc3\src/fastmath.h **** 
 116:..\..\..\liblc3\src/fastmath.h ****     y.s += (k >> 3) << LC3_IEEE754_EXP_SHL;
 1015              		.loc 3 116 0 discriminator 1
 1016 01be 9FED786A 		vldr.32	s12, .L119+20
 112:..\..\..\liblc3\src/fastmath.h **** 
 1017              		.loc 3 112 0 discriminator 1
 1018 01c2 784A     		ldr	r2, .L119+24
  98:..\..\..\liblc3\src/fastmath.h ****     int k = v.s;
 1019              		.loc 3 98 0 discriminator 1
 1020 01c4 76EEC87A 		vsub.f32	s15, s13, s16
 1021              	.LBE137:
 1022              	.LBE136:
 1023              	.LBB141:
 1024              	.LBB142:
  47:..\..\..\liblc3\src/fastmath.h ****         x.s += exp << LC3_IEEE754_EXP_SHL;
 1025              		.loc 3 47 0 discriminator 1
 1026 01c8 10F0FF4F 		tst	r0, #2139095040
 1027 01cc 0346     		mov	r3, r0
 1028              	.LBE142:
 1029              	.LBE141:
 1030              	.LBB145:
 1031              	.LBB138:
  98:..\..\..\liblc3\src/fastmath.h ****     int k = v.s;
 1032              		.loc 3 98 0 discriminator 1
 1033 01ce CDED037A 		vstr.32	s15, [sp, #12]
ARM GAS  C:\Users\rdn\AppData\Local\Temp\ccYcaPXH.s 			page 38


 1034              	.LBE138:
 1035              	.LBE145:
 1036              	.LBB146:
 1037              	.LBB143:
  48:..\..\..\liblc3\src/fastmath.h **** 
 1038              		.loc 3 48 0 discriminator 1
 1039 01d2 1CBF     		itt	ne
 1040 01d4 A0EBC853 		subne	r3, r0, r8, lsl #23
 1041 01d8 07EE103A 		vmovne	s14, r3	@ int
 1042              	.LVL124:
 1043              	.LBE143:
 1044              	.LBE146:
 1045              	.LBB147:
 1046              	.LBB139:
  99:..\..\..\liblc3\src/fastmath.h ****     x -= v.f - 0x1.8p20f;
 1047              		.loc 3 99 0 discriminator 1
 1048 01dc 039B     		ldr	r3, [sp, #12]
 100:..\..\..\liblc3\src/fastmath.h **** 
 1049              		.loc 3 100 0 discriminator 1
 1050 01de DDED037A 		vldr.32	s15, [sp, #12]
 1051 01e2 77EEE67A 		vsub.f32	s15, s15, s13
 1052 01e6 B1EE488A 		vneg.f32	s16, s16
 1053              	.LVL125:
 1054 01ea 78EE677A 		vsub.f32	s15, s16, s15
 1055              		.loc 3 116 0 discriminator 1
 1056 01ee DFED6E6A 		vldr.32	s13, .L119+28
 1057 01f2 E7EE866A 		vfma.f32	s13, s15, s12
 112:..\..\..\liblc3\src/fastmath.h **** 
 1058              		.loc 3 112 0 discriminator 1
 1059 01f6 03F00701 		and	r1, r3, #7
 1060 01fa 02EB8102 		add	r2, r2, r1, lsl #2
 1061              		.loc 3 116 0 discriminator 1
 1062 01fe 9FED6B6A 		vldr.32	s12, .L119+32
 1063 0202 A7EEA66A 		vfma.f32	s12, s15, s13
 1064 0206 4FEAE303 		asr	r3, r3, #3
 1065 020a DFED696A 		vldr.32	s13, .L119+36
 1066 020e E7EE866A 		vfma.f32	s13, s15, s12
 1067 0212 B7EE008A 		vmov.f32	s16, #1.0e+0
 1068 0216 A7EEA68A 		vfma.f32	s16, s15, s13
 1069 021a D2ED1C7A 		vldr.32	s15, [r2, #112]
 1070 021e 28EE278A 		vmul.f32	s16, s16, s15
 1071              	.LBE139:
 1072              	.LBE147:
 1073              	.LBB148:
 1074              	.LBB144:
  45:..\..\..\liblc3\src/fastmath.h **** 
 1075              		.loc 3 45 0 discriminator 1
 1076 0222 08BF     		it	eq
 1077 0224 B0EE687A 		vmoveq.f32	s14, s17
 1078              	.LVL126:
 1079              	.LBE144:
 1080              	.LBE148:
 1081              	.LBB149:
 1082              	.LBB140:
 1083              		.loc 3 116 0 discriminator 1
 1084 0228 18EE102A 		vmov	r2, s16	@ int
 1085 022c 02EBC353 		add	r3, r2, r3, lsl #23
ARM GAS  C:\Users\rdn\AppData\Local\Temp\ccYcaPXH.s 			page 39


 1086 0230 08EE103A 		vmov	s16, r3	@ int
 1087              	.LBE140:
 1088              	.LBE149:
 138:..\..\..\liblc3\src/spec.c **** 
 1089              		.loc 1 138 0 discriminator 1
 1090 0234 27EE088A 		vmul.f32	s16, s14, s16
 1091 0238 01E0     		b	.L81
 1092              	.LVL127:
 1093              	.L101:
 138:..\..\..\liblc3\src/spec.c **** 
 1094              		.loc 1 138 0 is_stmt 0
 1095 023a 9FED568A 		vldr.32	s16, .L119+8
 1096              	.LVL128:
 1097              	.L81:
 1098              	.LBB150:
 1099              	.LBB151:
 1100              	.LBB152:
 117:..\..\..\liblc3\src/fastmath.h **** 
 118:..\..\..\liblc3\src/fastmath.h ****     return y.f;
 119:..\..\..\liblc3\src/fastmath.h **** }
 120:..\..\..\liblc3\src/fastmath.h **** 
 121:..\..\..\liblc3\src/fastmath.h **** /**
 122:..\..\..\liblc3\src/fastmath.h ****  * Fast log2(x) approximation
 123:..\..\..\liblc3\src/fastmath.h ****  * x               Operand, greater than 0
 124:..\..\..\liblc3\src/fastmath.h ****  * return          log2(x) approximation (max absolute error ~ 1e-4)
 125:..\..\..\liblc3\src/fastmath.h ****  */
 126:..\..\..\liblc3\src/fastmath.h **** static inline float lc3_log2f(float x)
 127:..\..\..\liblc3\src/fastmath.h **** {
 128:..\..\..\liblc3\src/fastmath.h ****     float y;
 129:..\..\..\liblc3\src/fastmath.h ****     int e;
 130:..\..\..\liblc3\src/fastmath.h **** 
 131:..\..\..\liblc3\src/fastmath.h ****     /* --- Polynomial approx in range 0.5 to 1 --- */
 132:..\..\..\liblc3\src/fastmath.h **** 
 133:..\..\..\liblc3\src/fastmath.h ****     static const float c[] = {
 134:..\..\..\liblc3\src/fastmath.h ****         -1.29479677, 5.11769018, -8.42295281, 8.10557963, -3.50567360 };
 135:..\..\..\liblc3\src/fastmath.h **** 
 136:..\..\..\liblc3\src/fastmath.h ****     x = lc3_frexpf(x, &e);
 137:..\..\..\liblc3\src/fastmath.h **** 
 138:..\..\..\liblc3\src/fastmath.h ****     y = (    c[0]) * x;
 139:..\..\..\liblc3\src/fastmath.h ****     y = (y + c[1]) * x;
 140:..\..\..\liblc3\src/fastmath.h ****     y = (y + c[2]) * x;
 141:..\..\..\liblc3\src/fastmath.h ****     y = (y + c[3]) * x;
 142:..\..\..\liblc3\src/fastmath.h ****     y = (y + c[4]);
 143:..\..\..\liblc3\src/fastmath.h **** 
 144:..\..\..\liblc3\src/fastmath.h ****     /* --- Add log2f(2^e) and return --- */
 145:..\..\..\liblc3\src/fastmath.h **** 
 146:..\..\..\liblc3\src/fastmath.h ****     return e + y;
 147:..\..\..\liblc3\src/fastmath.h **** }
 148:..\..\..\liblc3\src/fastmath.h **** 
 149:..\..\..\liblc3\src/fastmath.h **** /**
 150:..\..\..\liblc3\src/fastmath.h ****  * Fast log10(x) approximation
 151:..\..\..\liblc3\src/fastmath.h ****  * x               Operand, greater than 0
 152:..\..\..\liblc3\src/fastmath.h ****  * return          log10(x) approximation (max absolute error ~ 1e-4)
 153:..\..\..\liblc3\src/fastmath.h ****  */
 154:..\..\..\liblc3\src/fastmath.h **** static inline float lc3_log10f(float x)
 155:..\..\..\liblc3\src/fastmath.h **** {
 156:..\..\..\liblc3\src/fastmath.h ****     return log10f(2) * lc3_log2f(x);
ARM GAS  C:\Users\rdn\AppData\Local\Temp\ccYcaPXH.s 			page 40


 157:..\..\..\liblc3\src/fastmath.h **** }
 158:..\..\..\liblc3\src/fastmath.h **** 
 159:..\..\..\liblc3\src/fastmath.h **** /**
 160:..\..\..\liblc3\src/fastmath.h ****  * Fast `10 * log10(x)` (or dB) approximation in fixed Q16
 161:..\..\..\liblc3\src/fastmath.h ****  * x               Operand, in range 2^-63 to 2^63 (1e-19 to 1e19)
 162:..\..\..\liblc3\src/fastmath.h ****  * return          10 * log10(x) in fixed Q16 (-190 to 192 dB)
 163:..\..\..\liblc3\src/fastmath.h ****  *
 164:..\..\..\liblc3\src/fastmath.h ****  * - The 0 value is accepted and return the minimum value ~ -191dB
 165:..\..\..\liblc3\src/fastmath.h ****  * - This function assumed that float 32 bits is coded IEEE 754
 166:..\..\..\liblc3\src/fastmath.h ****  */
 167:..\..\..\liblc3\src/fastmath.h **** static inline int32_t lc3_db_q16(float x)
 168:..\..\..\liblc3\src/fastmath.h **** {
 169:..\..\..\liblc3\src/fastmath.h ****     /* --- Table in Q15 --- */
 170:..\..\..\liblc3\src/fastmath.h **** 
 171:..\..\..\liblc3\src/fastmath.h ****     static const uint16_t t[][2] = {
 172:..\..\..\liblc3\src/fastmath.h **** 
 173:..\..\..\liblc3\src/fastmath.h ****         /* [n][0] = 10 * log10(2) * log2(1 + n/32), with n = [0..15]     */
 174:..\..\..\liblc3\src/fastmath.h ****         /* [n][1] = [n+1][0] - [n][0] (while defining [16][0])           */
 175:..\..\..\liblc3\src/fastmath.h **** 
 176:..\..\..\liblc3\src/fastmath.h ****         {     0, 4379 }, {  4379, 4248 }, {  8627, 4125 }, { 12753, 4009 },
 177:..\..\..\liblc3\src/fastmath.h ****         { 16762, 3899 }, { 20661, 3795 }, { 24456, 3697 }, { 28153, 3603 },
 178:..\..\..\liblc3\src/fastmath.h ****         { 31755, 3514 }, { 35269, 3429 }, { 38699, 3349 }, { 42047, 3272 },
 179:..\..\..\liblc3\src/fastmath.h ****         { 45319, 3198 }, { 48517, 3128 }, { 51645, 3061 }, { 54705, 2996 },
 180:..\..\..\liblc3\src/fastmath.h **** 
 181:..\..\..\liblc3\src/fastmath.h ****         /* [n][0] = 10 * log10(2) * log2(1 + n/32) - 10 * log10(2) / 2,  */
 182:..\..\..\liblc3\src/fastmath.h ****         /*     with n = [16..31]                                         */
 183:..\..\..\liblc3\src/fastmath.h ****         /* [n][1] = [n+1][0] - [n][0] (while defining [32][0])           */
 184:..\..\..\liblc3\src/fastmath.h **** 
 185:..\..\..\liblc3\src/fastmath.h ****         {  8381, 2934 }, { 11315, 2875 }, { 14190, 2818 }, { 17008, 2763 },
 186:..\..\..\liblc3\src/fastmath.h ****         { 19772, 2711 }, { 22482, 2660 }, { 25142, 2611 }, { 27754, 2564 },
 187:..\..\..\liblc3\src/fastmath.h ****         { 30318, 2519 }, { 32837, 2475 }, { 35312, 2433 }, { 37744, 2392 },
 188:..\..\..\liblc3\src/fastmath.h ****         { 40136, 2352 }, { 42489, 2314 }, { 44803, 2277 }, { 47080, 2241 },
 189:..\..\..\liblc3\src/fastmath.h **** 
 190:..\..\..\liblc3\src/fastmath.h ****     };
 191:..\..\..\liblc3\src/fastmath.h **** 
 192:..\..\..\liblc3\src/fastmath.h ****     /* --- Approximation ---
 193:..\..\..\liblc3\src/fastmath.h ****      *
 194:..\..\..\liblc3\src/fastmath.h ****      *   10 * log10(x^2) = 10 * log10(2) * log2(x^2)
 195:..\..\..\liblc3\src/fastmath.h ****      *
 196:..\..\..\liblc3\src/fastmath.h ****      *   And log2(x^2) = 2 * log2( (1 + m) * 2^e )
 197:..\..\..\liblc3\src/fastmath.h ****      *                 = 2 * (e + log2(1 + m)) , with m in range [0..1]
 198:..\..\..\liblc3\src/fastmath.h ****      *
 199:..\..\..\liblc3\src/fastmath.h ****      * Split the float values in :
 200:..\..\..\liblc3\src/fastmath.h ****      *   e2  Double value of the exponent (2 * e + k)
 201:..\..\..\liblc3\src/fastmath.h ****      *   hi  High 5 bits of mantissa, for precalculated result `t[hi][0]`
 202:..\..\..\liblc3\src/fastmath.h ****      *   lo  Low 16 bits of mantissa, for linear interpolation `t[hi][1]`
 203:..\..\..\liblc3\src/fastmath.h ****      *
 204:..\..\..\liblc3\src/fastmath.h ****      * Two cases, from the range of the mantissa :
 205:..\..\..\liblc3\src/fastmath.h ****      *   0 to 0.5   `k = 0`, use 1st part of the table
 206:..\..\..\liblc3\src/fastmath.h ****      *   0.5 to 1   `k = 1`, use 2nd part of the table  */
 207:..\..\..\liblc3\src/fastmath.h **** 
 208:..\..\..\liblc3\src/fastmath.h ****     union { float f; uint32_t u; } x2 = { .f = x*x };
 209:..\..\..\liblc3\src/fastmath.h **** 
 210:..\..\..\liblc3\src/fastmath.h ****     int e2 = (int)(x2.u >> 22) - 2*127;
 211:..\..\..\liblc3\src/fastmath.h ****     int hi = (x2.u >> 18) & 0x1f;
 212:..\..\..\liblc3\src/fastmath.h ****     int lo = (x2.u >>  2) & 0xffff;
 213:..\..\..\liblc3\src/fastmath.h **** 
ARM GAS  C:\Users\rdn\AppData\Local\Temp\ccYcaPXH.s 			page 41


 214:..\..\..\liblc3\src/fastmath.h ****     return e2 * 49321 + t[hi][0] + ((t[hi][1] * lo) >> 16);
 1101              		.loc 3 214 0 is_stmt 1
 1102 023e DFF864A1 		ldr	r10, .L119+24
 1103 0242 0DF12C08 		add	r8, sp, #44
 1104              	.LVL129:
 1105              	.LBE152:
 1106              	.LBE151:
 140:..\..\..\liblc3\src/spec.c ****         e[i].q16 = lc3_db_q16(fmaxf(e[i].f + nf, 1e-10f));
 1107              		.loc 1 140 0
 1108 0246 0024     		movs	r4, #0
 141:..\..\..\liblc3\src/spec.c **** 
 1109              		.loc 1 141 0
 1110 0248 4CF2A909 		movw	r9, #49321
 1111              	.LVL130:
 1112              	.L83:
 140:..\..\..\liblc3\src/spec.c ****         e[i].q16 = lc3_db_q16(fmaxf(e[i].f + nf, 1e-10f));
 1113              		.loc 1 140 0 discriminator 1
 1114 024c BC42     		cmp	r4, r7
 1115 024e 23DA     		bge	.L117
 141:..\..\..\liblc3\src/spec.c **** 
 1116              		.loc 1 141 0 discriminator 3
 1117 0250 D8ED017A 		vldr.32	s15, [r8, #4]
 1118 0254 5749     		ldr	r1, .L119+40
 1119 0256 78EE277A 		vadd.f32	s15, s16, s15
 140:..\..\..\liblc3\src/spec.c ****         e[i].q16 = lc3_db_q16(fmaxf(e[i].f + nf, 1e-10f));
 1120              		.loc 1 140 0 discriminator 3
 1121 025a 0134     		adds	r4, r4, #1
 1122              	.LVL131:
 141:..\..\..\liblc3\src/spec.c **** 
 1123              		.loc 1 141 0 discriminator 3
 1124 025c 17EE900A 		vmov	r0, s15
 1125 0260 FFF7FEFF 		bl	fmaxf
 1126              	.LVL132:
 1127              	.LBB154:
 1128              	.LBB153:
 210:..\..\..\liblc3\src/fastmath.h ****     int hi = (x2.u >> 18) & 0x1f;
 1129              		.loc 3 210 0 discriminator 3
 1130 0264 07EE900A 		vmov	s15, r0
 1131 0268 67EEA77A 		vmul.f32	s15, s15, s15
 1132              	.LVL133:
 1133 026c 17EE900A 		vmov	r0, s15
 1134              	.LVL134:
 211:..\..\..\liblc3\src/fastmath.h ****     int lo = (x2.u >>  2) & 0xffff;
 1135              		.loc 3 211 0 discriminator 3
 1136 0270 C0F38442 		ubfx	r2, r0, #18, #5
 1137              	.LVL135:
 1138              		.loc 3 214 0 discriminator 3
 1139 0274 0AEB8202 		add	r2, r10, r2, lsl #2
 1140              	.LBE153:
 1141              	.LBE154:
 141:..\..\..\liblc3\src/spec.c **** 
 1142              		.loc 1 141 0 discriminator 3
 1143 0278 830D     		lsrs	r3, r0, #22
 1144 027a B2F89010 		ldrh	r1, [r2, #144]
 1145 027e B2F89220 		ldrh	r2, [r2, #146]
 1146 0282 FE3B     		subs	r3, r3, #254
 1147 0284 C0F38F00 		ubfx	r0, r0, #2, #16
ARM GAS  C:\Users\rdn\AppData\Local\Temp\ccYcaPXH.s 			page 42


 1148 0288 09FB0313 		mla	r3, r9, r3, r1
 1149 028c 5043     		muls	r0, r2, r0
 1150 028e 03EB2040 		add	r0, r3, r0, asr #16
 1151 0292 48F8040F 		str	r0, [r8, #4]!
 1152 0296 D9E7     		b	.L83
 1153              	.L117:
 1154              	.LVL136:
 1155 0298 DDF83024 		ldr	r2, [sp, #1072]
 1156              	.LBE150:
 146:..\..\..\liblc3\src/spec.c **** 
 1157              		.loc 1 146 0
 1158 029c DDF83404 		ldr	r0, [sp, #1076]
 1159 02a0 07EE902A 		vmov	s15, r2	@ int
 1160 02a4 F8EEE77A 		vcvt.f32.s32	s15, s15
 1161 02a8 434A     		ldr	r2, .L119+44
 1162 02aa 37EE899A 		vadd.f32	s18, s15, s18
 1163              	.LVL137:
 1164 02ae F6EE007A 		vmov.f32	s15, #5.0e-1
 1165 02b2 39EE279A 		vadd.f32	s18, s18, s15
 1166 02b6 C0F1FF00 		rsb	r0, r0, #255
 1167              	.LVL138:
 1168 02ba BDEEC99A 		vcvt.s32.f32	s18, s18
 1169              	.LBB155:
 152:..\..\..\liblc3\src/spec.c ****         int gn = (g_int - i) * k_20_28;
 1170              		.loc 1 152 0
 1171 02be 7B1E     		subs	r3, r7, #1
 1172 02c0 19EE101A 		vmov	r1, s18	@ int
 1173 02c4 5143     		muls	r1, r2, r1
 1174 02c6 0093     		str	r3, [sp]
 1175              	.LVL139:
 1176 02c8 0191     		str	r1, [sp, #4]
 1177              	.LBE155:
 146:..\..\..\liblc3\src/spec.c **** 
 1178              		.loc 1 146 0
 1179 02ca 0446     		mov	r4, r0
 1180              	.LVL140:
 1181              	.LBB161:
 1182              	.LBB156:
 166:..\..\..\liblc3\src/spec.c ****             j0 = j1;
 1183              		.loc 1 166 0
 1184 02cc 4FF0080E 		mov	lr, #8
 1185              	.LBE156:
 152:..\..\..\liblc3\src/spec.c ****         int gn = (g_int - i) * k_20_28;
 1186              		.loc 1 152 0
 1187 02d0 4FF0800C 		mov	ip, #128
 1188              	.LBB159:
 156:..\..\..\liblc3\src/spec.c **** 
 1189              		.loc 1 156 0
 1190 02d4 0DF1300A 		add	r10, sp, #48
 1191              	.LVL141:
 1192              	.L92:
 153:..\..\..\liblc3\src/spec.c ****         int v = 0;
 1193              		.loc 1 153 0
 1194 02d8 CCEB0409 		rsb	r9, ip, r4
 1195 02dc 4BF2DB63 		movw	r3, #46811
 156:..\..\..\liblc3\src/spec.c **** 
 1196              		.loc 1 156 0
ARM GAS  C:\Users\rdn\AppData\Local\Temp\ccYcaPXH.s 			page 43


 1197 02e0 0099     		ldr	r1, [sp]
 153:..\..\..\liblc3\src/spec.c ****         int v = 0;
 1198              		.loc 1 153 0
 1199 02e2 03FB09F8 		mul	r8, r3, r9
 1200              	.LVL142:
 1201              	.L85:
 156:..\..\..\liblc3\src/spec.c **** 
 1202              		.loc 1 156 0 discriminator 1
 1203 02e6 0029     		cmp	r1, #0
 1204 02e8 1BDB     		blt	.L103
 156:..\..\..\liblc3\src/spec.c **** 
 1205              		.loc 1 156 0 is_stmt 0 discriminator 3
 1206 02ea 5AF82120 		ldr	r2, [r10, r1, lsl #2]
 1207 02ee 9045     		cmp	r8, r2
 1208 02f0 01DD     		ble	.L118
 156:..\..\..\liblc3\src/spec.c **** 
 1209              		.loc 1 156 0 discriminator 4
 1210 02f2 0139     		subs	r1, r1, #1
 1211              	.LVL143:
 1212 02f4 F7E7     		b	.L85
 1213              	.L118:
 1214 02f6 8B46     		mov	fp, r1
 1215 02f8 0027     		movs	r7, #0
 1216              	.LVL144:
 1217              	.L90:
 1218              	.LBB157:
 159:..\..\..\liblc3\src/spec.c **** 
 1219              		.loc 1 159 0 is_stmt 1
 1220 02fa 5AF82B20 		ldr	r2, [r10, fp, lsl #2]
 1221              	.LVL145:
 161:..\..\..\liblc3\src/spec.c ****                  e_diff < 43 << 16 ?   e_diff + ( 7 << 16)
 1222              		.loc 1 161 0
 1223 02fe B2EB0802 		subs	r2, r2, r8
 1224              	.LVL146:
 1225 0302 08D4     		bmi	.L104
 161:..\..\..\liblc3\src/spec.c ****                  e_diff < 43 << 16 ?   e_diff + ( 7 << 16)
 1226              		.loc 1 161 0 is_stmt 0 discriminator 1
 1227 0304 2D4B     		ldr	r3, .L119+48
 1228 0306 9A42     		cmp	r2, r3
 1229 0308 CABF     		itet	gt
 1230 030a A2F59012 		subgt	r2, r2, #1179648
 1231              	.LVL147:
 1232 030e 02F5E022 		addle	r2, r2, #458752
 1233 0312 5200     		lslgt	r2, r2, #1
 1234 0314 00E0     		b	.L88
 1235              	.LVL148:
 1236              	.L104:
 161:..\..\..\liblc3\src/spec.c ****                  e_diff < 43 << 16 ?   e_diff + ( 7 << 16)
 1237              		.loc 1 161 0
 1238 0316 2A4A     		ldr	r2, .L119+52
 1239              	.LVL149:
 1240              	.L88:
 1241              	.LBE157:
 158:..\..\..\liblc3\src/spec.c ****             int e_diff = e[j].q16 - gn;
 1242              		.loc 1 158 0 is_stmt 1 discriminator 8
 1243 0318 1BF1FF3B 		adds	fp, fp, #-1
 1244              	.LVL150:
ARM GAS  C:\Users\rdn\AppData\Local\Temp\ccYcaPXH.s 			page 44


 1245              	.LBB158:
 161:..\..\..\liblc3\src/spec.c ****                  e_diff < 43 << 16 ?   e_diff + ( 7 << 16)
 1246              		.loc 1 161 0 discriminator 8
 1247 031c 1744     		add	r7, r7, r2
 1248              	.LVL151:
 1249              	.LBE158:
 158:..\..\..\liblc3\src/spec.c ****             int e_diff = e[j].q16 - gn;
 1250              		.loc 1 158 0 discriminator 8
 1251 031e ECD2     		bcs	.L90
 1252 0320 00E0     		b	.L86
 1253              	.LVL152:
 1254              	.L103:
 1255 0322 0027     		movs	r7, #0
 1256              	.LVL153:
 1257              	.L86:
 169:..\..\..\liblc3\src/spec.c ****     }
 1258              		.loc 1 169 0
 1259 0324 019B     		ldr	r3, [sp, #4]
 1260 0326 BB42     		cmp	r3, r7
 1261 0328 A8BF     		it	ge
 1262 032a 4C46     		movge	r4, r9
 1263              	.LVL154:
 1264 032c 009B     		ldr	r3, [sp]
 1265 032e B8BF     		it	lt
 1266 0330 0B46     		movlt	r3, r1
 1267              	.LBE159:
 152:..\..\..\liblc3\src/spec.c ****         int gn = (g_int - i) * k_20_28;
 1268              		.loc 1 152 0
 1269 0332 BEF1010E 		subs	lr, lr, #1
 1270              	.LBB160:
 169:..\..\..\liblc3\src/spec.c ****     }
 1271              		.loc 1 169 0
 1272 0336 0093     		str	r3, [sp]
 1273              	.LVL155:
 1274              	.LBE160:
 152:..\..\..\liblc3\src/spec.c ****         int gn = (g_int - i) * k_20_28;
 1275              		.loc 1 152 0
 1276 0338 4FEA6C0C 		asr	ip, ip, #1
 1277              	.LVL156:
 1278 033c CCD1     		bne	.L92
 1279              	.LBE161:
 174:..\..\..\liblc3\src/spec.c **** 
 1280              		.loc 1 174 0
 1281 033e DFED216A 		vldr.32	s13, .L119+56
 1282 0342 DFED217A 		vldr.32	s15, .L119+60
 176:..\..\..\liblc3\src/spec.c ****     for (int i = 128 ; i > 0; i >>= 1)
 1283              		.loc 1 176 0
 1284 0346 3060     		str	r0, [r6]
 174:..\..\..\liblc3\src/spec.c **** 
 1285              		.loc 1 174 0
 1286 0348 042D     		cmp	r5, #4
 1287 034a 88BF     		it	hi
 1288 034c F0EE676A 		vmovhi.f32	s13, s15
 1289              	.LVL157:
 176:..\..\..\liblc3\src/spec.c ****     for (int i = 128 ; i > 0; i >>= 1)
 1290              		.loc 1 176 0
 1291 0350 0821     		movs	r1, #8
ARM GAS  C:\Users\rdn\AppData\Local\Temp\ccYcaPXH.s 			page 45


 1292              	.LBB162:
 177:..\..\..\liblc3\src/spec.c ****         if (x_lim * unquantize_gain(*g_min - i) > x_max)
 1293              		.loc 1 177 0
 1294 0352 8025     		movs	r5, #128
 1295              	.LVL158:
 1296              	.L96:
 178:..\..\..\liblc3\src/spec.c ****             *g_min -= i;
 1297              		.loc 1 178 0
 1298 0354 3268     		ldr	r2, [r6]
 1299 0356 521B     		subs	r2, r2, r5
 1300 0358 1046     		mov	r0, r2
 1301 035a FFF7FEFF 		bl	unquantize_gain
 1302              	.LVL159:
 1303 035e 26EE800A 		vmul.f32	s0, s13, s0
 177:..\..\..\liblc3\src/spec.c ****         if (x_lim * unquantize_gain(*g_min - i) > x_max)
 1304              		.loc 1 177 0
 1305 0362 6D10     		asrs	r5, r5, #1
 1306              	.LVL160:
 178:..\..\..\liblc3\src/spec.c ****             *g_min -= i;
 1307              		.loc 1 178 0
 1308 0364 F4EEC08A 		vcmpe.f32	s17, s0
 1309 0368 F1EE10FA 		vmrs	APSR_nzcv, FPSCR
 179:..\..\..\liblc3\src/spec.c **** 
 1310              		.loc 1 179 0
 1311 036c 48BF     		it	mi
 1312 036e 3260     		strmi	r2, [r6]
 177:..\..\..\liblc3\src/spec.c ****         if (x_lim * unquantize_gain(*g_min - i) > x_max)
 1313              		.loc 1 177 0
 1314 0370 0139     		subs	r1, r1, #1
 1315 0372 EFD1     		bne	.L96
 1316              	.LBE162:
 181:..\..\..\liblc3\src/spec.c ****     if (*reset_off)
 1317              		.loc 1 181 0
 1318 0374 3068     		ldr	r0, [r6]
 1319 0376 8442     		cmp	r4, r0
 1320 0378 28DB     		blt	.L107
 181:..\..\..\liblc3\src/spec.c ****     if (*reset_off)
 1321              		.loc 1 181 0 is_stmt 0 discriminator 2
 1322 037a F5EE408A 		vcmp.f32	s17, #0
 1323 037e F1EE10FA 		vmrs	APSR_nzcv, FPSCR
 1324 0382 0CBF     		ite	eq
 1325 0384 0123     		moveq	r3, #1
 1326 0386 0023     		movne	r3, #0
 1327 0388 21E0     		b	.L97
 1328              	.L120:
 1329 038a 00BF     		.align	2
 1330              	.L119:
 1331 038c 00000000 		.word	lc3_ne_2m5
 1332 0390 ACC52737 		.word	925353388
 1333 0394 00000000 		.word	0
 1334 0398 CDCCCC3F 		.word	1070386381
 1335 039c 0000C049 		.word	1237319680
 1336 03a0 0093243C 		.word	1009029888
 1337 03a4 00000000 		.word	.LANCHOR0
 1338 03a8 2C26633D 		.word	1029908012
 1339 03ac 87FE753E 		.word	1047920263
 1340 03b0 1772313F 		.word	1060205079
ARM GAS  C:\Users\rdn\AppData\Local\Temp\ccYcaPXH.s 			page 46


 1341 03b4 FFE6DB2E 		.word	786163455
 1342 03b8 66660100 		.word	91750
 1343 03bc FFFF2A00 		.word	2818047
 1344 03c0 33B30200 		.word	176947
 1345 03c4 00FEFF46 		.word	1191181824
 1346 03c8 00FEFF4A 		.word	1258290688
 1347              	.L107:
 181:..\..\..\liblc3\src/spec.c ****     if (*reset_off)
 1348              		.loc 1 181 0
 1349 03cc 0123     		movs	r3, #1
 1350              	.L97:
 1351              	.LVL161:
 181:..\..\..\liblc3\src/spec.c ****     if (*reset_off)
 1352              		.loc 1 181 0 discriminator 6
 1353 03ce DDF83824 		ldr	r2, [sp, #1080]
 186:..\..\..\liblc3\src/spec.c **** 
 1354              		.loc 1 186 0 is_stmt 1 discriminator 6
 1355 03d2 002B     		cmp	r3, #0
 1356 03d4 08BF     		it	eq
 1357 03d6 2046     		moveq	r0, r4
 1358              	.LVL162:
 181:..\..\..\liblc3\src/spec.c ****     if (*reset_off)
 1359              		.loc 1 181 0 discriminator 6
 1360 03d8 1370     		strb	r3, [r2]
 186:..\..\..\liblc3\src/spec.c **** 
 1361              		.loc 1 186 0 discriminator 6
 1362 03da 0DF57D7D 		add	sp, sp, #1012
 1363              		.cfi_def_cfa_offset 60
 1364              	.LVL163:
 1365              		@ sp needed
 1366 03de BDEC068B 		vldm	sp!, {d8-d10}
 1367              		.cfi_restore 84
 1368              		.cfi_restore 85
 1369              		.cfi_restore 82
 1370              		.cfi_restore 83
 1371              		.cfi_restore 80
 1372              		.cfi_restore 81
 1373              		.cfi_def_cfa_offset 36
 1374              	.LVL164:
 1375 03e2 BDE8F08F 		pop	{r4, r5, r6, r7, r8, r9, r10, fp, pc}
 1376              		.cfi_endproc
 1377              	.LFE22:
 1378              		.size	estimate_gain, .-estimate_gain
 1379 03e6 00BF     		.section	.text.lc3_put_bits,"ax",%progbits
 1380              		.align	1
 1381              		.thumb
 1382              		.thumb_func
 1383              		.type	lc3_put_bits, %function
 1384              	lc3_put_bits:
 1385              	.LFB8:
 1386              		.file 4 "..\\..\\..\\liblc3\\src\\bits.h"
   1:..\..\..\liblc3\src/bits.h **** /******************************************************************************
   2:..\..\..\liblc3\src/bits.h ****  *
   3:..\..\..\liblc3\src/bits.h ****  *  Copyright 2022 Google LLC
   4:..\..\..\liblc3\src/bits.h ****  *
   5:..\..\..\liblc3\src/bits.h ****  *  Licensed under the Apache License, Version 2.0 (the "License");
   6:..\..\..\liblc3\src/bits.h ****  *  you may not use this file except in compliance with the License.
ARM GAS  C:\Users\rdn\AppData\Local\Temp\ccYcaPXH.s 			page 47


   7:..\..\..\liblc3\src/bits.h ****  *  You may obtain a copy of the License at:
   8:..\..\..\liblc3\src/bits.h ****  *
   9:..\..\..\liblc3\src/bits.h ****  *  http://www.apache.org/licenses/LICENSE-2.0
  10:..\..\..\liblc3\src/bits.h ****  *
  11:..\..\..\liblc3\src/bits.h ****  *  Unless required by applicable law or agreed to in writing, software
  12:..\..\..\liblc3\src/bits.h ****  *  distributed under the License is distributed on an "AS IS" BASIS,
  13:..\..\..\liblc3\src/bits.h ****  *  WITHOUT WARRANTIES OR CONDITIONS OF ANY KIND, either express or implied.
  14:..\..\..\liblc3\src/bits.h ****  *  See the License for the specific language governing permissions and
  15:..\..\..\liblc3\src/bits.h ****  *  limitations under the License.
  16:..\..\..\liblc3\src/bits.h ****  *
  17:..\..\..\liblc3\src/bits.h ****  ******************************************************************************/
  18:..\..\..\liblc3\src/bits.h **** 
  19:..\..\..\liblc3\src/bits.h **** /**
  20:..\..\..\liblc3\src/bits.h ****  * The bitstream is written by the 2 ends of the buffer :
  21:..\..\..\liblc3\src/bits.h ****  *
  22:..\..\..\liblc3\src/bits.h ****  * - Arthmetic coder put bits while increasing memory addresses
  23:..\..\..\liblc3\src/bits.h ****  *   in the buffer (forward)
  24:..\..\..\liblc3\src/bits.h ****  *
  25:..\..\..\liblc3\src/bits.h ****  * - Plain bits are puts starting the end of the buffer, with memeory
  26:..\..\..\liblc3\src/bits.h ****  *   addresses decreasing (backward)
  27:..\..\..\liblc3\src/bits.h ****  *
  28:..\..\..\liblc3\src/bits.h ****  *       .---------------------------------------------------.
  29:..\..\..\liblc3\src/bits.h ****  *       | > > > > > > > > > > :         : < < < < < < < < < |
  30:..\..\..\liblc3\src/bits.h ****  *       '---------------------------------------------------'
  31:..\..\..\liblc3\src/bits.h ****  *       |---------------------> - - - - - - - - - - - - - ->|
  32:..\..\..\liblc3\src/bits.h ****  *                              |< - - - <-------------------|
  33:..\..\..\liblc3\src/bits.h ****  *          Arithmetic coding                  Plain bits
  34:..\..\..\liblc3\src/bits.h ****  *          `lc3_put_symbol()`               `lc3_put_bits()`
  35:..\..\..\liblc3\src/bits.h ****  *
  36:..\..\..\liblc3\src/bits.h ****  * - The forward writing is protected against buffer overflow, it cannot
  37:..\..\..\liblc3\src/bits.h ****  *   write after the buffer, but can overwrite plain bits previously
  38:..\..\..\liblc3\src/bits.h ****  *   written in the buffer.
  39:..\..\..\liblc3\src/bits.h ****  *
  40:..\..\..\liblc3\src/bits.h ****  * - The backward writing is protected against overwrite of the arithmetic
  41:..\..\..\liblc3\src/bits.h ****  *   coder bitstream. In such way, the backward bitstream is always limited
  42:..\..\..\liblc3\src/bits.h ****  *   by the aritmetic coder bitstream, and can be overwritten by him.
  43:..\..\..\liblc3\src/bits.h ****  *
  44:..\..\..\liblc3\src/bits.h ****  *       .---------------------------------------------------.
  45:..\..\..\liblc3\src/bits.h ****  *       | > > > > > > > > > > :         : < < < < < < < < < |
  46:..\..\..\liblc3\src/bits.h ****  *       '---------------------------------------------------'
  47:..\..\..\liblc3\src/bits.h ****  *       |---------------------> - - - - - - - - - - - - - ->|
  48:..\..\..\liblc3\src/bits.h ****  *       |< - - - - - - - - - - -  - - - <-------------------|
  49:..\..\..\liblc3\src/bits.h ****  *          Arithmetic coding                  Plain bits
  50:..\..\..\liblc3\src/bits.h ****  *          `lc3_get_symbol()`               `lc3_get_bits()`
  51:..\..\..\liblc3\src/bits.h ****  *
  52:..\..\..\liblc3\src/bits.h ****  * - Reading is limited to read of the complementary end of the buffer.
  53:..\..\..\liblc3\src/bits.h ****  *
  54:..\..\..\liblc3\src/bits.h ****  * - The procedure `lc3_check_bits()` returns indication that read has been
  55:..\..\..\liblc3\src/bits.h ****  *   made crossing the other bit plane.
  56:..\..\..\liblc3\src/bits.h ****  *
  57:..\..\..\liblc3\src/bits.h ****  */
  58:..\..\..\liblc3\src/bits.h **** 
  59:..\..\..\liblc3\src/bits.h **** #ifndef __LC3_BITS_H
  60:..\..\..\liblc3\src/bits.h **** #define __LC3_BITS_H
  61:..\..\..\liblc3\src/bits.h **** 
  62:..\..\..\liblc3\src/bits.h **** #include "common.h"
  63:..\..\..\liblc3\src/bits.h **** 
ARM GAS  C:\Users\rdn\AppData\Local\Temp\ccYcaPXH.s 			page 48


  64:..\..\..\liblc3\src/bits.h **** 
  65:..\..\..\liblc3\src/bits.h **** /**
  66:..\..\..\liblc3\src/bits.h ****  * Bitstream mode
  67:..\..\..\liblc3\src/bits.h ****  */
  68:..\..\..\liblc3\src/bits.h **** 
  69:..\..\..\liblc3\src/bits.h **** enum lc3_bits_mode {
  70:..\..\..\liblc3\src/bits.h ****     LC3_BITS_MODE_READ,
  71:..\..\..\liblc3\src/bits.h ****     LC3_BITS_MODE_WRITE,
  72:..\..\..\liblc3\src/bits.h **** };
  73:..\..\..\liblc3\src/bits.h **** 
  74:..\..\..\liblc3\src/bits.h **** /**
  75:..\..\..\liblc3\src/bits.h ****  * Arithmetic coder symbol interval
  76:..\..\..\liblc3\src/bits.h ****  * The model split the interval in 17 symbols
  77:..\..\..\liblc3\src/bits.h ****  */
  78:..\..\..\liblc3\src/bits.h **** 
  79:..\..\..\liblc3\src/bits.h **** struct lc3_ac_symbol {
  80:..\..\..\liblc3\src/bits.h ****     uint16_t low   : 16;
  81:..\..\..\liblc3\src/bits.h ****     uint16_t range : 16;
  82:..\..\..\liblc3\src/bits.h **** };
  83:..\..\..\liblc3\src/bits.h **** 
  84:..\..\..\liblc3\src/bits.h **** struct lc3_ac_model {
  85:..\..\..\liblc3\src/bits.h ****     struct lc3_ac_symbol s[17];
  86:..\..\..\liblc3\src/bits.h **** };
  87:..\..\..\liblc3\src/bits.h **** 
  88:..\..\..\liblc3\src/bits.h **** /**
  89:..\..\..\liblc3\src/bits.h ****  * Bitstream context
  90:..\..\..\liblc3\src/bits.h ****  */
  91:..\..\..\liblc3\src/bits.h **** 
  92:..\..\..\liblc3\src/bits.h **** #define LC3_ACCU_BITS (int)(8 * sizeof(unsigned))
  93:..\..\..\liblc3\src/bits.h **** 
  94:..\..\..\liblc3\src/bits.h **** struct lc3_bits_accu {
  95:..\..\..\liblc3\src/bits.h ****     unsigned v;
  96:..\..\..\liblc3\src/bits.h ****     int n, nover;
  97:..\..\..\liblc3\src/bits.h **** };
  98:..\..\..\liblc3\src/bits.h **** 
  99:..\..\..\liblc3\src/bits.h **** #define LC3_AC_BITS (int)(24)
 100:..\..\..\liblc3\src/bits.h **** 
 101:..\..\..\liblc3\src/bits.h **** struct lc3_bits_ac {
 102:..\..\..\liblc3\src/bits.h ****     unsigned low, range;
 103:..\..\..\liblc3\src/bits.h ****     int cache, carry, carry_count;
 104:..\..\..\liblc3\src/bits.h ****     bool error;
 105:..\..\..\liblc3\src/bits.h **** };
 106:..\..\..\liblc3\src/bits.h **** 
 107:..\..\..\liblc3\src/bits.h **** struct lc3_bits_buffer {
 108:..\..\..\liblc3\src/bits.h ****     const uint8_t *start, *end;
 109:..\..\..\liblc3\src/bits.h ****     uint8_t *p_fw, *p_bw;
 110:..\..\..\liblc3\src/bits.h **** };
 111:..\..\..\liblc3\src/bits.h **** 
 112:..\..\..\liblc3\src/bits.h **** typedef struct lc3_bits {
 113:..\..\..\liblc3\src/bits.h ****     enum lc3_bits_mode mode;
 114:..\..\..\liblc3\src/bits.h ****     struct lc3_bits_ac ac;
 115:..\..\..\liblc3\src/bits.h ****     struct lc3_bits_accu accu;
 116:..\..\..\liblc3\src/bits.h ****     struct lc3_bits_buffer buffer;
 117:..\..\..\liblc3\src/bits.h **** } lc3_bits_t;
 118:..\..\..\liblc3\src/bits.h **** 
 119:..\..\..\liblc3\src/bits.h **** 
 120:..\..\..\liblc3\src/bits.h **** /**
ARM GAS  C:\Users\rdn\AppData\Local\Temp\ccYcaPXH.s 			page 49


 121:..\..\..\liblc3\src/bits.h ****  * Setup bitstream reading/writing
 122:..\..\..\liblc3\src/bits.h ****  * bits            Bitstream context
 123:..\..\..\liblc3\src/bits.h ****  * mode            Either READ or WRITE mode
 124:..\..\..\liblc3\src/bits.h ****  * buffer, len     Output buffer and length (in bytes)
 125:..\..\..\liblc3\src/bits.h ****  */
 126:..\..\..\liblc3\src/bits.h **** void lc3_setup_bits(lc3_bits_t *bits,
 127:..\..\..\liblc3\src/bits.h ****     enum lc3_bits_mode mode, void *buffer, int len);
 128:..\..\..\liblc3\src/bits.h **** 
 129:..\..\..\liblc3\src/bits.h **** /**
 130:..\..\..\liblc3\src/bits.h ****  * Return number of bits left in the bitstream
 131:..\..\..\liblc3\src/bits.h ****  * bits            Bitstream context
 132:..\..\..\liblc3\src/bits.h ****  * return          Number of bits left
 133:..\..\..\liblc3\src/bits.h ****  */
 134:..\..\..\liblc3\src/bits.h **** int lc3_get_bits_left(const lc3_bits_t *bits);
 135:..\..\..\liblc3\src/bits.h **** 
 136:..\..\..\liblc3\src/bits.h **** /**
 137:..\..\..\liblc3\src/bits.h ****  * Check if error occured on bitstream reading/writing
 138:..\..\..\liblc3\src/bits.h ****  * bits            Bitstream context
 139:..\..\..\liblc3\src/bits.h ****  * return          0: Ok  -1: Bitstream overflow or AC reading error
 140:..\..\..\liblc3\src/bits.h ****  */
 141:..\..\..\liblc3\src/bits.h **** int lc3_check_bits(const lc3_bits_t *bits);
 142:..\..\..\liblc3\src/bits.h **** 
 143:..\..\..\liblc3\src/bits.h **** /**
 144:..\..\..\liblc3\src/bits.h ****  * Put a bit
 145:..\..\..\liblc3\src/bits.h ****  * bits            Bitstream context
 146:..\..\..\liblc3\src/bits.h ****  * v               Bit value, 0 or 1
 147:..\..\..\liblc3\src/bits.h ****  */
 148:..\..\..\liblc3\src/bits.h **** static inline void lc3_put_bit(lc3_bits_t *bits, int v);
 149:..\..\..\liblc3\src/bits.h **** 
 150:..\..\..\liblc3\src/bits.h **** /**
 151:..\..\..\liblc3\src/bits.h ****  * Put from 1 to 32 bits
 152:..\..\..\liblc3\src/bits.h ****  * bits            Bitstream context
 153:..\..\..\liblc3\src/bits.h ****  * v, n            Value, in range 0 to 2^n - 1, and bits count (1 to 32)
 154:..\..\..\liblc3\src/bits.h ****  */
 155:..\..\..\liblc3\src/bits.h **** static inline void lc3_put_bits(lc3_bits_t *bits, unsigned v, int n);
 156:..\..\..\liblc3\src/bits.h **** 
 157:..\..\..\liblc3\src/bits.h **** /**
 158:..\..\..\liblc3\src/bits.h ****  * Put arithmetic coder symbol
 159:..\..\..\liblc3\src/bits.h ****  * bits            Bitstream context
 160:..\..\..\liblc3\src/bits.h ****  * model, s        Model distribution and symbol value
 161:..\..\..\liblc3\src/bits.h ****  */
 162:..\..\..\liblc3\src/bits.h **** static inline void lc3_put_symbol(lc3_bits_t *bits,
 163:..\..\..\liblc3\src/bits.h ****     const struct lc3_ac_model *model, unsigned s);
 164:..\..\..\liblc3\src/bits.h **** 
 165:..\..\..\liblc3\src/bits.h **** /**
 166:..\..\..\liblc3\src/bits.h ****  * Flush and terminate bitstream writing
 167:..\..\..\liblc3\src/bits.h ****  * bits            Bitstream context
 168:..\..\..\liblc3\src/bits.h ****  */
 169:..\..\..\liblc3\src/bits.h **** void lc3_flush_bits(lc3_bits_t *bits);
 170:..\..\..\liblc3\src/bits.h **** 
 171:..\..\..\liblc3\src/bits.h **** /**
 172:..\..\..\liblc3\src/bits.h ****  * Get a bit
 173:..\..\..\liblc3\src/bits.h ****  * bits            Bitstream context
 174:..\..\..\liblc3\src/bits.h ****  */
 175:..\..\..\liblc3\src/bits.h **** static inline int lc3_get_bit(lc3_bits_t *bits);
 176:..\..\..\liblc3\src/bits.h **** 
 177:..\..\..\liblc3\src/bits.h **** /**
ARM GAS  C:\Users\rdn\AppData\Local\Temp\ccYcaPXH.s 			page 50


 178:..\..\..\liblc3\src/bits.h ****  * Get from 1 to 32 bits
 179:..\..\..\liblc3\src/bits.h ****  * bits            Bitstream context
 180:..\..\..\liblc3\src/bits.h ****  * n               Number of bits to read (1 to 32)
 181:..\..\..\liblc3\src/bits.h ****  * return          The value read
 182:..\..\..\liblc3\src/bits.h ****  */
 183:..\..\..\liblc3\src/bits.h **** static inline unsigned lc3_get_bits(lc3_bits_t *bits,  int n);
 184:..\..\..\liblc3\src/bits.h **** 
 185:..\..\..\liblc3\src/bits.h **** /**
 186:..\..\..\liblc3\src/bits.h ****  * Get arithmetic coder symbol
 187:..\..\..\liblc3\src/bits.h ****  * bits            Bitstream context
 188:..\..\..\liblc3\src/bits.h ****  * model           Model distribution
 189:..\..\..\liblc3\src/bits.h ****  * return          The value read
 190:..\..\..\liblc3\src/bits.h ****  */
 191:..\..\..\liblc3\src/bits.h **** static inline unsigned lc3_get_symbol(lc3_bits_t *bits,
 192:..\..\..\liblc3\src/bits.h ****     const struct lc3_ac_model *model);
 193:..\..\..\liblc3\src/bits.h **** 
 194:..\..\..\liblc3\src/bits.h **** 
 195:..\..\..\liblc3\src/bits.h **** 
 196:..\..\..\liblc3\src/bits.h **** /* ----------------------------------------------------------------------------
 197:..\..\..\liblc3\src/bits.h ****  *  Inline implementations
 198:..\..\..\liblc3\src/bits.h ****  * -------------------------------------------------------------------------- */
 199:..\..\..\liblc3\src/bits.h **** 
 200:..\..\..\liblc3\src/bits.h **** void lc3_put_bits_generic(lc3_bits_t *bits, unsigned v, int n);
 201:..\..\..\liblc3\src/bits.h **** unsigned lc3_get_bits_generic(struct lc3_bits *bits, int n);
 202:..\..\..\liblc3\src/bits.h **** 
 203:..\..\..\liblc3\src/bits.h **** void lc3_ac_read_renorm(lc3_bits_t *bits);
 204:..\..\..\liblc3\src/bits.h **** void lc3_ac_write_renorm(lc3_bits_t *bits);
 205:..\..\..\liblc3\src/bits.h **** 
 206:..\..\..\liblc3\src/bits.h **** 
 207:..\..\..\liblc3\src/bits.h **** /**
 208:..\..\..\liblc3\src/bits.h ****  * Put a bit
 209:..\..\..\liblc3\src/bits.h ****  */
 210:..\..\..\liblc3\src/bits.h **** LC3_HOT static inline void lc3_put_bit(lc3_bits_t *bits, int v)
 211:..\..\..\liblc3\src/bits.h **** {
 212:..\..\..\liblc3\src/bits.h ****     lc3_put_bits(bits, v, 1);
 213:..\..\..\liblc3\src/bits.h **** }
 214:..\..\..\liblc3\src/bits.h **** 
 215:..\..\..\liblc3\src/bits.h **** /**
 216:..\..\..\liblc3\src/bits.h ****  * Put from 1 to 32 bits
 217:..\..\..\liblc3\src/bits.h ****  */
 218:..\..\..\liblc3\src/bits.h **** LC3_HOT static inline void lc3_put_bits(
 219:..\..\..\liblc3\src/bits.h ****     struct lc3_bits *bits, unsigned v, int n)
 220:..\..\..\liblc3\src/bits.h **** {
 1387              		.loc 4 220 0
 1388              		.cfi_startproc
 1389              		@ args = 0, pretend = 0, frame = 0
 1390              		@ frame_needed = 0, uses_anonymous_args = 0
 1391              		@ link register save eliminated.
 1392              	.LVL165:
 1393 0000 70B4     		push	{r4, r5, r6}
 1394              		.cfi_def_cfa_offset 12
 1395              		.cfi_offset 4, -12
 1396              		.cfi_offset 5, -8
 1397              		.cfi_offset 6, -4
 221:..\..\..\liblc3\src/bits.h ****     struct lc3_bits_accu *accu = &bits->accu;
 222:..\..\..\liblc3\src/bits.h **** 
 223:..\..\..\liblc3\src/bits.h ****     if (accu->n + n <= LC3_ACCU_BITS) {
ARM GAS  C:\Users\rdn\AppData\Local\Temp\ccYcaPXH.s 			page 51


 1398              		.loc 4 223 0
 1399 0002 066A     		ldr	r6, [r0, #32]
 1400 0004 B518     		adds	r5, r6, r2
 1401 0006 202D     		cmp	r5, #32
 220:..\..\..\liblc3\src/bits.h ****     struct lc3_bits_accu *accu = &bits->accu;
 1402              		.loc 4 220 0
 1403 0008 0B46     		mov	r3, r1
 1404              		.loc 4 223 0
 1405 000a 06DC     		bgt	.L122
 224:..\..\..\liblc3\src/bits.h ****         accu->v |= v << accu->n;
 1406              		.loc 4 224 0
 1407 000c C269     		ldr	r2, [r0, #28]
 1408              	.LVL166:
 225:..\..\..\liblc3\src/bits.h ****         accu->n += n;
 1409              		.loc 4 225 0
 1410 000e 0562     		str	r5, [r0, #32]
 224:..\..\..\liblc3\src/bits.h ****         accu->v |= v << accu->n;
 1411              		.loc 4 224 0
 1412 0010 B340     		lsls	r3, r3, r6
 1413 0012 1343     		orrs	r3, r3, r2
 1414 0014 C361     		str	r3, [r0, #28]
 226:..\..\..\liblc3\src/bits.h ****     } else {
 227:..\..\..\liblc3\src/bits.h ****         lc3_put_bits_generic(bits, v, n);
 228:..\..\..\liblc3\src/bits.h ****     }
 229:..\..\..\liblc3\src/bits.h **** }
 1415              		.loc 4 229 0
 1416 0016 70BC     		pop	{r4, r5, r6}
 1417              		.cfi_remember_state
 1418              		.cfi_restore 6
 1419              		.cfi_restore 5
 1420              		.cfi_restore 4
 1421              		.cfi_def_cfa_offset 0
 1422 0018 7047     		bx	lr
 1423              	.LVL167:
 1424              	.L122:
 1425              		.cfi_restore_state
 1426 001a 70BC     		pop	{r4, r5, r6}
 1427              		.cfi_restore 6
 1428              		.cfi_restore 5
 1429              		.cfi_restore 4
 1430              		.cfi_def_cfa_offset 0
 227:..\..\..\liblc3\src/bits.h ****     }
 1431              		.loc 4 227 0
 1432 001c FFF7FEBF 		b	lc3_put_bits_generic
 1433              	.LVL168:
 1434              		.cfi_endproc
 1435              	.LFE8:
 1436              		.size	lc3_put_bits, .-lc3_put_bits
 1437              		.section	.text.lc3_put_bit,"ax",%progbits
 1438              		.align	1
 1439              		.thumb
 1440              		.thumb_func
 1441              		.type	lc3_put_bit, %function
 1442              	lc3_put_bit:
 1443              	.LFB7:
 211:..\..\..\liblc3\src/bits.h ****     lc3_put_bits(bits, v, 1);
 1444              		.loc 4 211 0
ARM GAS  C:\Users\rdn\AppData\Local\Temp\ccYcaPXH.s 			page 52


 1445              		.cfi_startproc
 1446              		@ args = 0, pretend = 0, frame = 0
 1447              		@ frame_needed = 0, uses_anonymous_args = 0
 1448              		@ link register save eliminated.
 1449              	.LVL169:
 212:..\..\..\liblc3\src/bits.h **** }
 1450              		.loc 4 212 0
 1451 0000 0122     		movs	r2, #1
 1452 0002 FFF7FEBF 		b	lc3_put_bits
 1453              	.LVL170:
 1454              		.cfi_endproc
 1455              	.LFE7:
 1456              		.size	lc3_put_bit, .-lc3_put_bit
 1457              		.section	.text.lc3_put_symbol,"ax",%progbits
 1458              		.align	1
 1459              		.thumb
 1460              		.thumb_func
 1461              		.type	lc3_put_symbol, %function
 1462              	lc3_put_symbol:
 1463              	.LFB11:
 230:..\..\..\liblc3\src/bits.h **** 
 231:..\..\..\liblc3\src/bits.h **** /**
 232:..\..\..\liblc3\src/bits.h ****  * Get a bit
 233:..\..\..\liblc3\src/bits.h ****  */
 234:..\..\..\liblc3\src/bits.h **** LC3_HOT static inline int lc3_get_bit(lc3_bits_t *bits)
 235:..\..\..\liblc3\src/bits.h **** {
 236:..\..\..\liblc3\src/bits.h ****     return lc3_get_bits(bits, 1);
 237:..\..\..\liblc3\src/bits.h **** }
 238:..\..\..\liblc3\src/bits.h **** 
 239:..\..\..\liblc3\src/bits.h **** /**
 240:..\..\..\liblc3\src/bits.h ****  * Get from 1 to 32 bits
 241:..\..\..\liblc3\src/bits.h ****  */
 242:..\..\..\liblc3\src/bits.h **** LC3_HOT static inline unsigned lc3_get_bits(struct lc3_bits *bits, int n)
 243:..\..\..\liblc3\src/bits.h **** {
 244:..\..\..\liblc3\src/bits.h ****     struct lc3_bits_accu *accu = &bits->accu;
 245:..\..\..\liblc3\src/bits.h **** 
 246:..\..\..\liblc3\src/bits.h ****     if (accu->n + n <= LC3_ACCU_BITS) {
 247:..\..\..\liblc3\src/bits.h ****         int v = (accu->v >> accu->n) & ((1u << n) - 1);
 248:..\..\..\liblc3\src/bits.h ****         return (accu->n += n), v;
 249:..\..\..\liblc3\src/bits.h ****     }
 250:..\..\..\liblc3\src/bits.h ****     else {
 251:..\..\..\liblc3\src/bits.h ****         return lc3_get_bits_generic(bits, n);
 252:..\..\..\liblc3\src/bits.h ****     }
 253:..\..\..\liblc3\src/bits.h **** }
 254:..\..\..\liblc3\src/bits.h **** 
 255:..\..\..\liblc3\src/bits.h **** /**
 256:..\..\..\liblc3\src/bits.h ****  * Put arithmetic coder symbol
 257:..\..\..\liblc3\src/bits.h ****  */
 258:..\..\..\liblc3\src/bits.h **** LC3_HOT static inline void lc3_put_symbol(
 259:..\..\..\liblc3\src/bits.h ****     struct lc3_bits *bits, const struct lc3_ac_model *model, unsigned s)
 260:..\..\..\liblc3\src/bits.h **** {
 1464              		.loc 4 260 0
 1465              		.cfi_startproc
 1466              		@ args = 0, pretend = 0, frame = 0
 1467              		@ frame_needed = 0, uses_anonymous_args = 0
 1468              		@ link register save eliminated.
 1469              	.LVL171:
ARM GAS  C:\Users\rdn\AppData\Local\Temp\ccYcaPXH.s 			page 53


 261:..\..\..\liblc3\src/bits.h ****     const struct lc3_ac_symbol *symbols = model->s;
 262:..\..\..\liblc3\src/bits.h ****     struct lc3_bits_ac *ac = &bits->ac;
 263:..\..\..\liblc3\src/bits.h ****     unsigned range = ac->range >> 10;
 1470              		.loc 4 263 0
 1471 0000 8368     		ldr	r3, [r0, #8]
 260:..\..\..\liblc3\src/bits.h ****     const struct lc3_ac_symbol *symbols = model->s;
 1472              		.loc 4 260 0
 1473 0002 30B4     		push	{r4, r5}
 1474              		.cfi_def_cfa_offset 8
 1475              		.cfi_offset 4, -8
 1476              		.cfi_offset 5, -4
 264:..\..\..\liblc3\src/bits.h **** 
 265:..\..\..\liblc3\src/bits.h ****     ac->low += range * symbols[s].low;
 1477              		.loc 4 265 0
 1478 0004 01EB8205 		add	r5, r1, r2, lsl #2
 1479 0008 31F82220 		ldrh	r2, [r1, r2, lsl #2]
 1480              	.LVL172:
 1481 000c 4168     		ldr	r1, [r0, #4]
 1482              	.LVL173:
 263:..\..\..\liblc3\src/bits.h **** 
 1483              		.loc 4 263 0
 1484 000e 9B0A     		lsrs	r3, r3, #10
 1485              	.LVL174:
 1486              		.loc 4 265 0
 1487 0010 03FB0212 		mla	r2, r3, r2, r1
 266:..\..\..\liblc3\src/bits.h ****     ac->range = range * symbols[s].range;
 1488              		.loc 4 266 0
 1489 0014 6988     		ldrh	r1, [r5, #2]
 1490 0016 4B43     		muls	r3, r1, r3
 1491              	.LVL175:
 267:..\..\..\liblc3\src/bits.h **** 
 268:..\..\..\liblc3\src/bits.h ****     ac->carry |= ac->low >> 24;
 1492              		.loc 4 268 0
 1493 0018 0169     		ldr	r1, [r0, #16]
 266:..\..\..\liblc3\src/bits.h ****     ac->range = range * symbols[s].range;
 1494              		.loc 4 266 0
 1495 001a 8360     		str	r3, [r0, #8]
 1496              	.LVL176:
 1497              		.loc 4 268 0
 1498 001c 41EA1261 		orr	r1, r1, r2, lsr #24
 269:..\..\..\liblc3\src/bits.h ****     ac->low &= 0xffffff;
 270:..\..\..\liblc3\src/bits.h **** 
 271:..\..\..\liblc3\src/bits.h ****     if (ac->range < 0x10000)
 1499              		.loc 4 271 0
 1500 0020 B3F5803F 		cmp	r3, #65536
 269:..\..\..\liblc3\src/bits.h ****     ac->low &= 0xffffff;
 1501              		.loc 4 269 0
 1502 0024 22F07F42 		bic	r2, r2, #-16777216
 268:..\..\..\liblc3\src/bits.h ****     ac->low &= 0xffffff;
 1503              		.loc 4 268 0
 1504 0028 0161     		str	r1, [r0, #16]
 269:..\..\..\liblc3\src/bits.h ****     ac->low &= 0xffffff;
 1505              		.loc 4 269 0
 1506 002a 4260     		str	r2, [r0, #4]
 1507              		.loc 4 271 0
 1508 002c 02D2     		bcs	.L126
 272:..\..\..\liblc3\src/bits.h ****         lc3_ac_write_renorm(bits);
ARM GAS  C:\Users\rdn\AppData\Local\Temp\ccYcaPXH.s 			page 54


 273:..\..\..\liblc3\src/bits.h **** }
 1509              		.loc 4 273 0
 1510 002e 30BC     		pop	{r4, r5}
 1511              		.cfi_remember_state
 1512              		.cfi_restore 5
 1513              		.cfi_restore 4
 1514              		.cfi_def_cfa_offset 0
 272:..\..\..\liblc3\src/bits.h ****         lc3_ac_write_renorm(bits);
 1515              		.loc 4 272 0
 1516 0030 FFF7FEBF 		b	lc3_ac_write_renorm
 1517              	.LVL177:
 1518              	.L126:
 1519              		.cfi_restore_state
 1520              		.loc 4 273 0
 1521 0034 30BC     		pop	{r4, r5}
 1522              		.cfi_restore 5
 1523              		.cfi_restore 4
 1524              		.cfi_def_cfa_offset 0
 1525 0036 7047     		bx	lr
 1526              		.cfi_endproc
 1527              	.LFE11:
 1528              		.size	lc3_put_symbol, .-lc3_put_symbol
 1529              		.section	.text.lc3_get_bits,"ax",%progbits
 1530              		.align	1
 1531              		.thumb
 1532              		.thumb_func
 1533              		.type	lc3_get_bits, %function
 1534              	lc3_get_bits:
 1535              	.LFB10:
 243:..\..\..\liblc3\src/bits.h ****     struct lc3_bits_accu *accu = &bits->accu;
 1536              		.loc 4 243 0
 1537              		.cfi_startproc
 1538              		@ args = 0, pretend = 0, frame = 0
 1539              		@ frame_needed = 0, uses_anonymous_args = 0
 1540              		@ link register save eliminated.
 1541              	.LVL178:
 1542 0000 30B4     		push	{r4, r5}
 1543              		.cfi_def_cfa_offset 8
 1544              		.cfi_offset 4, -8
 1545              		.cfi_offset 5, -4
 246:..\..\..\liblc3\src/bits.h ****         int v = (accu->v >> accu->n) & ((1u << n) - 1);
 1546              		.loc 4 246 0
 1547 0002 056A     		ldr	r5, [r0, #32]
 1548 0004 6A18     		adds	r2, r5, r1
 1549 0006 202A     		cmp	r2, #32
 243:..\..\..\liblc3\src/bits.h ****     struct lc3_bits_accu *accu = &bits->accu;
 1550              		.loc 4 243 0
 1551 0008 0346     		mov	r3, r0
 1552 000a 0C46     		mov	r4, r1
 246:..\..\..\liblc3\src/bits.h ****         int v = (accu->v >> accu->n) & ((1u << n) - 1);
 1553              		.loc 4 246 0
 1554 000c 02DD     		ble	.L132
 253:..\..\..\liblc3\src/bits.h **** 
 1555              		.loc 4 253 0
 1556 000e 30BC     		pop	{r4, r5}
 1557              		.cfi_remember_state
 1558              		.cfi_restore 5
ARM GAS  C:\Users\rdn\AppData\Local\Temp\ccYcaPXH.s 			page 55


 1559              		.cfi_restore 4
 1560              		.cfi_def_cfa_offset 0
 251:..\..\..\liblc3\src/bits.h ****     }
 1561              		.loc 4 251 0
 1562 0010 FFF7FEBF 		b	lc3_get_bits_generic
 1563              	.LVL179:
 1564              	.L132:
 1565              		.cfi_restore_state
 1566              	.LBB163:
 247:..\..\..\liblc3\src/bits.h ****         return (accu->n += n), v;
 1567              		.loc 4 247 0
 1568 0014 C069     		ldr	r0, [r0, #28]
 1569              	.LVL180:
 248:..\..\..\liblc3\src/bits.h ****     }
 1570              		.loc 4 248 0
 1571 0016 1A62     		str	r2, [r3, #32]
 247:..\..\..\liblc3\src/bits.h ****         return (accu->n += n), v;
 1572              		.loc 4 247 0
 1573 0018 0121     		movs	r1, #1
 1574              	.LVL181:
 1575 001a A140     		lsls	r1, r1, r4
 1576 001c E840     		lsrs	r0, r0, r5
 1577 001e 0139     		subs	r1, r1, #1
 1578 0020 0840     		ands	r0, r0, r1
 1579              	.LVL182:
 1580              	.LBE163:
 253:..\..\..\liblc3\src/bits.h **** 
 1581              		.loc 4 253 0
 1582 0022 30BC     		pop	{r4, r5}
 1583              		.cfi_restore 5
 1584              		.cfi_restore 4
 1585              		.cfi_def_cfa_offset 0
 1586              	.LVL183:
 1587 0024 7047     		bx	lr
 1588              		.cfi_endproc
 1589              	.LFE10:
 1590              		.size	lc3_get_bits, .-lc3_get_bits
 1591              		.section	.text.lc3_get_bit,"ax",%progbits
 1592              		.align	1
 1593              		.thumb
 1594              		.thumb_func
 1595              		.type	lc3_get_bit, %function
 1596              	lc3_get_bit:
 1597              	.LFB9:
 235:..\..\..\liblc3\src/bits.h ****     return lc3_get_bits(bits, 1);
 1598              		.loc 4 235 0
 1599              		.cfi_startproc
 1600              		@ args = 0, pretend = 0, frame = 0
 1601              		@ frame_needed = 0, uses_anonymous_args = 0
 1602              		@ link register save eliminated.
 1603              	.LVL184:
 236:..\..\..\liblc3\src/bits.h **** }
 1604              		.loc 4 236 0
 1605 0000 0121     		movs	r1, #1
 1606 0002 FFF7FEBF 		b	lc3_get_bits
 1607              	.LVL185:
 1608              		.cfi_endproc
ARM GAS  C:\Users\rdn\AppData\Local\Temp\ccYcaPXH.s 			page 56


 1609              	.LFE9:
 1610              		.size	lc3_get_bit, .-lc3_get_bit
 1611              		.section	.text.lc3_get_symbol,"ax",%progbits
 1612              		.align	1
 1613              		.thumb
 1614              		.thumb_func
 1615              		.type	lc3_get_symbol, %function
 1616              	lc3_get_symbol:
 1617              	.LFB12:
 274:..\..\..\liblc3\src/bits.h **** 
 275:..\..\..\liblc3\src/bits.h **** /**
 276:..\..\..\liblc3\src/bits.h ****  * Get arithmetic coder symbol
 277:..\..\..\liblc3\src/bits.h ****  */
 278:..\..\..\liblc3\src/bits.h **** LC3_HOT static inline unsigned lc3_get_symbol(
 279:..\..\..\liblc3\src/bits.h ****     lc3_bits_t *bits, const struct lc3_ac_model *model)
 280:..\..\..\liblc3\src/bits.h **** {
 1618              		.loc 4 280 0
 1619              		.cfi_startproc
 1620              		@ args = 0, pretend = 0, frame = 0
 1621              		@ frame_needed = 0, uses_anonymous_args = 0
 1622              	.LVL186:
 1623 0000 70B5     		push	{r4, r5, r6, lr}
 1624              		.cfi_def_cfa_offset 16
 1625              		.cfi_offset 4, -16
 1626              		.cfi_offset 5, -12
 1627              		.cfi_offset 6, -8
 1628              		.cfi_offset 14, -4
 281:..\..\..\liblc3\src/bits.h ****     const struct lc3_ac_symbol *symbols = model->s;
 282:..\..\..\liblc3\src/bits.h ****     struct lc3_bits_ac *ac = &bits->ac;
 283:..\..\..\liblc3\src/bits.h **** 
 284:..\..\..\liblc3\src/bits.h ****     unsigned range = (ac->range >> 10) & 0xffff;
 1629              		.loc 4 284 0
 1630 0002 8568     		ldr	r5, [r0, #8]
 1631 0004 4368     		ldr	r3, [r0, #4]
 1632 0006 C5F38F25 		ubfx	r5, r5, #10, #16
 1633              	.LVL187:
 1634 000a B3EB852F 		cmp	r3, r5, lsl #10
 1635 000e 037E     		ldrb	r3, [r0, #24]	@ zero_extendqisi2
 1636 0010 28BF     		it	cs
 1637 0012 43F00103 		orrcs	r3, r3, #1
 285:..\..\..\liblc3\src/bits.h **** 
 286:..\..\..\liblc3\src/bits.h ****     ac->error |= (ac->low >= (range << 10));
 1638              		.loc 4 286 0
 1639 0016 0376     		strb	r3, [r0, #24]
 287:..\..\..\liblc3\src/bits.h ****     if (ac->error)
 1640              		.loc 4 287 0
 1641 0018 0BB1     		cbz	r3, .L135
 288:..\..\..\liblc3\src/bits.h ****         ac->low = 0;
 1642              		.loc 4 288 0
 1643 001a 0023     		movs	r3, #0
 1644 001c 4360     		str	r3, [r0, #4]
 1645              	.L135:
 1646              	.LVL188:
 289:..\..\..\liblc3\src/bits.h **** 
 290:..\..\..\liblc3\src/bits.h ****     int s = 16;
 291:..\..\..\liblc3\src/bits.h **** 
 292:..\..\..\liblc3\src/bits.h ****     if (ac->low < range * symbols[s].low) {
ARM GAS  C:\Users\rdn\AppData\Local\Temp\ccYcaPXH.s 			page 57


 1647              		.loc 4 292 0
 1648 001e B1F84030 		ldrh	r3, [r1, #64]
 1649 0022 4668     		ldr	r6, [r0, #4]
 1650 0024 6B43     		muls	r3, r5, r3
 1651 0026 9E42     		cmp	r6, r3
 1652 0028 1FD2     		bcs	.L141
 1653              	.LVL189:
 293:..\..\..\liblc3\src/bits.h ****         s >>= 1;
 294:..\..\..\liblc3\src/bits.h ****         s -= ac->low < range * symbols[s].low ? 4 : -4;
 1654              		.loc 4 294 0
 1655 002a 0B8C     		ldrh	r3, [r1, #32]
 1656 002c 6B43     		muls	r3, r5, r3
 1657 002e 9E42     		cmp	r6, r3
 1658 0030 34BF     		ite	cc
 1659 0032 0423     		movcc	r3, #4
 1660 0034 0C23     		movcs	r3, #12
 1661              	.LVL190:
 295:..\..\..\liblc3\src/bits.h ****         s -= ac->low < range * symbols[s].low ? 2 : -2;
 1662              		.loc 4 295 0
 1663 0036 31F82320 		ldrh	r2, [r1, r3, lsl #2]
 1664 003a 6A43     		muls	r2, r5, r2
 1665 003c 9642     		cmp	r6, r2
 1666 003e 34BF     		ite	cc
 1667 0040 0222     		movcc	r2, #2
 1668 0042 6FF00102 		mvncs	r2, #1
 1669 0046 9A1A     		subs	r2, r3, r2
 1670              	.LVL191:
 296:..\..\..\liblc3\src/bits.h ****         s -= ac->low < range * symbols[s].low ? 1 : -1;
 1671              		.loc 4 296 0
 1672 0048 31F82240 		ldrh	r4, [r1, r2, lsl #2]
 1673 004c 6C43     		muls	r4, r5, r4
 1674 004e A642     		cmp	r6, r4
 1675 0050 34BF     		ite	cc
 1676 0052 0124     		movcc	r4, #1
 1677 0054 4FF0FF34 		movcs	r4, #-1
 1678 0058 131B     		subs	r3, r2, r4
 1679              	.LVL192:
 297:..\..\..\liblc3\src/bits.h ****         s -= ac->low < range * symbols[s].low;
 1680              		.loc 4 297 0
 1681 005a 31F82340 		ldrh	r4, [r1, r3, lsl #2]
 1682 005e 6C43     		muls	r4, r5, r4
 1683 0060 A642     		cmp	r6, r4
 1684 0062 2CBF     		ite	cs
 1685 0064 1C46     		movcs	r4, r3
 1686 0066 5C1E     		subcc	r4, r3, #1
 1687              	.LVL193:
 1688 0068 00E0     		b	.L136
 1689              	.LVL194:
 1690              	.L141:
 290:..\..\..\liblc3\src/bits.h **** 
 1691              		.loc 4 290 0
 1692 006a 1024     		movs	r4, #16
 1693              	.LVL195:
 1694              	.L136:
 298:..\..\..\liblc3\src/bits.h ****     }
 299:..\..\..\liblc3\src/bits.h **** 
 300:..\..\..\liblc3\src/bits.h ****     ac->low -= range * symbols[s].low;
ARM GAS  C:\Users\rdn\AppData\Local\Temp\ccYcaPXH.s 			page 58


 1695              		.loc 4 300 0
 1696 006c 31F82430 		ldrh	r3, [r1, r4, lsl #2]
 1697 0070 01EB8402 		add	r2, r1, r4, lsl #2
 1698 0074 05FB1366 		mls	r6, r5, r3, r6
 301:..\..\..\liblc3\src/bits.h ****     ac->range = range * symbols[s].range;
 1699              		.loc 4 301 0
 1700 0078 5388     		ldrh	r3, [r2, #2]
 300:..\..\..\liblc3\src/bits.h ****     ac->range = range * symbols[s].range;
 1701              		.loc 4 300 0
 1702 007a 4660     		str	r6, [r0, #4]
 1703              		.loc 4 301 0
 1704 007c 5D43     		muls	r5, r3, r5
 1705              	.LVL196:
 302:..\..\..\liblc3\src/bits.h **** 
 303:..\..\..\liblc3\src/bits.h ****     if (ac->range < 0x10000)
 1706              		.loc 4 303 0
 1707 007e B5F5803F 		cmp	r5, #65536
 301:..\..\..\liblc3\src/bits.h **** 
 1708              		.loc 4 301 0
 1709 0082 8560     		str	r5, [r0, #8]
 1710              	.LVL197:
 1711              		.loc 4 303 0
 1712 0084 01D2     		bcs	.L140
 304:..\..\..\liblc3\src/bits.h ****         lc3_ac_read_renorm(bits);
 1713              		.loc 4 304 0
 1714 0086 FFF7FEFF 		bl	lc3_ac_read_renorm
 1715              	.LVL198:
 1716              	.L140:
 305:..\..\..\liblc3\src/bits.h **** 
 306:..\..\..\liblc3\src/bits.h ****     return s;
 307:..\..\..\liblc3\src/bits.h **** }
 1717              		.loc 4 307 0
 1718 008a 2046     		mov	r0, r4
 1719 008c 70BD     		pop	{r4, r5, r6, pc}
 1720              		.cfi_endproc
 1721              	.LFE12:
 1722              		.size	lc3_get_symbol, .-lc3_get_symbol
 1723              		.section	.text.lc3_spec_analyze,"ax",%progbits
 1724              		.align	1
 1725              		.global	lc3_spec_analyze
 1726              		.thumb
 1727              		.thumb_func
 1728              		.type	lc3_spec_analyze, %function
 1729              	lc3_spec_analyze:
 1730              	.LFB40:
 805:..\..\..\liblc3\src/spec.c **** 
 806:..\..\..\liblc3\src/spec.c **** /**
 807:..\..\..\liblc3\src/spec.c ****  * Bit consumption of the arithmetic coder
 808:..\..\..\liblc3\src/spec.c ****  * dt, sr, nbytes  Duration, samplerate and size of the frame
 809:..\..\..\liblc3\src/spec.c ****  * return          Bit consumption of bitstream data
 810:..\..\..\liblc3\src/spec.c ****  */
 811:..\..\..\liblc3\src/spec.c **** static int get_nbits_ac(enum lc3_dt dt, enum lc3_srate sr, int nbytes)
 812:..\..\..\liblc3\src/spec.c **** {
 813:..\..\..\liblc3\src/spec.c ****     return get_nbits_nq(dt, sr) +
 814:..\..\..\liblc3\src/spec.c ****         3 + lc3_hr(sr) + LC3_MIN((nbytes-1) / 160, 2);
 815:..\..\..\liblc3\src/spec.c **** }
 816:..\..\..\liblc3\src/spec.c **** 
ARM GAS  C:\Users\rdn\AppData\Local\Temp\ccYcaPXH.s 			page 59


 817:..\..\..\liblc3\src/spec.c **** /**
 818:..\..\..\liblc3\src/spec.c ****  * Spectrum analysis
 819:..\..\..\liblc3\src/spec.c ****  */
 820:..\..\..\liblc3\src/spec.c **** void lc3_spec_analyze(
 821:..\..\..\liblc3\src/spec.c ****     enum lc3_dt dt, enum lc3_srate sr, int nbytes,
 822:..\..\..\liblc3\src/spec.c ****     bool pitch, const lc3_tns_data_t *tns,
 823:..\..\..\liblc3\src/spec.c ****     struct lc3_spec_analysis *spec,
 824:..\..\..\liblc3\src/spec.c ****     float *x, struct lc3_spec_side *side)
 825:..\..\..\liblc3\src/spec.c **** {
 1731              		.loc 1 825 0
 1732              		.cfi_startproc
 1733              		@ args = 16, pretend = 0, frame = 112
 1734              		@ frame_needed = 0, uses_anonymous_args = 0
 1735              	.LVL199:
 1736 0000 2DE9F04F 		push	{r4, r5, r6, r7, r8, r9, r10, fp, lr}
 1737              		.cfi_def_cfa_offset 36
 1738              		.cfi_offset 4, -36
 1739              		.cfi_offset 5, -32
 1740              		.cfi_offset 6, -28
 1741              		.cfi_offset 7, -24
 1742              		.cfi_offset 8, -20
 1743              		.cfi_offset 9, -16
 1744              		.cfi_offset 10, -12
 1745              		.cfi_offset 11, -8
 1746              		.cfi_offset 14, -4
 1747 0004 2DED028B 		vpush.64	{d8}
 1748              		.cfi_def_cfa_offset 44
 1749              		.cfi_offset 80, -44
 1750              		.cfi_offset 81, -40
 1751 0008 A1B0     		sub	sp, sp, #132
 1752              		.cfi_def_cfa_offset 176
 1753              		.loc 1 825 0
 1754 000a 9846     		mov	r8, r3
 1755 000c 0D46     		mov	r5, r1
 1756 000e 1746     		mov	r7, r2
 826:..\..\..\liblc3\src/spec.c ****     bool reset_off;
 827:..\..\..\liblc3\src/spec.c **** 
 828:..\..\..\liblc3\src/spec.c ****     /* --- Bit budget --- */
 829:..\..\..\liblc3\src/spec.c **** 
 830:..\..\..\liblc3\src/spec.c ****     const int nbits_gain = 8;
 831:..\..\..\liblc3\src/spec.c ****     const int nbits_nf = 3;
 832:..\..\..\liblc3\src/spec.c **** 
 833:..\..\..\liblc3\src/spec.c ****     int nbits_budget = 8*nbytes - get_nbits_ac(dt, sr, nbytes) -
 1757              		.loc 1 833 0
 1758 0010 4FEAC209 		lsl	r9, r2, #3
 825:..\..\..\liblc3\src/spec.c ****     bool reset_off;
 1759              		.loc 1 825 0
 1760 0014 0646     		mov	r6, r0
 1761              	.LVL200:
 1762              	.LBB172:
 1763              	.LBB173:
 813:..\..\..\liblc3\src/spec.c ****         3 + lc3_hr(sr) + LC3_MIN((nbytes-1) / 160, 2);
 1764              		.loc 1 813 0
 1765 0016 FFF7FEFF 		bl	get_nbits_nq
 1766              	.LVL201:
 814:..\..\..\liblc3\src/spec.c **** }
 1767              		.loc 1 814 0
ARM GAS  C:\Users\rdn\AppData\Local\Temp\ccYcaPXH.s 			page 60


 1768 001a 0330     		adds	r0, r0, #3
 1769 001c 0429     		cmp	r1, #4
 1770 001e 94BF     		ite	ls
 1771 0020 0446     		movls	r4, r0
 1772 0022 441C     		addhi	r4, r0, #1
 1773 0024 B2F5A07F 		cmp	r2, #320
 1774 0028 D4BF     		ite	le
 1775 002a A023     		movle	r3, #160
 1776 002c 0223     		movgt	r3, #2
 1777              	.LVL202:
 1778              	.LBE173:
 1779              	.LBE172:
 834:..\..\..\liblc3\src/spec.c ****         lc3_bwdet_get_nbits(sr) - lc3_ltpf_get_nbits(pitch) -
 1780              		.loc 1 834 0
 1781 002e 2846     		mov	r0, r5
 1782              	.LBB176:
 1783              	.LBB174:
 814:..\..\..\liblc3\src/spec.c **** }
 1784              		.loc 1 814 0
 1785 0030 D8BF     		it	le
 1786 0032 02F1FF31 		addle	r1, r2, #-1
 1787              	.LBE174:
 1788              	.LBE176:
 825:..\..\..\liblc3\src/spec.c ****     bool reset_off;
 1789              		.loc 1 825 0
 1790 0036 DDF8B4B0 		ldr	fp, [sp, #180]
 1791              	.LBB177:
 1792              	.LBB175:
 814:..\..\..\liblc3\src/spec.c **** }
 1793              		.loc 1 814 0
 1794 003a D8BF     		it	le
 1795 003c 91FBF3F3 		sdivle	r3, r1, r3
 1796              	.LBE175:
 1797              	.LBE177:
 833:..\..\..\liblc3\src/spec.c ****         lc3_bwdet_get_nbits(sr) - lc3_ltpf_get_nbits(pitch) -
 1798              		.loc 1 833 0
 1799 0040 1C44     		add	r4, r4, r3
 1800              		.loc 1 834 0
 1801 0042 FFF7FEFF 		bl	lc3_bwdet_get_nbits
 1802              	.LVL203:
 833:..\..\..\liblc3\src/spec.c ****         lc3_bwdet_get_nbits(sr) - lc3_ltpf_get_nbits(pitch) -
 1803              		.loc 1 833 0
 1804 0046 C4EB0904 		rsb	r4, r4, r9
 1805 004a 241A     		subs	r4, r4, r0
 1806              		.loc 1 834 0
 1807 004c 4046     		mov	r0, r8
 1808 004e FFF7FEFF 		bl	lc3_ltpf_get_nbits
 1809              	.LVL204:
 1810 0052 241A     		subs	r4, r4, r0
 835:..\..\..\liblc3\src/spec.c ****         lc3_sns_get_nbits() - lc3_tns_get_nbits(tns) - nbits_gain - nbits_nf;
 1811              		.loc 1 835 0
 1812 0054 FFF7FEFF 		bl	lc3_sns_get_nbits
 1813              	.LVL205:
 834:..\..\..\liblc3\src/spec.c ****         lc3_sns_get_nbits() - lc3_tns_get_nbits(tns) - nbits_gain - nbits_nf;
 1814              		.loc 1 834 0
 1815 0058 241A     		subs	r4, r4, r0
 1816              		.loc 1 835 0
ARM GAS  C:\Users\rdn\AppData\Local\Temp\ccYcaPXH.s 			page 61


 1817 005a 2C98     		ldr	r0, [sp, #176]
 836:..\..\..\liblc3\src/spec.c **** 
 837:..\..\..\liblc3\src/spec.c ****     /* --- Global gain --- */
 838:..\..\..\liblc3\src/spec.c **** 
 839:..\..\..\liblc3\src/spec.c ****     float nbits_off = spec->nbits_off + spec->nbits_spare;
 840:..\..\..\liblc3\src/spec.c ****     nbits_off = fminf(fmaxf(nbits_off, -40), 40);
 841:..\..\..\liblc3\src/spec.c ****     nbits_off = 0.8f * spec->nbits_off + 0.2f * nbits_off;
 1818              		.loc 1 841 0
 1819 005c 9FED7D8A 		vldr.32	s16, .L174
 835:..\..\..\liblc3\src/spec.c **** 
 1820              		.loc 1 835 0
 1821 0060 FFF7FEFF 		bl	lc3_tns_get_nbits
 1822              	.LVL206:
 840:..\..\..\liblc3\src/spec.c ****     nbits_off = 0.8f * spec->nbits_off + 0.2f * nbits_off;
 1823              		.loc 1 840 0
 1824 0064 DBED017A 		vldr.32	s15, [fp, #4]	@ int
 839:..\..\..\liblc3\src/spec.c ****     nbits_off = fminf(fmaxf(nbits_off, -40), 40);
 1825              		.loc 1 839 0
 1826 0068 DBED008A 		vldr.32	s17, [fp]
 840:..\..\..\liblc3\src/spec.c ****     nbits_off = 0.8f * spec->nbits_off + 0.2f * nbits_off;
 1827              		.loc 1 840 0
 1828 006c 7A49     		ldr	r1, .L174+4
 1829 006e F8EEE77A 		vcvt.f32.s32	s15, s15
 833:..\..\..\liblc3\src/spec.c ****         lc3_bwdet_get_nbits(sr) - lc3_ltpf_get_nbits(pitch) -
 1830              		.loc 1 833 0
 1831 0072 201A     		subs	r0, r4, r0
 840:..\..\..\liblc3\src/spec.c ****     nbits_off = 0.8f * spec->nbits_off + 0.2f * nbits_off;
 1832              		.loc 1 840 0
 1833 0074 77EEA87A 		vadd.f32	s15, s15, s17
 833:..\..\..\liblc3\src/spec.c ****         lc3_bwdet_get_nbits(sr) - lc3_ltpf_get_nbits(pitch) -
 1834              		.loc 1 833 0
 1835 0078 A0F10B04 		sub	r4, r0, #11
 1836              	.LVL207:
 840:..\..\..\liblc3\src/spec.c ****     nbits_off = 0.8f * spec->nbits_off + 0.2f * nbits_off;
 1837              		.loc 1 840 0
 1838 007c 17EE900A 		vmov	r0, s15
 1839 0080 FFF7FEFF 		bl	fmaxf
 1840              	.LVL208:
 1841 0084 7549     		ldr	r1, .L174+8
 1842 0086 FFF7FEFF 		bl	fminf
 1843              	.LVL209:
 1844              		.loc 1 841 0
 1845 008a 07EE900A 		vmov	s15, r0
 1846 008e 27EE888A 		vmul.f32	s16, s15, s16
 1847 0092 DFED737A 		vldr.32	s15, .L174+12
 842:..\..\..\liblc3\src/spec.c **** 
 843:..\..\..\liblc3\src/spec.c ****     int g_off = resolve_gain_offset(sr, nbytes);
 1848              		.loc 1 843 0
 1849 0096 3946     		mov	r1, r7
 1850 0098 2846     		mov	r0, r5
 1851              	.LVL210:
 841:..\..\..\liblc3\src/spec.c **** 
 1852              		.loc 1 841 0
 1853 009a A8EEA78A 		vfma.f32	s16, s17, s15
 1854              	.LVL211:
 1855              		.loc 1 843 0
 1856 009e FFF7FEFF 		bl	resolve_gain_offset
ARM GAS  C:\Users\rdn\AppData\Local\Temp\ccYcaPXH.s 			page 62


 1857              	.LVL212:
 844:..\..\..\liblc3\src/spec.c **** 
 845:..\..\..\liblc3\src/spec.c ****     int g_min, g_int = estimate_gain(dt, sr,
 1858              		.loc 1 845 0
 1859 00a2 0AAB     		add	r3, sp, #40
 843:..\..\..\liblc3\src/spec.c **** 
 1860              		.loc 1 843 0
 1861 00a4 8046     		mov	r8, r0
 1862              	.LVL213:
 1863              		.loc 1 845 0
 1864 00a6 0393     		str	r3, [sp, #12]
 1865 00a8 0DF12703 		add	r3, sp, #39
 1866 00ac B0EE480A 		vmov.f32	s0, s16
 1867 00b0 0293     		str	r3, [sp, #8]
 1868 00b2 2E9A     		ldr	r2, [sp, #184]
 1869 00b4 3B46     		mov	r3, r7
 1870 00b6 2946     		mov	r1, r5
 1871 00b8 8DE81001 		stmia	sp, {r4, r8}
 1872 00bc 3046     		mov	r0, r6
 1873              	.LVL214:
 1874 00be FFF7FEFF 		bl	estimate_gain
 1875              	.LVL215:
 846:..\..\..\liblc3\src/spec.c ****         x, nbytes, nbits_budget, nbits_off, g_off, &reset_off, &g_min);
 847:..\..\..\liblc3\src/spec.c **** 
 848:..\..\..\liblc3\src/spec.c ****     /* --- Quantization --- */
 849:..\..\..\liblc3\src/spec.c **** 
 850:..\..\..\liblc3\src/spec.c ****     quantize(dt, sr, g_int, x, &side->nq);
 1876              		.loc 1 850 0
 1877 00c2 2F9B     		ldr	r3, [sp, #188]
 845:..\..\..\liblc3\src/spec.c ****         x, nbytes, nbits_budget, nbits_off, g_off, &reset_off, &g_min);
 1878              		.loc 1 845 0
 1879 00c4 0590     		str	r0, [sp, #20]
 1880              	.LVL216:
 1881              		.loc 1 850 0
 1882 00c6 03F1040A 		add	r10, r3, #4
 851:..\..\..\liblc3\src/spec.c **** 
 852:..\..\..\liblc3\src/spec.c ****     int nbits = compute_nbits(dt, sr, nbytes, x, &side->nq, 0, NULL);
 1883              		.loc 1 852 0
 1884 00ca 4FF00009 		mov	r9, #0
 850:..\..\..\liblc3\src/spec.c **** 
 1885              		.loc 1 850 0
 1886 00ce 0246     		mov	r2, r0
 1887 00d0 2E9B     		ldr	r3, [sp, #184]
 1888 00d2 CDF800A0 		str	r10, [sp]
 1889 00d6 2946     		mov	r1, r5
 1890 00d8 3046     		mov	r0, r6
 1891              	.LVL217:
 1892 00da FFF7FEFF 		bl	quantize
 1893              	.LVL218:
 1894              		.loc 1 852 0
 1895 00de CDF80890 		str	r9, [sp, #8]
 1896 00e2 CDF80490 		str	r9, [sp, #4]
 1897 00e6 2E9B     		ldr	r3, [sp, #184]
 1898 00e8 CDF800A0 		str	r10, [sp]
 1899 00ec 3A46     		mov	r2, r7
 1900 00ee 2946     		mov	r1, r5
 1901 00f0 3046     		mov	r0, r6
ARM GAS  C:\Users\rdn\AppData\Local\Temp\ccYcaPXH.s 			page 63


 1902 00f2 FFF7FEFF 		bl	compute_nbits
 1903              	.LVL219:
 853:..\..\..\liblc3\src/spec.c **** 
 854:..\..\..\liblc3\src/spec.c ****     spec->nbits_off = reset_off ? 0 : nbits_off;
 1904              		.loc 1 854 0
 1905 00f6 9DF82720 		ldrb	r2, [sp, #39]	@ zero_extendqisi2
 1906 00fa DFED5A7A 		vldr.32	s15, .L174+16
 855:..\..\..\liblc3\src/spec.c ****     spec->nbits_spare = reset_off ? 0 : nbits_budget - nbits;
 856:..\..\..\liblc3\src/spec.c **** 
 857:..\..\..\liblc3\src/spec.c ****     /* --- Adjust gain and requantize --- */
 858:..\..\..\liblc3\src/spec.c **** 
 859:..\..\..\liblc3\src/spec.c ****     int g_adj = adjust_gain(dt, sr,
 1907              		.loc 1 859 0
 1908 00fe 059B     		ldr	r3, [sp, #20]
 1909 0100 0790     		str	r0, [sp, #28]
 854:..\..\..\liblc3\src/spec.c ****     spec->nbits_spare = reset_off ? 0 : nbits_budget - nbits;
 1910              		.loc 1 854 0
 1911 0102 4A45     		cmp	r2, r9
 855:..\..\..\liblc3\src/spec.c ****     spec->nbits_spare = reset_off ? 0 : nbits_budget - nbits;
 1912              		.loc 1 855 0
 1913 0104 0CBF     		ite	eq
 1914 0106 221A     		subeq	r2, r4, r0
 1915 0108 4A46     		movne	r2, r9
 854:..\..\..\liblc3\src/spec.c ****     spec->nbits_spare = reset_off ? 0 : nbits_budget - nbits;
 1916              		.loc 1 854 0
 1917 010a 18BF     		it	ne
 1918 010c B0EE678A 		vmovne.f32	s16, s15
 1919              	.LVL220:
 855:..\..\..\liblc3\src/spec.c ****     spec->nbits_spare = reset_off ? 0 : nbits_budget - nbits;
 1920              		.loc 1 855 0
 1921 0110 CBF80420 		str	r2, [fp, #4]
 854:..\..\..\liblc3\src/spec.c ****     spec->nbits_spare = reset_off ? 0 : nbits_budget - nbits;
 1922              		.loc 1 854 0
 1923 0114 8BED008A 		vstr.32	s16, [fp]
 1924              	.LBB178:
 1925              	.LBB179:
 203:..\..\..\liblc3\src/spec.c ****         {  80,  500,  850 }, { 230, 1025, 1700 }, { 380, 1550, 2550 },
 1926              		.loc 1 203 0
 1927 0118 0DF12C0B 		add	fp, sp, #44
 1928 011c 5422     		movs	r2, #84
 1929 011e 5249     		ldr	r1, .L174+20
 1930              	.LBE179:
 1931              	.LBE178:
 1932              		.loc 1 859 0
 1933 0120 08EB0309 		add	r9, r8, r3
 1934              	.LBB185:
 1935              	.LBB182:
 203:..\..\..\liblc3\src/spec.c ****         {  80,  500,  850 }, { 230, 1025, 1700 }, { 380, 1550, 2550 },
 1936              		.loc 1 203 0
 1937 0124 5846     		mov	r0, fp
 1938              	.LVL221:
 1939              	.LBE182:
 1940              	.LBE185:
 1941              		.loc 1 859 0
 1942 0126 0A9B     		ldr	r3, [sp, #40]
 1943 0128 0693     		str	r3, [sp, #24]
 1944              	.LVL222:
ARM GAS  C:\Users\rdn\AppData\Local\Temp\ccYcaPXH.s 			page 64


 1945              	.LBB186:
 1946              	.LBB183:
 203:..\..\..\liblc3\src/spec.c ****         {  80,  500,  850 }, { 230, 1025, 1700 }, { 380, 1550, 2550 },
 1947              		.loc 1 203 0
 1948 012a FFF7FEFF 		bl	memcpy
 1949              	.LVL223:
 1950 012e 0C22     		movs	r2, #12
 1951 0130 6A43     		muls	r2, r5, r2
 211:..\..\..\liblc3\src/spec.c ****         delta = 3*(nbits + 48);
 1952              		.loc 1 211 0
 1953 0132 079B     		ldr	r3, [sp, #28]
 1954 0134 5BF80210 		ldr	r1, [fp, r2]
 1955 0138 8B42     		cmp	r3, r1
 203:..\..\..\liblc3\src/spec.c ****         {  80,  500,  850 }, { 230, 1025, 1700 }, { 380, 1550, 2550 },
 1956              		.loc 1 203 0
 1957 013a 0BEB020E 		add	lr, fp, r2
 1958              	.LVL224:
 211:..\..\..\liblc3\src/spec.c ****         delta = 3*(nbits + 48);
 1959              		.loc 1 211 0
 1960 013e 04DA     		bge	.L152
 212:..\..\..\liblc3\src/spec.c **** 
 1961              		.loc 1 212 0
 1962 0140 03F13001 		add	r1, r3, #48
 1963 0144 01EB4101 		add	r1, r1, r1, lsl #1
 1964              	.LVL225:
 1965 0148 1AE0     		b	.L173
 1966              	.LVL226:
 1967              	.L152:
 214:..\..\..\liblc3\src/spec.c ****         int n0 = 3*(t[0] + 48), range = t[1] - t[0];
 1968              		.loc 1 214 0
 1969 014a DEF80400 		ldr	r0, [lr, #4]
 1970 014e 8342     		cmp	r3, r0
 1971 0150 11DA     		bge	.L154
 1972              	.LBB180:
 215:..\..\..\liblc3\src/spec.c ****         delta = n0 * range + (nbits - t[0]) * (t[1] - n0);
 1973              		.loc 1 215 0
 1974 0152 01F1300C 		add	ip, r1, #48
 1975 0156 C1EB000E 		rsb	lr, r1, r0
 1976              	.LVL227:
 1977 015a 0CEB4C0C 		add	ip, ip, ip, lsl #1
 1978              	.LVL228:
 216:..\..\..\liblc3\src/spec.c ****         den *= range;
 1979              		.loc 1 216 0
 1980 015e C1EB030B 		rsb	fp, r1, r3
 1981              	.LVL229:
 1982 0162 CCEB0000 		rsb	r0, ip, r0
 1983 0166 0EFB0CF1 		mul	r1, lr, ip
 217:..\..\..\liblc3\src/spec.c **** 
 1984              		.loc 1 217 0
 1985 016a 3022     		movs	r2, #48
 1986              	.LVL230:
 216:..\..\..\liblc3\src/spec.c ****         den *= range;
 1987              		.loc 1 216 0
 1988 016c 00FB0B11 		mla	r1, r0, fp, r1
 1989              	.LVL231:
 217:..\..\..\liblc3\src/spec.c **** 
 1990              		.loc 1 217 0
ARM GAS  C:\Users\rdn\AppData\Local\Temp\ccYcaPXH.s 			page 65


 1991 0170 02FB0EF0 		mul	r0, r2, lr
 1992              	.LVL232:
 1993 0174 05E0     		b	.L153
 1994              	.LVL233:
 1995              	.L154:
 1996              	.LBE180:
 220:..\..\..\liblc3\src/spec.c ****     }
 1997              		.loc 1 220 0
 1998 0176 DEF80810 		ldr	r1, [lr, #8]
 1999 017a 9942     		cmp	r1, r3
 2000 017c A8BF     		it	ge
 2001 017e 1946     		movge	r1, r3
 2002              	.L173:
 2003              	.LVL234:
 209:..\..\..\liblc3\src/spec.c **** 
 2004              		.loc 1 209 0
 2005 0180 3020     		movs	r0, #48
 2006              	.LVL235:
 2007              	.L153:
 227:..\..\..\liblc3\src/spec.c ****         int factor = 1 + (dt <= LC3_DT_5M) +
 2008              		.loc 1 227 0
 2009 0182 042D     		cmp	r5, #4
 223:..\..\..\liblc3\src/spec.c **** 
 2010              		.loc 1 223 0
 2011 0184 4FF00202 		mov	r2, #2
 2012 0188 90FBF2F2 		sdiv	r2, r0, r2
 2013 018c 0A44     		add	r2, r2, r1
 2014 018e 92FBF0F2 		sdiv	r2, r2, r0
 2015              	.LVL236:
 227:..\..\..\liblc3\src/spec.c ****         int factor = 1 + (dt <= LC3_DT_5M) +
 2016              		.loc 1 227 0
 2017 0192 1CD9     		bls	.L155
 2018 0194 9C42     		cmp	r4, r3
 2019 0196 46DA     		bge	.L168
 2020              	.LBB181:
 228:..\..\..\liblc3\src/spec.c ****             (dt <= LC3_DT_2M5) * (1 + (nbits >= 520));
 2021              		.loc 1 228 0
 2022 0198 022E     		cmp	r6, #2
 2023 019a 34BF     		ite	cc
 2024 019c 0220     		movcc	r0, #2
 2025              	.LVL237:
 2026 019e 0120     		movcs	r0, #1
 229:..\..\..\liblc3\src/spec.c **** 
 2027              		.loc 1 229 0
 2028 01a0 B3F5027F 		cmp	r3, #520
 2029 01a4 ACBF     		ite	ge
 2030 01a6 0221     		movge	r1, #2
 2031 01a8 0121     		movlt	r1, #1
 228:..\..\..\liblc3\src/spec.c ****             (dt <= LC3_DT_2M5) * (1 + (nbits >= 520));
 2032              		.loc 1 228 0
 2033 01aa 002E     		cmp	r6, #0
 2034 01ac 18BF     		it	ne
 2035 01ae 0021     		movne	r1, #0
 2036 01b0 0144     		add	r1, r1, r0
 2037              	.LVL238:
 232:..\..\..\liblc3\src/spec.c ****     }
 2038              		.loc 1 232 0
ARM GAS  C:\Users\rdn\AppData\Local\Temp\ccYcaPXH.s 			page 66


 2039 01b2 1B1B     		subs	r3, r3, r4
 2040              	.LVL239:
 2041 01b4 4B43     		muls	r3, r1, r3
 2042 01b6 93FBF2F3 		sdiv	r3, r3, r2
 2043 01ba 1944     		add	r1, r1, r3
 2044              	.LVL240:
 2045 01bc 01EB0903 		add	r3, r1, r9
 2046 01c0 FF2B     		cmp	r3, #255
 2047 01c2 D4BF     		ite	le
 2048 01c4 C9EB0309 		rsble	r9, r9, r3
 2049 01c8 C9F1FF09 		rsbgt	r9, r9, #255
 2050              	.LVL241:
 2051 01cc 1FE0     		b	.L159
 2052              	.LVL242:
 2053              	.L155:
 2054              	.LBE181:
 235:..\..\..\liblc3\src/spec.c ****         return -(g_idx > g_idx_min);
 2055              		.loc 1 235 0
 2056 01ce 911C     		adds	r1, r2, #2
 2057 01d0 611A     		subs	r1, r4, r1
 2058 01d2 8B42     		cmp	r3, r1
 2059 01d4 08DA     		bge	.L160
 236:..\..\..\liblc3\src/spec.c **** 
 2060              		.loc 1 236 0
 2061 01d6 069B     		ldr	r3, [sp, #24]
 2062 01d8 4344     		add	r3, r3, r8
 2063 01da 9945     		cmp	r9, r3
 2064 01dc 4FF0FF39 		mov	r9, #-1
 2065              	.LVL243:
 2066 01e0 D8BF     		it	le
 2067 01e2 4FF00009 		movle	r9, #0
 2068 01e6 12E0     		b	.L159
 2069              	.LVL244:
 2070              	.L160:
 238:..\..\..\liblc3\src/spec.c ****         return (g_idx < 255) + (g_idx < 254 && nbits >= nbits_budget + delta);
 2071              		.loc 1 238 0
 2072 01e8 9C42     		cmp	r4, r3
 2073 01ea 1CDA     		bge	.L168
 239:..\..\..\liblc3\src/spec.c **** 
 2074              		.loc 1 239 0
 2075 01ec B9F1FE0F 		cmp	r9, #254
 2076 01f0 CCBF     		ite	gt
 2077 01f2 0021     		movgt	r1, #0
 2078 01f4 0121     		movle	r1, #1
 2079 01f6 B9F1FD0F 		cmp	r9, #253
 2080 01fa 05DC     		bgt	.L169
 2081 01fc 2244     		add	r2, r2, r4
 2082              	.LVL245:
 2083 01fe 9342     		cmp	r3, r2
 2084 0200 B4BF     		ite	lt
 2085 0202 0023     		movlt	r3, #0
 2086 0204 0123     		movge	r3, #1
 2087 0206 00E0     		b	.L161
 2088              	.LVL246:
 2089              	.L169:
 2090 0208 0023     		movs	r3, #0
 2091              	.LVL247:
ARM GAS  C:\Users\rdn\AppData\Local\Temp\ccYcaPXH.s 			page 67


 2092              	.L161:
 2093 020a 01EB0309 		add	r9, r1, r3
 2094              	.LVL248:
 2095              	.L159:
 2096              	.LBE183:
 2097              	.LBE186:
 860:..\..\..\liblc3\src/spec.c ****         g_off + g_int, nbits, nbits_budget, g_off + g_min);
 861:..\..\..\liblc3\src/spec.c **** 
 862:..\..\..\liblc3\src/spec.c ****     if (g_adj)
 2098              		.loc 1 862 0
 2099 020e B9F1000F 		cmp	r9, #0
 2100 0212 0AD0     		beq	.L156
 863:..\..\..\liblc3\src/spec.c ****         quantize(dt, sr, g_adj, x, &side->nq);
 2101              		.loc 1 863 0
 2102 0214 CDF800A0 		str	r10, [sp]
 2103 0218 2E9B     		ldr	r3, [sp, #184]
 2104 021a 4A46     		mov	r2, r9
 2105 021c 2946     		mov	r1, r5
 2106 021e 3046     		mov	r0, r6
 2107 0220 FFF7FEFF 		bl	quantize
 2108              	.LVL249:
 2109 0224 01E0     		b	.L156
 2110              	.LVL250:
 2111              	.L168:
 2112              	.LBB187:
 2113              	.LBB184:
 238:..\..\..\liblc3\src/spec.c ****         return (g_idx < 255) + (g_idx < 254 && nbits >= nbits_budget + delta);
 2114              		.loc 1 238 0
 2115 0226 4FF00009 		mov	r9, #0
 2116              	.LVL251:
 2117              	.L156:
 2118              	.LBE184:
 2119              	.LBE187:
 864:..\..\..\liblc3\src/spec.c **** 
 865:..\..\..\liblc3\src/spec.c ****     side->g_idx = g_int + g_adj + g_off;
 2120              		.loc 1 865 0
 2121 022a 059B     		ldr	r3, [sp, #20]
 2122 022c 2F9A     		ldr	r2, [sp, #188]
 2123 022e 4B44     		add	r3, r3, r9
 2124 0230 4344     		add	r3, r3, r8
 2125 0232 42F8083B 		str	r3, [r2], #8
 866:..\..\..\liblc3\src/spec.c ****     nbits = compute_nbits(dt, sr, nbytes,
 2126              		.loc 1 866 0
 2127 0236 2946     		mov	r1, r5
 2128 0238 0292     		str	r2, [sp, #8]
 2129 023a 0194     		str	r4, [sp, #4]
 2130 023c CDF800A0 		str	r10, [sp]
 2131 0240 2E9B     		ldr	r3, [sp, #184]
 2132 0242 3A46     		mov	r2, r7
 2133 0244 3046     		mov	r0, r6
 2134 0246 FFF7FEFF 		bl	compute_nbits
 2135              	.LVL252:
 867:..\..\..\liblc3\src/spec.c ****         x, &side->nq, nbits_budget, &side->lsb_mode);
 868:..\..\..\liblc3\src/spec.c **** }
 2136              		.loc 1 868 0
 2137 024a 21B0     		add	sp, sp, #132
 2138              		.cfi_def_cfa_offset 44
ARM GAS  C:\Users\rdn\AppData\Local\Temp\ccYcaPXH.s 			page 68


 2139              		@ sp needed
 2140 024c BDEC028B 		vldm	sp!, {d8}
 2141              		.cfi_restore 80
 2142              		.cfi_restore 81
 2143              		.cfi_def_cfa_offset 36
 2144 0250 BDE8F08F 		pop	{r4, r5, r6, r7, r8, r9, r10, fp, pc}
 2145              	.LVL253:
 2146              	.L175:
 2147              		.align	2
 2148              	.L174:
 2149 0254 CDCC4C3E 		.word	1045220557
 2150 0258 000020C2 		.word	-1038090240
 2151 025c 00002042 		.word	1109393408
 2152 0260 CDCC4C3F 		.word	1061997773
 2153 0264 00000000 		.word	0
 2154 0268 10010000 		.word	.LANCHOR0+272
 2155              		.cfi_endproc
 2156              	.LFE40:
 2157              		.size	lc3_spec_analyze, .-lc3_spec_analyze
 2158              		.section	.text.lc3_spec_put_side,"ax",%progbits
 2159              		.align	1
 2160              		.global	lc3_spec_put_side
 2161              		.thumb
 2162              		.thumb_func
 2163              		.type	lc3_spec_put_side, %function
 2164              	lc3_spec_put_side:
 2165              	.LFB41:
 869:..\..\..\liblc3\src/spec.c **** 
 870:..\..\..\liblc3\src/spec.c **** /**
 871:..\..\..\liblc3\src/spec.c ****  * Put spectral quantization side data
 872:..\..\..\liblc3\src/spec.c ****  */
 873:..\..\..\liblc3\src/spec.c **** void lc3_spec_put_side(lc3_bits_t *bits,
 874:..\..\..\liblc3\src/spec.c ****     enum lc3_dt dt, enum lc3_srate sr,
 875:..\..\..\liblc3\src/spec.c ****     const struct lc3_spec_side *side)
 876:..\..\..\liblc3\src/spec.c **** {
 2166              		.loc 1 876 0
 2167              		.cfi_startproc
 2168              		@ args = 0, pretend = 0, frame = 0
 2169              		@ frame_needed = 0, uses_anonymous_args = 0
 2170              	.LVL254:
 2171 0000 38B5     		push	{r3, r4, r5, lr}
 2172              		.cfi_def_cfa_offset 16
 2173              		.cfi_offset 3, -16
 2174              		.cfi_offset 4, -12
 2175              		.cfi_offset 5, -8
 2176              		.cfi_offset 14, -4
 2177              		.loc 1 876 0
 2178 0002 1D46     		mov	r5, r3
 2179 0004 0446     		mov	r4, r0
 2180 0006 0846     		mov	r0, r1
 2181              	.LVL255:
 877:..\..\..\liblc3\src/spec.c ****     int nbits_nq = get_nbits_nq(dt, sr);
 2182              		.loc 1 877 0
 2183 0008 1146     		mov	r1, r2
 2184              	.LVL256:
 2185 000a FFF7FEFF 		bl	get_nbits_nq
 2186              	.LVL257:
ARM GAS  C:\Users\rdn\AppData\Local\Temp\ccYcaPXH.s 			page 69


 878:..\..\..\liblc3\src/spec.c **** 
 879:..\..\..\liblc3\src/spec.c ****     lc3_put_bits(bits, LC3_MAX(side->nq >> 1, 1) - 1, nbits_nq);
 2187              		.loc 1 879 0
 2188 000e 6968     		ldr	r1, [r5, #4]
 2189 0010 4910     		asrs	r1, r1, #1
 2190 0012 0129     		cmp	r1, #1
 2191 0014 B8BF     		it	lt
 2192 0016 0121     		movlt	r1, #1
 2193 0018 0246     		mov	r2, r0
 2194 001a 0139     		subs	r1, r1, #1
 2195 001c 2046     		mov	r0, r4
 2196              	.LVL258:
 2197 001e FFF7FEFF 		bl	lc3_put_bits
 2198              	.LVL259:
 880:..\..\..\liblc3\src/spec.c ****     lc3_put_bits(bits, side->lsb_mode, 1);
 2199              		.loc 1 880 0
 2200 0022 297A     		ldrb	r1, [r5, #8]	@ zero_extendqisi2
 2201 0024 2046     		mov	r0, r4
 2202 0026 0122     		movs	r2, #1
 2203 0028 FFF7FEFF 		bl	lc3_put_bits
 2204              	.LVL260:
 881:..\..\..\liblc3\src/spec.c ****     lc3_put_bits(bits, side->g_idx, 8);
 2205              		.loc 1 881 0
 2206 002c 2968     		ldr	r1, [r5]
 2207 002e 2046     		mov	r0, r4
 2208 0030 0822     		movs	r2, #8
 882:..\..\..\liblc3\src/spec.c **** }
 2209              		.loc 1 882 0
 2210 0032 BDE83840 		pop	{r3, r4, r5, lr}
 2211              		.cfi_restore 14
 2212              		.cfi_restore 5
 2213              		.cfi_restore 4
 2214              		.cfi_restore 3
 2215              		.cfi_def_cfa_offset 0
 2216              	.LVL261:
 881:..\..\..\liblc3\src/spec.c ****     lc3_put_bits(bits, side->g_idx, 8);
 2217              		.loc 1 881 0
 2218 0036 FFF7FEBF 		b	lc3_put_bits
 2219              	.LVL262:
 2220              		.cfi_endproc
 2221              	.LFE41:
 2222              		.size	lc3_spec_put_side, .-lc3_spec_put_side
 2223              		.section	.text.lc3_spec_encode,"ax",%progbits
 2224              		.align	1
 2225              		.global	lc3_spec_encode
 2226              		.thumb
 2227              		.thumb_func
 2228              		.type	lc3_spec_encode, %function
 2229              	lc3_spec_encode:
 2230              	.LFB42:
 883:..\..\..\liblc3\src/spec.c **** 
 884:..\..\..\liblc3\src/spec.c **** /**
 885:..\..\..\liblc3\src/spec.c ****  * Encode spectral coefficients
 886:..\..\..\liblc3\src/spec.c ****  */
 887:..\..\..\liblc3\src/spec.c **** void lc3_spec_encode(lc3_bits_t *bits,
 888:..\..\..\liblc3\src/spec.c ****     enum lc3_dt dt, enum lc3_srate sr, enum lc3_bandwidth bw,
 889:..\..\..\liblc3\src/spec.c ****     int nbytes, const lc3_spec_side_t *side, float *x)
ARM GAS  C:\Users\rdn\AppData\Local\Temp\ccYcaPXH.s 			page 70


 890:..\..\..\liblc3\src/spec.c **** {
 2231              		.loc 1 890 0
 2232              		.cfi_startproc
 2233              		@ args = 12, pretend = 0, frame = 40
 2234              		@ frame_needed = 0, uses_anonymous_args = 0
 2235              	.LVL263:
 2236 0000 2DE9F04F 		push	{r4, r5, r6, r7, r8, r9, r10, fp, lr}
 2237              		.cfi_def_cfa_offset 36
 2238              		.cfi_offset 4, -36
 2239              		.cfi_offset 5, -32
 2240              		.cfi_offset 6, -28
 2241              		.cfi_offset 7, -24
 2242              		.cfi_offset 8, -20
 2243              		.cfi_offset 9, -16
 2244              		.cfi_offset 10, -12
 2245              		.cfi_offset 11, -8
 2246              		.cfi_offset 14, -4
 2247 0004 2DED068B 		vpush.64	{d8, d9, d10}
 2248              		.cfi_def_cfa_offset 60
 2249              		.cfi_offset 80, -60
 2250              		.cfi_offset 81, -56
 2251              		.cfi_offset 82, -52
 2252              		.cfi_offset 83, -48
 2253              		.cfi_offset 84, -44
 2254              		.cfi_offset 85, -40
 2255 0008 8BB0     		sub	sp, sp, #44
 2256              		.cfi_def_cfa_offset 104
 2257              	.LBB214:
 2258              	.LBB215:
 2259              	.LBB216:
 2260              	.LBB217:
 2261              		.loc 2 51 0
 2262 000a 042B     		cmp	r3, #4
 2263              	.LBE217:
 2264              	.LBE216:
 2265              	.LBE215:
 2266              	.LBE214:
 2267              		.loc 1 890 0
 2268 000c 9246     		mov	r10, r2
 2269 000e 1B9A     		ldr	r2, [sp, #108]
 2270              	.LVL264:
 2271              	.LBB229:
 2272              	.LBB226:
 2273              	.LBB222:
 2274              	.LBB218:
 2275              		.loc 2 51 0
 2276 0010 B44D     		ldr	r5, .L252
 2277              	.LBE218:
 2278              	.LBE222:
 2279              	.LBE226:
 2280              	.LBE229:
 891:..\..\..\liblc3\src/spec.c ****     bool lsb_mode = side->lsb_mode;
 2281              		.loc 1 891 0
 2282 0012 92F80880 		ldrb	r8, [r2, #8]	@ zero_extendqisi2
 892:..\..\..\liblc3\src/spec.c ****     int nq = side->nq;
 2283              		.loc 1 892 0
 2284 0016 5268     		ldr	r2, [r2, #4]
ARM GAS  C:\Users\rdn\AppData\Local\Temp\ccYcaPXH.s 			page 71


 2285 0018 0292     		str	r2, [sp, #8]
 2286              	.LBB230:
 2287              	.LBB227:
 2288              	.LBB223:
 2289              	.LBB219:
 2290              		.loc 2 51 0
 2291 001a 28BF     		it	cs
 2292 001c 0423     		movcs	r3, #4
 2293              	.LVL265:
 2294              	.LBE219:
 2295              	.LBE223:
 718:..\..\..\liblc3\src/spec.c **** 
 2296              		.loc 1 718 0
 2297 001e 0129     		cmp	r1, #1
 2298              	.LBB224:
 2299              	.LBB220:
 2300              		.loc 2 51 0
 2301 0020 55F82360 		ldr	r6, [r5, r3, lsl #2]
 2302 0024 0095     		str	r5, [sp]
 2303 0026 01F10104 		add	r4, r1, #1
 2304              	.LBE220:
 2305              	.LBE224:
 718:..\..\..\liblc3\src/spec.c **** 
 2306              		.loc 1 718 0
 2307 002a 8CBF     		ite	hi
 2308 002c 0223     		movhi	r3, #2
 2309 002e 0123     		movls	r3, #1
 724:..\..\..\liblc3\src/spec.c ****         z = fabsf(x[i]) < xq_lim ? z + 1 : 0;
 2310              		.loc 1 724 0
 2311 0030 029D     		ldr	r5, [sp, #8]
 2312 0032 1C9A     		ldr	r2, [sp, #112]
 718:..\..\..\liblc3\src/spec.c **** 
 2313              		.loc 1 718 0
 2314 0034 0229     		cmp	r1, #2
 2315 0036 94BF     		ite	ls
 2316 0038 1946     		movls	r1, r3
 2317 003a 591C     		addhi	r1, r3, #1
 2318              	.LVL266:
 2319              	.LBB225:
 2320              	.LBB221:
 2321              		.loc 2 51 0
 2322 003c 6643     		muls	r6, r4, r6
 2323              	.LBE221:
 2324              	.LBE225:
 720:..\..\..\liblc3\src/spec.c ****     float sum = 0;
 2325              		.loc 1 720 0
 2326 003e BAF1040F 		cmp	r10, #4
 2327 0042 F6EE007A 		vmov.f32	s15, #5.0e-1
 2328 0046 B6EE047A 		vmov.f32	s14, #6.25e-1
 724:..\..\..\liblc3\src/spec.c ****         z = fabsf(x[i]) < xq_lim ? z + 1 : 0;
 2329              		.loc 1 724 0
 2330 004a 4FF00603 		mov	r3, #6
 720:..\..\..\liblc3\src/spec.c ****     float sum = 0;
 2331              		.loc 1 720 0
 2332 004e 88BF     		it	hi
 2333 0050 B0EE677A 		vmovhi.f32	s14, s15
 724:..\..\..\liblc3\src/spec.c ****         z = fabsf(x[i]) < xq_lim ? z + 1 : 0;
ARM GAS  C:\Users\rdn\AppData\Local\Temp\ccYcaPXH.s 			page 72


 2334              		.loc 1 724 0
 2335 0054 6343     		muls	r3, r4, r3
 2336 0056 B542     		cmp	r5, r6
 2337              	.LBE227:
 2338              	.LBE230:
 890:..\..\..\liblc3\src/spec.c ****     bool lsb_mode = side->lsb_mode;
 2339              		.loc 1 890 0
 2340 0058 0746     		mov	r7, r0
 2341              	.LVL267:
 2342              	.LBB231:
 2343              	.LBB228:
 724:..\..\..\liblc3\src/spec.c ****         z = fabsf(x[i]) < xq_lim ? z + 1 : 0;
 2344              		.loc 1 724 0
 2345 005a A3EB0103 		sub	r3, r3, r1
 2346              	.LVL268:
 722:..\..\..\liblc3\src/spec.c **** 
 2347              		.loc 1 722 0
 2348 005e 4FF00000 		mov	r0, #0
 2349              	.LVL269:
 724:..\..\..\liblc3\src/spec.c ****         z = fabsf(x[i]) < xq_lim ? z + 1 : 0;
 2350              		.loc 1 724 0
 2351 0062 A8BF     		it	ge
 2352 0064 3546     		movge	r5, r6
 2353              	.LVL270:
 721:..\..\..\liblc3\src/spec.c ****     int i, ns = 0, z = 0;
 2354              		.loc 1 721 0
 2355 0066 DFEDA07A 		vldr.32	s15, .L252+4
 2356 006a 02EB8309 		add	r9, r2, r3, lsl #2
 2357 006e 4FEA410C 		lsl	ip, r1, #1
 722:..\..\..\liblc3\src/spec.c **** 
 2358              		.loc 1 722 0
 2359 0072 0246     		mov	r2, r0
 2360              	.LVL271:
 724:..\..\..\liblc3\src/spec.c ****         z = fabsf(x[i]) < xq_lim ? z + 1 : 0;
 2361              		.loc 1 724 0
 2362 0074 AB46     		mov	fp, r5
 2363              	.LVL272:
 2364              	.L180:
 2365 0076 5B45     		cmp	r3, fp
 2366 0078 1BDA     		bge	.L248
 725:..\..\..\liblc3\src/spec.c ****         if (z > 2*w)
 2367              		.loc 1 725 0
 2368 007a F9EC016A 		vldmia.32	r9!, {s13}
 2369 007e F0EEE66A 		vabs.f32	s13, s13
 2370 0082 F4EEC76A 		vcmpe.f32	s13, s14
 2371 0086 F1EE10FA 		vmrs	APSR_nzcv, FPSCR
 2372 008a 0FD5     		bpl	.L247
 2373 008c 0130     		adds	r0, r0, #1
 2374              	.LVL273:
 726:..\..\..\liblc3\src/spec.c ****             sum += fabsf(x[i - w]), ns++;
 2375              		.loc 1 726 0
 2376 008e 6045     		cmp	r0, ip
 2377 0090 0DDD     		ble	.L181
 727:..\..\..\liblc3\src/spec.c ****     }
 2378              		.loc 1 727 0
 2379 0092 1C9D     		ldr	r5, [sp, #112]
 2380 0094 C1EB030E 		rsb	lr, r1, r3
ARM GAS  C:\Users\rdn\AppData\Local\Temp\ccYcaPXH.s 			page 73


 2381 0098 05EB8E0E 		add	lr, r5, lr, lsl #2
 2382 009c DEED006A 		vldr.32	s13, [lr]
 2383 00a0 F0EEE66A 		vabs.f32	s13, s13
 2384 00a4 77EEA67A 		vadd.f32	s15, s15, s13
 2385              	.LVL274:
 2386 00a8 0132     		adds	r2, r2, #1
 2387              	.LVL275:
 2388 00aa 00E0     		b	.L181
 2389              	.L247:
 725:..\..\..\liblc3\src/spec.c ****         if (z > 2*w)
 2390              		.loc 1 725 0
 2391 00ac 0020     		movs	r0, #0
 2392              	.LVL276:
 2393              	.L181:
 724:..\..\..\liblc3\src/spec.c ****         z = fabsf(x[i]) < xq_lim ? z + 1 : 0;
 2394              		.loc 1 724 0
 2395 00ae 0133     		adds	r3, r3, #1
 2396              	.LVL277:
 2397 00b0 E1E7     		b	.L180
 2398              	.LVL278:
 2399              	.L248:
 730:..\..\..\liblc3\src/spec.c ****         if (++z > 2*w)
 2400              		.loc 1 730 0
 2401 00b2 0E44     		add	r6, r6, r1
 2402              	.LVL279:
 2403              	.L184:
 2404 00b4 B342     		cmp	r3, r6
 2405 00b6 10DA     		bge	.L249
 731:..\..\..\liblc3\src/spec.c ****             sum += fabsf(x[i - w]), ns++;
 2406              		.loc 1 731 0
 2407 00b8 0130     		adds	r0, r0, #1
 2408              	.LVL280:
 2409 00ba 8445     		cmp	ip, r0
 2410 00bc 0BDA     		bge	.L185
 732:..\..\..\liblc3\src/spec.c **** 
 2411              		.loc 1 732 0
 2412 00be 1C9D     		ldr	r5, [sp, #112]
 2413 00c0 C1EB030E 		rsb	lr, r1, r3
 2414 00c4 05EB8E0E 		add	lr, r5, lr, lsl #2
 2415 00c8 9EED007A 		vldr.32	s14, [lr]
 2416 00cc B0EEC77A 		vabs.f32	s14, s14
 2417 00d0 77EE877A 		vadd.f32	s15, s15, s14
 2418              	.LVL281:
 2419 00d4 0132     		adds	r2, r2, #1
 2420              	.LVL282:
 2421              	.L185:
 730:..\..\..\liblc3\src/spec.c ****         if (++z > 2*w)
 2422              		.loc 1 730 0
 2423 00d6 0133     		adds	r3, r3, #1
 2424              	.LVL283:
 2425 00d8 ECE7     		b	.L184
 2426              	.L249:
 2427 00da B6EE008A 		vmov.f32	s16, #5.0e-1
 2428              	.LVL284:
 734:..\..\..\liblc3\src/spec.c **** 
 2429              		.loc 1 734 0
 2430 00de B2B1     		cbz	r2, .L222
ARM GAS  C:\Users\rdn\AppData\Local\Temp\ccYcaPXH.s 			page 74


 2431 00e0 F3EE006A 		vmov.f32	s13, #1.6e+1
 2432 00e4 67EEA66A 		vmul.f32	s13, s15, s13
 2433 00e8 07EE902A 		vmov	s15, r2	@ int
 2434              	.LVL285:
 2435 00ec B8EEE77A 		vcvt.f32.s32	s14, s15
 2436 00f0 C6EE877A 		vdiv.f32	s15, s13, s14
 2437 00f4 77EE887A 		vadd.f32	s15, s15, s16
 2438 00f8 FDEEE77A 		vcvt.s32.f32	s15, s15
 2439 00fc 17EE901A 		vmov	r1, s15	@ int
 2440              	.LVL286:
 2441 0100 C1F10801 		rsb	r1, r1, #8
 2442              	.LVL287:
 736:..\..\..\liblc3\src/spec.c **** }
 2443              		.loc 1 736 0
 2444 0104 0629     		cmp	r1, #6
 2445 0106 02DC     		bgt	.L222
 2446 0108 21EAE171 		bic	r1, r1, r1, asr #31
 2447              	.LVL288:
 2448 010c 00E0     		b	.L187
 2449              	.LVL289:
 2450              	.L222:
 2451 010e 0721     		movs	r1, #7
 2452              	.L187:
 2453              	.LVL290:
 2454              	.LBE228:
 2455              	.LBE231:
 2456              	.LBB232:
 2457              	.LBB233:
 777:..\..\..\liblc3\src/spec.c **** }
 2458              		.loc 1 777 0
 2459 0110 0322     		movs	r2, #3
 2460 0112 3846     		mov	r0, r7
 2461 0114 FFF7FEFF 		bl	lc3_put_bits
 2462              	.LVL291:
 2463              	.LBE233:
 2464              	.LBE232:
 2465              	.LBB234:
 2466              	.LBB235:
 2467              	.LBB236:
 2468              	.LBB237:
 306:..\..\..\liblc3\src/spec.c **** 
 2469              		.loc 1 306 0
 2470 0118 BAF1040F 		cmp	r10, #4
 2471 011c 8CBF     		ite	hi
 2472 011e 0AF1FF32 		addhi	r2, r10, #-1
 2473 0122 5246     		movls	r2, r10
 2474              	.LVL292:
 311:..\..\..\liblc3\src/spec.c **** }
 2475              		.loc 1 311 0
 2476 0124 1423     		movs	r3, #20
 2477 0126 02FB0333 		mla	r3, r2, r3, r3
 2478 012a 1A9A     		ldr	r2, [sp, #104]
 2479              	.LVL293:
 2480 012c 9A42     		cmp	r2, r3
 2481 012e 05DD     		ble	.L223
 2482 0130 BAF1050F 		cmp	r10, #5
 2483 0134 8CBF     		ite	hi
ARM GAS  C:\Users\rdn\AppData\Local\Temp\ccYcaPXH.s 			page 75


 2484 0136 0023     		movhi	r3, #0
 2485 0138 0123     		movls	r3, #1
 2486 013a 00E0     		b	.L190
 2487              	.L223:
 2488 013c 0023     		movs	r3, #0
 2489              	.L190:
 2490              	.LVL294:
 2491              	.LBE237:
 2492              	.LBE236:
 2493              	.LBB238:
 2494              	.LBB239:
 2495              		.loc 2 51 0
 2496 013e 009A     		ldr	r2, [sp]
 2497 0140 52F82A20 		ldr	r2, [r2, r10, lsl #2]
 2498 0144 BAF1040F 		cmp	r10, #4
 2499 0148 02FB04F2 		mul	r2, r2, r4
 2500 014c F5EE088A 		vmov.f32	s17, #3.75e-1
 2501 0150 4FEA4303 		lsl	r3, r3, #1
 2502 0154 0592     		str	r2, [sp, #20]
 2503              	.LVL295:
 2504 0156 88BF     		it	hi
 2505 0158 F0EE488A 		vmovhi.f32	s17, s16
 2506 015c 18F10002 		adds	r2, r8, #0
 2507 0160 18BF     		it	ne
 2508 0162 0122     		movne	r2, #1
 2509 0164 0693     		str	r3, [sp, #24]
 2510              	.LBE239:
 2511              	.LBE238:
 2512              	.LBB240:
 430:..\..\..\liblc3\src/spec.c ****         const uint8_t (*lut_coeff)[4] = lc3_spectrum_lookup[high_rate][h];
 2513              		.loc 1 430 0
 2514 0166 0023     		movs	r3, #0
 2515 0168 0892     		str	r2, [sp, #32]
 2516 016a 0093     		str	r3, [sp]
 2517              	.LBE240:
 428:..\..\..\liblc3\src/spec.c **** 
 2518              		.loc 1 428 0
 2519 016c 0393     		str	r3, [sp, #12]
 2520              	.LBB243:
 430:..\..\..\liblc3\src/spec.c ****         const uint8_t (*lut_coeff)[4] = lc3_spectrum_lookup[high_rate][h];
 2521              		.loc 1 430 0
 2522 016e 0193     		str	r3, [sp, #4]
 2523              	.LVL296:
 2524              	.L201:
 2525 0170 069A     		ldr	r2, [sp, #24]
 2526 0172 019B     		ldr	r3, [sp, #4]
 2527 0174 1344     		add	r3, r3, r2
 2528 0176 9B02     		lsls	r3, r3, #10
 2529 0178 0993     		str	r3, [sp, #36]
 2530              	.LVL297:
 2531              	.LBB241:
 433:..\..\..\liblc3\src/spec.c **** 
 2532              		.loc 1 433 0
 2533 017a 019A     		ldr	r2, [sp, #4]
 2534 017c 059B     		ldr	r3, [sp, #20]
 2535              	.LVL298:
 2536 017e C2F10102 		rsb	r2, r2, #1
ARM GAS  C:\Users\rdn\AppData\Local\Temp\ccYcaPXH.s 			page 76


 2537 0182 0233     		adds	r3, r3, #2
 2538 0184 1341     		asrs	r3, r3, r2
 2539 0186 029A     		ldr	r2, [sp, #8]
 2540 0188 9342     		cmp	r3, r2
 2541 018a A8BF     		it	ge
 2542 018c 1346     		movge	r3, r2
 2543 018e 0793     		str	r3, [sp, #28]
 2544 0190 009A     		ldr	r2, [sp]
 2545 0192 1C9B     		ldr	r3, [sp, #112]
 2546 0194 03EB820B 		add	fp, r3, r2, lsl #2
 2547              	.L191:
 2548 0198 009B     		ldr	r3, [sp]
 2549 019a 079A     		ldr	r2, [sp, #28]
 2550 019c 9342     		cmp	r3, r2
 2551 019e 80F2A980 		bge	.L250
 2552              	.LVL299:
 2553              	.LBB242:
 436:..\..\..\liblc3\src/spec.c ****             uint32_t b = fabsf(x[i+1]) + xq_off;
 2554              		.loc 1 436 0
 2555 01a2 DBED007A 		vldr.32	s15, [fp]
 439:..\..\..\liblc3\src/spec.c **** 
 2556              		.loc 1 439 0
 2557 01a6 099B     		ldr	r3, [sp, #36]
 2558 01a8 039A     		ldr	r2, [sp, #12]
 436:..\..\..\liblc3\src/spec.c ****             uint32_t b = fabsf(x[i+1]) + xq_off;
 2559              		.loc 1 436 0
 2560 01aa F0EEE77A 		vabs.f32	s15, s15
 2561 01ae 77EEA87A 		vadd.f32	s15, s15, s17
 439:..\..\..\liblc3\src/spec.c **** 
 2562              		.loc 1 439 0
 2563 01b2 03EB8202 		add	r2, r3, r2, lsl #2
 436:..\..\..\liblc3\src/spec.c ****             uint32_t b = fabsf(x[i+1]) + xq_off;
 2564              		.loc 1 436 0
 2565 01b6 FCEEE77A 		vcvt.u32.f32	s15, s15
 439:..\..\..\liblc3\src/spec.c **** 
 2566              		.loc 1 439 0
 2567 01ba 4C4B     		ldr	r3, .L252+8
 436:..\..\..\liblc3\src/spec.c ****             uint32_t b = fabsf(x[i+1]) + xq_off;
 2568              		.loc 1 436 0
 2569 01bc 17EE906A 		vmov	r6, s15	@ int
 2570              	.LVL300:
 437:..\..\..\liblc3\src/spec.c **** 
 2571              		.loc 1 437 0
 2572 01c0 DBED017A 		vldr.32	s15, [fp, #4]
 2573 01c4 F0EEE77A 		vabs.f32	s15, s15
 2574 01c8 77EEA87A 		vadd.f32	s15, s15, s17
 439:..\..\..\liblc3\src/spec.c **** 
 2575              		.loc 1 439 0
 2576 01cc D318     		adds	r3, r2, r3
 437:..\..\..\liblc3\src/spec.c **** 
 2577              		.loc 1 437 0
 2578 01ce FCEEE77A 		vcvt.u32.f32	s15, s15
 439:..\..\..\liblc3\src/spec.c **** 
 2579              		.loc 1 439 0
 2580 01d2 0493     		str	r3, [sp, #16]
 437:..\..\..\liblc3\src/spec.c **** 
 2581              		.loc 1 437 0
ARM GAS  C:\Users\rdn\AppData\Local\Temp\ccYcaPXH.s 			page 77


 2582 01d4 17EE909A 		vmov	r9, s15	@ int
 2583              	.LVL301:
 446:..\..\..\liblc3\src/spec.c ****             unsigned k = 0, shr = 0;
 2584              		.loc 1 446 0
 2585 01d8 46EA0905 		orr	r5, r6, r9
 2586              	.LVL302:
 449:..\..\..\liblc3\src/spec.c **** 
 2587              		.loc 1 449 0
 2588 01dc AD08     		lsrs	r5, r5, #2
 2589              	.LVL303:
 2590 01de 3BD0     		beq	.L224
 451:..\..\..\liblc3\src/spec.c ****                     lc3_put_symbol(bits,
 2591              		.loc 1 451 0
 2592 01e0 B8F1000F 		cmp	r8, #0
 2593 01e4 0AD0     		beq	.L193
 2594              	.LVL304:
 452:..\..\..\liblc3\src/spec.c ****                         lc3_spectrum_models + lut[k++], 16);
 2595              		.loc 1 452 0
 2596 01e6 414B     		ldr	r3, .L252+8
 2597              	.LVL305:
 2598 01e8 995C     		ldrb	r1, [r3, r2]	@ zero_extendqisi2
 2599 01ea 414B     		ldr	r3, .L252+12
 2600 01ec 01EB0111 		add	r1, r1, r1, lsl #4
 2601 01f0 1022     		movs	r2, #16
 2602 01f2 03EB8101 		add	r1, r3, r1, lsl #2
 2603 01f6 3846     		mov	r0, r7
 2604 01f8 FFF7FEFF 		bl	lc3_put_symbol
 2605              	.LVL306:
 2606              	.L193:
 455:..\..\..\liblc3\src/spec.c ****                     lc3_put_bit(bits, (a >> k) & 1);
 2607              		.loc 1 455 0
 2608 01fc 089C     		ldr	r4, [sp, #32]
 2609 01fe 25FA08F5 		lsr	r5, r5, r8
 2610              	.LVL307:
 2611              	.L194:
 2612 0202 FDB1     		cbz	r5, .L251
 456:..\..\..\liblc3\src/spec.c ****                     lc3_put_bit(bits, (b >> k) & 1);
 2613              		.loc 1 456 0
 2614 0204 26FA04F1 		lsr	r1, r6, r4
 2615 0208 01F00101 		and	r1, r1, #1
 2616 020c 3846     		mov	r0, r7
 2617 020e FFF7FEFF 		bl	lc3_put_bit
 2618              	.LVL308:
 457:..\..\..\liblc3\src/spec.c ****                     lc3_put_symbol(bits,
 2619              		.loc 1 457 0
 2620 0212 29FA04F1 		lsr	r1, r9, r4
 2621 0216 01F00101 		and	r1, r1, #1
 2622 021a 3846     		mov	r0, r7
 2623 021c FFF7FEFF 		bl	lc3_put_bit
 2624              	.LVL309:
 459:..\..\..\liblc3\src/spec.c ****                 }
 2625              		.loc 1 459 0
 2626 0220 032C     		cmp	r4, #3
 2627 0222 2246     		mov	r2, r4
 458:..\..\..\liblc3\src/spec.c ****                         lc3_spectrum_models + lut[LC3_MIN(k, 3)], 16);
 2628              		.loc 1 458 0
 2629 0224 049B     		ldr	r3, [sp, #16]
ARM GAS  C:\Users\rdn\AppData\Local\Temp\ccYcaPXH.s 			page 78


 459:..\..\..\liblc3\src/spec.c ****                 }
 2630              		.loc 1 459 0
 2631 0226 28BF     		it	cs
 2632 0228 0322     		movcs	r2, #3
 458:..\..\..\liblc3\src/spec.c ****                         lc3_spectrum_models + lut[LC3_MIN(k, 3)], 16);
 2633              		.loc 1 458 0
 2634 022a 3846     		mov	r0, r7
 2635 022c 995C     		ldrb	r1, [r3, r2]	@ zero_extendqisi2
 2636 022e 304B     		ldr	r3, .L252+12
 2637 0230 01EB0111 		add	r1, r1, r1, lsl #4
 2638 0234 1022     		movs	r2, #16
 2639 0236 03EB8101 		add	r1, r3, r1, lsl #2
 2640 023a FFF7FEFF 		bl	lc3_put_symbol
 2641              	.LVL310:
 455:..\..\..\liblc3\src/spec.c ****                     lc3_put_bit(bits, (a >> k) & 1);
 2642              		.loc 1 455 0
 2643 023e 6D08     		lsrs	r5, r5, #1
 2644              	.LVL311:
 2645 0240 0134     		adds	r4, r4, #1
 2646              	.LVL312:
 2647 0242 DEE7     		b	.L194
 2648              	.L251:
 466:..\..\..\liblc3\src/spec.c ****             }
 2649              		.loc 1 466 0
 2650 0244 032C     		cmp	r4, #3
 465:..\..\..\liblc3\src/spec.c ****                 k = LC3_MIN(k, 3);
 2651              		.loc 1 465 0
 2652 0246 C8EB0405 		rsb	r5, r8, r4
 2653              	.LVL313:
 462:..\..\..\liblc3\src/spec.c ****                 b >>= lsb_mode;
 2654              		.loc 1 462 0
 2655 024a 26FA08F6 		lsr	r6, r6, r8
 2656              	.LVL314:
 463:..\..\..\liblc3\src/spec.c **** 
 2657              		.loc 1 463 0
 2658 024e 29FA08F9 		lsr	r9, r9, r8
 2659              	.LVL315:
 466:..\..\..\liblc3\src/spec.c ****             }
 2660              		.loc 1 466 0
 2661 0252 28BF     		it	cs
 2662 0254 0324     		movcs	r4, #3
 2663              	.LVL316:
 2664 0256 00E0     		b	.L192
 2665              	.LVL317:
 2666              	.L224:
 447:..\..\..\liblc3\src/spec.c **** 
 2667              		.loc 1 447 0
 2668 0258 2C46     		mov	r4, r5
 2669              	.LVL318:
 2670              	.L192:
 471:..\..\..\liblc3\src/spec.c ****             if (b) lc3_put_bit(bits, x[i+1] < 0);
 2671              		.loc 1 471 0
 2672 025a 5EB1     		cbz	r6, .L196
 2673 025c DBED007A 		vldr.32	s15, [fp]
 2674 0260 F5EEC07A 		vcmpe.f32	s15, #0
 2675 0264 F1EE10FA 		vmrs	APSR_nzcv, FPSCR
 2676 0268 4CBF     		ite	mi
ARM GAS  C:\Users\rdn\AppData\Local\Temp\ccYcaPXH.s 			page 79


 2677 026a 0121     		movmi	r1, #1
 2678 026c 0021     		movpl	r1, #0
 2679 026e 3846     		mov	r0, r7
 2680 0270 FFF7FEFF 		bl	lc3_put_bit
 2681              	.LVL319:
 2682              	.L196:
 472:..\..\..\liblc3\src/spec.c **** 
 2683              		.loc 1 472 0
 2684 0274 B9F1000F 		cmp	r9, #0
 2685 0278 0BD0     		beq	.L197
 2686 027a DBED017A 		vldr.32	s15, [fp, #4]
 2687 027e F5EEC07A 		vcmpe.f32	s15, #0
 2688 0282 F1EE10FA 		vmrs	APSR_nzcv, FPSCR
 2689 0286 4CBF     		ite	mi
 2690 0288 0121     		movmi	r1, #1
 2691 028a 0021     		movpl	r1, #0
 2692 028c 3846     		mov	r0, r7
 2693 028e FFF7FEFF 		bl	lc3_put_bit
 2694              	.LVL320:
 2695              	.L197:
 479:..\..\..\liblc3\src/spec.c **** 
 2696              		.loc 1 479 0
 2697 0292 049B     		ldr	r3, [sp, #16]
 2698 0294 195D     		ldrb	r1, [r3, r4]	@ zero_extendqisi2
 2699 0296 164B     		ldr	r3, .L252+12
 476:..\..\..\liblc3\src/spec.c ****             b >>= shr;
 2700              		.loc 1 476 0
 2701 0298 EE40     		lsrs	r6, r6, r5
 2702              	.LVL321:
 477:..\..\..\liblc3\src/spec.c **** 
 2703              		.loc 1 477 0
 2704 029a 29FA05F9 		lsr	r9, r9, r5
 2705              	.LVL322:
 479:..\..\..\liblc3\src/spec.c **** 
 2706              		.loc 1 479 0
 2707 029e 01EB0111 		add	r1, r1, r1, lsl #4
 2708 02a2 06EB8902 		add	r2, r6, r9, lsl #2
 2709 02a6 03EB8101 		add	r1, r3, r1, lsl #2
 2710 02aa 3846     		mov	r0, r7
 2711 02ac FFF7FEFF 		bl	lc3_put_symbol
 2712              	.LVL323:
 483:..\..\..\liblc3\src/spec.c ****         }
 2713              		.loc 1 483 0
 2714 02b0 012C     		cmp	r4, #1
 2715 02b2 039B     		ldr	r3, [sp, #12]
 2716 02b4 9EBF     		ittt	ls
 2717 02b6 4E44     		addls	r6, r6, r9
 2718              	.LVL324:
 2719 02b8 621C     		addls	r2, r4, #1
 2720 02ba 16FB02F6 		smulbbls	r6, r6, r2
 2721 02be 4FEA0311 		lsl	r1, r3, #4
 2722 02c2 8CBF     		ite	hi
 2723 02c4 0C34     		addhi	r4, r4, #12
 2724              	.LVL325:
 2725 02c6 0136     		addls	r6, r6, #1
 2726 02c8 C9B2     		uxtb	r1, r1
 2727 02ca 8CBF     		ite	hi
ARM GAS  C:\Users\rdn\AppData\Local\Temp\ccYcaPXH.s 			page 80


 2728 02cc E4B2     		uxtbhi	r4, r4
 2729 02ce F4B2     		uxtbls	r4, r6
 2730 02d0 0C44     		add	r4, r4, r1
 2731 02d2 E3B2     		uxtb	r3, r4
 2732 02d4 0393     		str	r3, [sp, #12]
 2733              	.LVL326:
 2734              	.LBE242:
 433:..\..\..\liblc3\src/spec.c **** 
 2735              		.loc 1 433 0
 2736 02d6 009B     		ldr	r3, [sp]
 2737 02d8 0233     		adds	r3, r3, #2
 2738 02da 0093     		str	r3, [sp]
 2739              	.LVL327:
 2740 02dc 0BF1080B 		add	fp, fp, #8
 2741 02e0 5AE7     		b	.L191
 2742              	.L253:
 2743 02e2 00BF     		.align	2
 2744              	.L252:
 2745 02e4 00000000 		.word	lc3_ne_2m5
 2746 02e8 00000000 		.word	0
 2747 02ec 00000000 		.word	lc3_spectrum_lookup
 2748 02f0 00000000 		.word	lc3_spectrum_models
 2749              	.LVL328:
 2750              	.L250:
 2751              	.LBE241:
 430:..\..\..\liblc3\src/spec.c ****         const uint8_t (*lut_coeff)[4] = lc3_spectrum_lookup[high_rate][h];
 2752              		.loc 1 430 0
 2753 02f4 019B     		ldr	r3, [sp, #4]
 2754              	.LVL329:
 2755 02f6 0133     		adds	r3, r3, #1
 2756 02f8 022B     		cmp	r3, #2
 2757 02fa 0193     		str	r3, [sp, #4]
 2758              	.LVL330:
 2759 02fc 7FF438AF 		bne	.L201
 2760              	.LVL331:
 2761              	.LBE243:
 2762              	.LBE235:
 2763              	.LBE234:
 893:..\..\..\liblc3\src/spec.c **** 
 894:..\..\..\liblc3\src/spec.c ****     put_noise_factor(bits, estimate_noise(dt, bw, lc3_hr(sr), x, nq));
 895:..\..\..\liblc3\src/spec.c **** 
 896:..\..\..\liblc3\src/spec.c ****     put_quantized(bits, dt, sr, nbytes, x, nq, lsb_mode);
 897:..\..\..\liblc3\src/spec.c **** 
 898:..\..\..\liblc3\src/spec.c ****     int nbits_left = lc3_get_bits_left(bits);
 2764              		.loc 1 898 0
 2765 0300 3846     		mov	r0, r7
 2766 0302 FFF7FEFF 		bl	lc3_get_bits_left
 2767              	.LVL332:
 2768 0306 0446     		mov	r4, r0
 2769              	.LVL333:
 899:..\..\..\liblc3\src/spec.c **** 
 900:..\..\..\liblc3\src/spec.c ****     if (lsb_mode)
 2770              		.loc 1 900 0
 2771 0308 B8F1000F 		cmp	r8, #0
 2772 030c 5FD0     		beq	.L202
 2773 030e DDF87080 		ldr	r8, [sp, #112]
 2774              	.LVL334:
ARM GAS  C:\Users\rdn\AppData\Local\Temp\ccYcaPXH.s 			page 81


 2775 0312 4FF00009 		mov	r9, #0
 2776              	.LVL335:
 2777              	.L203:
 2778              	.LBB244:
 2779              	.LBB245:
 640:..\..\..\liblc3\src/spec.c **** 
 2780              		.loc 1 640 0
 2781 0316 029B     		ldr	r3, [sp, #8]
 2782 0318 4B45     		cmp	r3, r9
 2783 031a 40F3AF80 		ble	.L177
 2784 031e 002C     		cmp	r4, #0
 2785 0320 40F3AC80 		ble	.L177
 2786              	.LVL336:
 2787              	.LBB246:
 643:..\..\..\liblc3\src/spec.c ****         uint32_t b = fabsf(x[i+1]) + xq_off;
 2788              		.loc 1 643 0
 2789 0324 D8ED007A 		vldr.32	s15, [r8]
 2790 0328 F0EEE77A 		vabs.f32	s15, s15
 2791 032c 77EEA87A 		vadd.f32	s15, s15, s17
 2792 0330 FCEEE77A 		vcvt.u32.f32	s15, s15
 2793 0334 17EE906A 		vmov	r6, s15	@ int
 2794              	.LVL337:
 644:..\..\..\liblc3\src/spec.c **** 
 2795              		.loc 1 644 0
 2796 0338 D8ED017A 		vldr.32	s15, [r8, #4]
 2797 033c F0EEE77A 		vabs.f32	s15, s15
 2798 0340 77EEA87A 		vadd.f32	s15, s15, s17
 2799 0344 FCEEE77A 		vcvt.u32.f32	s15, s15
 2800 0348 17EE905A 		vmov	r5, s15	@ int
 2801              	.LVL338:
 646:..\..\..\liblc3\src/spec.c ****             continue;
 2802              		.loc 1 646 0
 2803 034c 46EA0503 		orr	r3, r6, r5
 2804 0350 9B08     		lsrs	r3, r3, #2
 2805 0352 37D0     		beq	.L204
 650:..\..\..\liblc3\src/spec.c **** 
 2806              		.loc 1 650 0
 2807 0354 06F00101 		and	r1, r6, #1
 2808 0358 3846     		mov	r0, r7
 2809 035a FFF7FEFF 		bl	lc3_put_bit
 2810              	.LVL339:
 652:..\..\..\liblc3\src/spec.c ****             lc3_put_bit(bits, x[i+0] < 0);
 2811              		.loc 1 652 0
 2812 035e 012E     		cmp	r6, #1
 649:..\..\..\liblc3\src/spec.c ****             lc3_put_bit(bits, a & 1);
 2813              		.loc 1 649 0
 2814 0360 04F1FF3A 		add	r10, r4, #-1
 2815              	.LVL340:
 652:..\..\..\liblc3\src/spec.c ****             lc3_put_bit(bits, x[i+0] < 0);
 2816              		.loc 1 652 0
 2817 0364 10D1     		bne	.L225
 2818 0366 023C     		subs	r4, r4, #2
 2819              	.LVL341:
 2820 0368 BAF1000F 		cmp	r10, #0
 2821 036c 0DD0     		beq	.L205
 653:..\..\..\liblc3\src/spec.c **** 
 2822              		.loc 1 653 0
ARM GAS  C:\Users\rdn\AppData\Local\Temp\ccYcaPXH.s 			page 82


 2823 036e D8ED007A 		vldr.32	s15, [r8]
 2824 0372 F5EEC07A 		vcmpe.f32	s15, #0
 2825 0376 F1EE10FA 		vmrs	APSR_nzcv, FPSCR
 2826 037a 4CBF     		ite	mi
 2827 037c 0121     		movmi	r1, #1
 2828 037e 0021     		movpl	r1, #0
 2829 0380 3846     		mov	r0, r7
 2830 0382 FFF7FEFF 		bl	lc3_put_bit
 2831              	.LVL342:
 2832 0386 00E0     		b	.L205
 2833              	.LVL343:
 2834              	.L225:
 649:..\..\..\liblc3\src/spec.c ****             lc3_put_bit(bits, a & 1);
 2835              		.loc 1 649 0
 2836 0388 5446     		mov	r4, r10
 2837              	.LVL344:
 2838              	.L205:
 655:..\..\..\liblc3\src/spec.c ****             lc3_put_bit(bits, b & 1);
 2839              		.loc 1 655 0
 2840 038a 002C     		cmp	r4, #0
 2841 038c 04F1FF36 		add	r6, r4, #-1
 2842              	.LVL345:
 2843 0390 04DD     		ble	.L206
 656:..\..\..\liblc3\src/spec.c **** 
 2844              		.loc 1 656 0
 2845 0392 05F00101 		and	r1, r5, #1
 2846 0396 3846     		mov	r0, r7
 2847 0398 FFF7FEFF 		bl	lc3_put_bit
 2848              	.LVL346:
 2849              	.L206:
 658:..\..\..\liblc3\src/spec.c ****             lc3_put_bit(bits, x[i+1] < 0);
 2850              		.loc 1 658 0
 2851 039c 012D     		cmp	r5, #1
 2852 039e 10D1     		bne	.L226
 2853 03a0 002E     		cmp	r6, #0
 2854 03a2 A4F10204 		sub	r4, r4, #2
 2855              	.LVL347:
 2856 03a6 0DDD     		ble	.L204
 659:..\..\..\liblc3\src/spec.c ****     }
 2857              		.loc 1 659 0
 2858 03a8 D8ED017A 		vldr.32	s15, [r8, #4]
 2859 03ac F5EEC07A 		vcmpe.f32	s15, #0
 2860 03b0 F1EE10FA 		vmrs	APSR_nzcv, FPSCR
 2861 03b4 4CBF     		ite	mi
 2862 03b6 0121     		movmi	r1, #1
 2863 03b8 0021     		movpl	r1, #0
 2864 03ba 3846     		mov	r0, r7
 2865 03bc FFF7FEFF 		bl	lc3_put_bit
 2866              	.LVL348:
 2867 03c0 00E0     		b	.L204
 2868              	.LVL349:
 2869              	.L226:
 655:..\..\..\liblc3\src/spec.c ****             lc3_put_bit(bits, b & 1);
 2870              		.loc 1 655 0
 2871 03c2 3446     		mov	r4, r6
 2872              	.LVL350:
 2873              	.L204:
ARM GAS  C:\Users\rdn\AppData\Local\Temp\ccYcaPXH.s 			page 83


 2874              	.LBE246:
 640:..\..\..\liblc3\src/spec.c **** 
 2875              		.loc 1 640 0
 2876 03c4 09F10209 		add	r9, r9, #2
 2877              	.LVL351:
 2878 03c8 08F10808 		add	r8, r8, #8
 2879 03cc A3E7     		b	.L203
 2880              	.LVL352:
 2881              	.L202:
 2882              	.LBE245:
 2883              	.LBE244:
 2884              	.LBB247:
 2885              	.LBB248:
 577:..\..\..\liblc3\src/spec.c ****     float xq_off = xq_lim / 2;
 2886              		.loc 1 577 0
 2887 03ce BAF1040F 		cmp	r10, #4
 2888 03d2 F6EE048A 		vmov.f32	s17, #6.25e-1
 2889 03d6 F6EE007A 		vmov.f32	s15, #5.0e-1
 2890 03da 88BF     		it	hi
 2891 03dc F0EE678A 		vmovhi.f32	s17, s15
 2892              	.LVL353:
 578:..\..\..\liblc3\src/spec.c **** 
 2893              		.loc 1 578 0
 2894 03e0 28EE888A 		vmul.f32	s16, s17, s16
 2895              	.LVL354:
 2896 03e4 8CBF     		ite	hi
 2897 03e6 4FF0140A 		movhi	r10, #20
 2898              	.LVL355:
 2899 03ea 4FF0010A 		movls	r10, #1
 2900              	.LVL356:
 2901              	.L211:
 2902              	.LBB249:
 580:..\..\..\liblc3\src/spec.c ****         for (int i = 0; i < n && nbits > 0; i++) {
 2903              		.loc 1 580 0
 2904 03ee 002C     		cmp	r4, #0
 2905 03f0 44DD     		ble	.L177
 2906 03f2 1C9D     		ldr	r5, [sp, #112]
 2907 03f4 4FF00009 		mov	r9, #0
 2908              	.LBB250:
 2909              	.LBB251:
 591:..\..\..\liblc3\src/spec.c ****         }
 2910              		.loc 1 591 0
 2911 03f8 B1EE48AA 		vneg.f32	s20, s16
 2912              	.L217:
 2913              	.LVL357:
 2914              	.LBE251:
 581:..\..\..\liblc3\src/spec.c **** 
 2915              		.loc 1 581 0
 2916 03fc 029B     		ldr	r3, [sp, #8]
 2917 03fe 4B45     		cmp	r3, r9
 2918 0400 06DC     		bgt	.L214
 2919              	.L216:
 2920              	.LBE250:
 580:..\..\..\liblc3\src/spec.c ****         for (int i = 0; i < n && nbits > 0; i++) {
 2921              		.loc 1 580 0
 2922 0402 08F10108 		add	r8, r8, #1
 2923              	.LVL358:
ARM GAS  C:\Users\rdn\AppData\Local\Temp\ccYcaPXH.s 			page 84


 2924 0406 D045     		cmp	r8, r10
 594:..\..\..\liblc3\src/spec.c ****     }
 2925              		.loc 1 594 0
 2926 0408 28EE288A 		vmul.f32	s16, s16, s17
 2927              	.LVL359:
 580:..\..\..\liblc3\src/spec.c ****         for (int i = 0; i < n && nbits > 0; i++) {
 2928              		.loc 1 580 0
 2929 040c EFD1     		bne	.L211
 2930 040e 35E0     		b	.L177
 2931              	.L214:
 2932              	.LBB253:
 581:..\..\..\liblc3\src/spec.c **** 
 2933              		.loc 1 581 0
 2934 0410 002C     		cmp	r4, #0
 2935 0412 F6DD     		ble	.L216
 2936              	.LBB252:
 583:..\..\..\liblc3\src/spec.c ****             if (xr < xq_lim)
 2937              		.loc 1 583 0
 2938 0414 F5EC019A 		vldmia.32	r5!, {s19}
 2939 0418 B0EEE99A 		vabs.f32	s18, s19
 2940              	.LVL360:
 584:..\..\..\liblc3\src/spec.c ****                 continue;
 2941              		.loc 1 584 0
 2942 041c F4EEC98A 		vcmpe.f32	s17, s18
 2943 0420 F1EE10FA 		vmrs	APSR_nzcv, FPSCR
 2944 0424 27DC     		bgt	.L212
 587:..\..\..\liblc3\src/spec.c ****             lc3_put_bit(bits, b);
 2945              		.loc 1 587 0
 2946 0426 19EE100A 		vmov	r0, s18
 2947 042a FFF7FEFF 		bl	truncf
 2948              	.LVL361:
 2949 042e 07EE900A 		vmov	s15, r0
 2950 0432 39EE679A 		vsub.f32	s18, s18, s15
 2951              	.LVL362:
 588:..\..\..\liblc3\src/spec.c ****             nbits--;
 2952              		.loc 1 588 0
 2953 0436 3846     		mov	r0, r7
 2954 0438 F4EEC98A 		vcmpe.f32	s17, s18
 2955 043c F1EE10FA 		vmrs	APSR_nzcv, FPSCR
 2956 0440 F5EEC09A 		vcmpe.f32	s19, #0
 2957 0444 CCBF     		ite	gt
 2958 0446 0126     		movgt	r6, #1
 2959 0448 0026     		movle	r6, #0
 2960 044a F1EE10FA 		vmrs	APSR_nzcv, FPSCR
 2961 044e 4CBF     		ite	mi
 2962 0450 0123     		movmi	r3, #1
 2963 0452 0023     		movpl	r3, #0
 2964 0454 5E40     		eors	r6, r6, r3
 2965              	.LVL363:
 2966 0456 3146     		mov	r1, r6
 2967 0458 FFF7FEFF 		bl	lc3_put_bit
 2968              	.LVL364:
 591:..\..\..\liblc3\src/spec.c ****         }
 2969              		.loc 1 591 0
 2970 045c 55ED017A 		vldr.32	s15, [r5, #-4]
 2971 0460 002E     		cmp	r6, #0
 2972 0462 14BF     		ite	ne
ARM GAS  C:\Users\rdn\AppData\Local\Temp\ccYcaPXH.s 			page 85


 2973 0464 B0EE4A7A 		vmovne.f32	s14, s20
 2974 0468 B0EE487A 		vmoveq.f32	s14, s16
 2975 046c 77EE877A 		vadd.f32	s15, s15, s14
 589:..\..\..\liblc3\src/spec.c **** 
 2976              		.loc 1 589 0
 2977 0470 013C     		subs	r4, r4, #1
 2978              	.LVL365:
 591:..\..\..\liblc3\src/spec.c ****         }
 2979              		.loc 1 591 0
 2980 0472 45ED017A 		vstr.32	s15, [r5, #-4]
 2981              	.LVL366:
 2982              	.L212:
 2983              	.LBE252:
 581:..\..\..\liblc3\src/spec.c **** 
 2984              		.loc 1 581 0
 2985 0476 09F10109 		add	r9, r9, #1
 2986              	.LVL367:
 2987 047a BFE7     		b	.L217
 2988              	.LVL368:
 2989              	.L177:
 2990              	.LBE253:
 2991              	.LBE249:
 2992              	.LBE248:
 2993              	.LBE247:
 901:..\..\..\liblc3\src/spec.c ****         put_lsb(bits, nbits_left, lc3_hr(sr), x, nq);
 902:..\..\..\liblc3\src/spec.c ****     else
 903:..\..\..\liblc3\src/spec.c ****         put_residual(bits, nbits_left, lc3_hr(sr), x, nq);
 904:..\..\..\liblc3\src/spec.c **** }
 2994              		.loc 1 904 0
 2995 047c 0BB0     		add	sp, sp, #44
 2996              		.cfi_def_cfa_offset 60
 2997              		@ sp needed
 2998 047e BDEC068B 		vldm	sp!, {d8-d10}
 2999              		.cfi_restore 84
 3000              		.cfi_restore 85
 3001              		.cfi_restore 82
 3002              		.cfi_restore 83
 3003              		.cfi_restore 80
 3004              		.cfi_restore 81
 3005              		.cfi_def_cfa_offset 36
 3006 0482 BDE8F08F 		pop	{r4, r5, r6, r7, r8, r9, r10, fp, pc}
 3007              		.cfi_endproc
 3008              	.LFE42:
 3009              		.size	lc3_spec_encode, .-lc3_spec_encode
 3010 0486 00BF     		.section	.text.lc3_spec_get_side,"ax",%progbits
 3011              		.align	1
 3012              		.global	lc3_spec_get_side
 3013              		.thumb
 3014              		.thumb_func
 3015              		.type	lc3_spec_get_side, %function
 3016              	lc3_spec_get_side:
 3017              	.LFB43:
 905:..\..\..\liblc3\src/spec.c **** 
 906:..\..\..\liblc3\src/spec.c **** 
 907:..\..\..\liblc3\src/spec.c **** /* ----------------------------------------------------------------------------
 908:..\..\..\liblc3\src/spec.c ****  *  Decoding
 909:..\..\..\liblc3\src/spec.c ****  * -------------------------------------------------------------------------- */
ARM GAS  C:\Users\rdn\AppData\Local\Temp\ccYcaPXH.s 			page 86


 910:..\..\..\liblc3\src/spec.c **** 
 911:..\..\..\liblc3\src/spec.c **** /**
 912:..\..\..\liblc3\src/spec.c ****  * Get spectral quantization side data
 913:..\..\..\liblc3\src/spec.c ****  */
 914:..\..\..\liblc3\src/spec.c **** int lc3_spec_get_side(lc3_bits_t *bits,
 915:..\..\..\liblc3\src/spec.c ****     enum lc3_dt dt, enum lc3_srate sr, struct lc3_spec_side *side)
 916:..\..\..\liblc3\src/spec.c **** {
 3018              		.loc 1 916 0
 3019              		.cfi_startproc
 3020              		@ args = 0, pretend = 0, frame = 0
 3021              		@ frame_needed = 0, uses_anonymous_args = 0
 3022              	.LVL369:
 3023 0000 F8B5     		push	{r3, r4, r5, r6, r7, lr}
 3024              		.cfi_def_cfa_offset 24
 3025              		.cfi_offset 3, -24
 3026              		.cfi_offset 4, -20
 3027              		.cfi_offset 5, -16
 3028              		.cfi_offset 6, -12
 3029              		.cfi_offset 7, -8
 3030              		.cfi_offset 14, -4
 3031              		.loc 1 916 0
 3032 0002 0F46     		mov	r7, r1
 3033 0004 0646     		mov	r6, r0
 917:..\..\..\liblc3\src/spec.c ****     int nbits_nq = get_nbits_nq(dt, sr);
 3034              		.loc 1 917 0
 3035 0006 1146     		mov	r1, r2
 3036              	.LVL370:
 3037 0008 3846     		mov	r0, r7
 3038              	.LVL371:
 916:..\..\..\liblc3\src/spec.c ****     int nbits_nq = get_nbits_nq(dt, sr);
 3039              		.loc 1 916 0
 3040 000a 1C46     		mov	r4, r3
 3041              		.loc 1 917 0
 3042 000c FFF7FEFF 		bl	get_nbits_nq
 3043              	.LVL372:
 3044              	.LBB254:
 3045              	.LBB255:
 3046              		.loc 2 51 0
 3047 0010 0F4B     		ldr	r3, .L257
 3048              	.LBE255:
 3049              	.LBE254:
 918:..\..\..\liblc3\src/spec.c ****     int ne = lc3_ne(dt, sr);
 919:..\..\..\liblc3\src/spec.c **** 
 920:..\..\..\liblc3\src/spec.c ****     side->nq = (lc3_get_bits(bits, nbits_nq) + 1) << 1;
 3050              		.loc 1 920 0
 3051 0012 0146     		mov	r1, r0
 3052 0014 3046     		mov	r0, r6
 3053              	.LVL373:
 3054              	.LBB258:
 3055              	.LBB256:
 3056              		.loc 2 51 0
 3057 0016 53F82250 		ldr	r5, [r3, r2, lsl #2]
 3058              	.LBE256:
 3059              	.LBE258:
 3060              		.loc 1 920 0
 3061 001a FFF7FEFF 		bl	lc3_get_bits
 3062              	.LVL374:
ARM GAS  C:\Users\rdn\AppData\Local\Temp\ccYcaPXH.s 			page 87


 3063 001e 0130     		adds	r0, r0, #1
 3064 0020 4000     		lsls	r0, r0, #1
 3065 0022 6060     		str	r0, [r4, #4]
 921:..\..\..\liblc3\src/spec.c ****     side->lsb_mode = lc3_get_bit(bits);
 3066              		.loc 1 921 0
 3067 0024 3046     		mov	r0, r6
 3068 0026 FFF7FEFF 		bl	lc3_get_bit
 3069              	.LVL375:
 3070 002a 0030     		adds	r0, r0, #0
 3071 002c 18BF     		it	ne
 3072 002e 0120     		movne	r0, #1
 3073 0030 2072     		strb	r0, [r4, #8]
 922:..\..\..\liblc3\src/spec.c ****     side->g_idx = lc3_get_bits(bits, 8);
 3074              		.loc 1 922 0
 3075 0032 0821     		movs	r1, #8
 3076 0034 3046     		mov	r0, r6
 3077 0036 FFF7FEFF 		bl	lc3_get_bits
 3078              	.LVL376:
 923:..\..\..\liblc3\src/spec.c **** 
 924:..\..\..\liblc3\src/spec.c ****     return side->nq > ne ? (side->nq = ne), -1 : 0;
 3079              		.loc 1 924 0
 3080 003a 6368     		ldr	r3, [r4, #4]
 922:..\..\..\liblc3\src/spec.c ****     side->g_idx = lc3_get_bits(bits, 8);
 3081              		.loc 1 922 0
 3082 003c 2060     		str	r0, [r4]
 3083              	.LBB259:
 3084              	.LBB257:
 3085              		.loc 2 51 0
 3086 003e 07FB0555 		mla	r5, r7, r5, r5
 3087              	.LVL377:
 3088              	.LBE257:
 3089              	.LBE259:
 3090              		.loc 1 924 0
 3091 0042 AB42     		cmp	r3, r5
 3092 0044 C6BF     		itte	gt
 3093 0046 4FF0FF30 		movgt	r0, #-1
 3094 004a 6560     		strgt	r5, [r4, #4]
 3095 004c 0020     		movle	r0, #0
 925:..\..\..\liblc3\src/spec.c **** }
 3096              		.loc 1 925 0
 3097 004e F8BD     		pop	{r3, r4, r5, r6, r7, pc}
 3098              	.LVL378:
 3099              	.L258:
 3100              		.align	2
 3101              	.L257:
 3102 0050 00000000 		.word	lc3_ne_2m5
 3103              		.cfi_endproc
 3104              	.LFE43:
 3105              		.size	lc3_spec_get_side, .-lc3_spec_get_side
 3106              		.section	.text.lc3_spec_decode,"ax",%progbits
 3107              		.align	1
 3108              		.global	lc3_spec_decode
 3109              		.thumb
 3110              		.thumb_func
 3111              		.type	lc3_spec_decode, %function
 3112              	lc3_spec_decode:
 3113              	.LFB44:
ARM GAS  C:\Users\rdn\AppData\Local\Temp\ccYcaPXH.s 			page 88


 926:..\..\..\liblc3\src/spec.c **** 
 927:..\..\..\liblc3\src/spec.c **** /**
 928:..\..\..\liblc3\src/spec.c ****  * Decode spectral coefficients
 929:..\..\..\liblc3\src/spec.c ****  */
 930:..\..\..\liblc3\src/spec.c **** int lc3_spec_decode(lc3_bits_t *bits,
 931:..\..\..\liblc3\src/spec.c ****     enum lc3_dt dt, enum lc3_srate sr, enum lc3_bandwidth bw,
 932:..\..\..\liblc3\src/spec.c ****     int nbytes, const lc3_spec_side_t *side, float *x)
 933:..\..\..\liblc3\src/spec.c **** {
 3114              		.loc 1 933 0
 3115              		.cfi_startproc
 3116              		@ args = 12, pretend = 0, frame = 64
 3117              		@ frame_needed = 0, uses_anonymous_args = 0
 3118              	.LVL379:
 3119 0000 2DE9F04F 		push	{r4, r5, r6, r7, r8, r9, r10, fp, lr}
 3120              		.cfi_def_cfa_offset 36
 3121              		.cfi_offset 4, -36
 3122              		.cfi_offset 5, -32
 3123              		.cfi_offset 6, -28
 3124              		.cfi_offset 7, -24
 3125              		.cfi_offset 8, -20
 3126              		.cfi_offset 9, -16
 3127              		.cfi_offset 10, -12
 3128              		.cfi_offset 11, -8
 3129              		.cfi_offset 14, -4
 3130 0004 2DED048B 		vpush.64	{d8, d9}
 3131              		.cfi_def_cfa_offset 52
 3132              		.cfi_offset 80, -52
 3133              		.cfi_offset 81, -48
 3134              		.cfi_offset 82, -44
 3135              		.cfi_offset 83, -40
 3136 0008 91B0     		sub	sp, sp, #68
 3137              		.cfi_def_cfa_offset 120
 3138              		.loc 1 933 0
 3139 000a 9346     		mov	fp, r2
 3140 000c 0F93     		str	r3, [sp, #60]
 934:..\..\..\liblc3\src/spec.c ****     bool lsb_mode = side->lsb_mode;
 3141              		.loc 1 934 0
 3142 000e 1F9B     		ldr	r3, [sp, #124]
 3143              	.LVL380:
 933:..\..\..\liblc3\src/spec.c ****     bool lsb_mode = side->lsb_mode;
 3144              		.loc 1 933 0
 3145 0010 0691     		str	r1, [sp, #24]
 3146              		.loc 1 934 0
 3147 0012 1B7A     		ldrb	r3, [r3, #8]	@ zero_extendqisi2
 3148 0014 0593     		str	r3, [sp, #20]
 3149              	.LVL381:
 935:..\..\..\liblc3\src/spec.c ****     int nq = side->nq;
 3150              		.loc 1 935 0
 3151 0016 1F9B     		ldr	r3, [sp, #124]
 933:..\..\..\liblc3\src/spec.c ****     bool lsb_mode = side->lsb_mode;
 3152              		.loc 1 933 0
 3153 0018 DDF880A0 		ldr	r10, [sp, #128]
 3154              		.loc 1 935 0
 3155 001c 5B68     		ldr	r3, [r3, #4]
 3156 001e 0093     		str	r3, [sp]
 3157              	.LVL382:
 3158              	.LBB289:
ARM GAS  C:\Users\rdn\AppData\Local\Temp\ccYcaPXH.s 			page 89


 3159              	.LBB290:
 787:..\..\..\liblc3\src/spec.c **** }
 3160              		.loc 1 787 0
 3161 0020 0321     		movs	r1, #3
 3162              	.LVL383:
 3163              	.LBE290:
 3164              	.LBE289:
 933:..\..\..\liblc3\src/spec.c ****     bool lsb_mode = side->lsb_mode;
 3165              		.loc 1 933 0
 3166 0022 0646     		mov	r6, r0
 3167              	.LVL384:
 3168              	.LBB293:
 3169              	.LBB291:
 787:..\..\..\liblc3\src/spec.c **** }
 3170              		.loc 1 787 0
 3171 0024 FFF7FEFF 		bl	lc3_get_bits
 3172              	.LVL385:
 3173              	.LBE291:
 3174              	.LBE293:
 3175              	.LBB294:
 3176              	.LBB295:
 3177              	.LBB296:
 3178              	.LBB297:
 306:..\..\..\liblc3\src/spec.c **** 
 3179              		.loc 1 306 0
 3180 0028 BBF1040F 		cmp	fp, #4
 3181 002c 8CBF     		ite	hi
 3182 002e 0BF1FF32 		addhi	r2, fp, #-1
 3183 0032 5A46     		movls	r2, fp
 311:..\..\..\liblc3\src/spec.c **** }
 3184              		.loc 1 311 0
 3185 0034 1423     		movs	r3, #20
 3186 0036 02FB0333 		mla	r3, r2, r3, r3
 3187 003a 1E9A     		ldr	r2, [sp, #120]
 3188              	.LBE297:
 3189              	.LBE296:
 3190              	.LBE295:
 3191              	.LBE294:
 3192              	.LBB314:
 3193              	.LBB292:
 787:..\..\..\liblc3\src/spec.c **** }
 3194              		.loc 1 787 0
 3195 003c 0790     		str	r0, [sp, #28]
 3196              	.LVL386:
 3197              	.LBE292:
 3198              	.LBE314:
 3199              	.LBB315:
 3200              	.LBB312:
 3201              	.LBB299:
 3202              	.LBB298:
 311:..\..\..\liblc3\src/spec.c **** }
 3203              		.loc 1 311 0
 3204 003e 9A42     		cmp	r2, r3
 3205 0040 05DD     		ble	.L316
 3206 0042 BBF1050F 		cmp	fp, #5
 3207 0046 8CBF     		ite	hi
 3208 0048 0023     		movhi	r3, #0
ARM GAS  C:\Users\rdn\AppData\Local\Temp\ccYcaPXH.s 			page 90


 3209 004a 0123     		movls	r3, #1
 3210 004c 00E0     		b	.L262
 3211              	.L316:
 3212 004e 0023     		movs	r3, #0
 3213              	.L262:
 3214              	.LVL387:
 3215              	.LBE298:
 3216              	.LBE299:
 3217              	.LBB300:
 3218              	.LBB301:
 3219              		.loc 2 51 0
 3220 0050 069A     		ldr	r2, [sp, #24]
 3221              	.LVL388:
 3222 0052 0132     		adds	r2, r2, #1
 3223 0054 0392     		str	r2, [sp, #12]
 3224 0056 C54A     		ldr	r2, .L359
 3225 0058 0399     		ldr	r1, [sp, #12]
 3226 005a 52F82B20 		ldr	r2, [r2, fp, lsl #2]
 3227 005e BBF1040F 		cmp	fp, #4
 3228 0062 02FB01F2 		mul	r2, r2, r1
 3229              	.LBE301:
 3230              	.LBE300:
 504:..\..\..\liblc3\src/spec.c **** 
 3231              		.loc 1 504 0
 3232 0066 4FF00004 		mov	r4, #0
 3233              	.LBB303:
 3234              	.LBB302:
 3235              		.loc 2 51 0
 3236 006a 0A92     		str	r2, [sp, #40]
 3237              	.LVL389:
 3238 006c 4FEA4303 		lsl	r3, r3, #1
 3239 0070 8CBF     		ite	hi
 3240 0072 1622     		movhi	r2, #22
 3241 0074 0E22     		movls	r2, #14
 3242 0076 0B92     		str	r2, [sp, #44]
 3243 0078 0C93     		str	r3, [sp, #48]
 3244              	.LBE302:
 3245              	.LBE303:
 3246              	.LBB304:
 510:..\..\..\liblc3\src/spec.c ****         const uint8_t (*lut_coeff)[4] = lc3_spectrum_lookup[high_rate][h];
 3247              		.loc 1 510 0
 3248 007a 0194     		str	r4, [sp, #4]
 3249              	.LBE304:
 508:..\..\..\liblc3\src/spec.c **** 
 3250              		.loc 1 508 0
 3251 007c A146     		mov	r9, r4
 3252              	.LBB310:
 510:..\..\..\liblc3\src/spec.c ****         const uint8_t (*lut_coeff)[4] = lc3_spectrum_lookup[high_rate][h];
 3253              		.loc 1 510 0
 3254 007e 0294     		str	r4, [sp, #8]
 3255              	.LVL390:
 3256              	.L276:
 3257 0080 0C9A     		ldr	r2, [sp, #48]
 3258 0082 029B     		ldr	r3, [sp, #8]
 3259 0084 1344     		add	r3, r3, r2
 3260 0086 9B02     		lsls	r3, r3, #10
 3261 0088 0E93     		str	r3, [sp, #56]
ARM GAS  C:\Users\rdn\AppData\Local\Temp\ccYcaPXH.s 			page 91


 3262              	.LVL391:
 3263              	.LBB305:
 513:..\..\..\liblc3\src/spec.c **** 
 3264              		.loc 1 513 0
 3265 008a 029A     		ldr	r2, [sp, #8]
 3266 008c 0A9B     		ldr	r3, [sp, #40]
 3267              	.LVL392:
 3268 008e C2F10102 		rsb	r2, r2, #1
 3269 0092 0233     		adds	r3, r3, #2
 3270 0094 1341     		asrs	r3, r3, r2
 3271 0096 009A     		ldr	r2, [sp]
 3272 0098 9342     		cmp	r3, r2
 3273 009a A8BF     		it	ge
 3274 009c 1346     		movge	r3, r2
 3275 009e 0D93     		str	r3, [sp, #52]
 3276 00a0 019B     		ldr	r3, [sp, #4]
 3277 00a2 0AEB8303 		add	r3, r10, r3, lsl #2
 3278              	.L352:
 3279 00a6 0493     		str	r3, [sp, #16]
 3280 00a8 0D9A     		ldr	r2, [sp, #52]
 3281 00aa 019B     		ldr	r3, [sp, #4]
 3282 00ac 9342     		cmp	r3, r2
 3283 00ae 4FDA     		bge	.L354
 3284              	.LBB306:
 515:..\..\..\liblc3\src/spec.c ****             int max_shl = lc3_hr(sr) ? 22 : 14;
 3285              		.loc 1 515 0
 3286 00b0 0E9B     		ldr	r3, [sp, #56]
 3287 00b2 AF4A     		ldr	r2, .L359+4
 3288 00b4 03EB8903 		add	r3, r3, r9, lsl #2
 3289 00b8 9A18     		adds	r2, r3, r2
 3290 00ba 0892     		str	r2, [sp, #32]
 3291              	.LVL393:
 526:..\..\..\liblc3\src/spec.c **** 
 3292              		.loc 1 526 0
 3293 00bc AC4A     		ldr	r2, .L359+4
 3294              	.LVL394:
 3295 00be D15C     		ldrb	r1, [r2, r3]	@ zero_extendqisi2
 3296 00c0 AC4B     		ldr	r3, .L359+8
 3297 00c2 01EB0111 		add	r1, r1, r1, lsl #4
 3298 00c6 03EB8101 		add	r1, r3, r1, lsl #2
 3299 00ca 3046     		mov	r0, r6
 3300 00cc FFF7FEFF 		bl	lc3_get_symbol
 3301              	.LVL395:
 528:..\..\..\liblc3\src/spec.c ****                 s = lc3_get_symbol(bits, lc3_spectrum_models + lut[++k]);
 3302              		.loc 1 528 0
 3303 00d0 059B     		ldr	r3, [sp, #20]
 3304 00d2 7BB1     		cbz	r3, .L317
 3305 00d4 0F28     		cmp	r0, #15
 3306 00d6 40F2DA81 		bls	.L318
 3307              	.LVL396:
 529:..\..\..\liblc3\src/spec.c ****                 shl++;
 3308              		.loc 1 529 0
 3309 00da 089B     		ldr	r3, [sp, #32]
 3310 00dc 5978     		ldrb	r1, [r3, #1]	@ zero_extendqisi2
 3311 00de A54B     		ldr	r3, .L359+8
 3312 00e0 01EB0111 		add	r1, r1, r1, lsl #4
 3313 00e4 03EB8101 		add	r1, r3, r1, lsl #2
ARM GAS  C:\Users\rdn\AppData\Local\Temp\ccYcaPXH.s 			page 92


 3314 00e8 3046     		mov	r0, r6
 3315              	.LVL397:
 3316 00ea FFF7FEFF 		bl	lc3_get_symbol
 3317              	.LVL398:
 3318 00ee 4FF00108 		mov	r8, #1
 3319 00f2 01E0     		b	.L264
 3320              	.LVL399:
 3321              	.L317:
 524:..\..\..\liblc3\src/spec.c **** 
 3322              		.loc 1 524 0
 3323 00f4 DDF81480 		ldr	r8, [sp, #20]
 3324              	.LVL400:
 3325              	.L264:
 529:..\..\..\liblc3\src/spec.c ****                 shl++;
 3326              		.loc 1 529 0
 3327 00f8 0027     		movs	r7, #0
 3328 00fa 4546     		mov	r5, r8
 3329 00fc 3B46     		mov	r3, r7
 3330              	.LVL401:
 3331              	.L266:
 533:..\..\..\liblc3\src/spec.c ****                 u |= lc3_get_bit(bits) << shl;
 3332              		.loc 1 533 0
 3333 00fe 0F28     		cmp	r0, #15
 3334 0100 40F2C981 		bls	.L265
 3335 0104 0B9A     		ldr	r2, [sp, #44]
 3336 0106 9045     		cmp	r8, r2
 3337 0108 1FDA     		bge	.L355
 534:..\..\..\liblc3\src/spec.c ****                 v |= lc3_get_bit(bits) << shl;
 3338              		.loc 1 534 0
 3339 010a 3046     		mov	r0, r6
 3340              	.LVL402:
 3341 010c 0993     		str	r3, [sp, #36]
 3342 010e FFF7FEFF 		bl	lc3_get_bit
 3343              	.LVL403:
 3344 0112 099B     		ldr	r3, [sp, #36]
 3345 0114 00FA08F0 		lsl	r0, r0, r8
 3346 0118 0343     		orrs	r3, r3, r0
 535:..\..\..\liblc3\src/spec.c **** 
 3347              		.loc 1 535 0
 3348 011a 3046     		mov	r0, r6
 534:..\..\..\liblc3\src/spec.c ****                 v |= lc3_get_bit(bits) << shl;
 3349              		.loc 1 534 0
 3350 011c 0993     		str	r3, [sp, #36]
 3351              	.LVL404:
 537:..\..\..\liblc3\src/spec.c ****                 s  = lc3_get_symbol(bits, lc3_spectrum_models + lut[k]);
 3352              		.loc 1 537 0
 3353 011e 022D     		cmp	r5, #2
 3354 0120 D8BF     		it	le
 3355 0122 0135     		addle	r5, r5, #1
 3356              	.LVL405:
 535:..\..\..\liblc3\src/spec.c **** 
 3357              		.loc 1 535 0
 3358 0124 FFF7FEFF 		bl	lc3_get_bit
 3359              	.LVL406:
 538:..\..\..\liblc3\src/spec.c ****             }
 3360              		.loc 1 538 0
 3361 0128 089B     		ldr	r3, [sp, #32]
ARM GAS  C:\Users\rdn\AppData\Local\Temp\ccYcaPXH.s 			page 93


 3362 012a 595D     		ldrb	r1, [r3, r5]	@ zero_extendqisi2
 3363 012c 914B     		ldr	r3, .L359+8
 535:..\..\..\liblc3\src/spec.c **** 
 3364              		.loc 1 535 0
 3365 012e 00FA08F0 		lsl	r0, r0, r8
 538:..\..\..\liblc3\src/spec.c ****             }
 3366              		.loc 1 538 0
 3367 0132 01EB0111 		add	r1, r1, r1, lsl #4
 3368 0136 03EB8101 		add	r1, r3, r1, lsl #2
 535:..\..\..\liblc3\src/spec.c **** 
 3369              		.loc 1 535 0
 3370 013a 0743     		orrs	r7, r7, r0
 3371              	.LVL407:
 538:..\..\..\liblc3\src/spec.c ****             }
 3372              		.loc 1 538 0
 3373 013c 3046     		mov	r0, r6
 3374 013e FFF7FEFF 		bl	lc3_get_symbol
 3375              	.LVL408:
 533:..\..\..\liblc3\src/spec.c ****                 u |= lc3_get_bit(bits) << shl;
 3376              		.loc 1 533 0
 3377 0142 08F10108 		add	r8, r8, #1
 3378              	.LVL409:
 3379 0146 099B     		ldr	r3, [sp, #36]
 3380              	.LVL410:
 3381 0148 D9E7     		b	.L266
 3382              	.LVL411:
 3383              	.L355:
 3384 014a 4FF0FF30 		mov	r0, #-1
 3385              	.LVL412:
 3386 014e FCE1     		b	.L349
 3387              	.LVL413:
 3388              	.L354:
 3389              	.LBE306:
 3390              	.LBE305:
 510:..\..\..\liblc3\src/spec.c ****         const uint8_t (*lut_coeff)[4] = lc3_spectrum_lookup[high_rate][h];
 3391              		.loc 1 510 0
 3392 0150 029B     		ldr	r3, [sp, #8]
 3393              	.LVL414:
 3394 0152 0133     		adds	r3, r3, #1
 3395 0154 022B     		cmp	r3, #2
 3396 0156 0293     		str	r3, [sp, #8]
 3397              	.LVL415:
 3398 0158 92D1     		bne	.L276
 3399              	.LVL416:
 3400              	.LBE310:
 3401              	.LBE312:
 3402              	.LBE315:
 936:..\..\..\liblc3\src/spec.c ****     int ret = 0;
 937:..\..\..\liblc3\src/spec.c **** 
 938:..\..\..\liblc3\src/spec.c ****     int nf = get_noise_factor(bits);
 939:..\..\..\liblc3\src/spec.c ****     uint16_t nf_seed;
 940:..\..\..\liblc3\src/spec.c **** 
 941:..\..\..\liblc3\src/spec.c ****     if ((ret = get_quantized(bits, dt, sr, nbytes,
 942:..\..\..\liblc3\src/spec.c ****                     nq, lsb_mode, x, &nf_seed)) < 0)
 943:..\..\..\liblc3\src/spec.c ****         return ret;
 944:..\..\..\liblc3\src/spec.c **** 
 945:..\..\..\liblc3\src/spec.c ****     int nbits_left = lc3_get_bits_left(bits);
ARM GAS  C:\Users\rdn\AppData\Local\Temp\ccYcaPXH.s 			page 94


 3403              		.loc 1 945 0
 3404 015a 3046     		mov	r0, r6
 3405 015c FFF7FEFF 		bl	lc3_get_bits_left
 3406              	.LVL417:
 946:..\..\..\liblc3\src/spec.c **** 
 947:..\..\..\liblc3\src/spec.c ****     if (lsb_mode)
 3407              		.loc 1 947 0
 3408 0160 059B     		ldr	r3, [sp, #20]
 945:..\..\..\liblc3\src/spec.c **** 
 3409              		.loc 1 945 0
 3410 0162 0546     		mov	r5, r0
 3411              	.LVL418:
 3412              		.loc 1 947 0
 3413 0164 002B     		cmp	r3, #0
 3414 0166 00F08A80 		beq	.L277
 3415 016a D046     		mov	r8, r10
 3416 016c 0027     		movs	r7, #0
 3417              	.LBB316:
 3418              	.LBB317:
 3419              	.LBB318:
 677:..\..\..\liblc3\src/spec.c ****             continue;
 3420              		.loc 1 677 0
 3421 016e F1EE009A 		vmov.f32	s19, #4.0e+0
 695:..\..\..\liblc3\src/spec.c ****                 *nf_seed = (*nf_seed + i+1) & 0xffff;
 3422              		.loc 1 695 0
 3423 0172 BFEE008A 		vmov.f32	s16, #-1.0e+0
 3424              	.LVL419:
 3425              	.L278:
 3426              	.LBE318:
 673:..\..\..\liblc3\src/spec.c **** 
 3427              		.loc 1 673 0
 3428 0176 009B     		ldr	r3, [sp]
 3429 0178 BB42     		cmp	r3, r7
 3430 017a 40F3D180 		ble	.L287
 3431 017e 002D     		cmp	r5, #0
 3432 0180 40F3CE80 		ble	.L287
 3433              	.LBB319:
 675:..\..\..\liblc3\src/spec.c **** 
 3434              		.loc 1 675 0
 3435 0184 98ED009A 		vldr.32	s18, [r8]
 3436 0188 D8ED018A 		vldr.32	s17, [r8, #4]
 3437 018c B0EEC99A 		vabs.f32	s18, s18
 3438              	.LVL420:
 3439 0190 F0EEE88A 		vabs.f32	s17, s17
 3440              	.LVL421:
 677:..\..\..\liblc3\src/spec.c ****             continue;
 3441              		.loc 1 677 0
 3442 0194 18EE901A 		vmov	r1, s17
 3443 0198 19EE100A 		vmov	r0, s18
 3444 019c FFF7FEFF 		bl	fmaxf
 3445              	.LVL422:
 3446 01a0 07EE900A 		vmov	s15, r0
 3447 01a4 F4EEE97A 		vcmpe.f32	s15, s19
 3448 01a8 F1EE10FA 		vmrs	APSR_nzcv, FPSCR
 3449 01ac 63D4     		bmi	.L279
 680:..\..\..\liblc3\src/spec.c ****             if (a) {
 3450              		.loc 1 680 0
ARM GAS  C:\Users\rdn\AppData\Local\Temp\ccYcaPXH.s 			page 95


 3451 01ae 3046     		mov	r0, r6
 3452 01b0 05F1FF39 		add	r9, r5, #-1
 3453              	.LVL423:
 3454 01b4 FFF7FEFF 		bl	lc3_get_bit
 3455              	.LVL424:
 3456 01b8 40B3     		cbz	r0, .L280
 681:..\..\..\liblc3\src/spec.c ****                 x[i] += x[i] < 0 ? -1 : 1;
 3457              		.loc 1 681 0
 3458 01ba B5EE409A 		vcmp.f32	s18, #0
 3459 01be F1EE10FA 		vmrs	APSR_nzcv, FPSCR
 3460 01c2 11D0     		beq	.L281
 682:..\..\..\liblc3\src/spec.c ****                 *nf_seed = (*nf_seed + i) & 0xffff;
 3461              		.loc 1 682 0
 3462 01c4 D8ED007A 		vldr.32	s15, [r8]
 3463 01c8 F5EEC07A 		vcmpe.f32	s15, #0
 3464 01cc F1EE10FA 		vmrs	APSR_nzcv, FPSCR
 3465 01d0 B7EE007A 		vmov.f32	s14, #1.0e+0
 3466 01d4 48BF     		it	mi
 3467 01d6 B0EE487A 		vmovmi.f32	s14, s16
 3468 01da 77EE877A 		vadd.f32	s15, s15, s14
 683:..\..\..\liblc3\src/spec.c ****             } else if (nbits-- > 0) {
 3469              		.loc 1 683 0
 3470 01de 3C44     		add	r4, r4, r7
 3471              	.LVL425:
 682:..\..\..\liblc3\src/spec.c ****                 *nf_seed = (*nf_seed + i) & 0xffff;
 3472              		.loc 1 682 0
 3473 01e0 C8ED007A 		vstr.32	s15, [r8]
 683:..\..\..\liblc3\src/spec.c ****             } else if (nbits-- > 0) {
 3474              		.loc 1 683 0
 3475 01e4 A4B2     		uxth	r4, r4
 3476              	.LVL426:
 3477 01e6 11E0     		b	.L280
 3478              	.L281:
 684:..\..\..\liblc3\src/spec.c ****                 x[i] = lc3_get_bit(bits) ? -1 : 1;
 3479              		.loc 1 684 0
 3480 01e8 023D     		subs	r5, r5, #2
 3481              	.LVL427:
 3482 01ea B9F1000F 		cmp	r9, #0
 3483 01ee 0CD0     		beq	.L320
 685:..\..\..\liblc3\src/spec.c ****                 *nf_seed = (*nf_seed + i) & 0xffff;
 3484              		.loc 1 685 0
 3485 01f0 3046     		mov	r0, r6
 3486 01f2 FFF7FEFF 		bl	lc3_get_bit
 3487              	.LVL428:
 3488 01f6 F7EE007A 		vmov.f32	s15, #1.0e+0
 3489 01fa 0028     		cmp	r0, #0
 3490 01fc 18BF     		it	ne
 3491 01fe F0EE487A 		vmovne.f32	s15, s16
 686:..\..\..\liblc3\src/spec.c ****             }
 3492              		.loc 1 686 0
 3493 0202 3C44     		add	r4, r4, r7
 3494              	.LVL429:
 685:..\..\..\liblc3\src/spec.c ****                 *nf_seed = (*nf_seed + i) & 0xffff;
 3495              		.loc 1 685 0
 3496 0204 C8ED007A 		vstr.32	s15, [r8]
 686:..\..\..\liblc3\src/spec.c ****             }
 3497              		.loc 1 686 0
ARM GAS  C:\Users\rdn\AppData\Local\Temp\ccYcaPXH.s 			page 96


 3498 0208 A4B2     		uxth	r4, r4
 3499              	.LVL430:
 3500              	.L320:
 684:..\..\..\liblc3\src/spec.c ****                 x[i] = lc3_get_bit(bits) ? -1 : 1;
 3501              		.loc 1 684 0
 3502 020a A946     		mov	r9, r5
 3503              	.LVL431:
 3504              	.L280:
 690:..\..\..\liblc3\src/spec.c ****             if (b) {
 3505              		.loc 1 690 0
 3506 020c B9F1000F 		cmp	r9, #0
 3507 0210 09F1FF35 		add	r5, r9, #-1
 3508              	.LVL432:
 3509 0214 2FDD     		ble	.L279
 3510 0216 3046     		mov	r0, r6
 3511 0218 FFF7FEFF 		bl	lc3_get_bit
 3512              	.LVL433:
 3513 021c 58B3     		cbz	r0, .L279
 691:..\..\..\liblc3\src/spec.c ****                 x[i+1] += x[i+1] < 0 ? -1 : 1;
 3514              		.loc 1 691 0
 3515 021e F5EE408A 		vcmp.f32	s17, #0
 3516 0222 F1EE10FA 		vmrs	APSR_nzcv, FPSCR
 3517 0226 12D0     		beq	.L284
 692:..\..\..\liblc3\src/spec.c ****                 *nf_seed = (*nf_seed + i+1) & 0xffff;
 3518              		.loc 1 692 0
 3519 0228 D8ED017A 		vldr.32	s15, [r8, #4]
 3520 022c F5EEC07A 		vcmpe.f32	s15, #0
 3521 0230 F1EE10FA 		vmrs	APSR_nzcv, FPSCR
 3522 0234 B7EE007A 		vmov.f32	s14, #1.0e+0
 3523 0238 48BF     		it	mi
 3524 023a B0EE487A 		vmovmi.f32	s14, s16
 3525 023e 77EE877A 		vadd.f32	s15, s15, s14
 693:..\..\..\liblc3\src/spec.c ****             } else if (nbits-- > 0) {
 3526              		.loc 1 693 0
 3527 0242 7B1C     		adds	r3, r7, #1
 3528 0244 1C44     		add	r4, r4, r3
 3529              	.LVL434:
 692:..\..\..\liblc3\src/spec.c ****                 *nf_seed = (*nf_seed + i+1) & 0xffff;
 3530              		.loc 1 692 0
 3531 0246 C8ED017A 		vstr.32	s15, [r8, #4]
 693:..\..\..\liblc3\src/spec.c ****             } else if (nbits-- > 0) {
 3532              		.loc 1 693 0
 3533 024a A4B2     		uxth	r4, r4
 3534              	.LVL435:
 3535 024c 13E0     		b	.L279
 3536              	.L284:
 694:..\..\..\liblc3\src/spec.c ****                 x[i+1] = lc3_get_bit(bits) ? -1 : 1;
 3537              		.loc 1 694 0
 3538 024e 002D     		cmp	r5, #0
 3539 0250 A9F10209 		sub	r9, r9, #2
 3540              	.LVL436:
 3541 0254 0EDD     		ble	.L323
 695:..\..\..\liblc3\src/spec.c ****                 *nf_seed = (*nf_seed + i+1) & 0xffff;
 3542              		.loc 1 695 0
 3543 0256 3046     		mov	r0, r6
 3544 0258 FFF7FEFF 		bl	lc3_get_bit
 3545              	.LVL437:
ARM GAS  C:\Users\rdn\AppData\Local\Temp\ccYcaPXH.s 			page 97


 3546 025c F7EE007A 		vmov.f32	s15, #1.0e+0
 3547 0260 0028     		cmp	r0, #0
 696:..\..\..\liblc3\src/spec.c ****             }
 3548              		.loc 1 696 0
 3549 0262 07F10103 		add	r3, r7, #1
 695:..\..\..\liblc3\src/spec.c ****                 *nf_seed = (*nf_seed + i+1) & 0xffff;
 3550              		.loc 1 695 0
 3551 0266 18BF     		it	ne
 3552 0268 F0EE487A 		vmovne.f32	s15, s16
 696:..\..\..\liblc3\src/spec.c ****             }
 3553              		.loc 1 696 0
 3554 026c 1C44     		add	r4, r4, r3
 3555              	.LVL438:
 695:..\..\..\liblc3\src/spec.c ****                 *nf_seed = (*nf_seed + i+1) & 0xffff;
 3556              		.loc 1 695 0
 3557 026e C8ED017A 		vstr.32	s15, [r8, #4]
 696:..\..\..\liblc3\src/spec.c ****             }
 3558              		.loc 1 696 0
 3559 0272 A4B2     		uxth	r4, r4
 3560              	.LVL439:
 3561              	.L323:
 694:..\..\..\liblc3\src/spec.c ****                 x[i+1] = lc3_get_bit(bits) ? -1 : 1;
 3562              		.loc 1 694 0
 3563 0274 4D46     		mov	r5, r9
 3564              	.LVL440:
 3565              	.L279:
 3566              	.LBE319:
 673:..\..\..\liblc3\src/spec.c **** 
 3567              		.loc 1 673 0
 3568 0276 0237     		adds	r7, r7, #2
 3569              	.LVL441:
 3570 0278 08F10808 		add	r8, r8, #8
 3571 027c 7BE7     		b	.L278
 3572              	.LVL442:
 3573              	.L277:
 3574              	.LBE317:
 3575              	.LBE316:
 3576              	.LBB320:
 3577              	.LBB321:
 608:..\..\..\liblc3\src/spec.c ****     float xq_off_2 = hrmode ? 0.25f : 3.f/16;
 3578              		.loc 1 608 0
 3579 027e BBF1040F 		cmp	fp, #4
 609:..\..\..\liblc3\src/spec.c **** 
 3580              		.loc 1 609 0
 3581 0282 8DBF     		iteet	hi
 3582 0284 B5EE008A 		vmovhi.f32	s16, #2.5e-1
 3583 0288 B4EE088A 		vmovls.f32	s16, #1.875e-1
 608:..\..\..\liblc3\src/spec.c ****     float xq_off_2 = hrmode ? 0.25f : 3.f/16;
 3584              		.loc 1 608 0
 3585 028c F5EE048A 		vmovls.f32	s17, #3.125e-1
 3586 0290 F0EE488A 		vmovhi.f32	s17, s16
 3587 0294 BBF1040F 		cmp	fp, #4
 3588 0298 8CBF     		ite	hi
 3589 029a 1423     		movhi	r3, #20
 3590 029c 0123     		movls	r3, #1
 3591              	.LVL443:
 3592              	.LBB322:
ARM GAS  C:\Users\rdn\AppData\Local\Temp\ccYcaPXH.s 			page 98


 611:..\..\..\liblc3\src/spec.c ****         for (int i = 0; i < n && nbits > 0; i++) {
 3593              		.loc 1 611 0
 3594 029e 4FF00009 		mov	r9, #0
 625:..\..\..\liblc3\src/spec.c ****         xq_off_2 *= 0.5f;
 3595              		.loc 1 625 0
 3596 02a2 B6EE009A 		vmov.f32	s18, #5.0e-1
 3597              	.LVL444:
 3598              	.L290:
 611:..\..\..\liblc3\src/spec.c ****         for (int i = 0; i < n && nbits > 0; i++) {
 3599              		.loc 1 611 0
 3600 02a6 002D     		cmp	r5, #0
 3601 02a8 3ADD     		ble	.L287
 3602 02aa 5746     		mov	r7, r10
 3603 02ac 4FF00008 		mov	r8, #0
 3604              	.L299:
 3605              	.LVL445:
 3606              	.LBB323:
 612:..\..\..\liblc3\src/spec.c **** 
 3607              		.loc 1 612 0
 3608 02b0 009A     		ldr	r2, [sp]
 3609 02b2 4245     		cmp	r2, r8
 3610 02b4 08DC     		bgt	.L296
 3611              	.L298:
 3612              	.LBE323:
 611:..\..\..\liblc3\src/spec.c ****         for (int i = 0; i < n && nbits > 0; i++) {
 3613              		.loc 1 611 0
 3614 02b6 09F10109 		add	r9, r9, #1
 3615              	.LVL446:
 3616 02ba 9945     		cmp	r9, r3
 625:..\..\..\liblc3\src/spec.c ****         xq_off_2 *= 0.5f;
 3617              		.loc 1 625 0
 3618 02bc 68EE898A 		vmul.f32	s17, s17, s18
 3619              	.LVL447:
 626:..\..\..\liblc3\src/spec.c ****     }
 3620              		.loc 1 626 0
 3621 02c0 28EE098A 		vmul.f32	s16, s16, s18
 3622              	.LVL448:
 611:..\..\..\liblc3\src/spec.c ****         for (int i = 0; i < n && nbits > 0; i++) {
 3623              		.loc 1 611 0
 3624 02c4 EFD1     		bne	.L290
 3625 02c6 2BE0     		b	.L287
 3626              	.L296:
 3627              	.LBB324:
 612:..\..\..\liblc3\src/spec.c **** 
 3628              		.loc 1 612 0
 3629 02c8 002D     		cmp	r5, #0
 3630 02ca F4DD     		ble	.L298
 614:..\..\..\liblc3\src/spec.c ****               continue;
 3631              		.loc 1 614 0
 3632 02cc F7EC017A 		vldmia.32	r7!, {s15}
 3633 02d0 F5EE407A 		vcmp.f32	s15, #0
 3634 02d4 F1EE10FA 		vmrs	APSR_nzcv, FPSCR
 3635 02d8 1FD0     		beq	.L291
 617:..\..\..\liblc3\src/spec.c ****                 x[i] -= x[i] < 0 ? xq_off_1 : xq_off_2;
 3636              		.loc 1 617 0
 3637 02da 3046     		mov	r0, r6
 3638 02dc 0193     		str	r3, [sp, #4]
ARM GAS  C:\Users\rdn\AppData\Local\Temp\ccYcaPXH.s 			page 99


 3639 02de FFF7FEFF 		bl	lc3_get_bit
 3640              	.LVL449:
 618:..\..\..\liblc3\src/spec.c ****             else
 3641              		.loc 1 618 0
 3642 02e2 57ED017A 		vldr.32	s15, [r7, #-4]
 617:..\..\..\liblc3\src/spec.c ****                 x[i] -= x[i] < 0 ? xq_off_1 : xq_off_2;
 3643              		.loc 1 617 0
 3644 02e6 019B     		ldr	r3, [sp, #4]
 618:..\..\..\liblc3\src/spec.c ****             else
 3645              		.loc 1 618 0
 3646 02e8 F5EEC07A 		vcmpe.f32	s15, #0
 617:..\..\..\liblc3\src/spec.c ****                 x[i] -= x[i] < 0 ? xq_off_1 : xq_off_2;
 3647              		.loc 1 617 0
 3648 02ec 48B9     		cbnz	r0, .L292
 618:..\..\..\liblc3\src/spec.c ****             else
 3649              		.loc 1 618 0
 3650 02ee F1EE10FA 		vmrs	APSR_nzcv, FPSCR
 3651 02f2 54BF     		ite	pl
 3652 02f4 B0EE487A 		vmovpl.f32	s14, s16
 3653 02f8 B0EE687A 		vmovmi.f32	s14, s17
 3654 02fc 77EEC77A 		vsub.f32	s15, s15, s14
 3655 0300 08E0     		b	.L353
 3656              	.L292:
 620:..\..\..\liblc3\src/spec.c **** 
 3657              		.loc 1 620 0
 3658 0302 F1EE10FA 		vmrs	APSR_nzcv, FPSCR
 3659 0306 D4BF     		ite	le
 3660 0308 B0EE487A 		vmovle.f32	s14, s16
 3661 030c B0EE687A 		vmovgt.f32	s14, s17
 3662 0310 77EE877A 		vadd.f32	s15, s15, s14
 3663              	.L353:
 3664 0314 47ED017A 		vstr.32	s15, [r7, #-4]
 622:..\..\..\liblc3\src/spec.c ****         }
 3665              		.loc 1 622 0
 3666 0318 013D     		subs	r5, r5, #1
 3667              	.LVL450:
 3668              	.L291:
 612:..\..\..\liblc3\src/spec.c **** 
 3669              		.loc 1 612 0
 3670 031a 08F10108 		add	r8, r8, #1
 3671              	.LVL451:
 3672 031e C7E7     		b	.L299
 3673              	.LVL452:
 3674              	.L287:
 3675              	.LBE324:
 3676              	.LBE322:
 3677              	.LBE321:
 3678              	.LBE320:
 948:..\..\..\liblc3\src/spec.c ****         get_lsb(bits, nbits_left, x, nq, &nf_seed);
 949:..\..\..\liblc3\src/spec.c ****     else
 950:..\..\..\liblc3\src/spec.c ****         get_residual(bits, nbits_left, lc3_hr(sr), x, nq);
 951:..\..\..\liblc3\src/spec.c **** 
 952:..\..\..\liblc3\src/spec.c ****     int g_int = side->g_idx - resolve_gain_offset(sr, nbytes);
 3679              		.loc 1 952 0
 3680 0320 1F9B     		ldr	r3, [sp, #124]
 3681 0322 1E99     		ldr	r1, [sp, #120]
 3682 0324 1D68     		ldr	r5, [r3]
ARM GAS  C:\Users\rdn\AppData\Local\Temp\ccYcaPXH.s 			page 100


 3683 0326 5846     		mov	r0, fp
 3684 0328 FFF7FEFF 		bl	resolve_gain_offset
 3685              	.LVL453:
 3686              	.LBB325:
 3687              	.LBB326:
 281:..\..\..\liblc3\src/spec.c ****     int i, ne = lc3_ne(dt, sr);
 3688              		.loc 1 281 0
 3689 032c 281A     		subs	r0, r5, r0
 3690              	.LVL454:
 3691 032e FFF7FEFF 		bl	unquantize_gain
 3692              	.LVL455:
 3693              	.LBB327:
 3694              	.LBB328:
 3695              		.loc 2 51 0
 3696 0332 0E49     		ldr	r1, .L359
 3697 0334 039B     		ldr	r3, [sp, #12]
 3698 0336 51F82B00 		ldr	r0, [r1, fp, lsl #2]
 3699 033a 5246     		mov	r2, r10
 3700 033c 5843     		muls	r0, r3, r0
 3701              	.LVL456:
 3702              	.LBE328:
 3703              	.LBE327:
 284:..\..\..\liblc3\src/spec.c ****         x[i] = x[i] * g;
 3704              		.loc 1 284 0
 3705 033e 0023     		movs	r3, #0
 3706              	.LVL457:
 3707              	.L300:
 3708 0340 009E     		ldr	r6, [sp]
 3709 0342 9E42     		cmp	r6, r3
 3710 0344 07DD     		ble	.L356
 285:..\..\..\liblc3\src/spec.c **** 
 3711              		.loc 1 285 0
 3712 0346 D2ED007A 		vldr.32	s15, [r2]
 3713 034a 67EE807A 		vmul.f32	s15, s15, s0
 284:..\..\..\liblc3\src/spec.c ****         x[i] = x[i] * g;
 3714              		.loc 1 284 0
 3715 034e 0133     		adds	r3, r3, #1
 3716              	.LVL458:
 285:..\..\..\liblc3\src/spec.c **** 
 3717              		.loc 1 285 0
 3718 0350 E2EC017A 		vstmia.32	r2!, {s15}
 3719 0354 F4E7     		b	.L300
 3720              	.L356:
 3721 0356 26EAE673 		bic	r3, r6, r6, asr #31
 3722              	.LVL459:
 3723 035a 0AEB8302 		add	r2, r10, r3, lsl #2
 288:..\..\..\liblc3\src/spec.c **** 
 3724              		.loc 1 288 0
 3725 035e 0026     		movs	r6, #0
 3726              	.L302:
 3727              	.LVL460:
 287:..\..\..\liblc3\src/spec.c ****         x[i] = 0;
 3728              		.loc 1 287 0
 3729 0360 9842     		cmp	r0, r3
 3730 0362 0BDD     		ble	.L357
 288:..\..\..\liblc3\src/spec.c **** 
 3731              		.loc 1 288 0
ARM GAS  C:\Users\rdn\AppData\Local\Temp\ccYcaPXH.s 			page 101


 3732 0364 42F8046B 		str	r6, [r2], #4	@ float
 287:..\..\..\liblc3\src/spec.c ****         x[i] = 0;
 3733              		.loc 1 287 0
 3734 0368 0133     		adds	r3, r3, #1
 3735              	.LVL461:
 3736 036a F9E7     		b	.L302
 3737              	.L360:
 3738              		.align	2
 3739              	.L359:
 3740 036c 00000000 		.word	lc3_ne_2m5
 3741 0370 00000000 		.word	lc3_spectrum_lookup
 3742 0374 00000000 		.word	lc3_spectrum_models
 3743 0378 0000803D 		.word	1031798784
 3744              	.L357:
 3745              	.LVL462:
 3746              	.LBE326:
 3747              	.LBE325:
 953:..\..\..\liblc3\src/spec.c ****     float g = unquantize(dt, sr, g_int, x, nq);
 954:..\..\..\liblc3\src/spec.c **** 
 955:..\..\..\liblc3\src/spec.c ****     if (nq > 2 || x[0] || x[1] || side->g_idx > 0 || nf < 7)
 3748              		.loc 1 955 0
 3749 037c 009B     		ldr	r3, [sp]
 3750 037e 022B     		cmp	r3, #2
 3751 0380 14DC     		bgt	.L304
 3752              		.loc 1 955 0 is_stmt 0 discriminator 1
 3753 0382 DAED007A 		vldr.32	s15, [r10]
 3754 0386 F5EE407A 		vcmp.f32	s15, #0
 3755 038a F1EE10FA 		vmrs	APSR_nzcv, FPSCR
 3756 038e 0DD1     		bne	.L304
 3757              		.loc 1 955 0 discriminator 2
 3758 0390 DAED017A 		vldr.32	s15, [r10, #4]
 3759 0394 F5EE407A 		vcmp.f32	s15, #0
 3760 0398 F1EE10FA 		vmrs	APSR_nzcv, FPSCR
 3761 039c 06D1     		bne	.L304
 3762              		.loc 1 955 0 discriminator 3
 3763 039e 002D     		cmp	r5, #0
 3764 03a0 04DC     		bgt	.L304
 3765              		.loc 1 955 0 discriminator 4
 3766 03a2 079B     		ldr	r3, [sp, #28]
 3767 03a4 062B     		cmp	r3, #6
 3768 03a6 01DD     		ble	.L304
 3769              	.LVL463:
 3770              	.L314:
 956:..\..\..\liblc3\src/spec.c ****         fill_noise(dt, bw, nf, nf_seed, g, x, nq);
 957:..\..\..\liblc3\src/spec.c **** 
 958:..\..\..\liblc3\src/spec.c ****     return 0;
 3771              		.loc 1 958 0 is_stmt 1
 3772 03a8 0020     		movs	r0, #0
 3773 03aa CEE0     		b	.L349
 3774              	.LVL464:
 3775              	.L304:
 3776              	.LBB329:
 3777              	.LBB330:
 3778              	.LBB331:
 3779              	.LBB332:
 3780              		.loc 2 51 0
 3781 03ac 0F9B     		ldr	r3, [sp, #60]
ARM GAS  C:\Users\rdn\AppData\Local\Temp\ccYcaPXH.s 			page 102


 3782              	.LBE332:
 3783              	.LBE331:
 755:..\..\..\liblc3\src/spec.c ****         z = x[i] ? 0 : z + 1;
 3784              		.loc 1 755 0
 3785 03ae 009D     		ldr	r5, [sp]
 3786              	.LBB336:
 3787              	.LBB333:
 3788              		.loc 2 51 0
 3789 03b0 042B     		cmp	r3, #4
 3790 03b2 28BF     		it	cs
 3791 03b4 0423     		movcs	r3, #4
 3792              	.LBE333:
 3793              	.LBE336:
 758:..\..\..\liblc3\src/spec.c ****             x[i - w] = nf_seed & 0x8000 ? -s : s;
 3794              		.loc 1 758 0
 3795 03b6 47F64D4C 		movw	ip, #31821
 3796              	.LBB337:
 3797              	.LBB334:
 3798              		.loc 2 51 0
 3799 03ba 51F82300 		ldr	r0, [r1, r3, lsl #2]
 3800 03be 039B     		ldr	r3, [sp, #12]
 3801              	.LBE334:
 3802              	.LBE337:
 755:..\..\..\liblc3\src/spec.c ****         z = x[i] ? 0 : z + 1;
 3803              		.loc 1 755 0
 3804 03c0 0399     		ldr	r1, [sp, #12]
 3805              	.LBB338:
 3806              	.LBB335:
 3807              		.loc 2 51 0
 3808 03c2 5843     		muls	r0, r3, r0
 3809              	.LVL465:
 3810              	.LBE335:
 3811              	.LBE338:
 750:..\..\..\liblc3\src/spec.c **** 
 3812              		.loc 1 750 0
 3813 03c4 069B     		ldr	r3, [sp, #24]
 3814 03c6 012B     		cmp	r3, #1
 3815 03c8 8CBF     		ite	hi
 3816 03ca 0222     		movhi	r2, #2
 3817 03cc 0122     		movls	r2, #1
 3818 03ce 022B     		cmp	r3, #2
 3819 03d0 88BF     		it	hi
 3820 03d2 0132     		addhi	r2, r2, #1
 3821              	.LVL466:
 752:..\..\..\liblc3\src/spec.c ****     int i, z = 0;
 3822              		.loc 1 752 0
 3823 03d4 079B     		ldr	r3, [sp, #28]
 3824 03d6 C3F10803 		rsb	r3, r3, #8
 3825 03da 07EE903A 		vmov	s15, r3	@ int
 3826 03de F8EEE77A 		vcvt.f32.s32	s15, s15
 755:..\..\..\liblc3\src/spec.c ****         z = x[i] ? 0 : z + 1;
 3827              		.loc 1 755 0
 3828 03e2 0623     		movs	r3, #6
 752:..\..\..\liblc3\src/spec.c ****     int i, z = 0;
 3829              		.loc 1 752 0
 3830 03e4 27EE800A 		vmul.f32	s0, s15, s0
 3831              	.LVL467:
ARM GAS  C:\Users\rdn\AppData\Local\Temp\ccYcaPXH.s 			page 103


 3832 03e8 5FED1D7A 		vldr.32	s15, .L359+12
 755:..\..\..\liblc3\src/spec.c ****         z = x[i] ? 0 : z + 1;
 3833              		.loc 1 755 0
 3834 03ec 4B43     		muls	r3, r1, r3
 752:..\..\..\liblc3\src/spec.c ****     int i, z = 0;
 3835              		.loc 1 752 0
 3836 03ee 20EE270A 		vmul.f32	s0, s0, s15
 3837              	.LVL468:
 755:..\..\..\liblc3\src/spec.c ****         z = x[i] ? 0 : z + 1;
 3838              		.loc 1 755 0
 3839 03f2 8542     		cmp	r5, r0
 3840 03f4 A3EB0203 		sub	r3, r3, r2
 3841              	.LVL469:
 3842 03f8 A8BF     		it	ge
 3843 03fa 0546     		movge	r5, r0
 3844 03fc 5600     		lsls	r6, r2, #1
 3845 03fe 0AEB8307 		add	r7, r10, r3, lsl #2
 753:..\..\..\liblc3\src/spec.c **** 
 3846              		.loc 1 753 0
 3847 0402 0021     		movs	r1, #0
 755:..\..\..\liblc3\src/spec.c ****         z = x[i] ? 0 : z + 1;
 3848              		.loc 1 755 0
 3849 0404 AE46     		mov	lr, r5
 759:..\..\..\liblc3\src/spec.c ****         }
 3850              		.loc 1 759 0
 3851 0406 B1EE407A 		vneg.f32	s14, s0
 3852              	.LVL470:
 3853              	.L306:
 755:..\..\..\liblc3\src/spec.c ****         z = x[i] ? 0 : z + 1;
 3854              		.loc 1 755 0
 3855 040a 7345     		cmp	r3, lr
 3856 040c 20DA     		bge	.L358
 756:..\..\..\liblc3\src/spec.c ****         if (z > 2*w) {
 3857              		.loc 1 756 0
 3858 040e F7EC017A 		vldmia.32	r7!, {s15}
 3859 0412 F5EE407A 		vcmp.f32	s15, #0
 3860 0416 F1EE10FA 		vmrs	APSR_nzcv, FPSCR
 3861 041a 16D1     		bne	.L329
 3862 041c 0131     		adds	r1, r1, #1
 3863              	.LVL471:
 757:..\..\..\liblc3\src/spec.c ****             nf_seed = (13849 + nf_seed*31821) & 0xffff;
 3864              		.loc 1 757 0
 3865 041e B142     		cmp	r1, r6
 3866 0420 14DD     		ble	.L307
 758:..\..\..\liblc3\src/spec.c ****             x[i - w] = nf_seed & 0x8000 ? -s : s;
 3867              		.loc 1 758 0
 3868 0422 14FB0CF4 		smulbb	r4, r4, ip
 3869              	.LVL472:
 3870 0426 04F55854 		add	r4, r4, #13824
 3871 042a 1934     		adds	r4, r4, #25
 3872 042c A4B2     		uxth	r4, r4
 3873              	.LVL473:
 759:..\..\..\liblc3\src/spec.c ****         }
 3874              		.loc 1 759 0
 3875 042e 14F4004F 		tst	r4, #32768
 3876 0432 A3EB0205 		sub	r5, r3, r2
 3877 0436 0AEB8505 		add	r5, r10, r5, lsl #2
ARM GAS  C:\Users\rdn\AppData\Local\Temp\ccYcaPXH.s 			page 104


 3878 043a 14BF     		ite	ne
 3879 043c F0EE477A 		vmovne.f32	s15, s14
 3880 0440 F0EE407A 		vmoveq.f32	s15, s0
 3881 0444 C5ED007A 		vstr.32	s15, [r5]
 3882 0448 00E0     		b	.L307
 3883              	.L329:
 756:..\..\..\liblc3\src/spec.c ****         if (z > 2*w) {
 3884              		.loc 1 756 0
 3885 044a 0021     		movs	r1, #0
 3886              	.LVL474:
 3887              	.L307:
 755:..\..\..\liblc3\src/spec.c ****         z = x[i] ? 0 : z + 1;
 3888              		.loc 1 755 0
 3889 044c 0133     		adds	r3, r3, #1
 3890              	.LVL475:
 3891 044e DCE7     		b	.L306
 3892              	.LVL476:
 3893              	.L358:
 763:..\..\..\liblc3\src/spec.c ****         if (++z > 2*w) {
 3894              		.loc 1 763 0
 3895 0450 1044     		add	r0, r0, r2
 765:..\..\..\liblc3\src/spec.c ****             x[i - w] = nf_seed & 0x8000 ? -s : s;
 3896              		.loc 1 765 0
 3897 0452 47F64D47 		movw	r7, #31821
 766:..\..\..\liblc3\src/spec.c ****         }
 3898              		.loc 1 766 0
 3899 0456 B1EE407A 		vneg.f32	s14, s0
 3900              	.L310:
 763:..\..\..\liblc3\src/spec.c ****         if (++z > 2*w) {
 3901              		.loc 1 763 0
 3902 045a 8342     		cmp	r3, r0
 3903 045c A4DA     		bge	.L314
 764:..\..\..\liblc3\src/spec.c ****             nf_seed = (13849 + nf_seed*31821) & 0xffff;
 3904              		.loc 1 764 0
 3905 045e 0131     		adds	r1, r1, #1
 3906              	.LVL477:
 3907 0460 8E42     		cmp	r6, r1
 3908 0462 12DA     		bge	.L311
 765:..\..\..\liblc3\src/spec.c ****             x[i - w] = nf_seed & 0x8000 ? -s : s;
 3909              		.loc 1 765 0
 3910 0464 14FB07F4 		smulbb	r4, r4, r7
 3911              	.LVL478:
 3912 0468 04F55854 		add	r4, r4, #13824
 3913 046c 1934     		adds	r4, r4, #25
 3914 046e A4B2     		uxth	r4, r4
 3915              	.LVL479:
 766:..\..\..\liblc3\src/spec.c ****         }
 3916              		.loc 1 766 0
 3917 0470 14F4004F 		tst	r4, #32768
 3918 0474 A3EB0205 		sub	r5, r3, r2
 3919 0478 0AEB8505 		add	r5, r10, r5, lsl #2
 3920 047c 14BF     		ite	ne
 3921 047e F0EE477A 		vmovne.f32	s15, s14
 3922 0482 F0EE407A 		vmoveq.f32	s15, s0
 3923 0486 C5ED007A 		vstr.32	s15, [r5]
 3924              	.L311:
 763:..\..\..\liblc3\src/spec.c ****         if (++z > 2*w) {
ARM GAS  C:\Users\rdn\AppData\Local\Temp\ccYcaPXH.s 			page 105


 3925              		.loc 1 763 0
 3926 048a 0133     		adds	r3, r3, #1
 3927              	.LVL480:
 3928 048c E5E7     		b	.L310
 3929              	.LVL481:
 3930              	.L318:
 3931              	.LBE330:
 3932              	.LBE329:
 3933              	.LBB339:
 3934              	.LBB313:
 3935              	.LBB311:
 3936              	.LBB309:
 3937              	.LBB307:
 524:..\..\..\liblc3\src/spec.c **** 
 3938              		.loc 1 524 0
 3939 048e 0025     		movs	r5, #0
 528:..\..\..\liblc3\src/spec.c ****                 s = lc3_get_symbol(bits, lc3_spectrum_models + lut[++k]);
 3940              		.loc 1 528 0
 3941 0490 2F46     		mov	r7, r5
 3942 0492 2B46     		mov	r3, r5
 524:..\..\..\liblc3\src/spec.c **** 
 3943              		.loc 1 524 0
 3944 0494 A846     		mov	r8, r5
 3945              	.LVL482:
 3946              	.L265:
 546:..\..\..\liblc3\src/spec.c ****             int b = s / 4;
 3947              		.loc 1 546 0
 3948 0496 00F00302 		and	r2, r0, #3
 3949 049a 0892     		str	r2, [sp, #32]
 3950              	.LVL483:
 547:..\..\..\liblc3\src/spec.c **** 
 3951              		.loc 1 547 0
 3952 049c 8208     		lsrs	r2, r0, #2
 3953              	.LVL484:
 3954 049e 0992     		str	r2, [sp, #36]
 3955              	.LVL485:
 549:..\..\..\liblc3\src/spec.c ****             v |= b << shl;
 3956              		.loc 1 549 0
 3957 04a0 089A     		ldr	r2, [sp, #32]
 3958              	.LVL486:
 3959 04a2 02FA08F1 		lsl	r1, r2, r8
 3960              	.LVL487:
 550:..\..\..\liblc3\src/spec.c **** 
 3961              		.loc 1 550 0
 3962 04a6 099A     		ldr	r2, [sp, #36]
 3963 04a8 02FA08F2 		lsl	r2, r2, r8
 552:..\..\..\liblc3\src/spec.c ****             x[i+1] = v && lc3_get_bit(bits) ? -v : v;
 3964              		.loc 1 552 0
 3965 04ac 51EA0308 		orrs	r8, r1, r3
 3966              	.LVL488:
 550:..\..\..\liblc3\src/spec.c **** 
 3967              		.loc 1 550 0
 3968 04b0 47EA0207 		orr	r7, r7, r2
 3969              	.LVL489:
 552:..\..\..\liblc3\src/spec.c ****             x[i+1] = v && lc3_get_bit(bits) ? -v : v;
 3970              		.loc 1 552 0
 3971 04b4 08D0     		beq	.L269
ARM GAS  C:\Users\rdn\AppData\Local\Temp\ccYcaPXH.s 			page 106


 3972 04b6 3046     		mov	r0, r6
 3973              	.LVL490:
 3974 04b8 FFF7FEFF 		bl	lc3_get_bit
 3975              	.LVL491:
 3976 04bc 20B1     		cbz	r0, .L269
 3977 04be C8F10003 		rsb	r3, r8, #0
 3978 04c2 07EE903A 		vmov	s15, r3	@ int
 3979 04c6 01E0     		b	.L350
 3980              	.L269:
 3981 04c8 07EE908A 		vmov	s15, r8	@ int
 3982              	.L350:
 3983 04cc F8EEE77A 		vcvt.f32.s32	s15, s15
 3984 04d0 049B     		ldr	r3, [sp, #16]
 3985 04d2 C3ED007A 		vstr.32	s15, [r3]
 553:..\..\..\liblc3\src/spec.c **** 
 3986              		.loc 1 553 0
 3987 04d6 3FB1     		cbz	r7, .L271
 3988 04d8 3046     		mov	r0, r6
 3989 04da FFF7FEFF 		bl	lc3_get_bit
 3990              	.LVL492:
 3991 04de 18B1     		cbz	r0, .L271
 3992 04e0 7B42     		negs	r3, r7
 3993 04e2 07EE903A 		vmov	s15, r3	@ int
 3994 04e6 01E0     		b	.L351
 3995              	.L271:
 3996 04e8 07EE907A 		vmov	s15, r7	@ int
 3997              	.L351:
 3998 04ec 049B     		ldr	r3, [sp, #16]
 3999 04ee F8EEE77A 		vcvt.f32.s32	s15, s15
 555:..\..\..\liblc3\src/spec.c ****                                  + (v & 0x7fff) * (i+1)) & 0xffff;
 4000              		.loc 1 555 0
 4001 04f2 C7F30E07 		ubfx	r7, r7, #0, #15
 4002              	.LVL493:
 553:..\..\..\liblc3\src/spec.c **** 
 4003              		.loc 1 553 0
 4004 04f6 C3ED017A 		vstr.32	s15, [r3, #4]
 4005 04fa BDF80430 		ldrh	r3, [sp, #4]
 555:..\..\..\liblc3\src/spec.c ****                                  + (v & 0x7fff) * (i+1)) & 0xffff;
 4006              		.loc 1 555 0
 4007 04fe C8F30E08 		ubfx	r8, r8, #0, #15
 4008              	.LVL494:
 4009 0502 5A1C     		adds	r2, r3, #1
 4010 0504 17FB02F7 		smulbb	r7, r7, r2
 4011 0508 18FB03F3 		smulbb	r3, r8, r3
 4012 050c 3B44     		add	r3, r3, r7
 4013 050e 1C44     		add	r4, r4, r3
 4014              	.LVL495:
 560:..\..\..\liblc3\src/spec.c ****         }
 4015              		.loc 1 560 0
 4016 0510 4FEA0912 		lsl	r2, r9, #4
 4017 0514 012D     		cmp	r5, #1
 555:..\..\..\liblc3\src/spec.c ****                                  + (v & 0x7fff) * (i+1)) & 0xffff;
 4018              		.loc 1 555 0
 4019 0516 A4B2     		uxth	r4, r4
 4020              	.LVL496:
 560:..\..\..\liblc3\src/spec.c ****         }
 4021              		.loc 1 560 0
ARM GAS  C:\Users\rdn\AppData\Local\Temp\ccYcaPXH.s 			page 107


 4022 0518 D2B2     		uxtb	r2, r2
 4023 051a 02DD     		ble	.L273
 4024 051c 0C35     		adds	r5, r5, #12
 4025              	.LVL497:
 4026 051e EDB2     		uxtb	r5, r5
 4027              	.LVL498:
 4028 0520 0AE0     		b	.L274
 4029              	.LVL499:
 4030              	.L273:
 4031 0522 089B     		ldr	r3, [sp, #32]
 4032 0524 0999     		ldr	r1, [sp, #36]
 4033 0526 0B44     		add	r3, r3, r1
 4034 0528 9946     		mov	r9, r3
 4035              	.LVL500:
 4036 052a 6B1C     		adds	r3, r5, #1
 4037 052c 19FB03F9 		smulbb	r9, r9, r3
 4038 0530 09F10109 		add	r9, r9, #1
 4039 0534 5FFA89F5 		uxtb	r5, r9
 4040              	.LVL501:
 4041              	.L274:
 4042              	.LBE307:
 513:..\..\..\liblc3\src/spec.c **** 
 4043              		.loc 1 513 0
 4044 0538 019B     		ldr	r3, [sp, #4]
 4045 053a 0233     		adds	r3, r3, #2
 4046 053c 0193     		str	r3, [sp, #4]
 4047              	.LVL502:
 4048 053e 049B     		ldr	r3, [sp, #16]
 4049              	.LBB308:
 560:..\..\..\liblc3\src/spec.c ****         }
 4050              		.loc 1 560 0
 4051 0540 1544     		add	r5, r5, r2
 4052 0542 5FFA85F9 		uxtb	r9, r5
 4053              	.LVL503:
 4054 0546 0833     		adds	r3, r3, #8
 4055 0548 ADE5     		b	.L352
 4056              	.LVL504:
 4057              	.L349:
 4058              	.LBE308:
 4059              	.LBE309:
 4060              	.LBE311:
 4061              	.LBE313:
 4062              	.LBE339:
 959:..\..\..\liblc3\src/spec.c **** }
 4063              		.loc 1 959 0
 4064 054a 11B0     		add	sp, sp, #68
 4065              		.cfi_def_cfa_offset 52
 4066              	.LVL505:
 4067              		@ sp needed
 4068 054c BDEC048B 		vldm	sp!, {d8-d9}
 4069              		.cfi_restore 82
 4070              		.cfi_restore 83
 4071              		.cfi_restore 80
 4072              		.cfi_restore 81
 4073              		.cfi_def_cfa_offset 36
 4074 0550 BDE8F08F 		pop	{r4, r5, r6, r7, r8, r9, r10, fp, pc}
 4075              		.cfi_endproc
ARM GAS  C:\Users\rdn\AppData\Local\Temp\ccYcaPXH.s 			page 108


 4076              	.LFE44:
 4077              		.size	lc3_spec_decode, .-lc3_spec_decode
 4078              		.section	.rodata
 4079              		.align	2
 4080              		.set	.LANCHOR0,. + 0
 4081              		.type	iq_table.5646, %object
 4082              		.size	iq_table.5646, 112
 4083              	iq_table.5646:
 4084 0000 0000803F 		.word	1065353216
 4085 0004 95F88A3F 		.word	1066072213
 4086 0008 E4E1963F 		.word	1066852836
 4087 000c 8FD0A33F 		.word	1067700367
 4088 0010 FDDAB13F 		.word	1068620541
 4089 0014 8019C13F 		.word	1069619584
 4090 0018 80A6D13F 		.word	1070704256
 4091 001c A99EE33F 		.word	1071881897
 4092 0020 1A21F73F 		.word	1073160474
 4093 0024 D0270640 		.word	1074145232
 4094 0028 76A71140 		.word	1074898806
 4095 002c 69231E40 		.word	1075716969
 4096 0030 4AB12B40 		.word	1076605258
 4097 0034 93683A40 		.word	1077569683
 4098 0038 C2624A40 		.word	1078616770
 4099 003c 84BB5B40 		.word	1079753604
 4100 0040 E5906E40 		.word	1080987877
 4101 0044 C3818140 		.word	1082229187
 4102 0048 689B8C40 		.word	1082956648
 4103 004c 9DA89840 		.word	1083746461
 4104 0050 42BEA540 		.word	1084603970
 4105 0054 00F3B340 		.word	1085534976
 4106 0058 755FC340 		.word	1086545781
 4107 005c 561ED440 		.word	1087643222
 4108 0060 A64CE640 		.word	1088834726
 4109 0064 E409FA40 		.word	1090128356
 4110 0068 20BC0741 		.word	1091025952
 4111 006c 6D5E1341 		.word	1091788397
 4112              		.type	e.5111, %object
 4113              		.size	e.5111, 32
 4114              	e.5111:
 4115 0070 0000803F 		.word	1065353216
 4116 0074 C2958B3F 		.word	1066112450
 4117 0078 F037983F 		.word	1066940400
 4118 007c D7FEA53F 		.word	1067843287
 4119 0080 F304B53F 		.word	1068827891
 4120 0084 2A67C53F 		.word	1069901610
 4121 0088 FD44D73F 		.word	1071072509
 4122 008c C7C0EA3F 		.word	1072349383
 4123              		.type	t.5134, %object
 4124              		.size	t.5134, 128
 4125              	t.5134:
 4126 0090 0000     		.short	0
 4127 0092 1B11     		.short	4379
 4128 0094 1B11     		.short	4379
 4129 0096 9810     		.short	4248
 4130 0098 B321     		.short	8627
 4131 009a 1D10     		.short	4125
 4132 009c D131     		.short	12753
ARM GAS  C:\Users\rdn\AppData\Local\Temp\ccYcaPXH.s 			page 109


 4133 009e A90F     		.short	4009
 4134 00a0 7A41     		.short	16762
 4135 00a2 3B0F     		.short	3899
 4136 00a4 B550     		.short	20661
 4137 00a6 D30E     		.short	3795
 4138 00a8 885F     		.short	24456
 4139 00aa 710E     		.short	3697
 4140 00ac F96D     		.short	28153
 4141 00ae 130E     		.short	3603
 4142 00b0 0B7C     		.short	31755
 4143 00b2 BA0D     		.short	3514
 4144 00b4 C589     		.short	-30267
 4145 00b6 650D     		.short	3429
 4146 00b8 2B97     		.short	-26837
 4147 00ba 150D     		.short	3349
 4148 00bc 3FA4     		.short	-23489
 4149 00be C80C     		.short	3272
 4150 00c0 07B1     		.short	-20217
 4151 00c2 7E0C     		.short	3198
 4152 00c4 85BD     		.short	-17019
 4153 00c6 380C     		.short	3128
 4154 00c8 BDC9     		.short	-13891
 4155 00ca F50B     		.short	3061
 4156 00cc B1D5     		.short	-10831
 4157 00ce B40B     		.short	2996
 4158 00d0 BD20     		.short	8381
 4159 00d2 760B     		.short	2934
 4160 00d4 332C     		.short	11315
 4161 00d6 3B0B     		.short	2875
 4162 00d8 6E37     		.short	14190
 4163 00da 020B     		.short	2818
 4164 00dc 7042     		.short	17008
 4165 00de CB0A     		.short	2763
 4166 00e0 3C4D     		.short	19772
 4167 00e2 970A     		.short	2711
 4168 00e4 D257     		.short	22482
 4169 00e6 640A     		.short	2660
 4170 00e8 3662     		.short	25142
 4171 00ea 330A     		.short	2611
 4172 00ec 6A6C     		.short	27754
 4173 00ee 040A     		.short	2564
 4174 00f0 6E76     		.short	30318
 4175 00f2 D709     		.short	2519
 4176 00f4 4580     		.short	-32699
 4177 00f6 AB09     		.short	2475
 4178 00f8 F089     		.short	-30224
 4179 00fa 8109     		.short	2433
 4180 00fc 7093     		.short	-27792
 4181 00fe 5809     		.short	2392
 4182 0100 C89C     		.short	-25400
 4183 0102 3009     		.short	2352
 4184 0104 F9A5     		.short	-23047
 4185 0106 0A09     		.short	2314
 4186 0108 03AF     		.short	-20733
 4187 010a E508     		.short	2277
 4188 010c E8B7     		.short	-18456
 4189 010e C108     		.short	2241
ARM GAS  C:\Users\rdn\AppData\Local\Temp\ccYcaPXH.s 			page 110


 4190              	.LC0:
 4191 0110 50000000 		.word	80
 4192 0114 F4010000 		.word	500
 4193 0118 52030000 		.word	850
 4194 011c E6000000 		.word	230
 4195 0120 01040000 		.word	1025
 4196 0124 A4060000 		.word	1700
 4197 0128 7C010000 		.word	380
 4198 012c 0E060000 		.word	1550
 4199 0130 F6090000 		.word	2550
 4200 0134 12020000 		.word	530
 4201 0138 1B080000 		.word	2075
 4202 013c 480D0000 		.word	3400
 4203 0140 A8020000 		.word	680
 4204 0144 280A0000 		.word	2600
 4205 0148 9A100000 		.word	4250
 4206 014c A8020000 		.word	680
 4207 0150 280A0000 		.word	2600
 4208 0154 9A100000 		.word	4250
 4209 0158 3E030000 		.word	830
 4210 015c 350C0000 		.word	3125
 4211 0160 EC130000 		.word	5100
 4212              		.text
 4213              	.Letext0:
 4214              		.file 5 "c:\\program files (x86)\\cypress\\psoc creator\\4.4\\psoc creator\\import\\gnu\\arm\\5.4.
 4215              		.file 6 "c:\\program files (x86)\\cypress\\psoc creator\\4.4\\psoc creator\\import\\gnu\\arm\\5.4.
 4216              		.file 7 "./liblc3/include/lc3_private.h"
 4217              		.file 8 "..\\..\\..\\liblc3\\src\\common.h"
 4218              		.file 9 "..\\..\\..\\liblc3\\src\\tns.h"
 4219              		.file 10 "..\\..\\..\\liblc3\\src\\spec.h"
 4220              		.file 11 "c:\\program files (x86)\\cypress\\psoc creator\\4.4\\psoc creator\\import\\gnu\\arm\\5.4
 4221              		.file 12 "..\\..\\..\\liblc3\\src\\bwdet.h"
 4222              		.file 13 "..\\..\\..\\liblc3\\src\\ltpf.h"
 4223              		.file 14 "..\\..\\..\\liblc3\\src\\sns.h"
 4224              		.section	.debug_info,"",%progbits
 4225              	.Ldebug_info0:
 4226 0000 702A0000 		.4byte	0x2a70
 4227 0004 0400     		.2byte	0x4
 4228 0006 00000000 		.4byte	.Ldebug_abbrev0
 4229 000a 04       		.byte	0x4
 4230 000b 01       		.uleb128 0x1
 4231 000c 04060000 		.4byte	.LASF192
 4232 0010 0C       		.byte	0xc
 4233 0011 ED020000 		.4byte	.LASF193
 4234 0015 45030000 		.4byte	.LASF194
 4235 0019 B0030000 		.4byte	.Ldebug_ranges0+0x3b0
 4236 001d 00000000 		.4byte	0
 4237 0021 00000000 		.4byte	.Ldebug_line0
 4238 0025 02       		.uleb128 0x2
 4239 0026 04       		.byte	0x4
 4240 0027 04       		.byte	0x4
 4241 0028 C9010000 		.4byte	.LASF0
 4242 002c 03       		.uleb128 0x3
 4243 002d 04       		.byte	0x4
 4244 002e 05       		.byte	0x5
 4245 002f 696E7400 		.ascii	"int\000"
 4246 0033 02       		.uleb128 0x2
ARM GAS  C:\Users\rdn\AppData\Local\Temp\ccYcaPXH.s 			page 111


 4247 0034 04       		.byte	0x4
 4248 0035 07       		.byte	0x7
 4249 0036 88000000 		.4byte	.LASF1
 4250 003a 02       		.uleb128 0x2
 4251 003b 01       		.byte	0x1
 4252 003c 06       		.byte	0x6
 4253 003d 71080000 		.4byte	.LASF2
 4254 0041 04       		.uleb128 0x4
 4255 0042 F5060000 		.4byte	.LASF5
 4256 0046 05       		.byte	0x5
 4257 0047 1D       		.byte	0x1d
 4258 0048 4C000000 		.4byte	0x4c
 4259 004c 02       		.uleb128 0x2
 4260 004d 01       		.byte	0x1
 4261 004e 08       		.byte	0x8
 4262 004f D0070000 		.4byte	.LASF3
 4263 0053 02       		.uleb128 0x2
 4264 0054 02       		.byte	0x2
 4265 0055 05       		.byte	0x5
 4266 0056 B3050000 		.4byte	.LASF4
 4267 005a 04       		.uleb128 0x4
 4268 005b 46020000 		.4byte	.LASF6
 4269 005f 05       		.byte	0x5
 4270 0060 2B       		.byte	0x2b
 4271 0061 65000000 		.4byte	0x65
 4272 0065 02       		.uleb128 0x2
 4273 0066 02       		.byte	0x2
 4274 0067 07       		.byte	0x7
 4275 0068 83080000 		.4byte	.LASF7
 4276 006c 04       		.uleb128 0x4
 4277 006d D0000000 		.4byte	.LASF8
 4278 0071 05       		.byte	0x5
 4279 0072 3F       		.byte	0x3f
 4280 0073 77000000 		.4byte	0x77
 4281 0077 02       		.uleb128 0x2
 4282 0078 04       		.byte	0x4
 4283 0079 05       		.byte	0x5
 4284 007a D7050000 		.4byte	.LASF9
 4285 007e 04       		.uleb128 0x4
 4286 007f EB070000 		.4byte	.LASF10
 4287 0083 05       		.byte	0x5
 4288 0084 41       		.byte	0x41
 4289 0085 89000000 		.4byte	0x89
 4290 0089 02       		.uleb128 0x2
 4291 008a 04       		.byte	0x4
 4292 008b 07       		.byte	0x7
 4293 008c 78070000 		.4byte	.LASF11
 4294 0090 02       		.uleb128 0x2
 4295 0091 08       		.byte	0x8
 4296 0092 05       		.byte	0x5
 4297 0093 F4030000 		.4byte	.LASF12
 4298 0097 02       		.uleb128 0x2
 4299 0098 08       		.byte	0x8
 4300 0099 07       		.byte	0x7
 4301 009a 07020000 		.4byte	.LASF13
 4302 009e 04       		.uleb128 0x4
 4303 009f A6030000 		.4byte	.LASF14
ARM GAS  C:\Users\rdn\AppData\Local\Temp\ccYcaPXH.s 			page 112


 4304 00a3 06       		.byte	0x6
 4305 00a4 18       		.byte	0x18
 4306 00a5 41000000 		.4byte	0x41
 4307 00a9 04       		.uleb128 0x4
 4308 00aa 57050000 		.4byte	.LASF15
 4309 00ae 06       		.byte	0x6
 4310 00af 24       		.byte	0x24
 4311 00b0 5A000000 		.4byte	0x5a
 4312 00b4 04       		.uleb128 0x4
 4313 00b5 A6070000 		.4byte	.LASF16
 4314 00b9 06       		.byte	0x6
 4315 00ba 2C       		.byte	0x2c
 4316 00bb 6C000000 		.4byte	0x6c
 4317 00bf 04       		.uleb128 0x4
 4318 00c0 AE010000 		.4byte	.LASF17
 4319 00c4 06       		.byte	0x6
 4320 00c5 30       		.byte	0x30
 4321 00c6 7E000000 		.4byte	0x7e
 4322 00ca 05       		.uleb128 0x5
 4323 00cb 11010000 		.4byte	.LASF23
 4324 00cf 01       		.byte	0x1
 4325 00d0 4C000000 		.4byte	0x4c
 4326 00d4 07       		.byte	0x7
 4327 00d5 3B       		.byte	0x3b
 4328 00d6 F9000000 		.4byte	0xf9
 4329 00da 06       		.uleb128 0x6
 4330 00db BD050000 		.4byte	.LASF18
 4331 00df 00       		.byte	0
 4332 00e0 06       		.uleb128 0x6
 4333 00e1 A4010000 		.4byte	.LASF19
 4334 00e5 01       		.byte	0x1
 4335 00e6 06       		.uleb128 0x6
 4336 00e7 A2050000 		.4byte	.LASF20
 4337 00eb 02       		.byte	0x2
 4338 00ec 06       		.uleb128 0x6
 4339 00ed 33070000 		.4byte	.LASF21
 4340 00f1 03       		.byte	0x3
 4341 00f2 06       		.uleb128 0x6
 4342 00f3 74020000 		.4byte	.LASF22
 4343 00f7 04       		.byte	0x4
 4344 00f8 00       		.byte	0
 4345 00f9 05       		.uleb128 0x5
 4346 00fa B4070000 		.4byte	.LASF24
 4347 00fe 01       		.byte	0x1
 4348 00ff 4C000000 		.4byte	0x4c
 4349 0103 07       		.byte	0x7
 4350 0104 49       		.byte	0x49
 4351 0105 3A010000 		.4byte	0x13a
 4352 0109 06       		.uleb128 0x6
 4353 010a 64080000 		.4byte	.LASF25
 4354 010e 00       		.byte	0
 4355 010f 06       		.uleb128 0x6
 4356 0110 18070000 		.4byte	.LASF26
 4357 0114 01       		.byte	0x1
 4358 0115 06       		.uleb128 0x6
 4359 0116 16000000 		.4byte	.LASF27
 4360 011a 02       		.byte	0x2
ARM GAS  C:\Users\rdn\AppData\Local\Temp\ccYcaPXH.s 			page 113


 4361 011b 06       		.uleb128 0x6
 4362 011c 5D020000 		.4byte	.LASF28
 4363 0120 03       		.byte	0x3
 4364 0121 06       		.uleb128 0x6
 4365 0122 95000000 		.4byte	.LASF29
 4366 0126 04       		.byte	0x4
 4367 0127 06       		.uleb128 0x6
 4368 0128 28010000 		.4byte	.LASF30
 4369 012c 05       		.byte	0x5
 4370 012d 06       		.uleb128 0x6
 4371 012e 1A090000 		.4byte	.LASF31
 4372 0132 06       		.byte	0x6
 4373 0133 06       		.uleb128 0x6
 4374 0134 7B050000 		.4byte	.LASF32
 4375 0138 07       		.byte	0x7
 4376 0139 00       		.byte	0
 4377 013a 02       		.uleb128 0x2
 4378 013b 01       		.byte	0x1
 4379 013c 02       		.byte	0x2
 4380 013d BB020000 		.4byte	.LASF33
 4381 0141 02       		.uleb128 0x2
 4382 0142 04       		.byte	0x4
 4383 0143 07       		.byte	0x7
 4384 0144 68070000 		.4byte	.LASF34
 4385 0148 07       		.uleb128 0x7
 4386 0149 BE070000 		.4byte	.LASF52
 4387 014d 08       		.byte	0x8
 4388 014e 07       		.byte	0x7
 4389 014f 6E       		.byte	0x6e
 4390 0150 6D010000 		.4byte	0x16d
 4391 0154 08       		.uleb128 0x8
 4392 0155 32040000 		.4byte	.LASF35
 4393 0159 07       		.byte	0x7
 4394 015a 6F       		.byte	0x6f
 4395 015b 25000000 		.4byte	0x25
 4396 015f 00       		.byte	0
 4397 0160 08       		.uleb128 0x8
 4398 0161 39030000 		.4byte	.LASF36
 4399 0165 07       		.byte	0x7
 4400 0166 70       		.byte	0x70
 4401 0167 2C000000 		.4byte	0x2c
 4402 016b 04       		.byte	0x4
 4403 016c 00       		.byte	0
 4404 016d 02       		.uleb128 0x2
 4405 016e 08       		.byte	0x8
 4406 016f 04       		.byte	0x4
 4407 0170 3E050000 		.4byte	.LASF37
 4408 0174 02       		.uleb128 0x2
 4409 0175 01       		.byte	0x1
 4410 0176 08       		.byte	0x8
 4411 0177 26030000 		.4byte	.LASF38
 4412 017b 02       		.uleb128 0x2
 4413 017c 08       		.byte	0x8
 4414 017d 04       		.byte	0x4
 4415 017e 13090000 		.4byte	.LASF39
 4416 0182 05       		.uleb128 0x5
 4417 0183 02080000 		.4byte	.LASF40
ARM GAS  C:\Users\rdn\AppData\Local\Temp\ccYcaPXH.s 			page 114


 4418 0187 01       		.byte	0x1
 4419 0188 4C000000 		.4byte	0x4c
 4420 018c 08       		.byte	0x8
 4421 018d 76       		.byte	0x76
 4422 018e C3010000 		.4byte	0x1c3
 4423 0192 06       		.uleb128 0x6
 4424 0193 83030000 		.4byte	.LASF41
 4425 0197 00       		.byte	0
 4426 0198 06       		.uleb128 0x6
 4427 0199 3E000000 		.4byte	.LASF42
 4428 019d 01       		.byte	0x1
 4429 019e 06       		.uleb128 0x6
 4430 019f 55070000 		.4byte	.LASF43
 4431 01a3 02       		.byte	0x2
 4432 01a4 06       		.uleb128 0x6
 4433 01a5 50040000 		.4byte	.LASF44
 4434 01a9 03       		.byte	0x3
 4435 01aa 06       		.uleb128 0x6
 4436 01ab AA080000 		.4byte	.LASF45
 4437 01af 04       		.byte	0x4
 4438 01b0 06       		.uleb128 0x6
 4439 01b1 2A000000 		.4byte	.LASF46
 4440 01b5 05       		.byte	0x5
 4441 01b6 06       		.uleb128 0x6
 4442 01b7 F9040000 		.4byte	.LASF47
 4443 01bb 06       		.byte	0x6
 4444 01bc 06       		.uleb128 0x6
 4445 01bd C3080000 		.4byte	.LASF48
 4446 01c1 07       		.byte	0x7
 4447 01c2 00       		.byte	0
 4448 01c3 05       		.uleb128 0x5
 4449 01c4 5E010000 		.4byte	.LASF49
 4450 01c8 01       		.byte	0x1
 4451 01c9 4C000000 		.4byte	0x4c
 4452 01cd 04       		.byte	0x4
 4453 01ce 45       		.byte	0x45
 4454 01cf E0010000 		.4byte	0x1e0
 4455 01d3 06       		.uleb128 0x6
 4456 01d4 18080000 		.4byte	.LASF50
 4457 01d8 00       		.byte	0
 4458 01d9 06       		.uleb128 0x6
 4459 01da E1060000 		.4byte	.LASF51
 4460 01de 01       		.byte	0x1
 4461 01df 00       		.byte	0
 4462 01e0 07       		.uleb128 0x7
 4463 01e1 18040000 		.4byte	.LASF53
 4464 01e5 04       		.byte	0x4
 4465 01e6 04       		.byte	0x4
 4466 01e7 4F       		.byte	0x4f
 4467 01e8 0B020000 		.4byte	0x20b
 4468 01ec 09       		.uleb128 0x9
 4469 01ed 6C6F7700 		.ascii	"low\000"
 4470 01f1 04       		.byte	0x4
 4471 01f2 50       		.byte	0x50
 4472 01f3 A9000000 		.4byte	0xa9
 4473 01f7 02       		.byte	0x2
 4474 01f8 10       		.byte	0x10
ARM GAS  C:\Users\rdn\AppData\Local\Temp\ccYcaPXH.s 			page 115


 4475 01f9 00       		.byte	0
 4476 01fa 00       		.byte	0
 4477 01fb 0A       		.uleb128 0xa
 4478 01fc 89040000 		.4byte	.LASF54
 4479 0200 04       		.byte	0x4
 4480 0201 51       		.byte	0x51
 4481 0202 A9000000 		.4byte	0xa9
 4482 0206 02       		.byte	0x2
 4483 0207 10       		.byte	0x10
 4484 0208 00       		.byte	0
 4485 0209 02       		.byte	0x2
 4486 020a 00       		.byte	0
 4487 020b 07       		.uleb128 0x7
 4488 020c B7060000 		.4byte	.LASF55
 4489 0210 44       		.byte	0x44
 4490 0211 04       		.byte	0x4
 4491 0212 54       		.byte	0x54
 4492 0213 22020000 		.4byte	0x222
 4493 0217 0B       		.uleb128 0xb
 4494 0218 7300     		.ascii	"s\000"
 4495 021a 04       		.byte	0x4
 4496 021b 55       		.byte	0x55
 4497 021c 22020000 		.4byte	0x222
 4498 0220 00       		.byte	0
 4499 0221 00       		.byte	0
 4500 0222 0C       		.uleb128 0xc
 4501 0223 E0010000 		.4byte	0x1e0
 4502 0227 32020000 		.4byte	0x232
 4503 022b 0D       		.uleb128 0xd
 4504 022c 41010000 		.4byte	0x141
 4505 0230 10       		.byte	0x10
 4506 0231 00       		.byte	0
 4507 0232 07       		.uleb128 0x7
 4508 0233 2B030000 		.4byte	.LASF56
 4509 0237 0C       		.byte	0xc
 4510 0238 04       		.byte	0x4
 4511 0239 5E       		.byte	0x5e
 4512 023a 5F020000 		.4byte	0x25f
 4513 023e 0B       		.uleb128 0xb
 4514 023f 7600     		.ascii	"v\000"
 4515 0241 04       		.byte	0x4
 4516 0242 5F       		.byte	0x5f
 4517 0243 33000000 		.4byte	0x33
 4518 0247 00       		.byte	0
 4519 0248 0B       		.uleb128 0xb
 4520 0249 6E00     		.ascii	"n\000"
 4521 024b 04       		.byte	0x4
 4522 024c 60       		.byte	0x60
 4523 024d 2C000000 		.4byte	0x2c
 4524 0251 04       		.byte	0x4
 4525 0252 08       		.uleb128 0x8
 4526 0253 7D030000 		.4byte	.LASF57
 4527 0257 04       		.byte	0x4
 4528 0258 60       		.byte	0x60
 4529 0259 2C000000 		.4byte	0x2c
 4530 025d 08       		.byte	0x8
 4531 025e 00       		.byte	0
ARM GAS  C:\Users\rdn\AppData\Local\Temp\ccYcaPXH.s 			page 116


 4532 025f 07       		.uleb128 0x7
 4533 0260 2B090000 		.4byte	.LASF58
 4534 0264 18       		.byte	0x18
 4535 0265 04       		.byte	0x4
 4536 0266 65       		.byte	0x65
 4537 0267 B4020000 		.4byte	0x2b4
 4538 026b 0B       		.uleb128 0xb
 4539 026c 6C6F7700 		.ascii	"low\000"
 4540 0270 04       		.byte	0x4
 4541 0271 66       		.byte	0x66
 4542 0272 33000000 		.4byte	0x33
 4543 0276 00       		.byte	0
 4544 0277 08       		.uleb128 0x8
 4545 0278 89040000 		.4byte	.LASF54
 4546 027c 04       		.byte	0x4
 4547 027d 66       		.byte	0x66
 4548 027e 33000000 		.4byte	0x33
 4549 0282 04       		.byte	0x4
 4550 0283 08       		.uleb128 0x8
 4551 0284 0D050000 		.4byte	.LASF59
 4552 0288 04       		.byte	0x4
 4553 0289 67       		.byte	0x67
 4554 028a 2C000000 		.4byte	0x2c
 4555 028e 08       		.byte	0x8
 4556 028f 08       		.uleb128 0x8
 4557 0290 E4010000 		.4byte	.LASF60
 4558 0294 04       		.byte	0x4
 4559 0295 67       		.byte	0x67
 4560 0296 2C000000 		.4byte	0x2c
 4561 029a 0C       		.byte	0xc
 4562 029b 08       		.uleb128 0x8
 4563 029c C4000000 		.4byte	.LASF61
 4564 02a0 04       		.byte	0x4
 4565 02a1 67       		.byte	0x67
 4566 02a2 2C000000 		.4byte	0x2c
 4567 02a6 10       		.byte	0x10
 4568 02a7 08       		.uleb128 0x8
 4569 02a8 06010000 		.4byte	.LASF62
 4570 02ac 04       		.byte	0x4
 4571 02ad 68       		.byte	0x68
 4572 02ae 3A010000 		.4byte	0x13a
 4573 02b2 14       		.byte	0x14
 4574 02b3 00       		.byte	0
 4575 02b4 07       		.uleb128 0x7
 4576 02b5 66000000 		.4byte	.LASF63
 4577 02b9 10       		.byte	0x10
 4578 02ba 04       		.byte	0x4
 4579 02bb 6B       		.byte	0x6b
 4580 02bc F1020000 		.4byte	0x2f1
 4581 02c0 08       		.uleb128 0x8
 4582 02c1 12070000 		.4byte	.LASF64
 4583 02c5 04       		.byte	0x4
 4584 02c6 6C       		.byte	0x6c
 4585 02c7 F1020000 		.4byte	0x2f1
 4586 02cb 00       		.byte	0
 4587 02cc 0B       		.uleb128 0xb
 4588 02cd 656E6400 		.ascii	"end\000"
ARM GAS  C:\Users\rdn\AppData\Local\Temp\ccYcaPXH.s 			page 117


 4589 02d1 04       		.byte	0x4
 4590 02d2 6C       		.byte	0x6c
 4591 02d3 F1020000 		.4byte	0x2f1
 4592 02d7 04       		.byte	0x4
 4593 02d8 08       		.uleb128 0x8
 4594 02d9 79090000 		.4byte	.LASF65
 4595 02dd 04       		.byte	0x4
 4596 02de 6D       		.byte	0x6d
 4597 02df FC020000 		.4byte	0x2fc
 4598 02e3 08       		.byte	0x8
 4599 02e4 08       		.uleb128 0x8
 4600 02e5 C6030000 		.4byte	.LASF66
 4601 02e9 04       		.byte	0x4
 4602 02ea 6D       		.byte	0x6d
 4603 02eb FC020000 		.4byte	0x2fc
 4604 02ef 0C       		.byte	0xc
 4605 02f0 00       		.byte	0
 4606 02f1 0E       		.uleb128 0xe
 4607 02f2 04       		.byte	0x4
 4608 02f3 F7020000 		.4byte	0x2f7
 4609 02f7 0F       		.uleb128 0xf
 4610 02f8 9E000000 		.4byte	0x9e
 4611 02fc 0E       		.uleb128 0xe
 4612 02fd 04       		.byte	0x4
 4613 02fe 9E000000 		.4byte	0x9e
 4614 0302 07       		.uleb128 0x7
 4615 0303 21050000 		.4byte	.LASF67
 4616 0307 38       		.byte	0x38
 4617 0308 04       		.byte	0x4
 4618 0309 70       		.byte	0x70
 4619 030a 3E030000 		.4byte	0x33e
 4620 030e 08       		.uleb128 0x8
 4621 030f 0C010000 		.4byte	.LASF68
 4622 0313 04       		.byte	0x4
 4623 0314 71       		.byte	0x71
 4624 0315 C3010000 		.4byte	0x1c3
 4625 0319 00       		.byte	0
 4626 031a 0B       		.uleb128 0xb
 4627 031b 616300   		.ascii	"ac\000"
 4628 031e 04       		.byte	0x4
 4629 031f 72       		.byte	0x72
 4630 0320 5F020000 		.4byte	0x25f
 4631 0324 04       		.byte	0x4
 4632 0325 08       		.uleb128 0x8
 4633 0326 21030000 		.4byte	.LASF69
 4634 032a 04       		.byte	0x4
 4635 032b 73       		.byte	0x73
 4636 032c 32020000 		.4byte	0x232
 4637 0330 1C       		.byte	0x1c
 4638 0331 08       		.uleb128 0x8
 4639 0332 76000000 		.4byte	.LASF70
 4640 0336 04       		.byte	0x4
 4641 0337 74       		.byte	0x74
 4642 0338 B4020000 		.4byte	0x2b4
 4643 033c 28       		.byte	0x28
 4644 033d 00       		.byte	0
 4645 033e 04       		.uleb128 0x4
ARM GAS  C:\Users\rdn\AppData\Local\Temp\ccYcaPXH.s 			page 118


 4646 033f D9020000 		.4byte	.LASF71
 4647 0343 04       		.byte	0x4
 4648 0344 75       		.byte	0x75
 4649 0345 02030000 		.4byte	0x302
 4650 0349 0E       		.uleb128 0xe
 4651 034a 04       		.byte	0x4
 4652 034b 4F030000 		.4byte	0x34f
 4653 034f 0F       		.uleb128 0xf
 4654 0350 25000000 		.4byte	0x25
 4655 0354 07       		.uleb128 0x7
 4656 0355 81010000 		.4byte	.LASF72
 4657 0359 50       		.byte	0x50
 4658 035a 09       		.byte	0x9
 4659 035b 1E       		.byte	0x1e
 4660 035c 90030000 		.4byte	0x390
 4661 0360 08       		.uleb128 0x8
 4662 0361 3E070000 		.4byte	.LASF73
 4663 0365 09       		.byte	0x9
 4664 0366 1F       		.byte	0x1f
 4665 0367 2C000000 		.4byte	0x2c
 4666 036b 00       		.byte	0
 4667 036c 08       		.uleb128 0x8
 4668 036d 47070000 		.4byte	.LASF74
 4669 0371 09       		.byte	0x9
 4670 0372 20       		.byte	0x20
 4671 0373 3A010000 		.4byte	0x13a
 4672 0377 04       		.byte	0x4
 4673 0378 08       		.uleb128 0x8
 4674 0379 5D000000 		.4byte	.LASF75
 4675 037d 09       		.byte	0x9
 4676 037e 21       		.byte	0x21
 4677 037f 90030000 		.4byte	0x390
 4678 0383 08       		.byte	0x8
 4679 0384 0B       		.uleb128 0xb
 4680 0385 726300   		.ascii	"rc\000"
 4681 0388 09       		.byte	0x9
 4682 0389 22       		.byte	0x22
 4683 038a A0030000 		.4byte	0x3a0
 4684 038e 10       		.byte	0x10
 4685 038f 00       		.byte	0
 4686 0390 0C       		.uleb128 0xc
 4687 0391 2C000000 		.4byte	0x2c
 4688 0395 A0030000 		.4byte	0x3a0
 4689 0399 0D       		.uleb128 0xd
 4690 039a 41010000 		.4byte	0x141
 4691 039e 01       		.byte	0x1
 4692 039f 00       		.byte	0
 4693 03a0 0C       		.uleb128 0xc
 4694 03a1 2C000000 		.4byte	0x2c
 4695 03a5 B6030000 		.4byte	0x3b6
 4696 03a9 0D       		.uleb128 0xd
 4697 03aa 41010000 		.4byte	0x141
 4698 03ae 01       		.byte	0x1
 4699 03af 0D       		.uleb128 0xd
 4700 03b0 41010000 		.4byte	0x141
 4701 03b4 07       		.byte	0x7
 4702 03b5 00       		.byte	0
ARM GAS  C:\Users\rdn\AppData\Local\Temp\ccYcaPXH.s 			page 119


 4703 03b6 04       		.uleb128 0x4
 4704 03b7 EC000000 		.4byte	.LASF76
 4705 03bb 09       		.byte	0x9
 4706 03bc 23       		.byte	0x23
 4707 03bd 54030000 		.4byte	0x354
 4708 03c1 07       		.uleb128 0x7
 4709 03c2 13050000 		.4byte	.LASF77
 4710 03c6 0C       		.byte	0xc
 4711 03c7 0A       		.byte	0xa
 4712 03c8 21       		.byte	0x21
 4713 03c9 F1030000 		.4byte	0x3f1
 4714 03cd 08       		.uleb128 0x8
 4715 03ce 8E010000 		.4byte	.LASF78
 4716 03d2 0A       		.byte	0xa
 4717 03d3 22       		.byte	0x22
 4718 03d4 2C000000 		.4byte	0x2c
 4719 03d8 00       		.byte	0
 4720 03d9 0B       		.uleb128 0xb
 4721 03da 6E7100   		.ascii	"nq\000"
 4722 03dd 0A       		.byte	0xa
 4723 03de 22       		.byte	0x22
 4724 03df 2C000000 		.4byte	0x2c
 4725 03e3 04       		.byte	0x4
 4726 03e4 08       		.uleb128 0x8
 4727 03e5 35050000 		.4byte	.LASF79
 4728 03e9 0A       		.byte	0xa
 4729 03ea 23       		.byte	0x23
 4730 03eb 3A010000 		.4byte	0x13a
 4731 03ef 08       		.byte	0x8
 4732 03f0 00       		.byte	0
 4733 03f1 04       		.uleb128 0x4
 4734 03f2 94010000 		.4byte	.LASF80
 4735 03f6 0A       		.byte	0xa
 4736 03f7 24       		.byte	0x24
 4737 03f8 C1030000 		.4byte	0x3c1
 4738 03fc 10       		.uleb128 0x10
 4739 03fd 08030000 		.4byte	.LASF81
 4740 0401 08       		.byte	0x8
 4741 0402 6D       		.byte	0x6d
 4742 0403 3A010000 		.4byte	0x13a
 4743 0407 03       		.byte	0x3
 4744 0408 17040000 		.4byte	0x417
 4745 040c 11       		.uleb128 0x11
 4746 040d 737200   		.ascii	"sr\000"
 4747 0410 08       		.byte	0x8
 4748 0411 6D       		.byte	0x6d
 4749 0412 F9000000 		.4byte	0xf9
 4750 0416 00       		.byte	0
 4751 0417 10       		.uleb128 0x10
 4752 0418 71070000 		.4byte	.LASF82
 4753 041c 02       		.byte	0x2
 4754 041d 32       		.byte	0x32
 4755 041e 2C000000 		.4byte	0x2c
 4756 0422 03       		.byte	0x3
 4757 0423 3C040000 		.4byte	0x43c
 4758 0427 11       		.uleb128 0x11
 4759 0428 647400   		.ascii	"dt\000"
ARM GAS  C:\Users\rdn\AppData\Local\Temp\ccYcaPXH.s 			page 120


 4760 042b 02       		.byte	0x2
 4761 042c 32       		.byte	0x32
 4762 042d CA000000 		.4byte	0xca
 4763 0431 11       		.uleb128 0x11
 4764 0432 737200   		.ascii	"sr\000"
 4765 0435 02       		.byte	0x2
 4766 0436 32       		.byte	0x32
 4767 0437 F9000000 		.4byte	0xf9
 4768 043b 00       		.byte	0
 4769 043c 12       		.uleb128 0x12
 4770 043d B0000000 		.4byte	.LASF86
 4771 0441 01       		.byte	0x1
 4772 0442 21       		.byte	0x21
 4773 0443 2C000000 		.4byte	0x2c
 4774 0447 00000000 		.4byte	.LFB20
 4775 044b 34000000 		.4byte	.LFE20-.LFB20
 4776 044f 01       		.uleb128 0x1
 4777 0450 9C       		.byte	0x9c
 4778 0451 91040000 		.4byte	0x491
 4779 0455 13       		.uleb128 0x13
 4780 0456 737200   		.ascii	"sr\000"
 4781 0459 01       		.byte	0x1
 4782 045a 21       		.byte	0x21
 4783 045b F9000000 		.4byte	0xf9
 4784 045f 00000000 		.4byte	.LLST0
 4785 0463 14       		.uleb128 0x14
 4786 0464 71040000 		.4byte	.LASF83
 4787 0468 01       		.byte	0x1
 4788 0469 21       		.byte	0x21
 4789 046a 2C000000 		.4byte	0x2c
 4790 046e 21000000 		.4byte	.LLST1
 4791 0472 15       		.uleb128 0x15
 4792 0473 39010000 		.4byte	.LASF84
 4793 0477 01       		.byte	0x1
 4794 0478 23       		.byte	0x23
 4795 0479 2C000000 		.4byte	0x2c
 4796 047d 42000000 		.4byte	.LLST2
 4797 0481 15       		.uleb128 0x15
 4798 0482 D1050000 		.4byte	.LASF85
 4799 0486 01       		.byte	0x1
 4800 0487 25       		.byte	0x25
 4801 0488 2C000000 		.4byte	0x2c
 4802 048c 62000000 		.4byte	.LLST3
 4803 0490 00       		.byte	0
 4804 0491 12       		.uleb128 0x12
 4805 0492 E0050000 		.4byte	.LASF87
 4806 0496 01       		.byte	0x1
 4807 0497 2F       		.byte	0x2f
 4808 0498 25000000 		.4byte	0x25
 4809 049c 00000000 		.4byte	.LFB21
 4810 04a0 3C000000 		.4byte	.LFE21-.LFB21
 4811 04a4 01       		.uleb128 0x1
 4812 04a5 9C       		.byte	0x9c
 4813 04a6 D8040000 		.4byte	0x4d8
 4814 04aa 14       		.uleb128 0x14
 4815 04ab F6070000 		.4byte	.LASF88
 4816 04af 01       		.byte	0x1
ARM GAS  C:\Users\rdn\AppData\Local\Temp\ccYcaPXH.s 			page 121


 4817 04b0 2F       		.byte	0x2f
 4818 04b1 2C000000 		.4byte	0x2c
 4819 04b5 89000000 		.4byte	.LLST4
 4820 04b9 16       		.uleb128 0x16
 4821 04ba C8050000 		.4byte	.LASF89
 4822 04be 01       		.byte	0x1
 4823 04bf 34       		.byte	0x34
 4824 04c0 E8040000 		.4byte	0x4e8
 4825 04c4 05       		.uleb128 0x5
 4826 04c5 03       		.byte	0x3
 4827 04c6 00000000 		.4byte	iq_table.5646
 4828 04ca 17       		.uleb128 0x17
 4829 04cb 6700     		.ascii	"g\000"
 4830 04cd 01       		.byte	0x1
 4831 04ce 3E       		.byte	0x3e
 4832 04cf 25000000 		.4byte	0x25
 4833 04d3 A7000000 		.4byte	.LLST5
 4834 04d7 00       		.byte	0
 4835 04d8 0C       		.uleb128 0xc
 4836 04d9 4F030000 		.4byte	0x34f
 4837 04dd E8040000 		.4byte	0x4e8
 4838 04e1 0D       		.uleb128 0xd
 4839 04e2 41010000 		.4byte	0x141
 4840 04e6 1B       		.byte	0x1b
 4841 04e7 00       		.byte	0
 4842 04e8 0F       		.uleb128 0xf
 4843 04e9 D8040000 		.4byte	0x4d8
 4844 04ed 18       		.uleb128 0x18
 4845 04ee FF060000 		.4byte	.LASF121
 4846 04f2 01       		.byte	0x1
 4847 04f3 FB       		.byte	0xfb
 4848 04f4 00000000 		.4byte	.LFB24
 4849 04f8 7C000000 		.4byte	.LFE24-.LFB24
 4850 04fc 01       		.uleb128 0x1
 4851 04fd 9C       		.byte	0x9c
 4852 04fe CE050000 		.4byte	0x5ce
 4853 0502 13       		.uleb128 0x13
 4854 0503 647400   		.ascii	"dt\000"
 4855 0506 01       		.byte	0x1
 4856 0507 FC       		.byte	0xfc
 4857 0508 CA000000 		.4byte	0xca
 4858 050c CB000000 		.4byte	.LLST6
 4859 0510 13       		.uleb128 0x13
 4860 0511 737200   		.ascii	"sr\000"
 4861 0514 01       		.byte	0x1
 4862 0515 FC       		.byte	0xfc
 4863 0516 F9000000 		.4byte	0xf9
 4864 051a EC000000 		.4byte	.LLST7
 4865 051e 14       		.uleb128 0x14
 4866 051f F6070000 		.4byte	.LASF88
 4867 0523 01       		.byte	0x1
 4868 0524 FC       		.byte	0xfc
 4869 0525 2C000000 		.4byte	0x2c
 4870 0529 0D010000 		.4byte	.LLST8
 4871 052d 13       		.uleb128 0x13
 4872 052e 7800     		.ascii	"x\000"
 4873 0530 01       		.byte	0x1
ARM GAS  C:\Users\rdn\AppData\Local\Temp\ccYcaPXH.s 			page 122


 4874 0531 FC       		.byte	0xfc
 4875 0532 CE050000 		.4byte	0x5ce
 4876 0536 2E010000 		.4byte	.LLST9
 4877 053a 13       		.uleb128 0x13
 4878 053b 6E00     		.ascii	"n\000"
 4879 053d 01       		.byte	0x1
 4880 053e FC       		.byte	0xfc
 4881 053f D4050000 		.4byte	0x5d4
 4882 0543 5A010000 		.4byte	.LLST10
 4883 0547 16       		.uleb128 0x16
 4884 0548 FC070000 		.4byte	.LASF90
 4885 054c 01       		.byte	0x1
 4886 054d FE       		.byte	0xfe
 4887 054e 25000000 		.4byte	0x25
 4888 0552 02       		.uleb128 0x2
 4889 0553 90       		.byte	0x90
 4890 0554 40       		.uleb128 0x40
 4891 0555 19       		.uleb128 0x19
 4892 0556 6E6500   		.ascii	"ne\000"
 4893 0559 01       		.byte	0x1
 4894 055a FF       		.byte	0xff
 4895 055b 2C000000 		.4byte	0x2c
 4896 055f 1A       		.uleb128 0x1a
 4897 0560 17040000 		.4byte	0x417
 4898 0564 0C000000 		.4byte	.LBB78
 4899 0568 00000000 		.4byte	.Ldebug_ranges0+0
 4900 056c 01       		.byte	0x1
 4901 056d FF       		.byte	0xff
 4902 056e 85050000 		.4byte	0x585
 4903 0572 1B       		.uleb128 0x1b
 4904 0573 31040000 		.4byte	0x431
 4905 0577 7A010000 		.4byte	.LLST11
 4906 057b 1B       		.uleb128 0x1b
 4907 057c 27040000 		.4byte	0x427
 4908 0580 8D010000 		.4byte	.LLST12
 4909 0584 00       		.byte	0
 4910 0585 1C       		.uleb128 0x1c
 4911 0586 2C000000 		.4byte	.LBB82
 4912 058a 4A000000 		.4byte	.LBE82-.LBB82
 4913 058e BB050000 		.4byte	0x5bb
 4914 0592 1D       		.uleb128 0x1d
 4915 0593 6900     		.ascii	"i\000"
 4916 0595 01       		.byte	0x1
 4917 0596 0301     		.2byte	0x103
 4918 0598 2C000000 		.4byte	0x2c
 4919 059c A0010000 		.4byte	.LLST13
 4920 05a0 1E       		.uleb128 0x1e
 4921 05a1 32000000 		.4byte	.LBB83
 4922 05a5 3E000000 		.4byte	.LBE83-.LBB83
 4923 05a9 1F       		.uleb128 0x1f
 4924 05aa 2C070000 		.4byte	.LASF91
 4925 05ae 01       		.byte	0x1
 4926 05af 0401     		.2byte	0x104
 4927 05b1 25000000 		.4byte	0x25
 4928 05b5 BF010000 		.4byte	.LLST14
 4929 05b9 00       		.byte	0
 4930 05ba 00       		.byte	0
ARM GAS  C:\Users\rdn\AppData\Local\Temp\ccYcaPXH.s 			page 123


 4931 05bb 20       		.uleb128 0x20
 4932 05bc 0C000000 		.4byte	.LVL16
 4933 05c0 91040000 		.4byte	0x491
 4934 05c4 21       		.uleb128 0x21
 4935 05c5 01       		.uleb128 0x1
 4936 05c6 50       		.byte	0x50
 4937 05c7 04       		.uleb128 0x4
 4938 05c8 F3       		.byte	0xf3
 4939 05c9 01       		.uleb128 0x1
 4940 05ca 52       		.byte	0x52
 4941 05cb 1F       		.byte	0x1f
 4942 05cc 00       		.byte	0
 4943 05cd 00       		.byte	0
 4944 05ce 0E       		.uleb128 0xe
 4945 05cf 04       		.byte	0x4
 4946 05d0 25000000 		.4byte	0x25
 4947 05d4 0E       		.uleb128 0xe
 4948 05d5 04       		.byte	0x4
 4949 05d6 2C000000 		.4byte	0x2c
 4950 05da 22       		.uleb128 0x22
 4951 05db 6D050000 		.4byte	.LASF92
 4952 05df 01       		.byte	0x1
 4953 05e0 3001     		.2byte	0x130
 4954 05e2 3A010000 		.4byte	0x13a
 4955 05e6 01       		.byte	0x1
 4956 05e7 1B060000 		.4byte	0x61b
 4957 05eb 23       		.uleb128 0x23
 4958 05ec 737200   		.ascii	"sr\000"
 4959 05ef 01       		.byte	0x1
 4960 05f0 3001     		.2byte	0x130
 4961 05f2 F9000000 		.4byte	0xf9
 4962 05f6 24       		.uleb128 0x24
 4963 05f7 71040000 		.4byte	.LASF83
 4964 05fb 01       		.byte	0x1
 4965 05fc 3001     		.2byte	0x130
 4966 05fe 2C000000 		.4byte	0x2c
 4967 0602 24       		.uleb128 0x24
 4968 0603 D9010000 		.4byte	.LASF93
 4969 0607 01       		.byte	0x1
 4970 0608 3001     		.2byte	0x130
 4971 060a 1B060000 		.4byte	0x61b
 4972 060e 25       		.uleb128 0x25
 4973 060f 39010000 		.4byte	.LASF84
 4974 0613 01       		.byte	0x1
 4975 0614 3201     		.2byte	0x132
 4976 0616 2C000000 		.4byte	0x2c
 4977 061a 00       		.byte	0
 4978 061b 0E       		.uleb128 0xe
 4979 061c 04       		.byte	0x4
 4980 061d 3A010000 		.4byte	0x13a
 4981 0621 26       		.uleb128 0x26
 4982 0622 53090000 		.4byte	.LASF94
 4983 0626 01       		.byte	0x1
 4984 0627 4301     		.2byte	0x143
 4985 0629 2C000000 		.4byte	0x2c
 4986 062d 00000000 		.4byte	.LFB27
 4987 0631 2C020000 		.4byte	.LFE27-.LFB27
ARM GAS  C:\Users\rdn\AppData\Local\Temp\ccYcaPXH.s 			page 124


 4988 0635 01       		.uleb128 0x1
 4989 0636 9C       		.byte	0x9c
 4990 0637 27080000 		.4byte	0x827
 4991 063b 27       		.uleb128 0x27
 4992 063c 647400   		.ascii	"dt\000"
 4993 063f 01       		.byte	0x1
 4994 0640 4401     		.2byte	0x144
 4995 0642 CA000000 		.4byte	0xca
 4996 0646 D3010000 		.4byte	.LLST15
 4997 064a 27       		.uleb128 0x27
 4998 064b 737200   		.ascii	"sr\000"
 4999 064e 01       		.byte	0x1
 5000 064f 4401     		.2byte	0x144
 5001 0651 F9000000 		.4byte	0xf9
 5002 0655 F4010000 		.4byte	.LLST16
 5003 0659 28       		.uleb128 0x28
 5004 065a 71040000 		.4byte	.LASF83
 5005 065e 01       		.byte	0x1
 5006 065f 4401     		.2byte	0x144
 5007 0661 2C000000 		.4byte	0x2c
 5008 0665 15020000 		.4byte	.LLST17
 5009 0669 27       		.uleb128 0x27
 5010 066a 7800     		.ascii	"x\000"
 5011 066c 01       		.byte	0x1
 5012 066d 4501     		.2byte	0x145
 5013 066f 49030000 		.4byte	0x349
 5014 0673 36020000 		.4byte	.LLST18
 5015 0677 27       		.uleb128 0x27
 5016 0678 6E00     		.ascii	"n\000"
 5017 067a 01       		.byte	0x1
 5018 067b 4501     		.2byte	0x145
 5019 067d D4050000 		.4byte	0x5d4
 5020 0681 61020000 		.4byte	.LLST19
 5021 0685 28       		.uleb128 0x28
 5022 0686 02040000 		.4byte	.LASF95
 5023 068a 01       		.byte	0x1
 5024 068b 4501     		.2byte	0x145
 5025 068d 2C000000 		.4byte	0x2c
 5026 0691 81020000 		.4byte	.LLST20
 5027 0695 28       		.uleb128 0x28
 5028 0696 D9010000 		.4byte	.LASF93
 5029 069a 01       		.byte	0x1
 5030 069b 4501     		.2byte	0x145
 5031 069d 1B060000 		.4byte	0x61b
 5032 06a1 A0020000 		.4byte	.LLST21
 5033 06a5 1F       		.uleb128 0x1f
 5034 06a6 35050000 		.4byte	.LASF79
 5035 06aa 01       		.byte	0x1
 5036 06ab 4701     		.2byte	0x147
 5037 06ad 3A010000 		.4byte	0x13a
 5038 06b1 C0020000 		.4byte	.LLST22
 5039 06b5 25       		.uleb128 0x25
 5040 06b6 1E020000 		.4byte	.LASF96
 5041 06ba 01       		.byte	0x1
 5042 06bb 4701     		.2byte	0x147
 5043 06bd 3A010000 		.4byte	0x13a
 5044 06c1 29       		.uleb128 0x29
ARM GAS  C:\Users\rdn\AppData\Local\Temp\ccYcaPXH.s 			page 125


 5045 06c2 6E6500   		.ascii	"ne\000"
 5046 06c5 01       		.byte	0x1
 5047 06c6 4801     		.2byte	0x148
 5048 06c8 2C000000 		.4byte	0x2c
 5049 06cc 1F       		.uleb128 0x1f
 5050 06cd 4A040000 		.4byte	.LASF97
 5051 06d1 01       		.byte	0x1
 5052 06d2 4C01     		.2byte	0x14c
 5053 06d4 2C000000 		.4byte	0x2c
 5054 06d8 D3020000 		.4byte	.LLST23
 5055 06dc 1F       		.uleb128 0x1f
 5056 06dd 6C010000 		.4byte	.LASF98
 5057 06e1 01       		.byte	0x1
 5058 06e2 4C01     		.2byte	0x14c
 5059 06e4 2C000000 		.4byte	0x2c
 5060 06e8 F2020000 		.4byte	.LLST24
 5061 06ec 1F       		.uleb128 0x1f
 5062 06ed 2B080000 		.4byte	.LASF99
 5063 06f1 01       		.byte	0x1
 5064 06f2 4D01     		.2byte	0x14d
 5065 06f4 9E000000 		.4byte	0x9e
 5066 06f8 11030000 		.4byte	.LLST25
 5067 06fc 1F       		.uleb128 0x1f
 5068 06fd CF010000 		.4byte	.LASF100
 5069 0701 01       		.byte	0x1
 5070 0702 4F01     		.2byte	0x14f
 5071 0704 2C000000 		.4byte	0x2c
 5072 0708 3F030000 		.4byte	.LLST26
 5073 070c 1F       		.uleb128 0x1f
 5074 070d A0070000 		.4byte	.LASF101
 5075 0711 01       		.byte	0x1
 5076 0712 5001     		.2byte	0x150
 5077 0714 2C000000 		.4byte	0x2c
 5078 0718 78030000 		.4byte	.LLST27
 5079 071c 2A       		.uleb128 0x2a
 5080 071d DA050000 		.4byte	0x5da
 5081 0721 06000000 		.4byte	.LBB91
 5082 0725 18000000 		.4byte	.Ldebug_ranges0+0x18
 5083 0729 01       		.byte	0x1
 5084 072a 4701     		.2byte	0x147
 5085 072c 5B070000 		.4byte	0x75b
 5086 0730 1B       		.uleb128 0x1b
 5087 0731 02060000 		.4byte	0x602
 5088 0735 99030000 		.4byte	.LLST28
 5089 0739 1B       		.uleb128 0x1b
 5090 073a F6050000 		.4byte	0x5f6
 5091 073e B1030000 		.4byte	.LLST29
 5092 0742 1B       		.uleb128 0x1b
 5093 0743 EB050000 		.4byte	0x5eb
 5094 0747 C4030000 		.4byte	.LLST30
 5095 074b 2B       		.uleb128 0x2b
 5096 074c 18000000 		.4byte	.Ldebug_ranges0+0x18
 5097 0750 2C       		.uleb128 0x2c
 5098 0751 0E060000 		.4byte	0x60e
 5099 0755 D7030000 		.4byte	.LLST31
 5100 0759 00       		.byte	0
 5101 075a 00       		.byte	0
ARM GAS  C:\Users\rdn\AppData\Local\Temp\ccYcaPXH.s 			page 126


 5102 075b 2D       		.uleb128 0x2d
 5103 075c 17040000 		.4byte	0x417
 5104 0760 3C000000 		.4byte	.LBB97
 5105 0764 0C000000 		.4byte	.LBE97-.LBB97
 5106 0768 01       		.byte	0x1
 5107 0769 4801     		.2byte	0x148
 5108 076b 82070000 		.4byte	0x782
 5109 076f 1B       		.uleb128 0x1b
 5110 0770 31040000 		.4byte	0x431
 5111 0774 F7030000 		.4byte	.LLST32
 5112 0778 1B       		.uleb128 0x1b
 5113 0779 27040000 		.4byte	0x427
 5114 077d 0A040000 		.4byte	.LLST33
 5115 0781 00       		.byte	0
 5116 0782 2B       		.uleb128 0x2b
 5117 0783 38000000 		.4byte	.Ldebug_ranges0+0x38
 5118 0787 1D       		.uleb128 0x1d
 5119 0788 6900     		.ascii	"i\000"
 5120 078a 01       		.byte	0x1
 5121 078b 5401     		.2byte	0x154
 5122 078d 2C000000 		.4byte	0x2c
 5123 0791 1D040000 		.4byte	.LLST34
 5124 0795 1D       		.uleb128 0x1d
 5125 0796 6800     		.ascii	"h\000"
 5126 0798 01       		.byte	0x1
 5127 0799 5401     		.2byte	0x154
 5128 079b 2C000000 		.4byte	0x2c
 5129 079f 3C040000 		.4byte	.LLST35
 5130 07a3 2B       		.uleb128 0x2b
 5131 07a4 50000000 		.4byte	.Ldebug_ranges0+0x50
 5132 07a8 25       		.uleb128 0x25
 5133 07a9 08070000 		.4byte	.LASF102
 5134 07ad 01       		.byte	0x1
 5135 07ae 5501     		.2byte	0x155
 5136 07b0 37080000 		.4byte	0x837
 5137 07b4 1E       		.uleb128 0x1e
 5138 07b5 B2000000 		.4byte	.LBB101
 5139 07b9 1E010000 		.4byte	.LBE101-.LBB101
 5140 07bd 1F       		.uleb128 0x1f
 5141 07be C1020000 		.4byte	.LASF103
 5142 07c2 01       		.byte	0x1
 5143 07c3 5A01     		.2byte	0x15a
 5144 07c5 25000000 		.4byte	0x25
 5145 07c9 5B040000 		.4byte	.LLST36
 5146 07cd 1D       		.uleb128 0x1d
 5147 07ce 6100     		.ascii	"a\000"
 5148 07d0 01       		.byte	0x1
 5149 07d1 5B01     		.2byte	0x15b
 5150 07d3 BF000000 		.4byte	0xbf
 5151 07d7 6F040000 		.4byte	.LLST37
 5152 07db 1D       		.uleb128 0x1d
 5153 07dc 6200     		.ascii	"b\000"
 5154 07de 01       		.byte	0x1
 5155 07df 5C01     		.2byte	0x15c
 5156 07e1 BF000000 		.4byte	0xbf
 5157 07e5 82040000 		.4byte	.LLST38
 5158 07e9 1D       		.uleb128 0x1d
ARM GAS  C:\Users\rdn\AppData\Local\Temp\ccYcaPXH.s 			page 127


 5159 07ea 6C757400 		.ascii	"lut\000"
 5160 07ee 01       		.byte	0x1
 5161 07ef 5E01     		.2byte	0x15e
 5162 07f1 F1020000 		.4byte	0x2f1
 5163 07f5 95040000 		.4byte	.LLST39
 5164 07f9 1D       		.uleb128 0x1d
 5165 07fa 7300     		.ascii	"s\000"
 5166 07fc 01       		.byte	0x1
 5167 07fd 6201     		.2byte	0x162
 5168 07ff 2C000000 		.4byte	0x2c
 5169 0803 B5040000 		.4byte	.LLST40
 5170 0807 1D       		.uleb128 0x1d
 5171 0808 6D00     		.ascii	"m\000"
 5172 080a 01       		.byte	0x1
 5173 080b 6B01     		.2byte	0x16b
 5174 080d BF000000 		.4byte	0xbf
 5175 0811 1C050000 		.4byte	.LLST41
 5176 0815 1D       		.uleb128 0x1d
 5177 0816 6B00     		.ascii	"k\000"
 5178 0818 01       		.byte	0x1
 5179 0819 6C01     		.2byte	0x16c
 5180 081b 33000000 		.4byte	0x33
 5181 081f 3C050000 		.4byte	.LLST42
 5182 0823 00       		.byte	0
 5183 0824 00       		.byte	0
 5184 0825 00       		.byte	0
 5185 0826 00       		.byte	0
 5186 0827 0C       		.uleb128 0xc
 5187 0828 F7020000 		.4byte	0x2f7
 5188 082c 37080000 		.4byte	0x837
 5189 0830 0D       		.uleb128 0xd
 5190 0831 41010000 		.4byte	0x141
 5191 0835 03       		.byte	0x3
 5192 0836 00       		.byte	0
 5193 0837 0E       		.uleb128 0xe
 5194 0838 04       		.byte	0x4
 5195 0839 27080000 		.4byte	0x827
 5196 083d 26       		.uleb128 0x26
 5197 083e 4A050000 		.4byte	.LASF104
 5198 0842 01       		.byte	0x1
 5199 0843 2003     		.2byte	0x320
 5200 0845 2C000000 		.4byte	0x2c
 5201 0849 00000000 		.4byte	.LFB38
 5202 084d 38000000 		.4byte	.LFE38-.LFB38
 5203 0851 01       		.uleb128 0x1
 5204 0852 9C       		.byte	0x9c
 5205 0853 A2080000 		.4byte	0x8a2
 5206 0857 27       		.uleb128 0x27
 5207 0858 647400   		.ascii	"dt\000"
 5208 085b 01       		.byte	0x1
 5209 085c 2003     		.2byte	0x320
 5210 085e CA000000 		.4byte	0xca
 5211 0862 8A050000 		.4byte	.LLST43
 5212 0866 2E       		.uleb128 0x2e
 5213 0867 737200   		.ascii	"sr\000"
 5214 086a 01       		.byte	0x1
 5215 086b 2003     		.2byte	0x320
ARM GAS  C:\Users\rdn\AppData\Local\Temp\ccYcaPXH.s 			page 128


 5216 086d F9000000 		.4byte	0xf9
 5217 0871 01       		.uleb128 0x1
 5218 0872 51       		.byte	0x51
 5219 0873 29       		.uleb128 0x29
 5220 0874 6E6500   		.ascii	"ne\000"
 5221 0877 01       		.byte	0x1
 5222 0878 2203     		.2byte	0x322
 5223 087a 2C000000 		.4byte	0x2c
 5224 087e 2F       		.uleb128 0x2f
 5225 087f 17040000 		.4byte	0x417
 5226 0883 00000000 		.4byte	.LBB106
 5227 0887 0A000000 		.4byte	.LBE106-.LBB106
 5228 088b 01       		.byte	0x1
 5229 088c 2203     		.2byte	0x322
 5230 088e 1B       		.uleb128 0x1b
 5231 088f 31040000 		.4byte	0x431
 5232 0893 AB050000 		.4byte	.LLST44
 5233 0897 1B       		.uleb128 0x1b
 5234 0898 27040000 		.4byte	0x427
 5235 089c BE050000 		.4byte	.LLST45
 5236 08a0 00       		.byte	0
 5237 08a1 00       		.byte	0
 5238 08a2 10       		.uleb128 0x10
 5239 08a3 96070000 		.4byte	.LASF105
 5240 08a7 03       		.byte	0x3
 5241 08a8 4C       		.byte	0x4c
 5242 08a9 25000000 		.4byte	0x25
 5243 08ad 03       		.byte	0x3
 5244 08ae 56090000 		.4byte	0x956
 5245 08b2 11       		.uleb128 0x11
 5246 08b3 7800     		.ascii	"x\000"
 5247 08b5 03       		.byte	0x3
 5248 08b6 4C       		.byte	0x4c
 5249 08b7 25000000 		.4byte	0x25
 5250 08bb 30       		.uleb128 0x30
 5251 08bc 6500     		.ascii	"e\000"
 5252 08be 03       		.byte	0x3
 5253 08bf 50       		.byte	0x50
 5254 08c0 66090000 		.4byte	0x966
 5255 08c4 20       		.byte	0x20
 5256 08c5 00       		.byte	0
 5257 08c6 00       		.byte	0
 5258 08c7 80       		.byte	0x80
 5259 08c8 3F       		.byte	0x3f
 5260 08c9 C2       		.byte	0xc2
 5261 08ca 95       		.byte	0x95
 5262 08cb 8B       		.byte	0x8b
 5263 08cc 3F       		.byte	0x3f
 5264 08cd F0       		.byte	0xf0
 5265 08ce 37       		.byte	0x37
 5266 08cf 98       		.byte	0x98
 5267 08d0 3F       		.byte	0x3f
 5268 08d1 D7       		.byte	0xd7
 5269 08d2 FE       		.byte	0xfe
 5270 08d3 A5       		.byte	0xa5
 5271 08d4 3F       		.byte	0x3f
 5272 08d5 F3       		.byte	0xf3
ARM GAS  C:\Users\rdn\AppData\Local\Temp\ccYcaPXH.s 			page 129


 5273 08d6 04       		.byte	0x4
 5274 08d7 B5       		.byte	0xb5
 5275 08d8 3F       		.byte	0x3f
 5276 08d9 2A       		.byte	0x2a
 5277 08da 67       		.byte	0x67
 5278 08db C5       		.byte	0xc5
 5279 08dc 3F       		.byte	0x3f
 5280 08dd FD       		.byte	0xfd
 5281 08de 44       		.byte	0x44
 5282 08df D7       		.byte	0xd7
 5283 08e0 3F       		.byte	0x3f
 5284 08e1 C7       		.byte	0xc7
 5285 08e2 C0       		.byte	0xc0
 5286 08e3 EA       		.byte	0xea
 5287 08e4 3F       		.byte	0x3f
 5288 08e5 30       		.uleb128 0x30
 5289 08e6 7000     		.ascii	"p\000"
 5290 08e8 03       		.byte	0x3
 5291 08e9 56       		.byte	0x56
 5292 08ea 7B090000 		.4byte	0x97b
 5293 08ee 10       		.byte	0x10
 5294 08ef 00       		.byte	0
 5295 08f0 93       		.byte	0x93
 5296 08f1 24       		.byte	0x24
 5297 08f2 3C       		.byte	0x3c
 5298 08f3 2C       		.byte	0x2c
 5299 08f4 26       		.byte	0x26
 5300 08f5 63       		.byte	0x63
 5301 08f6 3D       		.byte	0x3d
 5302 08f7 87       		.byte	0x87
 5303 08f8 FE       		.byte	0xfe
 5304 08f9 75       		.byte	0x75
 5305 08fa 3E       		.byte	0x3e
 5306 08fb 17       		.byte	0x17
 5307 08fc 72       		.byte	0x72
 5308 08fd 31       		.byte	0x31
 5309 08fe 3F       		.byte	0x3f
 5310 08ff 31       		.uleb128 0x31
 5311 0900 04       		.byte	0x4
 5312 0901 03       		.byte	0x3
 5313 0902 60       		.byte	0x60
 5314 0903 1A090000 		.4byte	0x91a
 5315 0907 32       		.uleb128 0x32
 5316 0908 6600     		.ascii	"f\000"
 5317 090a 03       		.byte	0x3
 5318 090b 60       		.byte	0x60
 5319 090c 25000000 		.4byte	0x25
 5320 0910 32       		.uleb128 0x32
 5321 0911 7300     		.ascii	"s\000"
 5322 0913 03       		.byte	0x3
 5323 0914 60       		.byte	0x60
 5324 0915 B4000000 		.4byte	0xb4
 5325 0919 00       		.byte	0
 5326 091a 19       		.uleb128 0x19
 5327 091b 7600     		.ascii	"v\000"
 5328 091d 03       		.byte	0x3
 5329 091e 60       		.byte	0x60
ARM GAS  C:\Users\rdn\AppData\Local\Temp\ccYcaPXH.s 			page 130


 5330 091f 23090000 		.4byte	0x923
 5331 0923 33       		.uleb128 0x33
 5332 0924 FF080000 		.4byte	0x8ff
 5333 0928 19       		.uleb128 0x19
 5334 0929 6B00     		.ascii	"k\000"
 5335 092b 03       		.byte	0x3
 5336 092c 63       		.byte	0x63
 5337 092d 2C000000 		.4byte	0x2c
 5338 0931 31       		.uleb128 0x31
 5339 0932 04       		.byte	0x4
 5340 0933 03       		.byte	0x3
 5341 0934 6A       		.byte	0x6a
 5342 0935 4C090000 		.4byte	0x94c
 5343 0939 32       		.uleb128 0x32
 5344 093a 6600     		.ascii	"f\000"
 5345 093c 03       		.byte	0x3
 5346 093d 6A       		.byte	0x6a
 5347 093e 25000000 		.4byte	0x25
 5348 0942 32       		.uleb128 0x32
 5349 0943 7300     		.ascii	"s\000"
 5350 0945 03       		.byte	0x3
 5351 0946 6A       		.byte	0x6a
 5352 0947 B4000000 		.4byte	0xb4
 5353 094b 00       		.byte	0
 5354 094c 19       		.uleb128 0x19
 5355 094d 7900     		.ascii	"y\000"
 5356 094f 03       		.byte	0x3
 5357 0950 6A       		.byte	0x6a
 5358 0951 31090000 		.4byte	0x931
 5359 0955 00       		.byte	0
 5360 0956 0C       		.uleb128 0xc
 5361 0957 4F030000 		.4byte	0x34f
 5362 095b 66090000 		.4byte	0x966
 5363 095f 0D       		.uleb128 0xd
 5364 0960 41010000 		.4byte	0x141
 5365 0964 07       		.byte	0x7
 5366 0965 00       		.byte	0
 5367 0966 0F       		.uleb128 0xf
 5368 0967 56090000 		.4byte	0x956
 5369 096b 0C       		.uleb128 0xc
 5370 096c 4F030000 		.4byte	0x34f
 5371 0970 7B090000 		.4byte	0x97b
 5372 0974 0D       		.uleb128 0xd
 5373 0975 41010000 		.4byte	0x141
 5374 0979 03       		.byte	0x3
 5375 097a 00       		.byte	0
 5376 097b 0F       		.uleb128 0xf
 5377 097c 6B090000 		.4byte	0x96b
 5378 0980 10       		.uleb128 0x10
 5379 0981 B7010000 		.4byte	.LASF106
 5380 0985 03       		.byte	0x3
 5381 0986 2C       		.byte	0x2c
 5382 0987 25000000 		.4byte	0x25
 5383 098b 03       		.byte	0x3
 5384 098c CA090000 		.4byte	0x9ca
 5385 0990 11       		.uleb128 0x11
 5386 0991 5F7800   		.ascii	"_x\000"
ARM GAS  C:\Users\rdn\AppData\Local\Temp\ccYcaPXH.s 			page 131


 5387 0994 03       		.byte	0x3
 5388 0995 2C       		.byte	0x2c
 5389 0996 25000000 		.4byte	0x25
 5390 099a 11       		.uleb128 0x11
 5391 099b 65787000 		.ascii	"exp\000"
 5392 099f 03       		.byte	0x3
 5393 09a0 2C       		.byte	0x2c
 5394 09a1 2C000000 		.4byte	0x2c
 5395 09a5 31       		.uleb128 0x31
 5396 09a6 04       		.byte	0x4
 5397 09a7 03       		.byte	0x3
 5398 09a8 2D       		.byte	0x2d
 5399 09a9 C0090000 		.4byte	0x9c0
 5400 09ad 32       		.uleb128 0x32
 5401 09ae 6600     		.ascii	"f\000"
 5402 09b0 03       		.byte	0x3
 5403 09b1 2D       		.byte	0x2d
 5404 09b2 25000000 		.4byte	0x25
 5405 09b6 32       		.uleb128 0x32
 5406 09b7 7300     		.ascii	"s\000"
 5407 09b9 03       		.byte	0x3
 5408 09ba 2D       		.byte	0x2d
 5409 09bb B4000000 		.4byte	0xb4
 5410 09bf 00       		.byte	0
 5411 09c0 19       		.uleb128 0x19
 5412 09c1 7800     		.ascii	"x\000"
 5413 09c3 03       		.byte	0x3
 5414 09c4 2D       		.byte	0x2d
 5415 09c5 A5090000 		.4byte	0x9a5
 5416 09c9 00       		.byte	0
 5417 09ca 10       		.uleb128 0x10
 5418 09cb FB000000 		.4byte	.LASF107
 5419 09cf 03       		.byte	0x3
 5420 09d0 A7       		.byte	0xa7
 5421 09d1 B4000000 		.4byte	0xb4
 5422 09d5 03       		.byte	0x3
 5423 09d6 B10A0000 		.4byte	0xab1
 5424 09da 11       		.uleb128 0x11
 5425 09db 7800     		.ascii	"x\000"
 5426 09dd 03       		.byte	0x3
 5427 09de A7       		.byte	0xa7
 5428 09df 25000000 		.4byte	0x25
 5429 09e3 30       		.uleb128 0x30
 5430 09e4 7400     		.ascii	"t\000"
 5431 09e6 03       		.byte	0x3
 5432 09e7 AB       		.byte	0xab
 5433 09e8 CC0A0000 		.4byte	0xacc
 5434 09ec 80       		.byte	0x80
 5435 09ed 00       		.byte	0
 5436 09ee 00       		.byte	0
 5437 09ef 1B       		.byte	0x1b
 5438 09f0 11       		.byte	0x11
 5439 09f1 1B       		.byte	0x1b
 5440 09f2 11       		.byte	0x11
 5441 09f3 98       		.byte	0x98
 5442 09f4 10       		.byte	0x10
 5443 09f5 B3       		.byte	0xb3
ARM GAS  C:\Users\rdn\AppData\Local\Temp\ccYcaPXH.s 			page 132


 5444 09f6 21       		.byte	0x21
 5445 09f7 1D       		.byte	0x1d
 5446 09f8 10       		.byte	0x10
 5447 09f9 D1       		.byte	0xd1
 5448 09fa 31       		.byte	0x31
 5449 09fb A9       		.byte	0xa9
 5450 09fc 0F       		.byte	0xf
 5451 09fd 7A       		.byte	0x7a
 5452 09fe 41       		.byte	0x41
 5453 09ff 3B       		.byte	0x3b
 5454 0a00 0F       		.byte	0xf
 5455 0a01 B5       		.byte	0xb5
 5456 0a02 50       		.byte	0x50
 5457 0a03 D3       		.byte	0xd3
 5458 0a04 0E       		.byte	0xe
 5459 0a05 88       		.byte	0x88
 5460 0a06 5F       		.byte	0x5f
 5461 0a07 71       		.byte	0x71
 5462 0a08 0E       		.byte	0xe
 5463 0a09 F9       		.byte	0xf9
 5464 0a0a 6D       		.byte	0x6d
 5465 0a0b 13       		.byte	0x13
 5466 0a0c 0E       		.byte	0xe
 5467 0a0d 0B       		.byte	0xb
 5468 0a0e 7C       		.byte	0x7c
 5469 0a0f BA       		.byte	0xba
 5470 0a10 0D       		.byte	0xd
 5471 0a11 C5       		.byte	0xc5
 5472 0a12 89       		.byte	0x89
 5473 0a13 65       		.byte	0x65
 5474 0a14 0D       		.byte	0xd
 5475 0a15 2B       		.byte	0x2b
 5476 0a16 97       		.byte	0x97
 5477 0a17 15       		.byte	0x15
 5478 0a18 0D       		.byte	0xd
 5479 0a19 3F       		.byte	0x3f
 5480 0a1a A4       		.byte	0xa4
 5481 0a1b C8       		.byte	0xc8
 5482 0a1c 0C       		.byte	0xc
 5483 0a1d 07       		.byte	0x7
 5484 0a1e B1       		.byte	0xb1
 5485 0a1f 7E       		.byte	0x7e
 5486 0a20 0C       		.byte	0xc
 5487 0a21 85       		.byte	0x85
 5488 0a22 BD       		.byte	0xbd
 5489 0a23 38       		.byte	0x38
 5490 0a24 0C       		.byte	0xc
 5491 0a25 BD       		.byte	0xbd
 5492 0a26 C9       		.byte	0xc9
 5493 0a27 F5       		.byte	0xf5
 5494 0a28 0B       		.byte	0xb
 5495 0a29 B1       		.byte	0xb1
 5496 0a2a D5       		.byte	0xd5
 5497 0a2b B4       		.byte	0xb4
 5498 0a2c 0B       		.byte	0xb
 5499 0a2d BD       		.byte	0xbd
 5500 0a2e 20       		.byte	0x20
ARM GAS  C:\Users\rdn\AppData\Local\Temp\ccYcaPXH.s 			page 133


 5501 0a2f 76       		.byte	0x76
 5502 0a30 0B       		.byte	0xb
 5503 0a31 33       		.byte	0x33
 5504 0a32 2C       		.byte	0x2c
 5505 0a33 3B       		.byte	0x3b
 5506 0a34 0B       		.byte	0xb
 5507 0a35 6E       		.byte	0x6e
 5508 0a36 37       		.byte	0x37
 5509 0a37 02       		.byte	0x2
 5510 0a38 0B       		.byte	0xb
 5511 0a39 70       		.byte	0x70
 5512 0a3a 42       		.byte	0x42
 5513 0a3b CB       		.byte	0xcb
 5514 0a3c 0A       		.byte	0xa
 5515 0a3d 3C       		.byte	0x3c
 5516 0a3e 4D       		.byte	0x4d
 5517 0a3f 97       		.byte	0x97
 5518 0a40 0A       		.byte	0xa
 5519 0a41 D2       		.byte	0xd2
 5520 0a42 57       		.byte	0x57
 5521 0a43 64       		.byte	0x64
 5522 0a44 0A       		.byte	0xa
 5523 0a45 36       		.byte	0x36
 5524 0a46 62       		.byte	0x62
 5525 0a47 33       		.byte	0x33
 5526 0a48 0A       		.byte	0xa
 5527 0a49 6A       		.byte	0x6a
 5528 0a4a 6C       		.byte	0x6c
 5529 0a4b 04       		.byte	0x4
 5530 0a4c 0A       		.byte	0xa
 5531 0a4d 6E       		.byte	0x6e
 5532 0a4e 76       		.byte	0x76
 5533 0a4f D7       		.byte	0xd7
 5534 0a50 09       		.byte	0x9
 5535 0a51 45       		.byte	0x45
 5536 0a52 80       		.byte	0x80
 5537 0a53 AB       		.byte	0xab
 5538 0a54 09       		.byte	0x9
 5539 0a55 F0       		.byte	0xf0
 5540 0a56 89       		.byte	0x89
 5541 0a57 81       		.byte	0x81
 5542 0a58 09       		.byte	0x9
 5543 0a59 70       		.byte	0x70
 5544 0a5a 93       		.byte	0x93
 5545 0a5b 58       		.byte	0x58
 5546 0a5c 09       		.byte	0x9
 5547 0a5d C8       		.byte	0xc8
 5548 0a5e 9C       		.byte	0x9c
 5549 0a5f 30       		.byte	0x30
 5550 0a60 09       		.byte	0x9
 5551 0a61 F9       		.byte	0xf9
 5552 0a62 A5       		.byte	0xa5
 5553 0a63 0A       		.byte	0xa
 5554 0a64 09       		.byte	0x9
 5555 0a65 03       		.byte	0x3
 5556 0a66 AF       		.byte	0xaf
 5557 0a67 E5       		.byte	0xe5
ARM GAS  C:\Users\rdn\AppData\Local\Temp\ccYcaPXH.s 			page 134


 5558 0a68 08       		.byte	0x8
 5559 0a69 E8       		.byte	0xe8
 5560 0a6a B7       		.byte	0xb7
 5561 0a6b C1       		.byte	0xc1
 5562 0a6c 08       		.byte	0x8
 5563 0a6d 31       		.uleb128 0x31
 5564 0a6e 04       		.byte	0x4
 5565 0a6f 03       		.byte	0x3
 5566 0a70 D0       		.byte	0xd0
 5567 0a71 880A0000 		.4byte	0xa88
 5568 0a75 32       		.uleb128 0x32
 5569 0a76 6600     		.ascii	"f\000"
 5570 0a78 03       		.byte	0x3
 5571 0a79 D0       		.byte	0xd0
 5572 0a7a 25000000 		.4byte	0x25
 5573 0a7e 32       		.uleb128 0x32
 5574 0a7f 7500     		.ascii	"u\000"
 5575 0a81 03       		.byte	0x3
 5576 0a82 D0       		.byte	0xd0
 5577 0a83 BF000000 		.4byte	0xbf
 5578 0a87 00       		.byte	0
 5579 0a88 19       		.uleb128 0x19
 5580 0a89 783200   		.ascii	"x2\000"
 5581 0a8c 03       		.byte	0x3
 5582 0a8d D0       		.byte	0xd0
 5583 0a8e 6D0A0000 		.4byte	0xa6d
 5584 0a92 19       		.uleb128 0x19
 5585 0a93 653200   		.ascii	"e2\000"
 5586 0a96 03       		.byte	0x3
 5587 0a97 D2       		.byte	0xd2
 5588 0a98 2C000000 		.4byte	0x2c
 5589 0a9c 19       		.uleb128 0x19
 5590 0a9d 686900   		.ascii	"hi\000"
 5591 0aa0 03       		.byte	0x3
 5592 0aa1 D3       		.byte	0xd3
 5593 0aa2 2C000000 		.4byte	0x2c
 5594 0aa6 19       		.uleb128 0x19
 5595 0aa7 6C6F00   		.ascii	"lo\000"
 5596 0aaa 03       		.byte	0x3
 5597 0aab D4       		.byte	0xd4
 5598 0aac 2C000000 		.4byte	0x2c
 5599 0ab0 00       		.byte	0
 5600 0ab1 0C       		.uleb128 0xc
 5601 0ab2 C70A0000 		.4byte	0xac7
 5602 0ab6 C70A0000 		.4byte	0xac7
 5603 0aba 0D       		.uleb128 0xd
 5604 0abb 41010000 		.4byte	0x141
 5605 0abf 1F       		.byte	0x1f
 5606 0ac0 0D       		.uleb128 0xd
 5607 0ac1 41010000 		.4byte	0x141
 5608 0ac5 01       		.byte	0x1
 5609 0ac6 00       		.byte	0
 5610 0ac7 0F       		.uleb128 0xf
 5611 0ac8 A9000000 		.4byte	0xa9
 5612 0acc 0F       		.uleb128 0xf
 5613 0acd B10A0000 		.4byte	0xab1
 5614 0ad1 12       		.uleb128 0x12
ARM GAS  C:\Users\rdn\AppData\Local\Temp\ccYcaPXH.s 			page 135


 5615 0ad2 3C040000 		.4byte	.LASF108
 5616 0ad6 01       		.byte	0x1
 5617 0ad7 52       		.byte	0x52
 5618 0ad8 2C000000 		.4byte	0x2c
 5619 0adc 00000000 		.4byte	.LFB22
 5620 0ae0 E6030000 		.4byte	.LFE22-.LFB22
 5621 0ae4 01       		.uleb128 0x1
 5622 0ae5 9C       		.byte	0x9c
 5623 0ae6 260F0000 		.4byte	0xf26
 5624 0aea 13       		.uleb128 0x13
 5625 0aeb 647400   		.ascii	"dt\000"
 5626 0aee 01       		.byte	0x1
 5627 0aef 53       		.byte	0x53
 5628 0af0 CA000000 		.4byte	0xca
 5629 0af4 D1050000 		.4byte	.LLST46
 5630 0af8 13       		.uleb128 0x13
 5631 0af9 737200   		.ascii	"sr\000"
 5632 0afc 01       		.byte	0x1
 5633 0afd 53       		.byte	0x53
 5634 0afe F9000000 		.4byte	0xf9
 5635 0b02 0B060000 		.4byte	.LLST47
 5636 0b06 13       		.uleb128 0x13
 5637 0b07 7800     		.ascii	"x\000"
 5638 0b09 01       		.byte	0x1
 5639 0b0a 53       		.byte	0x53
 5640 0b0b 49030000 		.4byte	0x349
 5641 0b0f 45060000 		.4byte	.LLST48
 5642 0b13 14       		.uleb128 0x14
 5643 0b14 71040000 		.4byte	.LASF83
 5644 0b18 01       		.byte	0x1
 5645 0b19 54       		.byte	0x54
 5646 0b1a 2C000000 		.4byte	0x2c
 5647 0b1e 87060000 		.4byte	.LLST49
 5648 0b22 34       		.uleb128 0x34
 5649 0b23 02040000 		.4byte	.LASF95
 5650 0b27 01       		.byte	0x1
 5651 0b28 54       		.byte	0x54
 5652 0b29 2C000000 		.4byte	0x2c
 5653 0b2d 02       		.uleb128 0x2
 5654 0b2e 91       		.byte	0x91
 5655 0b2f 00       		.sleb128 0
 5656 0b30 14       		.uleb128 0x14
 5657 0b31 32040000 		.4byte	.LASF35
 5658 0b35 01       		.byte	0x1
 5659 0b36 54       		.byte	0x54
 5660 0b37 25000000 		.4byte	0x25
 5661 0b3b CC060000 		.4byte	.LLST50
 5662 0b3f 34       		.uleb128 0x34
 5663 0b40 D1050000 		.4byte	.LASF85
 5664 0b44 01       		.byte	0x1
 5665 0b45 54       		.byte	0x54
 5666 0b46 2C000000 		.4byte	0x2c
 5667 0b4a 02       		.uleb128 0x2
 5668 0b4b 91       		.byte	0x91
 5669 0b4c 04       		.sleb128 4
 5670 0b4d 34       		.uleb128 0x34
 5671 0b4e D5080000 		.4byte	.LASF109
ARM GAS  C:\Users\rdn\AppData\Local\Temp\ccYcaPXH.s 			page 136


 5672 0b52 01       		.byte	0x1
 5673 0b53 55       		.byte	0x55
 5674 0b54 1B060000 		.4byte	0x61b
 5675 0b58 02       		.uleb128 0x2
 5676 0b59 91       		.byte	0x91
 5677 0b5a 08       		.sleb128 8
 5678 0b5b 34       		.uleb128 0x34
 5679 0b5c 26070000 		.4byte	.LASF110
 5680 0b60 01       		.byte	0x1
 5681 0b61 55       		.byte	0x55
 5682 0b62 D4050000 		.4byte	0x5d4
 5683 0b66 02       		.uleb128 0x2
 5684 0b67 91       		.byte	0x91
 5685 0b68 0C       		.sleb128 12
 5686 0b69 17       		.uleb128 0x17
 5687 0b6a 6E3400   		.ascii	"n4\000"
 5688 0b6d 01       		.byte	0x1
 5689 0b6e 57       		.byte	0x57
 5690 0b6f 2C000000 		.4byte	0x2c
 5691 0b73 14070000 		.4byte	.LLST51
 5692 0b77 31       		.uleb128 0x31
 5693 0b78 04       		.byte	0x4
 5694 0b79 01       		.byte	0x1
 5695 0b7a 58       		.byte	0x58
 5696 0b7b 940B0000 		.4byte	0xb94
 5697 0b7f 32       		.uleb128 0x32
 5698 0b80 6600     		.ascii	"f\000"
 5699 0b82 01       		.byte	0x1
 5700 0b83 58       		.byte	0x58
 5701 0b84 25000000 		.4byte	0x25
 5702 0b88 32       		.uleb128 0x32
 5703 0b89 71313600 		.ascii	"q16\000"
 5704 0b8d 01       		.byte	0x1
 5705 0b8e 58       		.byte	0x58
 5706 0b8f B4000000 		.4byte	0xb4
 5707 0b93 00       		.byte	0
 5708 0b94 35       		.uleb128 0x35
 5709 0b95 6500     		.ascii	"e\000"
 5710 0b97 01       		.byte	0x1
 5711 0b98 58       		.byte	0x58
 5712 0b99 260F0000 		.4byte	0xf26
 5713 0b9d 03       		.uleb128 0x3
 5714 0b9e 91       		.byte	0x91
 5715 0b9f 8078     		.sleb128 -1024
 5716 0ba1 15       		.uleb128 0x15
 5717 0ba2 6B020000 		.4byte	.LASF111
 5718 0ba6 01       		.byte	0x1
 5719 0ba7 5C       		.byte	0x5c
 5720 0ba8 2C000000 		.4byte	0x2c
 5721 0bac 27070000 		.4byte	.LLST52
 5722 0bb0 15       		.uleb128 0x15
 5723 0bb1 E4020000 		.4byte	.LASF112
 5724 0bb5 01       		.byte	0x1
 5725 0bb6 5D       		.byte	0x5d
 5726 0bb7 25000000 		.4byte	0x25
 5727 0bbb A9070000 		.4byte	.LLST53
 5728 0bbf 15       		.uleb128 0x15
ARM GAS  C:\Users\rdn\AppData\Local\Temp\ccYcaPXH.s 			page 137


 5729 0bc0 8C020000 		.4byte	.LASF113
 5730 0bc4 01       		.byte	0x1
 5731 0bc5 78       		.byte	0x78
 5732 0bc6 25000000 		.4byte	0x25
 5733 0bca F5070000 		.4byte	.LLST54
 5734 0bce 15       		.uleb128 0x15
 5735 0bcf AE070000 		.4byte	.LASF114
 5736 0bd3 01       		.byte	0x1
 5737 0bd4 88       		.byte	0x88
 5738 0bd5 25000000 		.4byte	0x25
 5739 0bd9 44080000 		.4byte	.LLST55
 5740 0bdd 17       		.uleb128 0x17
 5741 0bde 6E6600   		.ascii	"nf\000"
 5742 0be1 01       		.byte	0x1
 5743 0be2 89       		.byte	0x89
 5744 0be3 25000000 		.4byte	0x25
 5745 0be7 63080000 		.4byte	.LLST56
 5746 0beb 15       		.uleb128 0x15
 5747 0bec 4A040000 		.4byte	.LASF97
 5748 0bf0 01       		.byte	0x1
 5749 0bf1 91       		.byte	0x91
 5750 0bf2 2C000000 		.4byte	0x2c
 5751 0bf6 77080000 		.4byte	.LLST57
 5752 0bfa 15       		.uleb128 0x15
 5753 0bfb F6070000 		.4byte	.LASF88
 5754 0bff 01       		.byte	0x1
 5755 0c00 92       		.byte	0x92
 5756 0c01 2C000000 		.4byte	0x2c
 5757 0c05 C5080000 		.4byte	.LLST58
 5758 0c09 36       		.uleb128 0x36
 5759 0c0a 00000000 		.4byte	.LASF115
 5760 0c0e 01       		.byte	0x1
 5761 0c0f 94       		.byte	0x94
 5762 0c10 360F0000 		.4byte	0xf36
 5763 0c14 DBB6     		.2byte	0xb6db
 5764 0c16 37       		.uleb128 0x37
 5765 0c17 24000000 		.4byte	.LASF116
 5766 0c1b 01       		.byte	0x1
 5767 0c1c 95       		.byte	0x95
 5768 0c1d 360F0000 		.4byte	0xf36
 5769 0c21 33B30200 		.4byte	0x2b333
 5770 0c25 37       		.uleb128 0x37
 5771 0c26 60050000 		.4byte	.LASF117
 5772 0c2a 01       		.byte	0x1
 5773 0c2b 96       		.byte	0x96
 5774 0c2c 360F0000 		.4byte	0xf36
 5775 0c30 66660100 		.4byte	0x16666
 5776 0c34 15       		.uleb128 0x15
 5777 0c35 AD050000 		.4byte	.LASF118
 5778 0c39 01       		.byte	0x1
 5779 0c3a AE       		.byte	0xae
 5780 0c3b 25000000 		.4byte	0x25
 5781 0c3f 11090000 		.4byte	.LLST59
 5782 0c43 1A       		.uleb128 0x1a
 5783 0c44 17040000 		.4byte	0x417
 5784 0c48 0A000000 		.4byte	.LBB125
 5785 0c4c 78000000 		.4byte	.Ldebug_ranges0+0x78
ARM GAS  C:\Users\rdn\AppData\Local\Temp\ccYcaPXH.s 			page 138


 5786 0c50 01       		.byte	0x1
 5787 0c51 57       		.byte	0x57
 5788 0c52 690C0000 		.4byte	0xc69
 5789 0c56 1B       		.uleb128 0x1b
 5790 0c57 31040000 		.4byte	0x431
 5791 0c5b 25090000 		.4byte	.LLST60
 5792 0c5f 1B       		.uleb128 0x1b
 5793 0c60 27040000 		.4byte	0x427
 5794 0c64 38090000 		.4byte	.LLST61
 5795 0c68 00       		.byte	0
 5796 0c69 1C       		.uleb128 0x1c
 5797 0c6a 38000000 		.4byte	.LBB129
 5798 0c6e 06010000 		.4byte	.LBE129-.LBB129
 5799 0c72 FB0C0000 		.4byte	0xcfb
 5800 0c76 15       		.uleb128 0x15
 5801 0c77 A2040000 		.4byte	.LASF119
 5802 0c7b 01       		.byte	0x1
 5803 0c7c 60       		.byte	0x60
 5804 0c7d 2C000000 		.4byte	0x2c
 5805 0c81 4B090000 		.4byte	.LLST62
 5806 0c85 17       		.uleb128 0x17
 5807 0c86 6D3000   		.ascii	"m0\000"
 5808 0c89 01       		.byte	0x1
 5809 0c8a 69       		.byte	0x69
 5810 0c8b 25000000 		.4byte	0x25
 5811 0c8f 8B090000 		.4byte	.LLST63
 5812 0c93 17       		.uleb128 0x17
 5813 0c94 6D3100   		.ascii	"m1\000"
 5814 0c97 01       		.byte	0x1
 5815 0c98 69       		.byte	0x69
 5816 0c99 25000000 		.4byte	0x25
 5817 0c9d AF090000 		.4byte	.LLST64
 5818 0ca1 17       		.uleb128 0x17
 5819 0ca2 6B00     		.ascii	"k\000"
 5820 0ca4 01       		.byte	0x1
 5821 0ca5 69       		.byte	0x69
 5822 0ca6 25000000 		.4byte	0x25
 5823 0caa F7090000 		.4byte	.LLST65
 5824 0cae 17       		.uleb128 0x17
 5825 0caf 6D00     		.ascii	"m\000"
 5826 0cb1 01       		.byte	0x1
 5827 0cb2 72       		.byte	0x72
 5828 0cb3 2C000000 		.4byte	0x2c
 5829 0cb7 4B0A0000 		.4byte	.LLST66
 5830 0cbb 38       		.uleb128 0x38
 5831 0cbc 90000000 		.4byte	.Ldebug_ranges0+0x90
 5832 0cc0 D20C0000 		.4byte	0xcd2
 5833 0cc4 17       		.uleb128 0x17
 5834 0cc5 6900     		.ascii	"i\000"
 5835 0cc7 01       		.byte	0x1
 5836 0cc8 6B       		.byte	0x6b
 5837 0cc9 2C000000 		.4byte	0x2c
 5838 0ccd 650A0000 		.4byte	.LLST67
 5839 0cd1 00       		.byte	0
 5840 0cd2 39       		.uleb128 0x39
 5841 0cd3 46000000 		.4byte	.LVL81
 5842 0cd7 C2290000 		.4byte	0x29c2
ARM GAS  C:\Users\rdn\AppData\Local\Temp\ccYcaPXH.s 			page 139


 5843 0cdb F10C0000 		.4byte	0xcf1
 5844 0cdf 21       		.uleb128 0x21
 5845 0ce0 01       		.uleb128 0x1
 5846 0ce1 50       		.byte	0x50
 5847 0ce2 02       		.uleb128 0x2
 5848 0ce3 7A       		.byte	0x7a
 5849 0ce4 00       		.sleb128 0
 5850 0ce5 21       		.uleb128 0x21
 5851 0ce6 01       		.uleb128 0x1
 5852 0ce7 51       		.byte	0x51
 5853 0ce8 01       		.uleb128 0x1
 5854 0ce9 30       		.byte	0x30
 5855 0cea 21       		.uleb128 0x21
 5856 0ceb 01       		.uleb128 0x1
 5857 0cec 52       		.byte	0x52
 5858 0ced 02       		.uleb128 0x2
 5859 0cee 08       		.byte	0x8
 5860 0cef 20       		.byte	0x20
 5861 0cf0 00       		.byte	0
 5862 0cf1 3A       		.uleb128 0x3a
 5863 0cf2 1E010000 		.4byte	.LVL104
 5864 0cf6 CB290000 		.4byte	0x29cb
 5865 0cfa 00       		.byte	0
 5866 0cfb 38       		.uleb128 0x38
 5867 0cfc A8000000 		.4byte	.Ldebug_ranges0+0xa8
 5868 0d00 A00D0000 		.4byte	0xda0
 5869 0d04 17       		.uleb128 0x17
 5870 0d05 6900     		.ascii	"i\000"
 5871 0d07 01       		.byte	0x1
 5872 0d08 7A       		.byte	0x7a
 5873 0d09 2C000000 		.4byte	0x2c
 5874 0d0d 9C0A0000 		.4byte	.LLST68
 5875 0d11 2B       		.uleb128 0x2b
 5876 0d12 C0000000 		.4byte	.Ldebug_ranges0+0xc0
 5877 0d16 17       		.uleb128 0x17
 5878 0d17 783000   		.ascii	"x0\000"
 5879 0d1a 01       		.byte	0x1
 5880 0d1b 7B       		.byte	0x7b
 5881 0d1c 25000000 		.4byte	0x25
 5882 0d20 BB0A0000 		.4byte	.LLST69
 5883 0d24 17       		.uleb128 0x17
 5884 0d25 783100   		.ascii	"x1\000"
 5885 0d28 01       		.byte	0x1
 5886 0d29 7C       		.byte	0x7c
 5887 0d2a 25000000 		.4byte	0x25
 5888 0d2e CF0A0000 		.4byte	.LLST70
 5889 0d32 17       		.uleb128 0x17
 5890 0d33 783200   		.ascii	"x2\000"
 5891 0d36 01       		.byte	0x1
 5892 0d37 7D       		.byte	0x7d
 5893 0d38 25000000 		.4byte	0x25
 5894 0d3c E30A0000 		.4byte	.LLST71
 5895 0d40 17       		.uleb128 0x17
 5896 0d41 783300   		.ascii	"x3\000"
 5897 0d44 01       		.byte	0x1
 5898 0d45 7E       		.byte	0x7e
 5899 0d46 25000000 		.4byte	0x25
ARM GAS  C:\Users\rdn\AppData\Local\Temp\ccYcaPXH.s 			page 140


 5900 0d4a F70A0000 		.4byte	.LLST72
 5901 0d4e 39       		.uleb128 0x39
 5902 0d4f 7C010000 		.4byte	.LVL113
 5903 0d53 D7290000 		.4byte	0x29d7
 5904 0d57 630D0000 		.4byte	0xd63
 5905 0d5b 21       		.uleb128 0x21
 5906 0d5c 01       		.uleb128 0x1
 5907 0d5d 51       		.byte	0x51
 5908 0d5e 03       		.uleb128 0x3
 5909 0d5f F5       		.byte	0xf5
 5910 0d60 51       		.uleb128 0x51
 5911 0d61 25       		.uleb128 0x25
 5912 0d62 00       		.byte	0
 5913 0d63 39       		.uleb128 0x39
 5914 0d64 88010000 		.4byte	.LVL115
 5915 0d68 D7290000 		.4byte	0x29d7
 5916 0d6c 780D0000 		.4byte	0xd78
 5917 0d70 21       		.uleb128 0x21
 5918 0d71 01       		.uleb128 0x1
 5919 0d72 51       		.byte	0x51
 5920 0d73 03       		.uleb128 0x3
 5921 0d74 F5       		.byte	0xf5
 5922 0d75 55       		.uleb128 0x55
 5923 0d76 25       		.uleb128 0x25
 5924 0d77 00       		.byte	0
 5925 0d78 39       		.uleb128 0x39
 5926 0d79 90010000 		.4byte	.LVL116
 5927 0d7d D7290000 		.4byte	0x29d7
 5928 0d81 8D0D0000 		.4byte	0xd8d
 5929 0d85 21       		.uleb128 0x21
 5930 0d86 01       		.uleb128 0x1
 5931 0d87 51       		.byte	0x51
 5932 0d88 03       		.uleb128 0x3
 5933 0d89 F5       		.byte	0xf5
 5934 0d8a 54       		.uleb128 0x54
 5935 0d8b 25       		.uleb128 0x25
 5936 0d8c 00       		.byte	0
 5937 0d8d 20       		.uleb128 0x20
 5938 0d8e 98010000 		.4byte	.LVL117
 5939 0d92 D7290000 		.4byte	0x29d7
 5940 0d96 21       		.uleb128 0x21
 5941 0d97 01       		.uleb128 0x1
 5942 0d98 51       		.byte	0x51
 5943 0d99 03       		.uleb128 0x3
 5944 0d9a F5       		.byte	0xf5
 5945 0d9b 53       		.uleb128 0x53
 5946 0d9c 25       		.uleb128 0x25
 5947 0d9d 00       		.byte	0
 5948 0d9e 00       		.byte	0
 5949 0d9f 00       		.byte	0
 5950 0da0 1A       		.uleb128 0x1a
 5951 0da1 A2080000 		.4byte	0x8a2
 5952 0da5 BA010000 		.4byte	.LBB136
 5953 0da9 D8000000 		.4byte	.Ldebug_ranges0+0xd8
 5954 0dad 01       		.byte	0x1
 5955 0dae 8A       		.byte	0x8a
 5956 0daf E70D0000 		.4byte	0xde7
ARM GAS  C:\Users\rdn\AppData\Local\Temp\ccYcaPXH.s 			page 141


 5957 0db3 3B       		.uleb128 0x3b
 5958 0db4 B2080000 		.4byte	0x8b2
 5959 0db8 02       		.uleb128 0x2
 5960 0db9 90       		.byte	0x90
 5961 0dba 4F       		.uleb128 0x4f
 5962 0dbb 2B       		.uleb128 0x2b
 5963 0dbc D8000000 		.4byte	.Ldebug_ranges0+0xd8
 5964 0dc0 3C       		.uleb128 0x3c
 5965 0dc1 1A090000 		.4byte	0x91a
 5966 0dc5 03       		.uleb128 0x3
 5967 0dc6 91       		.byte	0x91
 5968 0dc7 DC77     		.sleb128 -1060
 5969 0dc9 3C       		.uleb128 0x3c
 5970 0dca 28090000 		.4byte	0x928
 5971 0dce 01       		.uleb128 0x1
 5972 0dcf 53       		.byte	0x53
 5973 0dd0 3D       		.uleb128 0x3d
 5974 0dd1 4C090000 		.4byte	0x94c
 5975 0dd5 3C       		.uleb128 0x3c
 5976 0dd6 BB080000 		.4byte	0x8bb
 5977 0dda 05       		.uleb128 0x5
 5978 0ddb 03       		.byte	0x3
 5979 0ddc 70000000 		.4byte	e.5111
 5980 0de0 3D       		.uleb128 0x3d
 5981 0de1 E5080000 		.4byte	0x8e5
 5982 0de5 00       		.byte	0
 5983 0de6 00       		.byte	0
 5984 0de7 1A       		.uleb128 0x1a
 5985 0de8 80090000 		.4byte	0x980
 5986 0dec C8010000 		.4byte	.LBB141
 5987 0df0 00010000 		.4byte	.Ldebug_ranges0+0x100
 5988 0df4 01       		.byte	0x1
 5989 0df5 8A       		.byte	0x8a
 5990 0df6 1C0E0000 		.4byte	0xe1c
 5991 0dfa 1B       		.uleb128 0x1b
 5992 0dfb 9A090000 		.4byte	0x99a
 5993 0dff 0B0B0000 		.4byte	.LLST73
 5994 0e03 1B       		.uleb128 0x1b
 5995 0e04 90090000 		.4byte	0x990
 5996 0e08 210B0000 		.4byte	.LLST74
 5997 0e0c 2B       		.uleb128 0x2b
 5998 0e0d 00010000 		.4byte	.Ldebug_ranges0+0x100
 5999 0e11 2C       		.uleb128 0x2c
 6000 0e12 C0090000 		.4byte	0x9c0
 6001 0e16 340B0000 		.4byte	.LLST75
 6002 0e1a 00       		.byte	0
 6003 0e1b 00       		.byte	0
 6004 0e1c 1C       		.uleb128 0x1c
 6005 0e1d 3E020000 		.4byte	.LBB150
 6006 0e21 5E000000 		.4byte	.LBE150-.LBB150
 6007 0e25 880E0000 		.4byte	0xe88
 6008 0e29 17       		.uleb128 0x17
 6009 0e2a 6900     		.ascii	"i\000"
 6010 0e2c 01       		.byte	0x1
 6011 0e2d 8C       		.byte	0x8c
 6012 0e2e 2C000000 		.4byte	0x2c
 6013 0e32 5F0B0000 		.4byte	.LLST76
ARM GAS  C:\Users\rdn\AppData\Local\Temp\ccYcaPXH.s 			page 142


 6014 0e36 1A       		.uleb128 0x1a
 6015 0e37 CA090000 		.4byte	0x9ca
 6016 0e3b 3E020000 		.4byte	.LBB151
 6017 0e3f 20010000 		.4byte	.Ldebug_ranges0+0x120
 6018 0e43 01       		.byte	0x1
 6019 0e44 8D       		.byte	0x8d
 6020 0e45 7E0E0000 		.4byte	0xe7e
 6021 0e49 1B       		.uleb128 0x1b
 6022 0e4a DA090000 		.4byte	0x9da
 6023 0e4e 960B0000 		.4byte	.LLST77
 6024 0e52 2B       		.uleb128 0x2b
 6025 0e53 20010000 		.4byte	.Ldebug_ranges0+0x120
 6026 0e57 3D       		.uleb128 0x3d
 6027 0e58 880A0000 		.4byte	0xa88
 6028 0e5c 2C       		.uleb128 0x2c
 6029 0e5d 920A0000 		.4byte	0xa92
 6030 0e61 A90B0000 		.4byte	.LLST78
 6031 0e65 3C       		.uleb128 0x3c
 6032 0e66 9C0A0000 		.4byte	0xa9c
 6033 0e6a 01       		.uleb128 0x1
 6034 0e6b 52       		.byte	0x52
 6035 0e6c 3D       		.uleb128 0x3d
 6036 0e6d A60A0000 		.4byte	0xaa6
 6037 0e71 3C       		.uleb128 0x3c
 6038 0e72 E3090000 		.4byte	0x9e3
 6039 0e76 05       		.uleb128 0x5
 6040 0e77 03       		.byte	0x3
 6041 0e78 90000000 		.4byte	t.5134
 6042 0e7c 00       		.byte	0
 6043 0e7d 00       		.byte	0
 6044 0e7e 3A       		.uleb128 0x3a
 6045 0e7f 64020000 		.4byte	.LVL132
 6046 0e83 D7290000 		.4byte	0x29d7
 6047 0e87 00       		.byte	0
 6048 0e88 38       		.uleb128 0x38
 6049 0e89 38010000 		.4byte	.Ldebug_ranges0+0x138
 6050 0e8d F80E0000 		.4byte	0xef8
 6051 0e91 17       		.uleb128 0x17
 6052 0e92 6900     		.ascii	"i\000"
 6053 0e94 01       		.byte	0x1
 6054 0e95 98       		.byte	0x98
 6055 0e96 2C000000 		.4byte	0x2c
 6056 0e9a C40B0000 		.4byte	.LLST79
 6057 0e9e 17       		.uleb128 0x17
 6058 0e9f 6A00     		.ascii	"j\000"
 6059 0ea1 01       		.byte	0x1
 6060 0ea2 98       		.byte	0x98
 6061 0ea3 2C000000 		.4byte	0x2c
 6062 0ea7 E40B0000 		.4byte	.LLST80
 6063 0eab 17       		.uleb128 0x17
 6064 0eac 6A3000   		.ascii	"j0\000"
 6065 0eaf 01       		.byte	0x1
 6066 0eb0 98       		.byte	0x98
 6067 0eb1 2C000000 		.4byte	0x2c
 6068 0eb5 1A0C0000 		.4byte	.LLST81
 6069 0eb9 19       		.uleb128 0x19
 6070 0eba 6A3100   		.ascii	"j1\000"
ARM GAS  C:\Users\rdn\AppData\Local\Temp\ccYcaPXH.s 			page 143


 6071 0ebd 01       		.byte	0x1
 6072 0ebe 98       		.byte	0x98
 6073 0ebf 2C000000 		.4byte	0x2c
 6074 0ec3 2B       		.uleb128 0x2b
 6075 0ec4 50010000 		.4byte	.Ldebug_ranges0+0x150
 6076 0ec8 35       		.uleb128 0x35
 6077 0ec9 676E00   		.ascii	"gn\000"
 6078 0ecc 01       		.byte	0x1
 6079 0ecd 99       		.byte	0x99
 6080 0ece 2C000000 		.4byte	0x2c
 6081 0ed2 01       		.uleb128 0x1
 6082 0ed3 58       		.byte	0x58
 6083 0ed4 17       		.uleb128 0x17
 6084 0ed5 7600     		.ascii	"v\000"
 6085 0ed7 01       		.byte	0x1
 6086 0ed8 9A       		.byte	0x9a
 6087 0ed9 2C000000 		.4byte	0x2c
 6088 0edd 5D0C0000 		.4byte	.LLST82
 6089 0ee1 2B       		.uleb128 0x2b
 6090 0ee2 70010000 		.4byte	.Ldebug_ranges0+0x170
 6091 0ee6 15       		.uleb128 0x15
 6092 0ee7 66050000 		.4byte	.LASF120
 6093 0eeb 01       		.byte	0x1
 6094 0eec 9F       		.byte	0x9f
 6095 0eed 2C000000 		.4byte	0x2c
 6096 0ef1 880C0000 		.4byte	.LLST83
 6097 0ef5 00       		.byte	0
 6098 0ef6 00       		.byte	0
 6099 0ef7 00       		.byte	0
 6100 0ef8 1C       		.uleb128 0x1c
 6101 0ef9 52030000 		.4byte	.LBB162
 6102 0efd 22000000 		.4byte	.LBE162-.LBB162
 6103 0f01 1C0F0000 		.4byte	0xf1c
 6104 0f05 17       		.uleb128 0x17
 6105 0f06 6900     		.ascii	"i\000"
 6106 0f08 01       		.byte	0x1
 6107 0f09 B1       		.byte	0xb1
 6108 0f0a 2C000000 		.4byte	0x2c
 6109 0f0e F80C0000 		.4byte	.LLST84
 6110 0f12 3A       		.uleb128 0x3a
 6111 0f13 5E030000 		.4byte	.LVL159
 6112 0f17 91040000 		.4byte	0x491
 6113 0f1b 00       		.byte	0
 6114 0f1c 3A       		.uleb128 0x3a
 6115 0f1d B2010000 		.4byte	.LVL121
 6116 0f21 E3290000 		.4byte	0x29e3
 6117 0f25 00       		.byte	0
 6118 0f26 0C       		.uleb128 0xc
 6119 0f27 770B0000 		.4byte	0xb77
 6120 0f2b 360F0000 		.4byte	0xf36
 6121 0f2f 0D       		.uleb128 0xd
 6122 0f30 41010000 		.4byte	0x141
 6123 0f34 EF       		.byte	0xef
 6124 0f35 00       		.byte	0
 6125 0f36 0F       		.uleb128 0xf
 6126 0f37 2C000000 		.4byte	0x2c
 6127 0f3b 18       		.uleb128 0x18
ARM GAS  C:\Users\rdn\AppData\Local\Temp\ccYcaPXH.s 			page 144


 6128 0f3c 7F020000 		.4byte	.LASF122
 6129 0f40 04       		.byte	0x4
 6130 0f41 DA       		.byte	0xda
 6131 0f42 00000000 		.4byte	.LFB8
 6132 0f46 20000000 		.4byte	.LFE8-.LFB8
 6133 0f4a 01       		.uleb128 0x1
 6134 0f4b 9C       		.byte	0x9c
 6135 0f4c 920F0000 		.4byte	0xf92
 6136 0f50 14       		.uleb128 0x14
 6137 0f51 CB030000 		.4byte	.LASF123
 6138 0f55 04       		.byte	0x4
 6139 0f56 DB       		.byte	0xdb
 6140 0f57 920F0000 		.4byte	0xf92
 6141 0f5b 180D0000 		.4byte	.LLST85
 6142 0f5f 13       		.uleb128 0x13
 6143 0f60 7600     		.ascii	"v\000"
 6144 0f62 04       		.byte	0x4
 6145 0f63 DB       		.byte	0xdb
 6146 0f64 33000000 		.4byte	0x33
 6147 0f68 390D0000 		.4byte	.LLST86
 6148 0f6c 13       		.uleb128 0x13
 6149 0f6d 6E00     		.ascii	"n\000"
 6150 0f6f 04       		.byte	0x4
 6151 0f70 DB       		.byte	0xdb
 6152 0f71 2C000000 		.4byte	0x2c
 6153 0f75 5A0D0000 		.4byte	.LLST87
 6154 0f79 15       		.uleb128 0x15
 6155 0f7a 21030000 		.4byte	.LASF69
 6156 0f7e 04       		.byte	0x4
 6157 0f7f DD       		.byte	0xdd
 6158 0f80 980F0000 		.4byte	0xf98
 6159 0f84 940D0000 		.4byte	.LLST88
 6160 0f88 3E       		.uleb128 0x3e
 6161 0f89 20000000 		.4byte	.LVL168
 6162 0f8d EF290000 		.4byte	0x29ef
 6163 0f91 00       		.byte	0
 6164 0f92 0E       		.uleb128 0xe
 6165 0f93 04       		.byte	0x4
 6166 0f94 02030000 		.4byte	0x302
 6167 0f98 0E       		.uleb128 0xe
 6168 0f99 04       		.byte	0x4
 6169 0f9a 32020000 		.4byte	0x232
 6170 0f9e 18       		.uleb128 0x18
 6171 0f9f 51020000 		.4byte	.LASF124
 6172 0fa3 04       		.byte	0x4
 6173 0fa4 D2       		.byte	0xd2
 6174 0fa5 00000000 		.4byte	.LFB7
 6175 0fa9 06000000 		.4byte	.LFE7-.LFB7
 6176 0fad 01       		.uleb128 0x1
 6177 0fae 9C       		.byte	0x9c
 6178 0faf ED0F0000 		.4byte	0xfed
 6179 0fb3 14       		.uleb128 0x14
 6180 0fb4 CB030000 		.4byte	.LASF123
 6181 0fb8 04       		.byte	0x4
 6182 0fb9 D2       		.byte	0xd2
 6183 0fba ED0F0000 		.4byte	0xfed
 6184 0fbe B90D0000 		.4byte	.LLST89
ARM GAS  C:\Users\rdn\AppData\Local\Temp\ccYcaPXH.s 			page 145


 6185 0fc2 13       		.uleb128 0x13
 6186 0fc3 7600     		.ascii	"v\000"
 6187 0fc5 04       		.byte	0x4
 6188 0fc6 D2       		.byte	0xd2
 6189 0fc7 2C000000 		.4byte	0x2c
 6190 0fcb DA0D0000 		.4byte	.LLST90
 6191 0fcf 3F       		.uleb128 0x3f
 6192 0fd0 06000000 		.4byte	.LVL170
 6193 0fd4 3B0F0000 		.4byte	0xf3b
 6194 0fd8 21       		.uleb128 0x21
 6195 0fd9 01       		.uleb128 0x1
 6196 0fda 50       		.byte	0x50
 6197 0fdb 03       		.uleb128 0x3
 6198 0fdc F3       		.byte	0xf3
 6199 0fdd 01       		.uleb128 0x1
 6200 0fde 50       		.byte	0x50
 6201 0fdf 21       		.uleb128 0x21
 6202 0fe0 01       		.uleb128 0x1
 6203 0fe1 51       		.byte	0x51
 6204 0fe2 03       		.uleb128 0x3
 6205 0fe3 F3       		.byte	0xf3
 6206 0fe4 01       		.uleb128 0x1
 6207 0fe5 51       		.byte	0x51
 6208 0fe6 21       		.uleb128 0x21
 6209 0fe7 01       		.uleb128 0x1
 6210 0fe8 52       		.byte	0x52
 6211 0fe9 01       		.uleb128 0x1
 6212 0fea 31       		.byte	0x31
 6213 0feb 00       		.byte	0
 6214 0fec 00       		.byte	0
 6215 0fed 0E       		.uleb128 0xe
 6216 0fee 04       		.byte	0x4
 6217 0fef 3E030000 		.4byte	0x33e
 6218 0ff3 40       		.uleb128 0x40
 6219 0ff4 B7040000 		.4byte	.LASF125
 6220 0ff8 04       		.byte	0x4
 6221 0ff9 0201     		.2byte	0x102
 6222 0ffb 00000000 		.4byte	.LFB11
 6223 0fff 38000000 		.4byte	.LFE11-.LFB11
 6224 1003 01       		.uleb128 0x1
 6225 1004 9C       		.byte	0x9c
 6226 1005 78100000 		.4byte	0x1078
 6227 1009 28       		.uleb128 0x28
 6228 100a CB030000 		.4byte	.LASF123
 6229 100e 04       		.byte	0x4
 6230 100f 0301     		.2byte	0x103
 6231 1011 920F0000 		.4byte	0xf92
 6232 1015 FB0D0000 		.4byte	.LLST91
 6233 1019 28       		.uleb128 0x28
 6234 101a 61090000 		.4byte	.LASF126
 6235 101e 04       		.byte	0x4
 6236 101f 0301     		.2byte	0x103
 6237 1021 78100000 		.4byte	0x1078
 6238 1025 270E0000 		.4byte	.LLST92
 6239 1029 27       		.uleb128 0x27
 6240 102a 7300     		.ascii	"s\000"
 6241 102c 04       		.byte	0x4
ARM GAS  C:\Users\rdn\AppData\Local\Temp\ccYcaPXH.s 			page 146


 6242 102d 0301     		.2byte	0x103
 6243 102f 33000000 		.4byte	0x33
 6244 1033 480E0000 		.4byte	.LLST93
 6245 1037 1F       		.uleb128 0x1f
 6246 1038 89050000 		.4byte	.LASF127
 6247 103c 04       		.byte	0x4
 6248 103d 0501     		.2byte	0x105
 6249 103f 83100000 		.4byte	0x1083
 6250 1043 690E0000 		.4byte	.LLST94
 6251 1047 1D       		.uleb128 0x1d
 6252 1048 616300   		.ascii	"ac\000"
 6253 104b 04       		.byte	0x4
 6254 104c 0601     		.2byte	0x106
 6255 104e 8E100000 		.4byte	0x108e
 6256 1052 8A0E0000 		.4byte	.LLST95
 6257 1056 1F       		.uleb128 0x1f
 6258 1057 89040000 		.4byte	.LASF54
 6259 105b 04       		.byte	0x4
 6260 105c 0701     		.2byte	0x107
 6261 105e 33000000 		.4byte	0x33
 6262 1062 BC0E0000 		.4byte	.LLST96
 6263 1066 3F       		.uleb128 0x3f
 6264 1067 34000000 		.4byte	.LVL177
 6265 106b FA290000 		.4byte	0x29fa
 6266 106f 21       		.uleb128 0x21
 6267 1070 01       		.uleb128 0x1
 6268 1071 50       		.byte	0x50
 6269 1072 03       		.uleb128 0x3
 6270 1073 F3       		.byte	0xf3
 6271 1074 01       		.uleb128 0x1
 6272 1075 50       		.byte	0x50
 6273 1076 00       		.byte	0
 6274 1077 00       		.byte	0
 6275 1078 0E       		.uleb128 0xe
 6276 1079 04       		.byte	0x4
 6277 107a 7E100000 		.4byte	0x107e
 6278 107e 0F       		.uleb128 0xf
 6279 107f 0B020000 		.4byte	0x20b
 6280 1083 0E       		.uleb128 0xe
 6281 1084 04       		.byte	0x4
 6282 1085 89100000 		.4byte	0x1089
 6283 1089 0F       		.uleb128 0xf
 6284 108a E0010000 		.4byte	0x1e0
 6285 108e 0E       		.uleb128 0xe
 6286 108f 04       		.byte	0x4
 6287 1090 5F020000 		.4byte	0x25f
 6288 1094 12       		.uleb128 0x12
 6289 1095 DF000000 		.4byte	.LASF128
 6290 1099 04       		.byte	0x4
 6291 109a F2       		.byte	0xf2
 6292 109b 33000000 		.4byte	0x33
 6293 109f 00000000 		.4byte	.LFB10
 6294 10a3 26000000 		.4byte	.LFE10-.LFB10
 6295 10a7 01       		.uleb128 0x1
 6296 10a8 9C       		.byte	0x9c
 6297 10a9 0A110000 		.4byte	0x110a
 6298 10ad 14       		.uleb128 0x14
ARM GAS  C:\Users\rdn\AppData\Local\Temp\ccYcaPXH.s 			page 147


 6299 10ae CB030000 		.4byte	.LASF123
 6300 10b2 04       		.byte	0x4
 6301 10b3 F2       		.byte	0xf2
 6302 10b4 920F0000 		.4byte	0xf92
 6303 10b8 DF0E0000 		.4byte	.LLST97
 6304 10bc 13       		.uleb128 0x13
 6305 10bd 6E00     		.ascii	"n\000"
 6306 10bf 04       		.byte	0x4
 6307 10c0 F2       		.byte	0xf2
 6308 10c1 2C000000 		.4byte	0x2c
 6309 10c5 160F0000 		.4byte	.LLST98
 6310 10c9 15       		.uleb128 0x15
 6311 10ca 21030000 		.4byte	.LASF69
 6312 10ce 04       		.byte	0x4
 6313 10cf F4       		.byte	0xf4
 6314 10d0 980F0000 		.4byte	0xf98
 6315 10d4 5B0F0000 		.4byte	.LLST99
 6316 10d8 1C       		.uleb128 0x1c
 6317 10d9 14000000 		.4byte	.LBB163
 6318 10dd 0E000000 		.4byte	.LBE163-.LBB163
 6319 10e1 F1100000 		.4byte	0x10f1
 6320 10e5 35       		.uleb128 0x35
 6321 10e6 7600     		.ascii	"v\000"
 6322 10e8 04       		.byte	0x4
 6323 10e9 F7       		.byte	0xf7
 6324 10ea 2C000000 		.4byte	0x2c
 6325 10ee 01       		.uleb128 0x1
 6326 10ef 50       		.byte	0x50
 6327 10f0 00       		.byte	0
 6328 10f1 3F       		.uleb128 0x3f
 6329 10f2 14000000 		.4byte	.LVL179
 6330 10f6 052A0000 		.4byte	0x2a05
 6331 10fa 21       		.uleb128 0x21
 6332 10fb 01       		.uleb128 0x1
 6333 10fc 50       		.byte	0x50
 6334 10fd 03       		.uleb128 0x3
 6335 10fe F3       		.byte	0xf3
 6336 10ff 01       		.uleb128 0x1
 6337 1100 50       		.byte	0x50
 6338 1101 21       		.uleb128 0x21
 6339 1102 01       		.uleb128 0x1
 6340 1103 51       		.byte	0x51
 6341 1104 03       		.uleb128 0x3
 6342 1105 F3       		.byte	0xf3
 6343 1106 01       		.uleb128 0x1
 6344 1107 51       		.byte	0x51
 6345 1108 00       		.byte	0
 6346 1109 00       		.byte	0
 6347 110a 12       		.uleb128 0x12
 6348 110b 26040000 		.4byte	.LASF129
 6349 110f 04       		.byte	0x4
 6350 1110 EA       		.byte	0xea
 6351 1111 2C000000 		.4byte	0x2c
 6352 1115 00000000 		.4byte	.LFB9
 6353 1119 06000000 		.4byte	.LFE9-.LFB9
 6354 111d 01       		.uleb128 0x1
 6355 111e 9C       		.byte	0x9c
ARM GAS  C:\Users\rdn\AppData\Local\Temp\ccYcaPXH.s 			page 148


 6356 111f 49110000 		.4byte	0x1149
 6357 1123 14       		.uleb128 0x14
 6358 1124 CB030000 		.4byte	.LASF123
 6359 1128 04       		.byte	0x4
 6360 1129 EA       		.byte	0xea
 6361 112a ED0F0000 		.4byte	0xfed
 6362 112e 9A0F0000 		.4byte	.LLST100
 6363 1132 3F       		.uleb128 0x3f
 6364 1133 06000000 		.4byte	.LVL185
 6365 1137 94100000 		.4byte	0x1094
 6366 113b 21       		.uleb128 0x21
 6367 113c 01       		.uleb128 0x1
 6368 113d 50       		.byte	0x50
 6369 113e 03       		.uleb128 0x3
 6370 113f F3       		.byte	0xf3
 6371 1140 01       		.uleb128 0x1
 6372 1141 50       		.byte	0x50
 6373 1142 21       		.uleb128 0x21
 6374 1143 01       		.uleb128 0x1
 6375 1144 51       		.byte	0x51
 6376 1145 01       		.uleb128 0x1
 6377 1146 31       		.byte	0x31
 6378 1147 00       		.byte	0
 6379 1148 00       		.byte	0
 6380 1149 26       		.uleb128 0x26
 6381 114a DF080000 		.4byte	.LASF130
 6382 114e 04       		.byte	0x4
 6383 114f 1601     		.2byte	0x116
 6384 1151 33000000 		.4byte	0x33
 6385 1155 00000000 		.4byte	.LFB12
 6386 1159 8E000000 		.4byte	.LFE12-.LFB12
 6387 115d 01       		.uleb128 0x1
 6388 115e 9C       		.byte	0x9c
 6389 115f D2110000 		.4byte	0x11d2
 6390 1163 28       		.uleb128 0x28
 6391 1164 CB030000 		.4byte	.LASF123
 6392 1168 04       		.byte	0x4
 6393 1169 1701     		.2byte	0x117
 6394 116b ED0F0000 		.4byte	0xfed
 6395 116f BB0F0000 		.4byte	.LLST101
 6396 1173 28       		.uleb128 0x28
 6397 1174 61090000 		.4byte	.LASF126
 6398 1178 04       		.byte	0x4
 6399 1179 1701     		.2byte	0x117
 6400 117b 78100000 		.4byte	0x1078
 6401 117f DC0F0000 		.4byte	.LLST102
 6402 1183 1F       		.uleb128 0x1f
 6403 1184 89050000 		.4byte	.LASF127
 6404 1188 04       		.byte	0x4
 6405 1189 1901     		.2byte	0x119
 6406 118b 83100000 		.4byte	0x1083
 6407 118f FD0F0000 		.4byte	.LLST103
 6408 1193 1D       		.uleb128 0x1d
 6409 1194 616300   		.ascii	"ac\000"
 6410 1197 04       		.byte	0x4
 6411 1198 1A01     		.2byte	0x11a
 6412 119a 8E100000 		.4byte	0x108e
ARM GAS  C:\Users\rdn\AppData\Local\Temp\ccYcaPXH.s 			page 149


 6413 119e 1E100000 		.4byte	.LLST104
 6414 11a2 1F       		.uleb128 0x1f
 6415 11a3 89040000 		.4byte	.LASF54
 6416 11a7 04       		.byte	0x4
 6417 11a8 1C01     		.2byte	0x11c
 6418 11aa 33000000 		.4byte	0x33
 6419 11ae 43100000 		.4byte	.LLST105
 6420 11b2 1D       		.uleb128 0x1d
 6421 11b3 7300     		.ascii	"s\000"
 6422 11b5 04       		.byte	0x4
 6423 11b6 2201     		.2byte	0x122
 6424 11b8 2C000000 		.4byte	0x2c
 6425 11bc 6A100000 		.4byte	.LLST106
 6426 11c0 20       		.uleb128 0x20
 6427 11c1 8A000000 		.4byte	.LVL198
 6428 11c5 102A0000 		.4byte	0x2a10
 6429 11c9 21       		.uleb128 0x21
 6430 11ca 01       		.uleb128 0x1
 6431 11cb 50       		.byte	0x50
 6432 11cc 03       		.uleb128 0x3
 6433 11cd F3       		.byte	0xf3
 6434 11ce 01       		.uleb128 0x1
 6435 11cf 50       		.byte	0x50
 6436 11d0 00       		.byte	0
 6437 11d1 00       		.byte	0
 6438 11d2 22       		.uleb128 0x22
 6439 11d3 A3000000 		.4byte	.LASF131
 6440 11d7 01       		.byte	0x1
 6441 11d8 2B03     		.2byte	0x32b
 6442 11da 2C000000 		.4byte	0x2c
 6443 11de 01       		.byte	0x1
 6444 11df 06120000 		.4byte	0x1206
 6445 11e3 23       		.uleb128 0x23
 6446 11e4 647400   		.ascii	"dt\000"
 6447 11e7 01       		.byte	0x1
 6448 11e8 2B03     		.2byte	0x32b
 6449 11ea CA000000 		.4byte	0xca
 6450 11ee 23       		.uleb128 0x23
 6451 11ef 737200   		.ascii	"sr\000"
 6452 11f2 01       		.byte	0x1
 6453 11f3 2B03     		.2byte	0x32b
 6454 11f5 F9000000 		.4byte	0xf9
 6455 11f9 24       		.uleb128 0x24
 6456 11fa 71040000 		.4byte	.LASF83
 6457 11fe 01       		.byte	0x1
 6458 11ff 2B03     		.2byte	0x32b
 6459 1201 2C000000 		.4byte	0x2c
 6460 1205 00       		.byte	0
 6461 1206 10       		.uleb128 0x10
 6462 1207 8A070000 		.4byte	.LASF132
 6463 120b 01       		.byte	0x1
 6464 120c C5       		.byte	0xc5
 6465 120d 2C000000 		.4byte	0x2c
 6466 1211 01       		.byte	0x1
 6467 1212 A9120000 		.4byte	0x12a9
 6468 1216 11       		.uleb128 0x11
 6469 1217 647400   		.ascii	"dt\000"
ARM GAS  C:\Users\rdn\AppData\Local\Temp\ccYcaPXH.s 			page 150


 6470 121a 01       		.byte	0x1
 6471 121b C6       		.byte	0xc6
 6472 121c CA000000 		.4byte	0xca
 6473 1220 11       		.uleb128 0x11
 6474 1221 737200   		.ascii	"sr\000"
 6475 1224 01       		.byte	0x1
 6476 1225 C6       		.byte	0xc6
 6477 1226 F9000000 		.4byte	0xf9
 6478 122a 41       		.uleb128 0x41
 6479 122b 8E010000 		.4byte	.LASF78
 6480 122f 01       		.byte	0x1
 6481 1230 C7       		.byte	0xc7
 6482 1231 2C000000 		.4byte	0x2c
 6483 1235 41       		.uleb128 0x41
 6484 1236 4A040000 		.4byte	.LASF97
 6485 123a 01       		.byte	0x1
 6486 123b C7       		.byte	0xc7
 6487 123c 2C000000 		.4byte	0x2c
 6488 1240 41       		.uleb128 0x41
 6489 1241 02040000 		.4byte	.LASF95
 6490 1245 01       		.byte	0x1
 6491 1246 C7       		.byte	0xc7
 6492 1247 2C000000 		.4byte	0x2c
 6493 124b 41       		.uleb128 0x41
 6494 124c CF020000 		.4byte	.LASF133
 6495 1250 01       		.byte	0x1
 6496 1251 C7       		.byte	0xc7
 6497 1252 2C000000 		.4byte	0x2c
 6498 1256 19       		.uleb128 0x19
 6499 1257 7400     		.ascii	"t\000"
 6500 1259 01       		.byte	0x1
 6501 125a CB       		.byte	0xcb
 6502 125b A9120000 		.4byte	0x12a9
 6503 125f 42       		.uleb128 0x42
 6504 1260 7D080000 		.4byte	.LASF134
 6505 1264 01       		.byte	0x1
 6506 1265 D1       		.byte	0xd1
 6507 1266 2C000000 		.4byte	0x2c
 6508 126a 19       		.uleb128 0x19
 6509 126b 64656E00 		.ascii	"den\000"
 6510 126f 01       		.byte	0x1
 6511 1270 D1       		.byte	0xd1
 6512 1271 2C000000 		.4byte	0x2c
 6513 1275 43       		.uleb128 0x43
 6514 1276 90120000 		.4byte	0x1290
 6515 127a 19       		.uleb128 0x19
 6516 127b 6E3000   		.ascii	"n0\000"
 6517 127e 01       		.byte	0x1
 6518 127f D7       		.byte	0xd7
 6519 1280 2C000000 		.4byte	0x2c
 6520 1284 42       		.uleb128 0x42
 6521 1285 89040000 		.4byte	.LASF54
 6522 1289 01       		.byte	0x1
 6523 128a D7       		.byte	0xd7
 6524 128b 2C000000 		.4byte	0x2c
 6525 128f 00       		.byte	0
 6526 1290 44       		.uleb128 0x44
ARM GAS  C:\Users\rdn\AppData\Local\Temp\ccYcaPXH.s 			page 151


 6527 1291 42       		.uleb128 0x42
 6528 1292 C2010000 		.4byte	.LASF135
 6529 1296 01       		.byte	0x1
 6530 1297 E4       		.byte	0xe4
 6531 1298 2C000000 		.4byte	0x2c
 6532 129c 42       		.uleb128 0x42
 6533 129d F2040000 		.4byte	.LASF136
 6534 12a1 01       		.byte	0x1
 6535 12a2 E7       		.byte	0xe7
 6536 12a3 2C000000 		.4byte	0x2c
 6537 12a7 00       		.byte	0
 6538 12a8 00       		.byte	0
 6539 12a9 0E       		.uleb128 0xe
 6540 12aa 04       		.byte	0x4
 6541 12ab 360F0000 		.4byte	0xf36
 6542 12af 45       		.uleb128 0x45
 6543 12b0 EE080000 		.4byte	.LASF143
 6544 12b4 01       		.byte	0x1
 6545 12b5 3403     		.2byte	0x334
 6546 12b7 00000000 		.4byte	.LFB40
 6547 12bb 6C020000 		.4byte	.LFE40-.LFB40
 6548 12bf 01       		.uleb128 0x1
 6549 12c0 9C       		.byte	0x9c
 6550 12c1 7D160000 		.4byte	0x167d
 6551 12c5 27       		.uleb128 0x27
 6552 12c6 647400   		.ascii	"dt\000"
 6553 12c9 01       		.byte	0x1
 6554 12ca 3503     		.2byte	0x335
 6555 12cc CA000000 		.4byte	0xca
 6556 12d0 CD100000 		.4byte	.LLST107
 6557 12d4 27       		.uleb128 0x27
 6558 12d5 737200   		.ascii	"sr\000"
 6559 12d8 01       		.byte	0x1
 6560 12d9 3503     		.2byte	0x335
 6561 12db F9000000 		.4byte	0xf9
 6562 12df EE100000 		.4byte	.LLST108
 6563 12e3 28       		.uleb128 0x28
 6564 12e4 71040000 		.4byte	.LASF83
 6565 12e8 01       		.byte	0x1
 6566 12e9 3503     		.2byte	0x335
 6567 12eb 2C000000 		.4byte	0x2c
 6568 12ef 0F110000 		.4byte	.LLST109
 6569 12f3 28       		.uleb128 0x28
 6570 12f4 28020000 		.4byte	.LASF137
 6571 12f8 01       		.byte	0x1
 6572 12f9 3603     		.2byte	0x336
 6573 12fb 3A010000 		.4byte	0x13a
 6574 12ff 3B110000 		.4byte	.LLST110
 6575 1303 27       		.uleb128 0x27
 6576 1304 746E7300 		.ascii	"tns\000"
 6577 1308 01       		.byte	0x1
 6578 1309 3603     		.2byte	0x336
 6579 130b 7D160000 		.4byte	0x167d
 6580 130f 5C110000 		.4byte	.LLST111
 6581 1313 28       		.uleb128 0x28
 6582 1314 4E090000 		.4byte	.LASF138
 6583 1318 01       		.byte	0x1
ARM GAS  C:\Users\rdn\AppData\Local\Temp\ccYcaPXH.s 			page 152


 6584 1319 3703     		.2byte	0x337
 6585 131b 88160000 		.4byte	0x1688
 6586 131f 7C110000 		.4byte	.LLST112
 6587 1323 27       		.uleb128 0x27
 6588 1324 7800     		.ascii	"x\000"
 6589 1326 01       		.byte	0x1
 6590 1327 3803     		.2byte	0x338
 6591 1329 CE050000 		.4byte	0x5ce
 6592 132d 9C110000 		.4byte	.LLST113
 6593 1331 28       		.uleb128 0x28
 6594 1332 DA000000 		.4byte	.LASF139
 6595 1336 01       		.byte	0x1
 6596 1337 3803     		.2byte	0x338
 6597 1339 8E160000 		.4byte	0x168e
 6598 133d BC110000 		.4byte	.LLST114
 6599 1341 46       		.uleb128 0x46
 6600 1342 D5080000 		.4byte	.LASF109
 6601 1346 01       		.byte	0x1
 6602 1347 3A03     		.2byte	0x33a
 6603 1349 3A010000 		.4byte	0x13a
 6604 134d 03       		.uleb128 0x3
 6605 134e 91       		.byte	0x91
 6606 134f F77E     		.sleb128 -137
 6607 1351 47       		.uleb128 0x47
 6608 1352 2A050000 		.4byte	.LASF140
 6609 1356 01       		.byte	0x1
 6610 1357 3E03     		.2byte	0x33e
 6611 1359 360F0000 		.4byte	0xf36
 6612 135d 08       		.byte	0x8
 6613 135e 47       		.uleb128 0x47
 6614 135f D7030000 		.4byte	.LASF141
 6615 1363 01       		.byte	0x1
 6616 1364 3F03     		.2byte	0x33f
 6617 1366 360F0000 		.4byte	0xf36
 6618 136a 03       		.byte	0x3
 6619 136b 1F       		.uleb128 0x1f
 6620 136c 02040000 		.4byte	.LASF95
 6621 1370 01       		.byte	0x1
 6622 1371 4103     		.2byte	0x341
 6623 1373 2C000000 		.4byte	0x2c
 6624 1377 DC110000 		.4byte	.LLST115
 6625 137b 1F       		.uleb128 0x1f
 6626 137c 32040000 		.4byte	.LASF35
 6627 1380 01       		.byte	0x1
 6628 1381 4703     		.2byte	0x347
 6629 1383 25000000 		.4byte	0x25
 6630 1387 EF110000 		.4byte	.LLST116
 6631 138b 1F       		.uleb128 0x1f
 6632 138c D1050000 		.4byte	.LASF85
 6633 1390 01       		.byte	0x1
 6634 1391 4B03     		.2byte	0x34b
 6635 1393 2C000000 		.4byte	0x2c
 6636 1397 1A120000 		.4byte	.LLST117
 6637 139b 46       		.uleb128 0x46
 6638 139c 26070000 		.4byte	.LASF110
 6639 13a0 01       		.byte	0x1
 6640 13a1 4D03     		.2byte	0x34d
ARM GAS  C:\Users\rdn\AppData\Local\Temp\ccYcaPXH.s 			page 153


 6641 13a3 2C000000 		.4byte	0x2c
 6642 13a7 03       		.uleb128 0x3
 6643 13a8 91       		.byte	0x91
 6644 13a9 F87E     		.sleb128 -136
 6645 13ab 1F       		.uleb128 0x1f
 6646 13ac F6070000 		.4byte	.LASF88
 6647 13b0 01       		.byte	0x1
 6648 13b1 4D03     		.2byte	0x34d
 6649 13b3 2C000000 		.4byte	0x2c
 6650 13b7 38120000 		.4byte	.LLST118
 6651 13bb 1F       		.uleb128 0x1f
 6652 13bc 4A040000 		.4byte	.LASF97
 6653 13c0 01       		.byte	0x1
 6654 13c1 5403     		.2byte	0x354
 6655 13c3 2C000000 		.4byte	0x2c
 6656 13c7 70120000 		.4byte	.LLST119
 6657 13cb 25       		.uleb128 0x25
 6658 13cc C0030000 		.4byte	.LASF142
 6659 13d0 01       		.byte	0x1
 6660 13d1 5B03     		.2byte	0x35b
 6661 13d3 2C000000 		.4byte	0x2c
 6662 13d7 2A       		.uleb128 0x2a
 6663 13d8 D2110000 		.4byte	0x11d2
 6664 13dc 16000000 		.4byte	.LBB172
 6665 13e0 88010000 		.4byte	.Ldebug_ranges0+0x188
 6666 13e4 01       		.byte	0x1
 6667 13e5 4103     		.2byte	0x341
 6668 13e7 1D140000 		.4byte	0x141d
 6669 13eb 1B       		.uleb128 0x1b
 6670 13ec F9110000 		.4byte	0x11f9
 6671 13f0 90120000 		.4byte	.LLST120
 6672 13f4 1B       		.uleb128 0x1b
 6673 13f5 EE110000 		.4byte	0x11ee
 6674 13f9 AE120000 		.4byte	.LLST121
 6675 13fd 1B       		.uleb128 0x1b
 6676 13fe E3110000 		.4byte	0x11e3
 6677 1402 CF120000 		.4byte	.LLST122
 6678 1406 20       		.uleb128 0x20
 6679 1407 1A000000 		.4byte	.LVL201
 6680 140b 3D080000 		.4byte	0x83d
 6681 140f 21       		.uleb128 0x21
 6682 1410 01       		.uleb128 0x1
 6683 1411 50       		.byte	0x50
 6684 1412 02       		.uleb128 0x2
 6685 1413 76       		.byte	0x76
 6686 1414 00       		.sleb128 0
 6687 1415 21       		.uleb128 0x21
 6688 1416 01       		.uleb128 0x1
 6689 1417 51       		.byte	0x51
 6690 1418 02       		.uleb128 0x2
 6691 1419 75       		.byte	0x75
 6692 141a 00       		.sleb128 0
 6693 141b 00       		.byte	0
 6694 141c 00       		.byte	0
 6695 141d 2A       		.uleb128 0x2a
 6696 141e 06120000 		.4byte	0x1206
 6697 1422 18010000 		.4byte	.LBB178
ARM GAS  C:\Users\rdn\AppData\Local\Temp\ccYcaPXH.s 			page 154


 6698 1426 A8010000 		.4byte	.Ldebug_ranges0+0x1a8
 6699 142a 01       		.byte	0x1
 6700 142b 5B03     		.2byte	0x35b
 6701 142d E8140000 		.4byte	0x14e8
 6702 1431 1B       		.uleb128 0x1b
 6703 1432 4B120000 		.4byte	0x124b
 6704 1436 E2120000 		.4byte	.LLST123
 6705 143a 1B       		.uleb128 0x1b
 6706 143b 40120000 		.4byte	0x1240
 6707 143f 1E130000 		.4byte	.LLST124
 6708 1443 1B       		.uleb128 0x1b
 6709 1444 35120000 		.4byte	0x1235
 6710 1448 3C130000 		.4byte	.LLST125
 6711 144c 1B       		.uleb128 0x1b
 6712 144d 2A120000 		.4byte	0x122a
 6713 1451 5E130000 		.4byte	.LLST126
 6714 1455 1B       		.uleb128 0x1b
 6715 1456 20120000 		.4byte	0x1220
 6716 145a B6130000 		.4byte	.LLST127
 6717 145e 1B       		.uleb128 0x1b
 6718 145f 16120000 		.4byte	0x1216
 6719 1463 D4130000 		.4byte	.LLST128
 6720 1467 2B       		.uleb128 0x2b
 6721 1468 A8010000 		.4byte	.Ldebug_ranges0+0x1a8
 6722 146c 2C       		.uleb128 0x2c
 6723 146d 56120000 		.4byte	0x1256
 6724 1471 F2130000 		.4byte	.LLST129
 6725 1475 2C       		.uleb128 0x2c
 6726 1476 5F120000 		.4byte	0x125f
 6727 147a 72140000 		.4byte	.LLST130
 6728 147e 2C       		.uleb128 0x2c
 6729 147f 6A120000 		.4byte	0x126a
 6730 1483 BC140000 		.4byte	.LLST131
 6731 1487 1C       		.uleb128 0x1c
 6732 1488 52010000 		.4byte	.LBB180
 6733 148c 24000000 		.4byte	.LBE180-.LBB180
 6734 1490 A7140000 		.4byte	0x14a7
 6735 1494 2C       		.uleb128 0x2c
 6736 1495 7A120000 		.4byte	0x127a
 6737 1499 0A150000 		.4byte	.LLST132
 6738 149d 2C       		.uleb128 0x2c
 6739 149e 84120000 		.4byte	0x1284
 6740 14a2 1D150000 		.4byte	.LLST133
 6741 14a6 00       		.byte	0
 6742 14a7 1C       		.uleb128 0x1c
 6743 14a8 98010000 		.4byte	.LBB181
 6744 14ac 36000000 		.4byte	.LBE181-.LBB181
 6745 14b0 C7140000 		.4byte	0x14c7
 6746 14b4 2C       		.uleb128 0x2c
 6747 14b5 91120000 		.4byte	0x1291
 6748 14b9 30150000 		.4byte	.LLST134
 6749 14bd 2C       		.uleb128 0x2c
 6750 14be 9C120000 		.4byte	0x129c
 6751 14c2 43150000 		.4byte	.LLST135
 6752 14c6 00       		.byte	0
 6753 14c7 20       		.uleb128 0x20
 6754 14c8 2E010000 		.4byte	.LVL223
ARM GAS  C:\Users\rdn\AppData\Local\Temp\ccYcaPXH.s 			page 155


 6755 14cc 1B2A0000 		.4byte	0x2a1b
 6756 14d0 21       		.uleb128 0x21
 6757 14d1 01       		.uleb128 0x1
 6758 14d2 50       		.byte	0x50
 6759 14d3 02       		.uleb128 0x2
 6760 14d4 7B       		.byte	0x7b
 6761 14d5 00       		.sleb128 0
 6762 14d6 21       		.uleb128 0x21
 6763 14d7 01       		.uleb128 0x1
 6764 14d8 51       		.byte	0x51
 6765 14d9 05       		.uleb128 0x5
 6766 14da 03       		.byte	0x3
 6767 14db 10010000 		.4byte	.LANCHOR0+272
 6768 14df 21       		.uleb128 0x21
 6769 14e0 01       		.uleb128 0x1
 6770 14e1 52       		.byte	0x52
 6771 14e2 02       		.uleb128 0x2
 6772 14e3 08       		.byte	0x8
 6773 14e4 54       		.byte	0x54
 6774 14e5 00       		.byte	0
 6775 14e6 00       		.byte	0
 6776 14e7 00       		.byte	0
 6777 14e8 39       		.uleb128 0x39
 6778 14e9 46000000 		.4byte	.LVL203
 6779 14ed 242A0000 		.4byte	0x2a24
 6780 14f1 FC140000 		.4byte	0x14fc
 6781 14f5 21       		.uleb128 0x21
 6782 14f6 01       		.uleb128 0x1
 6783 14f7 50       		.byte	0x50
 6784 14f8 02       		.uleb128 0x2
 6785 14f9 75       		.byte	0x75
 6786 14fa 00       		.sleb128 0
 6787 14fb 00       		.byte	0
 6788 14fc 39       		.uleb128 0x39
 6789 14fd 52000000 		.4byte	.LVL204
 6790 1501 2F2A0000 		.4byte	0x2a2f
 6791 1505 10150000 		.4byte	0x1510
 6792 1509 21       		.uleb128 0x21
 6793 150a 01       		.uleb128 0x1
 6794 150b 50       		.byte	0x50
 6795 150c 02       		.uleb128 0x2
 6796 150d 78       		.byte	0x78
 6797 150e 00       		.sleb128 0
 6798 150f 00       		.byte	0
 6799 1510 3A       		.uleb128 0x3a
 6800 1511 58000000 		.4byte	.LVL205
 6801 1515 3A2A0000 		.4byte	0x2a3a
 6802 1519 39       		.uleb128 0x39
 6803 151a 64000000 		.4byte	.LVL206
 6804 151e 452A0000 		.4byte	0x2a45
 6805 1522 2E150000 		.4byte	0x152e
 6806 1526 21       		.uleb128 0x21
 6807 1527 01       		.uleb128 0x1
 6808 1528 50       		.byte	0x50
 6809 1529 03       		.uleb128 0x3
 6810 152a 91       		.byte	0x91
 6811 152b 00       		.sleb128 0
ARM GAS  C:\Users\rdn\AppData\Local\Temp\ccYcaPXH.s 			page 156


 6812 152c 06       		.byte	0x6
 6813 152d 00       		.byte	0
 6814 152e 3A       		.uleb128 0x3a
 6815 152f 84000000 		.4byte	.LVL208
 6816 1533 D7290000 		.4byte	0x29d7
 6817 1537 3A       		.uleb128 0x3a
 6818 1538 8A000000 		.4byte	.LVL209
 6819 153c 502A0000 		.4byte	0x2a50
 6820 1540 39       		.uleb128 0x39
 6821 1541 A2000000 		.4byte	.LVL212
 6822 1545 3C040000 		.4byte	0x43c
 6823 1549 5A150000 		.4byte	0x155a
 6824 154d 21       		.uleb128 0x21
 6825 154e 01       		.uleb128 0x1
 6826 154f 50       		.byte	0x50
 6827 1550 02       		.uleb128 0x2
 6828 1551 75       		.byte	0x75
 6829 1552 00       		.sleb128 0
 6830 1553 21       		.uleb128 0x21
 6831 1554 01       		.uleb128 0x1
 6832 1555 51       		.byte	0x51
 6833 1556 02       		.uleb128 0x2
 6834 1557 77       		.byte	0x77
 6835 1558 00       		.sleb128 0
 6836 1559 00       		.byte	0
 6837 155a 39       		.uleb128 0x39
 6838 155b C2000000 		.4byte	.LVL215
 6839 155f D10A0000 		.4byte	0xad1
 6840 1563 A7150000 		.4byte	0x15a7
 6841 1567 21       		.uleb128 0x21
 6842 1568 01       		.uleb128 0x1
 6843 1569 50       		.byte	0x50
 6844 156a 02       		.uleb128 0x2
 6845 156b 76       		.byte	0x76
 6846 156c 00       		.sleb128 0
 6847 156d 21       		.uleb128 0x21
 6848 156e 01       		.uleb128 0x1
 6849 156f 51       		.byte	0x51
 6850 1570 02       		.uleb128 0x2
 6851 1571 75       		.byte	0x75
 6852 1572 00       		.sleb128 0
 6853 1573 21       		.uleb128 0x21
 6854 1574 01       		.uleb128 0x1
 6855 1575 52       		.byte	0x52
 6856 1576 03       		.uleb128 0x3
 6857 1577 91       		.byte	0x91
 6858 1578 08       		.sleb128 8
 6859 1579 06       		.byte	0x6
 6860 157a 21       		.uleb128 0x21
 6861 157b 01       		.uleb128 0x1
 6862 157c 53       		.byte	0x53
 6863 157d 02       		.uleb128 0x2
 6864 157e 77       		.byte	0x77
 6865 157f 00       		.sleb128 0
 6866 1580 21       		.uleb128 0x21
 6867 1581 02       		.uleb128 0x2
 6868 1582 90       		.byte	0x90
ARM GAS  C:\Users\rdn\AppData\Local\Temp\ccYcaPXH.s 			page 157


 6869 1583 40       		.uleb128 0x40
 6870 1584 03       		.uleb128 0x3
 6871 1585 F5       		.byte	0xf5
 6872 1586 50       		.uleb128 0x50
 6873 1587 25       		.uleb128 0x25
 6874 1588 21       		.uleb128 0x21
 6875 1589 02       		.uleb128 0x2
 6876 158a 7D       		.byte	0x7d
 6877 158b 00       		.sleb128 0
 6878 158c 02       		.uleb128 0x2
 6879 158d 74       		.byte	0x74
 6880 158e 00       		.sleb128 0
 6881 158f 21       		.uleb128 0x21
 6882 1590 02       		.uleb128 0x2
 6883 1591 7D       		.byte	0x7d
 6884 1592 04       		.sleb128 4
 6885 1593 02       		.uleb128 0x2
 6886 1594 78       		.byte	0x78
 6887 1595 00       		.sleb128 0
 6888 1596 21       		.uleb128 0x21
 6889 1597 02       		.uleb128 0x2
 6890 1598 7D       		.byte	0x7d
 6891 1599 08       		.sleb128 8
 6892 159a 03       		.uleb128 0x3
 6893 159b 91       		.byte	0x91
 6894 159c F77E     		.sleb128 -137
 6895 159e 21       		.uleb128 0x21
 6896 159f 02       		.uleb128 0x2
 6897 15a0 7D       		.byte	0x7d
 6898 15a1 0C       		.sleb128 12
 6899 15a2 03       		.uleb128 0x3
 6900 15a3 91       		.byte	0x91
 6901 15a4 F87E     		.sleb128 -136
 6902 15a6 00       		.byte	0
 6903 15a7 39       		.uleb128 0x39
 6904 15a8 DE000000 		.4byte	.LVL218
 6905 15ac ED040000 		.4byte	0x4ed
 6906 15b0 D7150000 		.4byte	0x15d7
 6907 15b4 21       		.uleb128 0x21
 6908 15b5 01       		.uleb128 0x1
 6909 15b6 50       		.byte	0x50
 6910 15b7 02       		.uleb128 0x2
 6911 15b8 76       		.byte	0x76
 6912 15b9 00       		.sleb128 0
 6913 15ba 21       		.uleb128 0x21
 6914 15bb 01       		.uleb128 0x1
 6915 15bc 51       		.byte	0x51
 6916 15bd 02       		.uleb128 0x2
 6917 15be 75       		.byte	0x75
 6918 15bf 00       		.sleb128 0
 6919 15c0 21       		.uleb128 0x21
 6920 15c1 01       		.uleb128 0x1
 6921 15c2 52       		.byte	0x52
 6922 15c3 04       		.uleb128 0x4
 6923 15c4 91       		.byte	0x91
 6924 15c5 E47E     		.sleb128 -156
 6925 15c7 06       		.byte	0x6
ARM GAS  C:\Users\rdn\AppData\Local\Temp\ccYcaPXH.s 			page 158


 6926 15c8 21       		.uleb128 0x21
 6927 15c9 01       		.uleb128 0x1
 6928 15ca 53       		.byte	0x53
 6929 15cb 03       		.uleb128 0x3
 6930 15cc 91       		.byte	0x91
 6931 15cd 08       		.sleb128 8
 6932 15ce 06       		.byte	0x6
 6933 15cf 21       		.uleb128 0x21
 6934 15d0 02       		.uleb128 0x2
 6935 15d1 7D       		.byte	0x7d
 6936 15d2 00       		.sleb128 0
 6937 15d3 02       		.uleb128 0x2
 6938 15d4 7A       		.byte	0x7a
 6939 15d5 00       		.sleb128 0
 6940 15d6 00       		.byte	0
 6941 15d7 39       		.uleb128 0x39
 6942 15d8 F6000000 		.4byte	.LVL219
 6943 15dc 21060000 		.4byte	0x621
 6944 15e0 13160000 		.4byte	0x1613
 6945 15e4 21       		.uleb128 0x21
 6946 15e5 01       		.uleb128 0x1
 6947 15e6 50       		.byte	0x50
 6948 15e7 02       		.uleb128 0x2
 6949 15e8 76       		.byte	0x76
 6950 15e9 00       		.sleb128 0
 6951 15ea 21       		.uleb128 0x21
 6952 15eb 01       		.uleb128 0x1
 6953 15ec 51       		.byte	0x51
 6954 15ed 02       		.uleb128 0x2
 6955 15ee 75       		.byte	0x75
 6956 15ef 00       		.sleb128 0
 6957 15f0 21       		.uleb128 0x21
 6958 15f1 01       		.uleb128 0x1
 6959 15f2 52       		.byte	0x52
 6960 15f3 02       		.uleb128 0x2
 6961 15f4 77       		.byte	0x77
 6962 15f5 00       		.sleb128 0
 6963 15f6 21       		.uleb128 0x21
 6964 15f7 01       		.uleb128 0x1
 6965 15f8 53       		.byte	0x53
 6966 15f9 03       		.uleb128 0x3
 6967 15fa 91       		.byte	0x91
 6968 15fb 08       		.sleb128 8
 6969 15fc 06       		.byte	0x6
 6970 15fd 21       		.uleb128 0x21
 6971 15fe 02       		.uleb128 0x2
 6972 15ff 7D       		.byte	0x7d
 6973 1600 00       		.sleb128 0
 6974 1601 02       		.uleb128 0x2
 6975 1602 7A       		.byte	0x7a
 6976 1603 00       		.sleb128 0
 6977 1604 21       		.uleb128 0x21
 6978 1605 02       		.uleb128 0x2
 6979 1606 7D       		.byte	0x7d
 6980 1607 04       		.sleb128 4
 6981 1608 02       		.uleb128 0x2
 6982 1609 79       		.byte	0x79
ARM GAS  C:\Users\rdn\AppData\Local\Temp\ccYcaPXH.s 			page 159


 6983 160a 00       		.sleb128 0
 6984 160b 21       		.uleb128 0x21
 6985 160c 02       		.uleb128 0x2
 6986 160d 7D       		.byte	0x7d
 6987 160e 08       		.sleb128 8
 6988 160f 02       		.uleb128 0x2
 6989 1610 79       		.byte	0x79
 6990 1611 00       		.sleb128 0
 6991 1612 00       		.byte	0
 6992 1613 39       		.uleb128 0x39
 6993 1614 24020000 		.4byte	.LVL249
 6994 1618 ED040000 		.4byte	0x4ed
 6995 161c 41160000 		.4byte	0x1641
 6996 1620 21       		.uleb128 0x21
 6997 1621 01       		.uleb128 0x1
 6998 1622 50       		.byte	0x50
 6999 1623 02       		.uleb128 0x2
 7000 1624 76       		.byte	0x76
 7001 1625 00       		.sleb128 0
 7002 1626 21       		.uleb128 0x21
 7003 1627 01       		.uleb128 0x1
 7004 1628 51       		.byte	0x51
 7005 1629 02       		.uleb128 0x2
 7006 162a 75       		.byte	0x75
 7007 162b 00       		.sleb128 0
 7008 162c 21       		.uleb128 0x21
 7009 162d 01       		.uleb128 0x1
 7010 162e 52       		.byte	0x52
 7011 162f 02       		.uleb128 0x2
 7012 1630 79       		.byte	0x79
 7013 1631 00       		.sleb128 0
 7014 1632 21       		.uleb128 0x21
 7015 1633 01       		.uleb128 0x1
 7016 1634 53       		.byte	0x53
 7017 1635 03       		.uleb128 0x3
 7018 1636 91       		.byte	0x91
 7019 1637 08       		.sleb128 8
 7020 1638 06       		.byte	0x6
 7021 1639 21       		.uleb128 0x21
 7022 163a 02       		.uleb128 0x2
 7023 163b 7D       		.byte	0x7d
 7024 163c 00       		.sleb128 0
 7025 163d 02       		.uleb128 0x2
 7026 163e 7A       		.byte	0x7a
 7027 163f 00       		.sleb128 0
 7028 1640 00       		.byte	0
 7029 1641 20       		.uleb128 0x20
 7030 1642 4A020000 		.4byte	.LVL252
 7031 1646 21060000 		.4byte	0x621
 7032 164a 21       		.uleb128 0x21
 7033 164b 01       		.uleb128 0x1
 7034 164c 50       		.byte	0x50
 7035 164d 02       		.uleb128 0x2
 7036 164e 76       		.byte	0x76
 7037 164f 00       		.sleb128 0
 7038 1650 21       		.uleb128 0x21
 7039 1651 01       		.uleb128 0x1
ARM GAS  C:\Users\rdn\AppData\Local\Temp\ccYcaPXH.s 			page 160


 7040 1652 51       		.byte	0x51
 7041 1653 02       		.uleb128 0x2
 7042 1654 75       		.byte	0x75
 7043 1655 00       		.sleb128 0
 7044 1656 21       		.uleb128 0x21
 7045 1657 01       		.uleb128 0x1
 7046 1658 52       		.byte	0x52
 7047 1659 02       		.uleb128 0x2
 7048 165a 77       		.byte	0x77
 7049 165b 00       		.sleb128 0
 7050 165c 21       		.uleb128 0x21
 7051 165d 01       		.uleb128 0x1
 7052 165e 53       		.byte	0x53
 7053 165f 03       		.uleb128 0x3
 7054 1660 91       		.byte	0x91
 7055 1661 08       		.sleb128 8
 7056 1662 06       		.byte	0x6
 7057 1663 21       		.uleb128 0x21
 7058 1664 02       		.uleb128 0x2
 7059 1665 7D       		.byte	0x7d
 7060 1666 00       		.sleb128 0
 7061 1667 02       		.uleb128 0x2
 7062 1668 7A       		.byte	0x7a
 7063 1669 00       		.sleb128 0
 7064 166a 21       		.uleb128 0x21
 7065 166b 02       		.uleb128 0x2
 7066 166c 7D       		.byte	0x7d
 7067 166d 04       		.sleb128 4
 7068 166e 02       		.uleb128 0x2
 7069 166f 74       		.byte	0x74
 7070 1670 00       		.sleb128 0
 7071 1671 21       		.uleb128 0x21
 7072 1672 02       		.uleb128 0x2
 7073 1673 7D       		.byte	0x7d
 7074 1674 08       		.sleb128 8
 7075 1675 05       		.uleb128 0x5
 7076 1676 91       		.byte	0x91
 7077 1677 0C       		.sleb128 12
 7078 1678 06       		.byte	0x6
 7079 1679 23       		.byte	0x23
 7080 167a 08       		.uleb128 0x8
 7081 167b 00       		.byte	0
 7082 167c 00       		.byte	0
 7083 167d 0E       		.uleb128 0xe
 7084 167e 04       		.byte	0x4
 7085 167f 83160000 		.4byte	0x1683
 7086 1683 0F       		.uleb128 0xf
 7087 1684 B6030000 		.4byte	0x3b6
 7088 1688 0E       		.uleb128 0xe
 7089 1689 04       		.byte	0x4
 7090 168a 48010000 		.4byte	0x148
 7091 168e 0E       		.uleb128 0xe
 7092 168f 04       		.byte	0x4
 7093 1690 C1030000 		.4byte	0x3c1
 7094 1694 45       		.uleb128 0x45
 7095 1695 AE030000 		.4byte	.LASF144
 7096 1699 01       		.byte	0x1
ARM GAS  C:\Users\rdn\AppData\Local\Temp\ccYcaPXH.s 			page 161


 7097 169a 6903     		.2byte	0x369
 7098 169c 00000000 		.4byte	.LFB41
 7099 16a0 3A000000 		.4byte	.LFE41-.LFB41
 7100 16a4 01       		.uleb128 0x1
 7101 16a5 9C       		.byte	0x9c
 7102 16a6 45170000 		.4byte	0x1745
 7103 16aa 28       		.uleb128 0x28
 7104 16ab CB030000 		.4byte	.LASF123
 7105 16af 01       		.byte	0x1
 7106 16b0 6903     		.2byte	0x369
 7107 16b2 ED0F0000 		.4byte	0xfed
 7108 16b6 8A150000 		.4byte	.LLST136
 7109 16ba 27       		.uleb128 0x27
 7110 16bb 647400   		.ascii	"dt\000"
 7111 16be 01       		.byte	0x1
 7112 16bf 6A03     		.2byte	0x36a
 7113 16c1 CA000000 		.4byte	0xca
 7114 16c5 C1150000 		.4byte	.LLST137
 7115 16c9 27       		.uleb128 0x27
 7116 16ca 737200   		.ascii	"sr\000"
 7117 16cd 01       		.byte	0x1
 7118 16ce 6A03     		.2byte	0x36a
 7119 16d0 F9000000 		.4byte	0xf9
 7120 16d4 E2150000 		.4byte	.LLST138
 7121 16d8 28       		.uleb128 0x28
 7122 16d9 DA000000 		.4byte	.LASF139
 7123 16dd 01       		.byte	0x1
 7124 16de 6B03     		.2byte	0x36b
 7125 16e0 45170000 		.4byte	0x1745
 7126 16e4 03160000 		.4byte	.LLST139
 7127 16e8 1F       		.uleb128 0x1f
 7128 16e9 0F040000 		.4byte	.LASF145
 7129 16ed 01       		.byte	0x1
 7130 16ee 6D03     		.2byte	0x36d
 7131 16f0 2C000000 		.4byte	0x2c
 7132 16f4 2F160000 		.4byte	.LLST140
 7133 16f8 3A       		.uleb128 0x3a
 7134 16f9 0E000000 		.4byte	.LVL257
 7135 16fd 3D080000 		.4byte	0x83d
 7136 1701 39       		.uleb128 0x39
 7137 1702 22000000 		.4byte	.LVL259
 7138 1706 3B0F0000 		.4byte	0xf3b
 7139 170a 15170000 		.4byte	0x1715
 7140 170e 21       		.uleb128 0x21
 7141 170f 01       		.uleb128 0x1
 7142 1710 50       		.byte	0x50
 7143 1711 02       		.uleb128 0x2
 7144 1712 74       		.byte	0x74
 7145 1713 00       		.sleb128 0
 7146 1714 00       		.byte	0
 7147 1715 39       		.uleb128 0x39
 7148 1716 2C000000 		.4byte	.LVL260
 7149 171a 3B0F0000 		.4byte	0xf3b
 7150 171e 2E170000 		.4byte	0x172e
 7151 1722 21       		.uleb128 0x21
 7152 1723 01       		.uleb128 0x1
 7153 1724 50       		.byte	0x50
ARM GAS  C:\Users\rdn\AppData\Local\Temp\ccYcaPXH.s 			page 162


 7154 1725 02       		.uleb128 0x2
 7155 1726 74       		.byte	0x74
 7156 1727 00       		.sleb128 0
 7157 1728 21       		.uleb128 0x21
 7158 1729 01       		.uleb128 0x1
 7159 172a 52       		.byte	0x52
 7160 172b 01       		.uleb128 0x1
 7161 172c 31       		.byte	0x31
 7162 172d 00       		.byte	0
 7163 172e 3F       		.uleb128 0x3f
 7164 172f 3A000000 		.4byte	.LVL262
 7165 1733 3B0F0000 		.4byte	0xf3b
 7166 1737 21       		.uleb128 0x21
 7167 1738 01       		.uleb128 0x1
 7168 1739 50       		.byte	0x50
 7169 173a 03       		.uleb128 0x3
 7170 173b F3       		.byte	0xf3
 7171 173c 01       		.uleb128 0x1
 7172 173d 50       		.byte	0x50
 7173 173e 21       		.uleb128 0x21
 7174 173f 01       		.uleb128 0x1
 7175 1740 52       		.byte	0x52
 7176 1741 01       		.uleb128 0x1
 7177 1742 38       		.byte	0x38
 7178 1743 00       		.byte	0
 7179 1744 00       		.byte	0
 7180 1745 0E       		.uleb128 0xe
 7181 1746 04       		.byte	0x4
 7182 1747 4B170000 		.4byte	0x174b
 7183 174b 0F       		.uleb128 0xf
 7184 174c C1030000 		.4byte	0x3c1
 7185 1750 48       		.uleb128 0x48
 7186 1751 4F000000 		.4byte	.LASF146
 7187 1755 01       		.byte	0x1
 7188 1756 A301     		.2byte	0x1a3
 7189 1758 01       		.byte	0x1
 7190 1759 42180000 		.4byte	0x1842
 7191 175d 24       		.uleb128 0x24
 7192 175e CB030000 		.4byte	.LASF123
 7193 1762 01       		.byte	0x1
 7194 1763 A301     		.2byte	0x1a3
 7195 1765 ED0F0000 		.4byte	0xfed
 7196 1769 23       		.uleb128 0x23
 7197 176a 647400   		.ascii	"dt\000"
 7198 176d 01       		.byte	0x1
 7199 176e A401     		.2byte	0x1a4
 7200 1770 CA000000 		.4byte	0xca
 7201 1774 23       		.uleb128 0x23
 7202 1775 737200   		.ascii	"sr\000"
 7203 1778 01       		.byte	0x1
 7204 1779 A401     		.2byte	0x1a4
 7205 177b F9000000 		.4byte	0xf9
 7206 177f 24       		.uleb128 0x24
 7207 1780 71040000 		.4byte	.LASF83
 7208 1784 01       		.byte	0x1
 7209 1785 A401     		.2byte	0x1a4
 7210 1787 2C000000 		.4byte	0x2c
ARM GAS  C:\Users\rdn\AppData\Local\Temp\ccYcaPXH.s 			page 163


 7211 178b 23       		.uleb128 0x23
 7212 178c 7800     		.ascii	"x\000"
 7213 178e 01       		.byte	0x1
 7214 178f A501     		.2byte	0x1a5
 7215 1791 49030000 		.4byte	0x349
 7216 1795 23       		.uleb128 0x23
 7217 1796 6E7100   		.ascii	"nq\000"
 7218 1799 01       		.byte	0x1
 7219 179a A501     		.2byte	0x1a5
 7220 179c 2C000000 		.4byte	0x2c
 7221 17a0 24       		.uleb128 0x24
 7222 17a1 35050000 		.4byte	.LASF79
 7223 17a5 01       		.byte	0x1
 7224 17a6 A501     		.2byte	0x1a5
 7225 17a8 3A010000 		.4byte	0x13a
 7226 17ac 25       		.uleb128 0x25
 7227 17ad 1E020000 		.4byte	.LASF96
 7228 17b1 01       		.byte	0x1
 7229 17b2 A701     		.2byte	0x1a7
 7230 17b4 3A010000 		.4byte	0x13a
 7231 17b8 29       		.uleb128 0x29
 7232 17b9 6E6500   		.ascii	"ne\000"
 7233 17bc 01       		.byte	0x1
 7234 17bd A801     		.2byte	0x1a8
 7235 17bf 2C000000 		.4byte	0x2c
 7236 17c3 25       		.uleb128 0x25
 7237 17c4 2B080000 		.4byte	.LASF99
 7238 17c8 01       		.byte	0x1
 7239 17c9 AC01     		.2byte	0x1ac
 7240 17cb 9E000000 		.4byte	0x9e
 7241 17cf 44       		.uleb128 0x44
 7242 17d0 29       		.uleb128 0x29
 7243 17d1 6900     		.ascii	"i\000"
 7244 17d3 01       		.byte	0x1
 7245 17d4 AE01     		.2byte	0x1ae
 7246 17d6 2C000000 		.4byte	0x2c
 7247 17da 29       		.uleb128 0x29
 7248 17db 6800     		.ascii	"h\000"
 7249 17dd 01       		.byte	0x1
 7250 17de AE01     		.2byte	0x1ae
 7251 17e0 2C000000 		.4byte	0x2c
 7252 17e4 44       		.uleb128 0x44
 7253 17e5 25       		.uleb128 0x25
 7254 17e6 08070000 		.4byte	.LASF102
 7255 17ea 01       		.byte	0x1
 7256 17eb AF01     		.2byte	0x1af
 7257 17ed 37080000 		.4byte	0x837
 7258 17f1 44       		.uleb128 0x44
 7259 17f2 25       		.uleb128 0x25
 7260 17f3 C1020000 		.4byte	.LASF103
 7261 17f7 01       		.byte	0x1
 7262 17f8 B301     		.2byte	0x1b3
 7263 17fa 25000000 		.4byte	0x25
 7264 17fe 29       		.uleb128 0x29
 7265 17ff 6100     		.ascii	"a\000"
 7266 1801 01       		.byte	0x1
 7267 1802 B401     		.2byte	0x1b4
ARM GAS  C:\Users\rdn\AppData\Local\Temp\ccYcaPXH.s 			page 164


 7268 1804 BF000000 		.4byte	0xbf
 7269 1808 29       		.uleb128 0x29
 7270 1809 6200     		.ascii	"b\000"
 7271 180b 01       		.byte	0x1
 7272 180c B501     		.2byte	0x1b5
 7273 180e BF000000 		.4byte	0xbf
 7274 1812 29       		.uleb128 0x29
 7275 1813 6C757400 		.ascii	"lut\000"
 7276 1817 01       		.byte	0x1
 7277 1818 B701     		.2byte	0x1b7
 7278 181a F1020000 		.4byte	0x2f1
 7279 181e 29       		.uleb128 0x29
 7280 181f 6D00     		.ascii	"m\000"
 7281 1821 01       		.byte	0x1
 7282 1822 BE01     		.2byte	0x1be
 7283 1824 BF000000 		.4byte	0xbf
 7284 1828 29       		.uleb128 0x29
 7285 1829 6B00     		.ascii	"k\000"
 7286 182b 01       		.byte	0x1
 7287 182c BF01     		.2byte	0x1bf
 7288 182e 33000000 		.4byte	0x33
 7289 1832 29       		.uleb128 0x29
 7290 1833 73687200 		.ascii	"shr\000"
 7291 1837 01       		.byte	0x1
 7292 1838 BF01     		.2byte	0x1bf
 7293 183a 33000000 		.4byte	0x33
 7294 183e 00       		.byte	0
 7295 183f 00       		.byte	0
 7296 1840 00       		.byte	0
 7297 1841 00       		.byte	0
 7298 1842 48       		.uleb128 0x48
 7299 1843 91050000 		.4byte	.LASF147
 7300 1847 01       		.byte	0x1
 7301 1848 0703     		.2byte	0x307
 7302 184a 01       		.byte	0x1
 7303 184b 67180000 		.4byte	0x1867
 7304 184f 24       		.uleb128 0x24
 7305 1850 CB030000 		.4byte	.LASF123
 7306 1854 01       		.byte	0x1
 7307 1855 0703     		.2byte	0x307
 7308 1857 ED0F0000 		.4byte	0xfed
 7309 185b 23       		.uleb128 0x23
 7310 185c 6E6600   		.ascii	"nf\000"
 7311 185f 01       		.byte	0x1
 7312 1860 0703     		.2byte	0x307
 7313 1862 2C000000 		.4byte	0x2c
 7314 1866 00       		.byte	0
 7315 1867 22       		.uleb128 0x22
 7316 1868 A8040000 		.4byte	.LASF148
 7317 186c 01       		.byte	0x1
 7318 186d CA02     		.2byte	0x2ca
 7319 186f 2C000000 		.4byte	0x2c
 7320 1873 01       		.byte	0x1
 7321 1874 07190000 		.4byte	0x1907
 7322 1878 23       		.uleb128 0x23
 7323 1879 647400   		.ascii	"dt\000"
 7324 187c 01       		.byte	0x1
ARM GAS  C:\Users\rdn\AppData\Local\Temp\ccYcaPXH.s 			page 165


 7325 187d CB02     		.2byte	0x2cb
 7326 187f CA000000 		.4byte	0xca
 7327 1883 23       		.uleb128 0x23
 7328 1884 627700   		.ascii	"bw\000"
 7329 1887 01       		.byte	0x1
 7330 1888 CB02     		.2byte	0x2cb
 7331 188a 82010000 		.4byte	0x182
 7332 188e 24       		.uleb128 0x24
 7333 188f D0030000 		.4byte	.LASF149
 7334 1893 01       		.byte	0x1
 7335 1894 CB02     		.2byte	0x2cb
 7336 1896 3A010000 		.4byte	0x13a
 7337 189a 23       		.uleb128 0x23
 7338 189b 7800     		.ascii	"x\000"
 7339 189d 01       		.byte	0x1
 7340 189e CB02     		.2byte	0x2cb
 7341 18a0 49030000 		.4byte	0x349
 7342 18a4 23       		.uleb128 0x23
 7343 18a5 6E00     		.ascii	"n\000"
 7344 18a7 01       		.byte	0x1
 7345 18a8 CB02     		.2byte	0x2cb
 7346 18aa 2C000000 		.4byte	0x2c
 7347 18ae 25       		.uleb128 0x25
 7348 18af 10080000 		.4byte	.LASF150
 7349 18b3 01       		.byte	0x1
 7350 18b4 CD02     		.2byte	0x2cd
 7351 18b6 2C000000 		.4byte	0x2c
 7352 18ba 29       		.uleb128 0x29
 7353 18bb 7700     		.ascii	"w\000"
 7354 18bd 01       		.byte	0x1
 7355 18be CE02     		.2byte	0x2ce
 7356 18c0 2C000000 		.4byte	0x2c
 7357 18c4 25       		.uleb128 0x25
 7358 18c5 C8020000 		.4byte	.LASF151
 7359 18c9 01       		.byte	0x1
 7360 18ca D002     		.2byte	0x2d0
 7361 18cc 25000000 		.4byte	0x25
 7362 18d0 29       		.uleb128 0x29
 7363 18d1 73756D00 		.ascii	"sum\000"
 7364 18d5 01       		.byte	0x1
 7365 18d6 D102     		.2byte	0x2d1
 7366 18d8 25000000 		.4byte	0x25
 7367 18dc 29       		.uleb128 0x29
 7368 18dd 6900     		.ascii	"i\000"
 7369 18df 01       		.byte	0x1
 7370 18e0 D202     		.2byte	0x2d2
 7371 18e2 2C000000 		.4byte	0x2c
 7372 18e6 29       		.uleb128 0x29
 7373 18e7 6E7300   		.ascii	"ns\000"
 7374 18ea 01       		.byte	0x1
 7375 18eb D202     		.2byte	0x2d2
 7376 18ed 2C000000 		.4byte	0x2c
 7377 18f1 29       		.uleb128 0x29
 7378 18f2 7A00     		.ascii	"z\000"
 7379 18f4 01       		.byte	0x1
 7380 18f5 D202     		.2byte	0x2d2
 7381 18f7 2C000000 		.4byte	0x2c
ARM GAS  C:\Users\rdn\AppData\Local\Temp\ccYcaPXH.s 			page 166


 7382 18fb 29       		.uleb128 0x29
 7383 18fc 6E6600   		.ascii	"nf\000"
 7384 18ff 01       		.byte	0x1
 7385 1900 DE02     		.2byte	0x2de
 7386 1902 2C000000 		.4byte	0x2c
 7387 1906 00       		.byte	0
 7388 1907 48       		.uleb128 0x48
 7389 1908 E3040000 		.4byte	.LASF152
 7390 190c 01       		.byte	0x1
 7391 190d 7D02     		.2byte	0x27d
 7392 190f 01       		.byte	0x1
 7393 1910 7B190000 		.4byte	0x197b
 7394 1914 24       		.uleb128 0x24
 7395 1915 CB030000 		.4byte	.LASF123
 7396 1919 01       		.byte	0x1
 7397 191a 7D02     		.2byte	0x27d
 7398 191c ED0F0000 		.4byte	0xfed
 7399 1920 24       		.uleb128 0x24
 7400 1921 4A040000 		.4byte	.LASF97
 7401 1925 01       		.byte	0x1
 7402 1926 7E02     		.2byte	0x27e
 7403 1928 2C000000 		.4byte	0x2c
 7404 192c 24       		.uleb128 0x24
 7405 192d D0030000 		.4byte	.LASF149
 7406 1931 01       		.byte	0x1
 7407 1932 7E02     		.2byte	0x27e
 7408 1934 3A010000 		.4byte	0x13a
 7409 1938 23       		.uleb128 0x23
 7410 1939 7800     		.ascii	"x\000"
 7411 193b 01       		.byte	0x1
 7412 193c 7E02     		.2byte	0x27e
 7413 193e 49030000 		.4byte	0x349
 7414 1942 23       		.uleb128 0x23
 7415 1943 6E00     		.ascii	"n\000"
 7416 1945 01       		.byte	0x1
 7417 1946 7E02     		.2byte	0x27e
 7418 1948 2C000000 		.4byte	0x2c
 7419 194c 44       		.uleb128 0x44
 7420 194d 29       		.uleb128 0x29
 7421 194e 6900     		.ascii	"i\000"
 7422 1950 01       		.byte	0x1
 7423 1951 8002     		.2byte	0x280
 7424 1953 2C000000 		.4byte	0x2c
 7425 1957 44       		.uleb128 0x44
 7426 1958 25       		.uleb128 0x25
 7427 1959 C1020000 		.4byte	.LASF103
 7428 195d 01       		.byte	0x1
 7429 195e 8202     		.2byte	0x282
 7430 1960 25000000 		.4byte	0x25
 7431 1964 29       		.uleb128 0x29
 7432 1965 6100     		.ascii	"a\000"
 7433 1967 01       		.byte	0x1
 7434 1968 8302     		.2byte	0x283
 7435 196a BF000000 		.4byte	0xbf
 7436 196e 29       		.uleb128 0x29
 7437 196f 6200     		.ascii	"b\000"
 7438 1971 01       		.byte	0x1
ARM GAS  C:\Users\rdn\AppData\Local\Temp\ccYcaPXH.s 			page 167


 7439 1972 8402     		.2byte	0x284
 7440 1974 BF000000 		.4byte	0xbf
 7441 1978 00       		.byte	0
 7442 1979 00       		.byte	0
 7443 197a 00       		.byte	0
 7444 197b 48       		.uleb128 0x48
 7445 197c 96080000 		.4byte	.LASF153
 7446 1980 01       		.byte	0x1
 7447 1981 3E02     		.2byte	0x23e
 7448 1983 01       		.byte	0x1
 7449 1984 0A1A0000 		.4byte	0x1a0a
 7450 1988 24       		.uleb128 0x24
 7451 1989 CB030000 		.4byte	.LASF123
 7452 198d 01       		.byte	0x1
 7453 198e 3E02     		.2byte	0x23e
 7454 1990 ED0F0000 		.4byte	0xfed
 7455 1994 24       		.uleb128 0x24
 7456 1995 4A040000 		.4byte	.LASF97
 7457 1999 01       		.byte	0x1
 7458 199a 3F02     		.2byte	0x23f
 7459 199c 2C000000 		.4byte	0x2c
 7460 19a0 24       		.uleb128 0x24
 7461 19a1 D0030000 		.4byte	.LASF149
 7462 19a5 01       		.byte	0x1
 7463 19a6 3F02     		.2byte	0x23f
 7464 19a8 3A010000 		.4byte	0x13a
 7465 19ac 23       		.uleb128 0x23
 7466 19ad 7800     		.ascii	"x\000"
 7467 19af 01       		.byte	0x1
 7468 19b0 3F02     		.2byte	0x23f
 7469 19b2 CE050000 		.4byte	0x5ce
 7470 19b6 23       		.uleb128 0x23
 7471 19b7 6E00     		.ascii	"n\000"
 7472 19b9 01       		.byte	0x1
 7473 19ba 3F02     		.2byte	0x23f
 7474 19bc 2C000000 		.4byte	0x2c
 7475 19c0 25       		.uleb128 0x25
 7476 19c1 C8020000 		.4byte	.LASF151
 7477 19c5 01       		.byte	0x1
 7478 19c6 4102     		.2byte	0x241
 7479 19c8 25000000 		.4byte	0x25
 7480 19cc 25       		.uleb128 0x25
 7481 19cd C1020000 		.4byte	.LASF103
 7482 19d1 01       		.byte	0x1
 7483 19d2 4202     		.2byte	0x242
 7484 19d4 25000000 		.4byte	0x25
 7485 19d8 44       		.uleb128 0x44
 7486 19d9 25       		.uleb128 0x25
 7487 19da 37080000 		.4byte	.LASF154
 7488 19de 01       		.byte	0x1
 7489 19df 4402     		.2byte	0x244
 7490 19e1 2C000000 		.4byte	0x2c
 7491 19e5 44       		.uleb128 0x44
 7492 19e6 29       		.uleb128 0x29
 7493 19e7 6900     		.ascii	"i\000"
 7494 19e9 01       		.byte	0x1
 7495 19ea 4502     		.2byte	0x245
ARM GAS  C:\Users\rdn\AppData\Local\Temp\ccYcaPXH.s 			page 168


 7496 19ec 2C000000 		.4byte	0x2c
 7497 19f0 44       		.uleb128 0x44
 7498 19f1 29       		.uleb128 0x29
 7499 19f2 787200   		.ascii	"xr\000"
 7500 19f5 01       		.byte	0x1
 7501 19f6 4702     		.2byte	0x247
 7502 19f8 25000000 		.4byte	0x25
 7503 19fc 29       		.uleb128 0x29
 7504 19fd 6200     		.ascii	"b\000"
 7505 19ff 01       		.byte	0x1
 7506 1a00 4B02     		.2byte	0x24b
 7507 1a02 3A010000 		.4byte	0x13a
 7508 1a06 00       		.byte	0
 7509 1a07 00       		.byte	0
 7510 1a08 00       		.byte	0
 7511 1a09 00       		.byte	0
 7512 1a0a 45       		.uleb128 0x45
 7513 1a0b C4060000 		.4byte	.LASF155
 7514 1a0f 01       		.byte	0x1
 7515 1a10 7703     		.2byte	0x377
 7516 1a12 00000000 		.4byte	.LFB42
 7517 1a16 86040000 		.4byte	.LFE42-.LFB42
 7518 1a1a 01       		.uleb128 0x1
 7519 1a1b 9C       		.byte	0x9c
 7520 1a1c 1E1F0000 		.4byte	0x1f1e
 7521 1a20 28       		.uleb128 0x28
 7522 1a21 CB030000 		.4byte	.LASF123
 7523 1a25 01       		.byte	0x1
 7524 1a26 7703     		.2byte	0x377
 7525 1a28 ED0F0000 		.4byte	0xfed
 7526 1a2c 4D160000 		.4byte	.LLST141
 7527 1a30 27       		.uleb128 0x27
 7528 1a31 647400   		.ascii	"dt\000"
 7529 1a34 01       		.byte	0x1
 7530 1a35 7803     		.2byte	0x378
 7531 1a37 CA000000 		.4byte	0xca
 7532 1a3b 6B160000 		.4byte	.LLST142
 7533 1a3f 27       		.uleb128 0x27
 7534 1a40 737200   		.ascii	"sr\000"
 7535 1a43 01       		.byte	0x1
 7536 1a44 7803     		.2byte	0x378
 7537 1a46 F9000000 		.4byte	0xf9
 7538 1a4a 8C160000 		.4byte	.LLST143
 7539 1a4e 27       		.uleb128 0x27
 7540 1a4f 627700   		.ascii	"bw\000"
 7541 1a52 01       		.byte	0x1
 7542 1a53 7803     		.2byte	0x378
 7543 1a55 82010000 		.4byte	0x182
 7544 1a59 AD160000 		.4byte	.LLST144
 7545 1a5d 49       		.uleb128 0x49
 7546 1a5e 71040000 		.4byte	.LASF83
 7547 1a62 01       		.byte	0x1
 7548 1a63 7903     		.2byte	0x379
 7549 1a65 2C000000 		.4byte	0x2c
 7550 1a69 02       		.uleb128 0x2
 7551 1a6a 91       		.byte	0x91
 7552 1a6b 00       		.sleb128 0
ARM GAS  C:\Users\rdn\AppData\Local\Temp\ccYcaPXH.s 			page 169


 7553 1a6c 49       		.uleb128 0x49
 7554 1a6d DA000000 		.4byte	.LASF139
 7555 1a71 01       		.byte	0x1
 7556 1a72 7903     		.2byte	0x379
 7557 1a74 1E1F0000 		.4byte	0x1f1e
 7558 1a78 02       		.uleb128 0x2
 7559 1a79 91       		.byte	0x91
 7560 1a7a 04       		.sleb128 4
 7561 1a7b 2E       		.uleb128 0x2e
 7562 1a7c 7800     		.ascii	"x\000"
 7563 1a7e 01       		.byte	0x1
 7564 1a7f 7903     		.2byte	0x379
 7565 1a81 CE050000 		.4byte	0x5ce
 7566 1a85 02       		.uleb128 0x2
 7567 1a86 91       		.byte	0x91
 7568 1a87 08       		.sleb128 8
 7569 1a88 1F       		.uleb128 0x1f
 7570 1a89 35050000 		.4byte	.LASF79
 7571 1a8d 01       		.byte	0x1
 7572 1a8e 7B03     		.2byte	0x37b
 7573 1a90 3A010000 		.4byte	0x13a
 7574 1a94 CE160000 		.4byte	.LLST145
 7575 1a98 1D       		.uleb128 0x1d
 7576 1a99 6E7100   		.ascii	"nq\000"
 7577 1a9c 01       		.byte	0x1
 7578 1a9d 7C03     		.2byte	0x37c
 7579 1a9f 2C000000 		.4byte	0x2c
 7580 1aa3 EC160000 		.4byte	.LLST146
 7581 1aa7 1F       		.uleb128 0x1f
 7582 1aa8 3C080000 		.4byte	.LASF156
 7583 1aac 01       		.byte	0x1
 7584 1aad 8203     		.2byte	0x382
 7585 1aaf 2C000000 		.4byte	0x2c
 7586 1ab3 1B170000 		.4byte	.LLST147
 7587 1ab7 2A       		.uleb128 0x2a
 7588 1ab8 67180000 		.4byte	0x1867
 7589 1abc 0A000000 		.4byte	.LBB214
 7590 1ac0 D0010000 		.4byte	.Ldebug_ranges0+0x1d0
 7591 1ac4 01       		.byte	0x1
 7592 1ac5 7E03     		.2byte	0x37e
 7593 1ac7 561B0000 		.4byte	0x1b56
 7594 1acb 1B       		.uleb128 0x1b
 7595 1acc A4180000 		.4byte	0x18a4
 7596 1ad0 39170000 		.4byte	.LLST148
 7597 1ad4 1B       		.uleb128 0x1b
 7598 1ad5 9A180000 		.4byte	0x189a
 7599 1ad9 5B170000 		.4byte	.LLST149
 7600 1add 1B       		.uleb128 0x1b
 7601 1ade 8E180000 		.4byte	0x188e
 7602 1ae2 7A170000 		.4byte	.LLST150
 7603 1ae6 4A       		.uleb128 0x4a
 7604 1ae7 83180000 		.4byte	0x1883
 7605 1aeb 4A       		.uleb128 0x4a
 7606 1aec 78180000 		.4byte	0x1878
 7607 1af0 2B       		.uleb128 0x2b
 7608 1af1 D0010000 		.4byte	.Ldebug_ranges0+0x1d0
 7609 1af5 3D       		.uleb128 0x3d
ARM GAS  C:\Users\rdn\AppData\Local\Temp\ccYcaPXH.s 			page 170


 7610 1af6 AE180000 		.4byte	0x18ae
 7611 1afa 2C       		.uleb128 0x2c
 7612 1afb BA180000 		.4byte	0x18ba
 7613 1aff 94170000 		.4byte	.LLST151
 7614 1b03 2C       		.uleb128 0x2c
 7615 1b04 C4180000 		.4byte	0x18c4
 7616 1b08 A7170000 		.4byte	.LLST152
 7617 1b0c 2C       		.uleb128 0x2c
 7618 1b0d D0180000 		.4byte	0x18d0
 7619 1b11 0B180000 		.4byte	.LLST153
 7620 1b15 2C       		.uleb128 0x2c
 7621 1b16 DC180000 		.4byte	0x18dc
 7622 1b1a 2F180000 		.4byte	.LLST154
 7623 1b1e 2C       		.uleb128 0x2c
 7624 1b1f E6180000 		.4byte	0x18e6
 7625 1b23 42180000 		.4byte	.LLST155
 7626 1b27 2C       		.uleb128 0x2c
 7627 1b28 F1180000 		.4byte	0x18f1
 7628 1b2c 61180000 		.4byte	.LLST156
 7629 1b30 2C       		.uleb128 0x2c
 7630 1b31 FB180000 		.4byte	0x18fb
 7631 1b35 8B180000 		.4byte	.LLST157
 7632 1b39 4B       		.uleb128 0x4b
 7633 1b3a 17040000 		.4byte	0x417
 7634 1b3e 0A000000 		.4byte	.LBB216
 7635 1b42 F8010000 		.4byte	.Ldebug_ranges0+0x1f8
 7636 1b46 01       		.byte	0x1
 7637 1b47 CD02     		.2byte	0x2cd
 7638 1b49 4A       		.uleb128 0x4a
 7639 1b4a 31040000 		.4byte	0x431
 7640 1b4e 4A       		.uleb128 0x4a
 7641 1b4f 27040000 		.4byte	0x427
 7642 1b53 00       		.byte	0
 7643 1b54 00       		.byte	0
 7644 1b55 00       		.byte	0
 7645 1b56 2D       		.uleb128 0x2d
 7646 1b57 42180000 		.4byte	0x1842
 7647 1b5b 10010000 		.4byte	.LBB232
 7648 1b5f 08000000 		.4byte	.LBE232-.LBB232
 7649 1b63 01       		.byte	0x1
 7650 1b64 7E03     		.2byte	0x37e
 7651 1b66 8E1B0000 		.4byte	0x1b8e
 7652 1b6a 4A       		.uleb128 0x4a
 7653 1b6b 5B180000 		.4byte	0x185b
 7654 1b6f 1B       		.uleb128 0x1b
 7655 1b70 4F180000 		.4byte	0x184f
 7656 1b74 AE180000 		.4byte	.LLST158
 7657 1b78 20       		.uleb128 0x20
 7658 1b79 18010000 		.4byte	.LVL291
 7659 1b7d 3B0F0000 		.4byte	0xf3b
 7660 1b81 21       		.uleb128 0x21
 7661 1b82 01       		.uleb128 0x1
 7662 1b83 50       		.byte	0x50
 7663 1b84 02       		.uleb128 0x2
 7664 1b85 77       		.byte	0x77
 7665 1b86 00       		.sleb128 0
 7666 1b87 21       		.uleb128 0x21
ARM GAS  C:\Users\rdn\AppData\Local\Temp\ccYcaPXH.s 			page 171


 7667 1b88 01       		.uleb128 0x1
 7668 1b89 52       		.byte	0x52
 7669 1b8a 01       		.uleb128 0x1
 7670 1b8b 33       		.byte	0x33
 7671 1b8c 00       		.byte	0
 7672 1b8d 00       		.byte	0
 7673 1b8e 2D       		.uleb128 0x2d
 7674 1b8f 50170000 		.4byte	0x1750
 7675 1b93 18010000 		.4byte	.LBB234
 7676 1b97 E8010000 		.4byte	.LBE234-.LBB234
 7677 1b9b 01       		.byte	0x1
 7678 1b9c 8003     		.2byte	0x380
 7679 1b9e 841D0000 		.4byte	0x1d84
 7680 1ba2 1B       		.uleb128 0x1b
 7681 1ba3 A0170000 		.4byte	0x17a0
 7682 1ba7 C1180000 		.4byte	.LLST159
 7683 1bab 1B       		.uleb128 0x1b
 7684 1bac 95170000 		.4byte	0x1795
 7685 1bb0 D4180000 		.4byte	.LLST160
 7686 1bb4 1B       		.uleb128 0x1b
 7687 1bb5 8B170000 		.4byte	0x178b
 7688 1bb9 E9180000 		.4byte	.LLST161
 7689 1bbd 1B       		.uleb128 0x1b
 7690 1bbe 7F170000 		.4byte	0x177f
 7691 1bc2 FD180000 		.4byte	.LLST162
 7692 1bc6 1B       		.uleb128 0x1b
 7693 1bc7 74170000 		.4byte	0x1774
 7694 1bcb 11190000 		.4byte	.LLST163
 7695 1bcf 4A       		.uleb128 0x4a
 7696 1bd0 69170000 		.4byte	0x1769
 7697 1bd4 1B       		.uleb128 0x1b
 7698 1bd5 5D170000 		.4byte	0x175d
 7699 1bd9 24190000 		.4byte	.LLST164
 7700 1bdd 1E       		.uleb128 0x1e
 7701 1bde 18010000 		.4byte	.LBB235
 7702 1be2 E8010000 		.4byte	.LBE235-.LBB235
 7703 1be6 3D       		.uleb128 0x3d
 7704 1be7 AC170000 		.4byte	0x17ac
 7705 1beb 3D       		.uleb128 0x3d
 7706 1bec B8170000 		.4byte	0x17b8
 7707 1bf0 2C       		.uleb128 0x2c
 7708 1bf1 C3170000 		.4byte	0x17c3
 7709 1bf5 37190000 		.4byte	.LLST165
 7710 1bf9 2D       		.uleb128 0x2d
 7711 1bfa DA050000 		.4byte	0x5da
 7712 1bfe 18010000 		.4byte	.LBB236
 7713 1c02 26000000 		.4byte	.LBE236-.LBB236
 7714 1c06 01       		.byte	0x1
 7715 1c07 A701     		.2byte	0x1a7
 7716 1c09 3C1C0000 		.4byte	0x1c3c
 7717 1c0d 1B       		.uleb128 0x1b
 7718 1c0e 02060000 		.4byte	0x602
 7719 1c12 58190000 		.4byte	.LLST166
 7720 1c16 1B       		.uleb128 0x1b
 7721 1c17 F6050000 		.4byte	0x5f6
 7722 1c1b 6C190000 		.4byte	.LLST167
 7723 1c1f 1B       		.uleb128 0x1b
ARM GAS  C:\Users\rdn\AppData\Local\Temp\ccYcaPXH.s 			page 172


 7724 1c20 EB050000 		.4byte	0x5eb
 7725 1c24 80190000 		.4byte	.LLST168
 7726 1c28 1E       		.uleb128 0x1e
 7727 1c29 18010000 		.4byte	.LBB237
 7728 1c2d 26000000 		.4byte	.LBE237-.LBB237
 7729 1c31 2C       		.uleb128 0x2c
 7730 1c32 0E060000 		.4byte	0x60e
 7731 1c36 93190000 		.4byte	.LLST169
 7732 1c3a 00       		.byte	0
 7733 1c3b 00       		.byte	0
 7734 1c3c 2D       		.uleb128 0x2d
 7735 1c3d 17040000 		.4byte	0x417
 7736 1c41 3E010000 		.4byte	.LBB238
 7737 1c45 28000000 		.4byte	.LBE238-.LBB238
 7738 1c49 01       		.byte	0x1
 7739 1c4a A801     		.2byte	0x1a8
 7740 1c4c 5F1C0000 		.4byte	0x1c5f
 7741 1c50 1B       		.uleb128 0x1b
 7742 1c51 31040000 		.4byte	0x431
 7743 1c55 A6190000 		.4byte	.LLST170
 7744 1c59 4A       		.uleb128 0x4a
 7745 1c5a 27040000 		.4byte	0x427
 7746 1c5e 00       		.byte	0
 7747 1c5f 2B       		.uleb128 0x2b
 7748 1c60 28020000 		.4byte	.Ldebug_ranges0+0x228
 7749 1c64 2C       		.uleb128 0x2c
 7750 1c65 D0170000 		.4byte	0x17d0
 7751 1c69 B9190000 		.4byte	.LLST171
 7752 1c6d 2C       		.uleb128 0x2c
 7753 1c6e DA170000 		.4byte	0x17da
 7754 1c72 F0190000 		.4byte	.LLST172
 7755 1c76 1E       		.uleb128 0x1e
 7756 1c77 7A010000 		.4byte	.LBB241
 7757 1c7b 7A010000 		.4byte	.LBE241-.LBB241
 7758 1c7f 3D       		.uleb128 0x3d
 7759 1c80 E5170000 		.4byte	0x17e5
 7760 1c84 1E       		.uleb128 0x1e
 7761 1c85 A2010000 		.4byte	.LBB242
 7762 1c89 34010000 		.4byte	.LBE242-.LBB242
 7763 1c8d 2C       		.uleb128 0x2c
 7764 1c8e F2170000 		.4byte	0x17f2
 7765 1c92 1C1A0000 		.4byte	.LLST173
 7766 1c96 2C       		.uleb128 0x2c
 7767 1c97 FE170000 		.4byte	0x17fe
 7768 1c9b 301A0000 		.4byte	.LLST174
 7769 1c9f 2C       		.uleb128 0x2c
 7770 1ca0 08180000 		.4byte	0x1808
 7771 1ca4 431A0000 		.4byte	.LLST175
 7772 1ca8 2C       		.uleb128 0x2c
 7773 1ca9 12180000 		.4byte	0x1812
 7774 1cad 561A0000 		.4byte	.LLST176
 7775 1cb1 2C       		.uleb128 0x2c
 7776 1cb2 1E180000 		.4byte	0x181e
 7777 1cb6 8E1A0000 		.4byte	.LLST177
 7778 1cba 2C       		.uleb128 0x2c
 7779 1cbb 28180000 		.4byte	0x1828
 7780 1cbf BB1A0000 		.4byte	.LLST178
ARM GAS  C:\Users\rdn\AppData\Local\Temp\ccYcaPXH.s 			page 173


 7781 1cc3 2C       		.uleb128 0x2c
 7782 1cc4 32180000 		.4byte	0x1832
 7783 1cc8 0A1B0000 		.4byte	.LLST179
 7784 1ccc 39       		.uleb128 0x39
 7785 1ccd FC010000 		.4byte	.LVL306
 7786 1cd1 F30F0000 		.4byte	0xff3
 7787 1cd5 E51C0000 		.4byte	0x1ce5
 7788 1cd9 21       		.uleb128 0x21
 7789 1cda 01       		.uleb128 0x1
 7790 1cdb 50       		.byte	0x50
 7791 1cdc 02       		.uleb128 0x2
 7792 1cdd 77       		.byte	0x77
 7793 1cde 00       		.sleb128 0
 7794 1cdf 21       		.uleb128 0x21
 7795 1ce0 01       		.uleb128 0x1
 7796 1ce1 52       		.byte	0x52
 7797 1ce2 01       		.uleb128 0x1
 7798 1ce3 40       		.byte	0x40
 7799 1ce4 00       		.byte	0
 7800 1ce5 39       		.uleb128 0x39
 7801 1ce6 12020000 		.4byte	.LVL308
 7802 1cea 9E0F0000 		.4byte	0xf9e
 7803 1cee 041D0000 		.4byte	0x1d04
 7804 1cf2 21       		.uleb128 0x21
 7805 1cf3 01       		.uleb128 0x1
 7806 1cf4 50       		.byte	0x50
 7807 1cf5 02       		.uleb128 0x2
 7808 1cf6 77       		.byte	0x77
 7809 1cf7 00       		.sleb128 0
 7810 1cf8 21       		.uleb128 0x21
 7811 1cf9 01       		.uleb128 0x1
 7812 1cfa 51       		.byte	0x51
 7813 1cfb 07       		.uleb128 0x7
 7814 1cfc 76       		.byte	0x76
 7815 1cfd 00       		.sleb128 0
 7816 1cfe 74       		.byte	0x74
 7817 1cff 00       		.sleb128 0
 7818 1d00 25       		.byte	0x25
 7819 1d01 31       		.byte	0x31
 7820 1d02 1A       		.byte	0x1a
 7821 1d03 00       		.byte	0
 7822 1d04 39       		.uleb128 0x39
 7823 1d05 20020000 		.4byte	.LVL309
 7824 1d09 9E0F0000 		.4byte	0xf9e
 7825 1d0d 231D0000 		.4byte	0x1d23
 7826 1d11 21       		.uleb128 0x21
 7827 1d12 01       		.uleb128 0x1
 7828 1d13 50       		.byte	0x50
 7829 1d14 02       		.uleb128 0x2
 7830 1d15 77       		.byte	0x77
 7831 1d16 00       		.sleb128 0
 7832 1d17 21       		.uleb128 0x21
 7833 1d18 01       		.uleb128 0x1
 7834 1d19 51       		.byte	0x51
 7835 1d1a 07       		.uleb128 0x7
 7836 1d1b 79       		.byte	0x79
 7837 1d1c 00       		.sleb128 0
ARM GAS  C:\Users\rdn\AppData\Local\Temp\ccYcaPXH.s 			page 174


 7838 1d1d 74       		.byte	0x74
 7839 1d1e 00       		.sleb128 0
 7840 1d1f 25       		.byte	0x25
 7841 1d20 31       		.byte	0x31
 7842 1d21 1A       		.byte	0x1a
 7843 1d22 00       		.byte	0
 7844 1d23 39       		.uleb128 0x39
 7845 1d24 3E020000 		.4byte	.LVL310
 7846 1d28 F30F0000 		.4byte	0xff3
 7847 1d2c 3C1D0000 		.4byte	0x1d3c
 7848 1d30 21       		.uleb128 0x21
 7849 1d31 01       		.uleb128 0x1
 7850 1d32 50       		.byte	0x50
 7851 1d33 02       		.uleb128 0x2
 7852 1d34 77       		.byte	0x77
 7853 1d35 00       		.sleb128 0
 7854 1d36 21       		.uleb128 0x21
 7855 1d37 01       		.uleb128 0x1
 7856 1d38 52       		.byte	0x52
 7857 1d39 01       		.uleb128 0x1
 7858 1d3a 40       		.byte	0x40
 7859 1d3b 00       		.byte	0
 7860 1d3c 39       		.uleb128 0x39
 7861 1d3d 74020000 		.4byte	.LVL319
 7862 1d41 9E0F0000 		.4byte	0xf9e
 7863 1d45 501D0000 		.4byte	0x1d50
 7864 1d49 21       		.uleb128 0x21
 7865 1d4a 01       		.uleb128 0x1
 7866 1d4b 50       		.byte	0x50
 7867 1d4c 02       		.uleb128 0x2
 7868 1d4d 77       		.byte	0x77
 7869 1d4e 00       		.sleb128 0
 7870 1d4f 00       		.byte	0
 7871 1d50 39       		.uleb128 0x39
 7872 1d51 92020000 		.4byte	.LVL320
 7873 1d55 9E0F0000 		.4byte	0xf9e
 7874 1d59 641D0000 		.4byte	0x1d64
 7875 1d5d 21       		.uleb128 0x21
 7876 1d5e 01       		.uleb128 0x1
 7877 1d5f 50       		.byte	0x50
 7878 1d60 02       		.uleb128 0x2
 7879 1d61 77       		.byte	0x77
 7880 1d62 00       		.sleb128 0
 7881 1d63 00       		.byte	0
 7882 1d64 20       		.uleb128 0x20
 7883 1d65 B0020000 		.4byte	.LVL323
 7884 1d69 F30F0000 		.4byte	0xff3
 7885 1d6d 21       		.uleb128 0x21
 7886 1d6e 01       		.uleb128 0x1
 7887 1d6f 50       		.byte	0x50
 7888 1d70 02       		.uleb128 0x2
 7889 1d71 77       		.byte	0x77
 7890 1d72 00       		.sleb128 0
 7891 1d73 21       		.uleb128 0x21
 7892 1d74 01       		.uleb128 0x1
 7893 1d75 52       		.byte	0x52
 7894 1d76 07       		.uleb128 0x7
ARM GAS  C:\Users\rdn\AppData\Local\Temp\ccYcaPXH.s 			page 175


 7895 1d77 79       		.byte	0x79
 7896 1d78 00       		.sleb128 0
 7897 1d79 32       		.byte	0x32
 7898 1d7a 24       		.byte	0x24
 7899 1d7b 76       		.byte	0x76
 7900 1d7c 00       		.sleb128 0
 7901 1d7d 22       		.byte	0x22
 7902 1d7e 00       		.byte	0
 7903 1d7f 00       		.byte	0
 7904 1d80 00       		.byte	0
 7905 1d81 00       		.byte	0
 7906 1d82 00       		.byte	0
 7907 1d83 00       		.byte	0
 7908 1d84 2D       		.uleb128 0x2d
 7909 1d85 07190000 		.4byte	0x1907
 7910 1d89 16030000 		.4byte	.LBB244
 7911 1d8d B8000000 		.4byte	.LBE244-.LBB244
 7912 1d91 01       		.byte	0x1
 7913 1d92 8503     		.2byte	0x385
 7914 1d94 4A1E0000 		.4byte	0x1e4a
 7915 1d98 4A       		.uleb128 0x4a
 7916 1d99 42190000 		.4byte	0x1942
 7917 1d9d 4A       		.uleb128 0x4a
 7918 1d9e 38190000 		.4byte	0x1938
 7919 1da2 4A       		.uleb128 0x4a
 7920 1da3 2C190000 		.4byte	0x192c
 7921 1da7 1B       		.uleb128 0x1b
 7922 1da8 20190000 		.4byte	0x1920
 7923 1dac 401B0000 		.4byte	.LLST180
 7924 1db0 4A       		.uleb128 0x4a
 7925 1db1 14190000 		.4byte	0x1914
 7926 1db5 1E       		.uleb128 0x1e
 7927 1db6 16030000 		.4byte	.LBB245
 7928 1dba B8000000 		.4byte	.LBE245-.LBB245
 7929 1dbe 2C       		.uleb128 0x2c
 7930 1dbf 4D190000 		.4byte	0x194d
 7931 1dc3 AB1B0000 		.4byte	.LLST181
 7932 1dc7 1E       		.uleb128 0x1e
 7933 1dc8 24030000 		.4byte	.LBB246
 7934 1dcc A0000000 		.4byte	.LBE246-.LBB246
 7935 1dd0 2C       		.uleb128 0x2c
 7936 1dd1 58190000 		.4byte	0x1958
 7937 1dd5 BE1B0000 		.4byte	.LLST182
 7938 1dd9 2C       		.uleb128 0x2c
 7939 1dda 64190000 		.4byte	0x1964
 7940 1dde D21B0000 		.4byte	.LLST183
 7941 1de2 2C       		.uleb128 0x2c
 7942 1de3 6E190000 		.4byte	0x196e
 7943 1de7 E51B0000 		.4byte	.LLST184
 7944 1deb 39       		.uleb128 0x39
 7945 1dec 5E030000 		.4byte	.LVL339
 7946 1df0 9E0F0000 		.4byte	0xf9e
 7947 1df4 071E0000 		.4byte	0x1e07
 7948 1df8 21       		.uleb128 0x21
 7949 1df9 01       		.uleb128 0x1
 7950 1dfa 50       		.byte	0x50
 7951 1dfb 02       		.uleb128 0x2
ARM GAS  C:\Users\rdn\AppData\Local\Temp\ccYcaPXH.s 			page 176


 7952 1dfc 77       		.byte	0x77
 7953 1dfd 00       		.sleb128 0
 7954 1dfe 21       		.uleb128 0x21
 7955 1dff 01       		.uleb128 0x1
 7956 1e00 51       		.byte	0x51
 7957 1e01 04       		.uleb128 0x4
 7958 1e02 76       		.byte	0x76
 7959 1e03 00       		.sleb128 0
 7960 1e04 31       		.byte	0x31
 7961 1e05 1A       		.byte	0x1a
 7962 1e06 00       		.byte	0
 7963 1e07 39       		.uleb128 0x39
 7964 1e08 86030000 		.4byte	.LVL342
 7965 1e0c 9E0F0000 		.4byte	0xf9e
 7966 1e10 1B1E0000 		.4byte	0x1e1b
 7967 1e14 21       		.uleb128 0x21
 7968 1e15 01       		.uleb128 0x1
 7969 1e16 50       		.byte	0x50
 7970 1e17 02       		.uleb128 0x2
 7971 1e18 77       		.byte	0x77
 7972 1e19 00       		.sleb128 0
 7973 1e1a 00       		.byte	0
 7974 1e1b 39       		.uleb128 0x39
 7975 1e1c 9C030000 		.4byte	.LVL346
 7976 1e20 9E0F0000 		.4byte	0xf9e
 7977 1e24 371E0000 		.4byte	0x1e37
 7978 1e28 21       		.uleb128 0x21
 7979 1e29 01       		.uleb128 0x1
 7980 1e2a 50       		.byte	0x50
 7981 1e2b 02       		.uleb128 0x2
 7982 1e2c 77       		.byte	0x77
 7983 1e2d 00       		.sleb128 0
 7984 1e2e 21       		.uleb128 0x21
 7985 1e2f 01       		.uleb128 0x1
 7986 1e30 51       		.byte	0x51
 7987 1e31 04       		.uleb128 0x4
 7988 1e32 75       		.byte	0x75
 7989 1e33 00       		.sleb128 0
 7990 1e34 31       		.byte	0x31
 7991 1e35 1A       		.byte	0x1a
 7992 1e36 00       		.byte	0
 7993 1e37 20       		.uleb128 0x20
 7994 1e38 C0030000 		.4byte	.LVL348
 7995 1e3c 9E0F0000 		.4byte	0xf9e
 7996 1e40 21       		.uleb128 0x21
 7997 1e41 01       		.uleb128 0x1
 7998 1e42 50       		.byte	0x50
 7999 1e43 02       		.uleb128 0x2
 8000 1e44 77       		.byte	0x77
 8001 1e45 00       		.sleb128 0
 8002 1e46 00       		.byte	0
 8003 1e47 00       		.byte	0
 8004 1e48 00       		.byte	0
 8005 1e49 00       		.byte	0
 8006 1e4a 2D       		.uleb128 0x2d
 8007 1e4b 7B190000 		.4byte	0x197b
 8008 1e4f CE030000 		.4byte	.LBB247
ARM GAS  C:\Users\rdn\AppData\Local\Temp\ccYcaPXH.s 			page 177


 8009 1e53 AE000000 		.4byte	.LBE247-.LBB247
 8010 1e57 01       		.byte	0x1
 8011 1e58 8703     		.2byte	0x387
 8012 1e5a 0D1F0000 		.4byte	0x1f0d
 8013 1e5e 1B       		.uleb128 0x1b
 8014 1e5f B6190000 		.4byte	0x19b6
 8015 1e63 F81B0000 		.4byte	.LLST185
 8016 1e67 1B       		.uleb128 0x1b
 8017 1e68 AC190000 		.4byte	0x19ac
 8018 1e6c 0D1C0000 		.4byte	.LLST186
 8019 1e70 1B       		.uleb128 0x1b
 8020 1e71 A0190000 		.4byte	0x19a0
 8021 1e75 211C0000 		.4byte	.LLST187
 8022 1e79 1B       		.uleb128 0x1b
 8023 1e7a 94190000 		.4byte	0x1994
 8024 1e7e 3B1C0000 		.4byte	.LLST188
 8025 1e82 1B       		.uleb128 0x1b
 8026 1e83 88190000 		.4byte	0x1988
 8027 1e87 591C0000 		.4byte	.LLST189
 8028 1e8b 1E       		.uleb128 0x1e
 8029 1e8c CE030000 		.4byte	.LBB248
 8030 1e90 AE000000 		.4byte	.LBE248-.LBB248
 8031 1e94 2C       		.uleb128 0x2c
 8032 1e95 C0190000 		.4byte	0x19c0
 8033 1e99 6C1C0000 		.4byte	.LLST190
 8034 1e9d 2C       		.uleb128 0x2c
 8035 1e9e CC190000 		.4byte	0x19cc
 8036 1ea2 801C0000 		.4byte	.LLST191
 8037 1ea6 1E       		.uleb128 0x1e
 8038 1ea7 EE030000 		.4byte	.LBB249
 8039 1eab 8E000000 		.4byte	.LBE249-.LBB249
 8040 1eaf 2C       		.uleb128 0x2c
 8041 1eb0 D9190000 		.4byte	0x19d9
 8042 1eb4 941C0000 		.4byte	.LLST192
 8043 1eb8 2B       		.uleb128 0x2b
 8044 1eb9 40020000 		.4byte	.Ldebug_ranges0+0x240
 8045 1ebd 2C       		.uleb128 0x2c
 8046 1ebe E6190000 		.4byte	0x19e6
 8047 1ec2 CB1C0000 		.4byte	.LLST193
 8048 1ec6 2B       		.uleb128 0x2b
 8049 1ec7 58020000 		.4byte	.Ldebug_ranges0+0x258
 8050 1ecb 2C       		.uleb128 0x2c
 8051 1ecc F1190000 		.4byte	0x19f1
 8052 1ed0 DE1C0000 		.4byte	.LLST194
 8053 1ed4 2C       		.uleb128 0x2c
 8054 1ed5 FC190000 		.4byte	0x19fc
 8055 1ed9 011D0000 		.4byte	.LLST195
 8056 1edd 39       		.uleb128 0x39
 8057 1ede 2E040000 		.4byte	.LVL361
 8058 1ee2 5C2A0000 		.4byte	0x2a5c
 8059 1ee6 F21E0000 		.4byte	0x1ef2
 8060 1eea 21       		.uleb128 0x21
 8061 1eeb 01       		.uleb128 0x1
 8062 1eec 50       		.byte	0x50
 8063 1eed 03       		.uleb128 0x3
 8064 1eee F5       		.byte	0xf5
 8065 1eef 52       		.uleb128 0x52
ARM GAS  C:\Users\rdn\AppData\Local\Temp\ccYcaPXH.s 			page 178


 8066 1ef0 25       		.uleb128 0x25
 8067 1ef1 00       		.byte	0
 8068 1ef2 20       		.uleb128 0x20
 8069 1ef3 5C040000 		.4byte	.LVL364
 8070 1ef7 9E0F0000 		.4byte	0xf9e
 8071 1efb 21       		.uleb128 0x21
 8072 1efc 01       		.uleb128 0x1
 8073 1efd 50       		.byte	0x50
 8074 1efe 02       		.uleb128 0x2
 8075 1eff 77       		.byte	0x77
 8076 1f00 00       		.sleb128 0
 8077 1f01 21       		.uleb128 0x21
 8078 1f02 01       		.uleb128 0x1
 8079 1f03 51       		.byte	0x51
 8080 1f04 02       		.uleb128 0x2
 8081 1f05 76       		.byte	0x76
 8082 1f06 00       		.sleb128 0
 8083 1f07 00       		.byte	0
 8084 1f08 00       		.byte	0
 8085 1f09 00       		.byte	0
 8086 1f0a 00       		.byte	0
 8087 1f0b 00       		.byte	0
 8088 1f0c 00       		.byte	0
 8089 1f0d 20       		.uleb128 0x20
 8090 1f0e 06030000 		.4byte	.LVL332
 8091 1f12 682A0000 		.4byte	0x2a68
 8092 1f16 21       		.uleb128 0x21
 8093 1f17 01       		.uleb128 0x1
 8094 1f18 50       		.byte	0x50
 8095 1f19 02       		.uleb128 0x2
 8096 1f1a 77       		.byte	0x77
 8097 1f1b 00       		.sleb128 0
 8098 1f1c 00       		.byte	0
 8099 1f1d 00       		.byte	0
 8100 1f1e 0E       		.uleb128 0xe
 8101 1f1f 04       		.byte	0x4
 8102 1f20 241F0000 		.4byte	0x1f24
 8103 1f24 0F       		.uleb128 0xf
 8104 1f25 F1030000 		.4byte	0x3f1
 8105 1f29 4C       		.uleb128 0x4c
 8106 1f2a 34020000 		.4byte	.LASF167
 8107 1f2e 01       		.byte	0x1
 8108 1f2f 9203     		.2byte	0x392
 8109 1f31 2C000000 		.4byte	0x2c
 8110 1f35 00000000 		.4byte	.LFB43
 8111 1f39 54000000 		.4byte	.LFE43-.LFB43
 8112 1f3d 01       		.uleb128 0x1
 8113 1f3e 9C       		.byte	0x9c
 8114 1f3f 15200000 		.4byte	0x2015
 8115 1f43 28       		.uleb128 0x28
 8116 1f44 CB030000 		.4byte	.LASF123
 8117 1f48 01       		.byte	0x1
 8118 1f49 9203     		.2byte	0x392
 8119 1f4b ED0F0000 		.4byte	0xfed
 8120 1f4f 141D0000 		.4byte	.LLST196
 8121 1f53 27       		.uleb128 0x27
 8122 1f54 647400   		.ascii	"dt\000"
ARM GAS  C:\Users\rdn\AppData\Local\Temp\ccYcaPXH.s 			page 179


 8123 1f57 01       		.byte	0x1
 8124 1f58 9303     		.2byte	0x393
 8125 1f5a CA000000 		.4byte	0xca
 8126 1f5e 401D0000 		.4byte	.LLST197
 8127 1f62 27       		.uleb128 0x27
 8128 1f63 737200   		.ascii	"sr\000"
 8129 1f66 01       		.byte	0x1
 8130 1f67 9303     		.2byte	0x393
 8131 1f69 F9000000 		.4byte	0xf9
 8132 1f6d 611D0000 		.4byte	.LLST198
 8133 1f71 28       		.uleb128 0x28
 8134 1f72 DA000000 		.4byte	.LASF139
 8135 1f76 01       		.byte	0x1
 8136 1f77 9303     		.2byte	0x393
 8137 1f79 8E160000 		.4byte	0x168e
 8138 1f7d 821D0000 		.4byte	.LLST199
 8139 1f81 1F       		.uleb128 0x1f
 8140 1f82 0F040000 		.4byte	.LASF145
 8141 1f86 01       		.byte	0x1
 8142 1f87 9503     		.2byte	0x395
 8143 1f89 2C000000 		.4byte	0x2c
 8144 1f8d AE1D0000 		.4byte	.LLST200
 8145 1f91 29       		.uleb128 0x29
 8146 1f92 6E6500   		.ascii	"ne\000"
 8147 1f95 01       		.byte	0x1
 8148 1f96 9603     		.2byte	0x396
 8149 1f98 2C000000 		.4byte	0x2c
 8150 1f9c 2A       		.uleb128 0x2a
 8151 1f9d 17040000 		.4byte	0x417
 8152 1fa1 10000000 		.4byte	.LBB254
 8153 1fa5 70020000 		.4byte	.Ldebug_ranges0+0x270
 8154 1fa9 01       		.byte	0x1
 8155 1faa 9603     		.2byte	0x396
 8156 1fac C31F0000 		.4byte	0x1fc3
 8157 1fb0 1B       		.uleb128 0x1b
 8158 1fb1 31040000 		.4byte	0x431
 8159 1fb5 CC1D0000 		.4byte	.LLST201
 8160 1fb9 1B       		.uleb128 0x1b
 8161 1fba 27040000 		.4byte	0x427
 8162 1fbe DF1D0000 		.4byte	.LLST202
 8163 1fc2 00       		.byte	0
 8164 1fc3 39       		.uleb128 0x39
 8165 1fc4 10000000 		.4byte	.LVL372
 8166 1fc8 3D080000 		.4byte	0x83d
 8167 1fcc D71F0000 		.4byte	0x1fd7
 8168 1fd0 21       		.uleb128 0x21
 8169 1fd1 01       		.uleb128 0x1
 8170 1fd2 50       		.byte	0x50
 8171 1fd3 02       		.uleb128 0x2
 8172 1fd4 77       		.byte	0x77
 8173 1fd5 00       		.sleb128 0
 8174 1fd6 00       		.byte	0
 8175 1fd7 39       		.uleb128 0x39
 8176 1fd8 1E000000 		.4byte	.LVL374
 8177 1fdc 94100000 		.4byte	0x1094
 8178 1fe0 EB1F0000 		.4byte	0x1feb
 8179 1fe4 21       		.uleb128 0x21
ARM GAS  C:\Users\rdn\AppData\Local\Temp\ccYcaPXH.s 			page 180


 8180 1fe5 01       		.uleb128 0x1
 8181 1fe6 50       		.byte	0x50
 8182 1fe7 02       		.uleb128 0x2
 8183 1fe8 76       		.byte	0x76
 8184 1fe9 00       		.sleb128 0
 8185 1fea 00       		.byte	0
 8186 1feb 39       		.uleb128 0x39
 8187 1fec 2A000000 		.4byte	.LVL375
 8188 1ff0 0A110000 		.4byte	0x110a
 8189 1ff4 FF1F0000 		.4byte	0x1fff
 8190 1ff8 21       		.uleb128 0x21
 8191 1ff9 01       		.uleb128 0x1
 8192 1ffa 50       		.byte	0x50
 8193 1ffb 02       		.uleb128 0x2
 8194 1ffc 76       		.byte	0x76
 8195 1ffd 00       		.sleb128 0
 8196 1ffe 00       		.byte	0
 8197 1fff 20       		.uleb128 0x20
 8198 2000 3A000000 		.4byte	.LVL376
 8199 2004 94100000 		.4byte	0x1094
 8200 2008 21       		.uleb128 0x21
 8201 2009 01       		.uleb128 0x1
 8202 200a 50       		.byte	0x50
 8203 200b 02       		.uleb128 0x2
 8204 200c 76       		.byte	0x76
 8205 200d 00       		.sleb128 0
 8206 200e 21       		.uleb128 0x21
 8207 200f 01       		.uleb128 0x1
 8208 2010 51       		.byte	0x51
 8209 2011 01       		.uleb128 0x1
 8210 2012 38       		.byte	0x38
 8211 2013 00       		.byte	0
 8212 2014 00       		.byte	0
 8213 2015 22       		.uleb128 0x22
 8214 2016 08000000 		.4byte	.LASF157
 8215 201a 01       		.byte	0x1
 8216 201b F101     		.2byte	0x1f1
 8217 201d 2C000000 		.4byte	0x2c
 8218 2021 01       		.byte	0x1
 8219 2022 2B210000 		.4byte	0x212b
 8220 2026 24       		.uleb128 0x24
 8221 2027 CB030000 		.4byte	.LASF123
 8222 202b 01       		.byte	0x1
 8223 202c F101     		.2byte	0x1f1
 8224 202e ED0F0000 		.4byte	0xfed
 8225 2032 23       		.uleb128 0x23
 8226 2033 647400   		.ascii	"dt\000"
 8227 2036 01       		.byte	0x1
 8228 2037 F201     		.2byte	0x1f2
 8229 2039 CA000000 		.4byte	0xca
 8230 203d 23       		.uleb128 0x23
 8231 203e 737200   		.ascii	"sr\000"
 8232 2041 01       		.byte	0x1
 8233 2042 F201     		.2byte	0x1f2
 8234 2044 F9000000 		.4byte	0xf9
 8235 2048 24       		.uleb128 0x24
 8236 2049 71040000 		.4byte	.LASF83
ARM GAS  C:\Users\rdn\AppData\Local\Temp\ccYcaPXH.s 			page 181


 8237 204d 01       		.byte	0x1
 8238 204e F201     		.2byte	0x1f2
 8239 2050 2C000000 		.4byte	0x2c
 8240 2054 23       		.uleb128 0x23
 8241 2055 6E7100   		.ascii	"nq\000"
 8242 2058 01       		.byte	0x1
 8243 2059 F301     		.2byte	0x1f3
 8244 205b 2C000000 		.4byte	0x2c
 8245 205f 24       		.uleb128 0x24
 8246 2060 35050000 		.4byte	.LASF79
 8247 2064 01       		.byte	0x1
 8248 2065 F301     		.2byte	0x1f3
 8249 2067 3A010000 		.4byte	0x13a
 8250 206b 23       		.uleb128 0x23
 8251 206c 7800     		.ascii	"x\000"
 8252 206e 01       		.byte	0x1
 8253 206f F301     		.2byte	0x1f3
 8254 2071 CE050000 		.4byte	0x5ce
 8255 2075 24       		.uleb128 0x24
 8256 2076 C6040000 		.4byte	.LASF158
 8257 207a 01       		.byte	0x1
 8258 207b F301     		.2byte	0x1f3
 8259 207d 2B210000 		.4byte	0x212b
 8260 2081 25       		.uleb128 0x25
 8261 2082 1E020000 		.4byte	.LASF96
 8262 2086 01       		.byte	0x1
 8263 2087 F501     		.2byte	0x1f5
 8264 2089 3A010000 		.4byte	0x13a
 8265 208d 29       		.uleb128 0x29
 8266 208e 6E6500   		.ascii	"ne\000"
 8267 2091 01       		.byte	0x1
 8268 2092 F601     		.2byte	0x1f6
 8269 2094 2C000000 		.4byte	0x2c
 8270 2098 25       		.uleb128 0x25
 8271 2099 2B080000 		.4byte	.LASF99
 8272 209d 01       		.byte	0x1
 8273 209e FC01     		.2byte	0x1fc
 8274 20a0 9E000000 		.4byte	0x9e
 8275 20a4 44       		.uleb128 0x44
 8276 20a5 29       		.uleb128 0x29
 8277 20a6 6900     		.ascii	"i\000"
 8278 20a8 01       		.byte	0x1
 8279 20a9 FE01     		.2byte	0x1fe
 8280 20ab 2C000000 		.4byte	0x2c
 8281 20af 29       		.uleb128 0x29
 8282 20b0 6800     		.ascii	"h\000"
 8283 20b2 01       		.byte	0x1
 8284 20b3 FE01     		.2byte	0x1fe
 8285 20b5 2C000000 		.4byte	0x2c
 8286 20b9 44       		.uleb128 0x44
 8287 20ba 25       		.uleb128 0x25
 8288 20bb 08070000 		.4byte	.LASF102
 8289 20bf 01       		.byte	0x1
 8290 20c0 FF01     		.2byte	0x1ff
 8291 20c2 37080000 		.4byte	0x837
 8292 20c6 44       		.uleb128 0x44
 8293 20c7 29       		.uleb128 0x29
ARM GAS  C:\Users\rdn\AppData\Local\Temp\ccYcaPXH.s 			page 182


 8294 20c8 6C757400 		.ascii	"lut\000"
 8295 20cc 01       		.byte	0x1
 8296 20cd 0302     		.2byte	0x203
 8297 20cf F1020000 		.4byte	0x2f1
 8298 20d3 25       		.uleb128 0x25
 8299 20d4 62040000 		.4byte	.LASF159
 8300 20d8 01       		.byte	0x1
 8301 20d9 0402     		.2byte	0x204
 8302 20db 2C000000 		.4byte	0x2c
 8303 20df 29       		.uleb128 0x29
 8304 20e0 7500     		.ascii	"u\000"
 8305 20e2 01       		.byte	0x1
 8306 20e3 0B02     		.2byte	0x20b
 8307 20e5 2C000000 		.4byte	0x2c
 8308 20e9 29       		.uleb128 0x29
 8309 20ea 7600     		.ascii	"v\000"
 8310 20ec 01       		.byte	0x1
 8311 20ed 0B02     		.2byte	0x20b
 8312 20ef 2C000000 		.4byte	0x2c
 8313 20f3 29       		.uleb128 0x29
 8314 20f4 6B00     		.ascii	"k\000"
 8315 20f6 01       		.byte	0x1
 8316 20f7 0C02     		.2byte	0x20c
 8317 20f9 2C000000 		.4byte	0x2c
 8318 20fd 29       		.uleb128 0x29
 8319 20fe 73686C00 		.ascii	"shl\000"
 8320 2102 01       		.byte	0x1
 8321 2103 0C02     		.2byte	0x20c
 8322 2105 2C000000 		.4byte	0x2c
 8323 2109 29       		.uleb128 0x29
 8324 210a 7300     		.ascii	"s\000"
 8325 210c 01       		.byte	0x1
 8326 210d 0E02     		.2byte	0x20e
 8327 210f 33000000 		.4byte	0x33
 8328 2113 29       		.uleb128 0x29
 8329 2114 6100     		.ascii	"a\000"
 8330 2116 01       		.byte	0x1
 8331 2117 2202     		.2byte	0x222
 8332 2119 2C000000 		.4byte	0x2c
 8333 211d 29       		.uleb128 0x29
 8334 211e 6200     		.ascii	"b\000"
 8335 2120 01       		.byte	0x1
 8336 2121 2302     		.2byte	0x223
 8337 2123 2C000000 		.4byte	0x2c
 8338 2127 00       		.byte	0
 8339 2128 00       		.byte	0
 8340 2129 00       		.byte	0
 8341 212a 00       		.byte	0
 8342 212b 0E       		.uleb128 0xe
 8343 212c 04       		.byte	0x4
 8344 212d A9000000 		.4byte	0xa9
 8345 2131 22       		.uleb128 0x22
 8346 2132 78040000 		.4byte	.LASF160
 8347 2136 01       		.byte	0x1
 8348 2137 1103     		.2byte	0x311
 8349 2139 2C000000 		.4byte	0x2c
 8350 213d 01       		.byte	0x1
ARM GAS  C:\Users\rdn\AppData\Local\Temp\ccYcaPXH.s 			page 183


 8351 213e 4F210000 		.4byte	0x214f
 8352 2142 24       		.uleb128 0x24
 8353 2143 CB030000 		.4byte	.LASF123
 8354 2147 01       		.byte	0x1
 8355 2148 1103     		.2byte	0x311
 8356 214a ED0F0000 		.4byte	0xfed
 8357 214e 00       		.byte	0
 8358 214f 48       		.uleb128 0x48
 8359 2150 BB080000 		.4byte	.LASF161
 8360 2154 01       		.byte	0x1
 8361 2155 9E02     		.2byte	0x29e
 8362 2157 01       		.byte	0x1
 8363 2158 B8210000 		.4byte	0x21b8
 8364 215c 24       		.uleb128 0x24
 8365 215d CB030000 		.4byte	.LASF123
 8366 2161 01       		.byte	0x1
 8367 2162 9E02     		.2byte	0x29e
 8368 2164 ED0F0000 		.4byte	0xfed
 8369 2168 24       		.uleb128 0x24
 8370 2169 4A040000 		.4byte	.LASF97
 8371 216d 01       		.byte	0x1
 8372 216e 9F02     		.2byte	0x29f
 8373 2170 2C000000 		.4byte	0x2c
 8374 2174 23       		.uleb128 0x23
 8375 2175 7800     		.ascii	"x\000"
 8376 2177 01       		.byte	0x1
 8377 2178 9F02     		.2byte	0x29f
 8378 217a CE050000 		.4byte	0x5ce
 8379 217e 23       		.uleb128 0x23
 8380 217f 6E7100   		.ascii	"nq\000"
 8381 2182 01       		.byte	0x1
 8382 2183 9F02     		.2byte	0x29f
 8383 2185 2C000000 		.4byte	0x2c
 8384 2189 24       		.uleb128 0x24
 8385 218a C6040000 		.4byte	.LASF158
 8386 218e 01       		.byte	0x1
 8387 218f 9F02     		.2byte	0x29f
 8388 2191 2B210000 		.4byte	0x212b
 8389 2195 44       		.uleb128 0x44
 8390 2196 29       		.uleb128 0x29
 8391 2197 6900     		.ascii	"i\000"
 8392 2199 01       		.byte	0x1
 8393 219a A102     		.2byte	0x2a1
 8394 219c 2C000000 		.4byte	0x2c
 8395 21a0 44       		.uleb128 0x44
 8396 21a1 29       		.uleb128 0x29
 8397 21a2 6100     		.ascii	"a\000"
 8398 21a4 01       		.byte	0x1
 8399 21a5 A302     		.2byte	0x2a3
 8400 21a7 25000000 		.4byte	0x25
 8401 21ab 29       		.uleb128 0x29
 8402 21ac 6200     		.ascii	"b\000"
 8403 21ae 01       		.byte	0x1
 8404 21af A302     		.2byte	0x2a3
 8405 21b1 25000000 		.4byte	0x25
 8406 21b5 00       		.byte	0
 8407 21b6 00       		.byte	0
ARM GAS  C:\Users\rdn\AppData\Local\Temp\ccYcaPXH.s 			page 184


 8408 21b7 00       		.byte	0
 8409 21b8 48       		.uleb128 0x48
 8410 21b9 DE070000 		.4byte	.LASF162
 8411 21bd 01       		.byte	0x1
 8412 21be 5D02     		.2byte	0x25d
 8413 21c0 01       		.byte	0x1
 8414 21c1 30220000 		.4byte	0x2230
 8415 21c5 24       		.uleb128 0x24
 8416 21c6 CB030000 		.4byte	.LASF123
 8417 21ca 01       		.byte	0x1
 8418 21cb 5D02     		.2byte	0x25d
 8419 21cd ED0F0000 		.4byte	0xfed
 8420 21d1 24       		.uleb128 0x24
 8421 21d2 4A040000 		.4byte	.LASF97
 8422 21d6 01       		.byte	0x1
 8423 21d7 5E02     		.2byte	0x25e
 8424 21d9 2C000000 		.4byte	0x2c
 8425 21dd 24       		.uleb128 0x24
 8426 21de D0030000 		.4byte	.LASF149
 8427 21e2 01       		.byte	0x1
 8428 21e3 5E02     		.2byte	0x25e
 8429 21e5 3A010000 		.4byte	0x13a
 8430 21e9 23       		.uleb128 0x23
 8431 21ea 7800     		.ascii	"x\000"
 8432 21ec 01       		.byte	0x1
 8433 21ed 5E02     		.2byte	0x25e
 8434 21ef CE050000 		.4byte	0x5ce
 8435 21f3 23       		.uleb128 0x23
 8436 21f4 6E00     		.ascii	"n\000"
 8437 21f6 01       		.byte	0x1
 8438 21f7 5E02     		.2byte	0x25e
 8439 21f9 2C000000 		.4byte	0x2c
 8440 21fd 25       		.uleb128 0x25
 8441 21fe 0F030000 		.4byte	.LASF163
 8442 2202 01       		.byte	0x1
 8443 2203 6002     		.2byte	0x260
 8444 2205 25000000 		.4byte	0x25
 8445 2209 25       		.uleb128 0x25
 8446 220a 18030000 		.4byte	.LASF164
 8447 220e 01       		.byte	0x1
 8448 220f 6102     		.2byte	0x261
 8449 2211 25000000 		.4byte	0x25
 8450 2215 44       		.uleb128 0x44
 8451 2216 25       		.uleb128 0x25
 8452 2217 37080000 		.4byte	.LASF154
 8453 221b 01       		.byte	0x1
 8454 221c 6302     		.2byte	0x263
 8455 221e 2C000000 		.4byte	0x2c
 8456 2222 44       		.uleb128 0x44
 8457 2223 29       		.uleb128 0x29
 8458 2224 6900     		.ascii	"i\000"
 8459 2226 01       		.byte	0x1
 8460 2227 6402     		.2byte	0x264
 8461 2229 2C000000 		.4byte	0x2c
 8462 222d 00       		.byte	0
 8463 222e 00       		.byte	0
 8464 222f 00       		.byte	0
ARM GAS  C:\Users\rdn\AppData\Local\Temp\ccYcaPXH.s 			page 185


 8465 2230 22       		.uleb128 0x22
 8466 2231 59080000 		.4byte	.LASF165
 8467 2235 01       		.byte	0x1
 8468 2236 1501     		.2byte	0x115
 8469 2238 25000000 		.4byte	0x25
 8470 223c 01       		.byte	0x1
 8471 223d 98220000 		.4byte	0x2298
 8472 2241 23       		.uleb128 0x23
 8473 2242 647400   		.ascii	"dt\000"
 8474 2245 01       		.byte	0x1
 8475 2246 1601     		.2byte	0x116
 8476 2248 CA000000 		.4byte	0xca
 8477 224c 23       		.uleb128 0x23
 8478 224d 737200   		.ascii	"sr\000"
 8479 2250 01       		.byte	0x1
 8480 2251 1601     		.2byte	0x116
 8481 2253 F9000000 		.4byte	0xf9
 8482 2257 24       		.uleb128 0x24
 8483 2258 F6070000 		.4byte	.LASF88
 8484 225c 01       		.byte	0x1
 8485 225d 1701     		.2byte	0x117
 8486 225f 2C000000 		.4byte	0x2c
 8487 2263 23       		.uleb128 0x23
 8488 2264 7800     		.ascii	"x\000"
 8489 2266 01       		.byte	0x1
 8490 2267 1701     		.2byte	0x117
 8491 2269 CE050000 		.4byte	0x5ce
 8492 226d 23       		.uleb128 0x23
 8493 226e 6E7100   		.ascii	"nq\000"
 8494 2271 01       		.byte	0x1
 8495 2272 1701     		.2byte	0x117
 8496 2274 2C000000 		.4byte	0x2c
 8497 2278 29       		.uleb128 0x29
 8498 2279 6700     		.ascii	"g\000"
 8499 227b 01       		.byte	0x1
 8500 227c 1901     		.2byte	0x119
 8501 227e 25000000 		.4byte	0x25
 8502 2282 29       		.uleb128 0x29
 8503 2283 6900     		.ascii	"i\000"
 8504 2285 01       		.byte	0x1
 8505 2286 1A01     		.2byte	0x11a
 8506 2288 2C000000 		.4byte	0x2c
 8507 228c 29       		.uleb128 0x29
 8508 228d 6E6500   		.ascii	"ne\000"
 8509 2290 01       		.byte	0x1
 8510 2291 1A01     		.2byte	0x11a
 8511 2293 2C000000 		.4byte	0x2c
 8512 2297 00       		.byte	0
 8513 2298 48       		.uleb128 0x48
 8514 2299 FC010000 		.4byte	.LASF166
 8515 229d 01       		.byte	0x1
 8516 229e EA02     		.2byte	0x2ea
 8517 22a0 01       		.byte	0x1
 8518 22a1 26230000 		.4byte	0x2326
 8519 22a5 23       		.uleb128 0x23
 8520 22a6 647400   		.ascii	"dt\000"
 8521 22a9 01       		.byte	0x1
ARM GAS  C:\Users\rdn\AppData\Local\Temp\ccYcaPXH.s 			page 186


 8522 22aa EA02     		.2byte	0x2ea
 8523 22ac CA000000 		.4byte	0xca
 8524 22b0 23       		.uleb128 0x23
 8525 22b1 627700   		.ascii	"bw\000"
 8526 22b4 01       		.byte	0x1
 8527 22b5 EA02     		.2byte	0x2ea
 8528 22b7 82010000 		.4byte	0x182
 8529 22bb 23       		.uleb128 0x23
 8530 22bc 6E6600   		.ascii	"nf\000"
 8531 22bf 01       		.byte	0x1
 8532 22c0 EB02     		.2byte	0x2eb
 8533 22c2 2C000000 		.4byte	0x2c
 8534 22c6 24       		.uleb128 0x24
 8535 22c7 C6040000 		.4byte	.LASF158
 8536 22cb 01       		.byte	0x1
 8537 22cc EB02     		.2byte	0x2eb
 8538 22ce A9000000 		.4byte	0xa9
 8539 22d2 23       		.uleb128 0x23
 8540 22d3 6700     		.ascii	"g\000"
 8541 22d5 01       		.byte	0x1
 8542 22d6 EB02     		.2byte	0x2eb
 8543 22d8 25000000 		.4byte	0x25
 8544 22dc 23       		.uleb128 0x23
 8545 22dd 7800     		.ascii	"x\000"
 8546 22df 01       		.byte	0x1
 8547 22e0 EB02     		.2byte	0x2eb
 8548 22e2 CE050000 		.4byte	0x5ce
 8549 22e6 23       		.uleb128 0x23
 8550 22e7 6E7100   		.ascii	"nq\000"
 8551 22ea 01       		.byte	0x1
 8552 22eb EB02     		.2byte	0x2eb
 8553 22ed 2C000000 		.4byte	0x2c
 8554 22f1 25       		.uleb128 0x25
 8555 22f2 10080000 		.4byte	.LASF150
 8556 22f6 01       		.byte	0x1
 8557 22f7 ED02     		.2byte	0x2ed
 8558 22f9 2C000000 		.4byte	0x2c
 8559 22fd 29       		.uleb128 0x29
 8560 22fe 7700     		.ascii	"w\000"
 8561 2300 01       		.byte	0x1
 8562 2301 EE02     		.2byte	0x2ee
 8563 2303 2C000000 		.4byte	0x2c
 8564 2307 29       		.uleb128 0x29
 8565 2308 7300     		.ascii	"s\000"
 8566 230a 01       		.byte	0x1
 8567 230b F002     		.2byte	0x2f0
 8568 230d 25000000 		.4byte	0x25
 8569 2311 29       		.uleb128 0x29
 8570 2312 6900     		.ascii	"i\000"
 8571 2314 01       		.byte	0x1
 8572 2315 F102     		.2byte	0x2f1
 8573 2317 2C000000 		.4byte	0x2c
 8574 231b 29       		.uleb128 0x29
 8575 231c 7A00     		.ascii	"z\000"
 8576 231e 01       		.byte	0x1
 8577 231f F102     		.2byte	0x2f1
 8578 2321 2C000000 		.4byte	0x2c
ARM GAS  C:\Users\rdn\AppData\Local\Temp\ccYcaPXH.s 			page 187


 8579 2325 00       		.byte	0
 8580 2326 4C       		.uleb128 0x4c
 8581 2327 18010000 		.4byte	.LASF168
 8582 232b 01       		.byte	0x1
 8583 232c A203     		.2byte	0x3a2
 8584 232e 2C000000 		.4byte	0x2c
 8585 2332 00000000 		.4byte	.LFB44
 8586 2336 54050000 		.4byte	.LFE44-.LFB44
 8587 233a 01       		.uleb128 0x1
 8588 233b 9C       		.byte	0x9c
 8589 233c E8280000 		.4byte	0x28e8
 8590 2340 28       		.uleb128 0x28
 8591 2341 CB030000 		.4byte	.LASF123
 8592 2345 01       		.byte	0x1
 8593 2346 A203     		.2byte	0x3a2
 8594 2348 ED0F0000 		.4byte	0xfed
 8595 234c F21D0000 		.4byte	.LLST203
 8596 2350 27       		.uleb128 0x27
 8597 2351 647400   		.ascii	"dt\000"
 8598 2354 01       		.byte	0x1
 8599 2355 A303     		.2byte	0x3a3
 8600 2357 CA000000 		.4byte	0xca
 8601 235b 371E0000 		.4byte	.LLST204
 8602 235f 27       		.uleb128 0x27
 8603 2360 737200   		.ascii	"sr\000"
 8604 2363 01       		.byte	0x1
 8605 2364 A303     		.2byte	0x3a3
 8606 2366 F9000000 		.4byte	0xf9
 8607 236a 581E0000 		.4byte	.LLST205
 8608 236e 27       		.uleb128 0x27
 8609 236f 627700   		.ascii	"bw\000"
 8610 2372 01       		.byte	0x1
 8611 2373 A303     		.2byte	0x3a3
 8612 2375 82010000 		.4byte	0x182
 8613 2379 791E0000 		.4byte	.LLST206
 8614 237d 49       		.uleb128 0x49
 8615 237e 71040000 		.4byte	.LASF83
 8616 2382 01       		.byte	0x1
 8617 2383 A403     		.2byte	0x3a4
 8618 2385 2C000000 		.4byte	0x2c
 8619 2389 02       		.uleb128 0x2
 8620 238a 91       		.byte	0x91
 8621 238b 00       		.sleb128 0
 8622 238c 49       		.uleb128 0x49
 8623 238d DA000000 		.4byte	.LASF139
 8624 2391 01       		.byte	0x1
 8625 2392 A403     		.2byte	0x3a4
 8626 2394 1E1F0000 		.4byte	0x1f1e
 8627 2398 02       		.uleb128 0x2
 8628 2399 91       		.byte	0x91
 8629 239a 04       		.sleb128 4
 8630 239b 2E       		.uleb128 0x2e
 8631 239c 7800     		.ascii	"x\000"
 8632 239e 01       		.byte	0x1
 8633 239f A403     		.2byte	0x3a4
 8634 23a1 CE050000 		.4byte	0x5ce
 8635 23a5 02       		.uleb128 0x2
ARM GAS  C:\Users\rdn\AppData\Local\Temp\ccYcaPXH.s 			page 188


 8636 23a6 91       		.byte	0x91
 8637 23a7 08       		.sleb128 8
 8638 23a8 46       		.uleb128 0x46
 8639 23a9 35050000 		.4byte	.LASF79
 8640 23ad 01       		.byte	0x1
 8641 23ae A603     		.2byte	0x3a6
 8642 23b0 3A010000 		.4byte	0x13a
 8643 23b4 03       		.uleb128 0x3
 8644 23b5 91       		.byte	0x91
 8645 23b6 9C7F     		.sleb128 -100
 8646 23b8 1D       		.uleb128 0x1d
 8647 23b9 6E7100   		.ascii	"nq\000"
 8648 23bc 01       		.byte	0x1
 8649 23bd A703     		.2byte	0x3a7
 8650 23bf 2C000000 		.4byte	0x2c
 8651 23c3 9A1E0000 		.4byte	.LLST207
 8652 23c7 1D       		.uleb128 0x1d
 8653 23c8 72657400 		.ascii	"ret\000"
 8654 23cc 01       		.byte	0x1
 8655 23cd A803     		.2byte	0x3a8
 8656 23cf 2C000000 		.4byte	0x2c
 8657 23d3 C61E0000 		.4byte	.LLST208
 8658 23d7 29       		.uleb128 0x29
 8659 23d8 6E6600   		.ascii	"nf\000"
 8660 23db 01       		.byte	0x1
 8661 23dc AA03     		.2byte	0x3aa
 8662 23de 2C000000 		.4byte	0x2c
 8663 23e2 1F       		.uleb128 0x1f
 8664 23e3 C6040000 		.4byte	.LASF158
 8665 23e7 01       		.byte	0x1
 8666 23e8 AB03     		.2byte	0x3ab
 8667 23ea A9000000 		.4byte	0xa9
 8668 23ee E61E0000 		.4byte	.LLST209
 8669 23f2 1F       		.uleb128 0x1f
 8670 23f3 3C080000 		.4byte	.LASF156
 8671 23f7 01       		.byte	0x1
 8672 23f8 B103     		.2byte	0x3b1
 8673 23fa 2C000000 		.4byte	0x2c
 8674 23fe 521F0000 		.4byte	.LLST210
 8675 2402 1F       		.uleb128 0x1f
 8676 2403 F6070000 		.4byte	.LASF88
 8677 2407 01       		.byte	0x1
 8678 2408 B803     		.2byte	0x3b8
 8679 240a 2C000000 		.4byte	0x2c
 8680 240e 701F0000 		.4byte	.LLST211
 8681 2412 4D       		.uleb128 0x4d
 8682 2413 6700     		.ascii	"g\000"
 8683 2415 01       		.byte	0x1
 8684 2416 B903     		.2byte	0x3b9
 8685 2418 25000000 		.4byte	0x25
 8686 241c 02       		.uleb128 0x2
 8687 241d 90       		.byte	0x90
 8688 241e 40       		.uleb128 0x40
 8689 241f 2A       		.uleb128 0x2a
 8690 2420 31210000 		.4byte	0x2131
 8691 2424 20000000 		.4byte	.LBB289
 8692 2428 90020000 		.4byte	.Ldebug_ranges0+0x290
ARM GAS  C:\Users\rdn\AppData\Local\Temp\ccYcaPXH.s 			page 189


 8693 242c 01       		.byte	0x1
 8694 242d AA03     		.2byte	0x3aa
 8695 242f 52240000 		.4byte	0x2452
 8696 2433 1B       		.uleb128 0x1b
 8697 2434 42210000 		.4byte	0x2142
 8698 2438 931F0000 		.4byte	.LLST212
 8699 243c 20       		.uleb128 0x20
 8700 243d 28000000 		.4byte	.LVL385
 8701 2441 94100000 		.4byte	0x1094
 8702 2445 21       		.uleb128 0x21
 8703 2446 01       		.uleb128 0x1
 8704 2447 50       		.byte	0x50
 8705 2448 02       		.uleb128 0x2
 8706 2449 76       		.byte	0x76
 8707 244a 00       		.sleb128 0
 8708 244b 21       		.uleb128 0x21
 8709 244c 01       		.uleb128 0x1
 8710 244d 51       		.byte	0x51
 8711 244e 01       		.uleb128 0x1
 8712 244f 33       		.byte	0x33
 8713 2450 00       		.byte	0
 8714 2451 00       		.byte	0
 8715 2452 2A       		.uleb128 0x2a
 8716 2453 15200000 		.4byte	0x2015
 8717 2457 28000000 		.4byte	.LBB294
 8718 245b B0020000 		.4byte	.Ldebug_ranges0+0x2b0
 8719 245f 01       		.byte	0x1
 8720 2460 AD03     		.2byte	0x3ad
 8721 2462 2A260000 		.4byte	0x262a
 8722 2466 1B       		.uleb128 0x1b
 8723 2467 75200000 		.4byte	0x2075
 8724 246b B11F0000 		.4byte	.LLST213
 8725 246f 1B       		.uleb128 0x1b
 8726 2470 6B200000 		.4byte	0x206b
 8727 2474 D91F0000 		.4byte	.LLST214
 8728 2478 1B       		.uleb128 0x1b
 8729 2479 5F200000 		.4byte	0x205f
 8730 247d F71F0000 		.4byte	.LLST215
 8731 2481 1B       		.uleb128 0x1b
 8732 2482 54200000 		.4byte	0x2054
 8733 2486 19200000 		.4byte	.LLST216
 8734 248a 1B       		.uleb128 0x1b
 8735 248b 48200000 		.4byte	0x2048
 8736 248f 39200000 		.4byte	.LLST217
 8737 2493 1B       		.uleb128 0x1b
 8738 2494 3D200000 		.4byte	0x203d
 8739 2498 64200000 		.4byte	.LLST218
 8740 249c 1B       		.uleb128 0x1b
 8741 249d 32200000 		.4byte	0x2032
 8742 24a1 82200000 		.4byte	.LLST219
 8743 24a5 1B       		.uleb128 0x1b
 8744 24a6 26200000 		.4byte	0x2026
 8745 24aa A4200000 		.4byte	.LLST220
 8746 24ae 2B       		.uleb128 0x2b
 8747 24af B0020000 		.4byte	.Ldebug_ranges0+0x2b0
 8748 24b3 3D       		.uleb128 0x3d
 8749 24b4 81200000 		.4byte	0x2081
ARM GAS  C:\Users\rdn\AppData\Local\Temp\ccYcaPXH.s 			page 190


 8750 24b8 3D       		.uleb128 0x3d
 8751 24b9 8D200000 		.4byte	0x208d
 8752 24bd 2C       		.uleb128 0x2c
 8753 24be 98200000 		.4byte	0x2098
 8754 24c2 C2200000 		.4byte	.LLST221
 8755 24c6 2A       		.uleb128 0x2a
 8756 24c7 DA050000 		.4byte	0x5da
 8757 24cb 28000000 		.4byte	.LBB296
 8758 24cf D0020000 		.4byte	.Ldebug_ranges0+0x2d0
 8759 24d3 01       		.byte	0x1
 8760 24d4 F501     		.2byte	0x1f5
 8761 24d6 03250000 		.4byte	0x2503
 8762 24da 1B       		.uleb128 0x1b
 8763 24db 02060000 		.4byte	0x602
 8764 24df F7200000 		.4byte	.LLST222
 8765 24e3 1B       		.uleb128 0x1b
 8766 24e4 F6050000 		.4byte	0x5f6
 8767 24e8 0B210000 		.4byte	.LLST223
 8768 24ec 1B       		.uleb128 0x1b
 8769 24ed EB050000 		.4byte	0x5eb
 8770 24f1 1E210000 		.4byte	.LLST224
 8771 24f5 2B       		.uleb128 0x2b
 8772 24f6 D0020000 		.4byte	.Ldebug_ranges0+0x2d0
 8773 24fa 3C       		.uleb128 0x3c
 8774 24fb 0E060000 		.4byte	0x60e
 8775 24ff 01       		.uleb128 0x1
 8776 2500 52       		.byte	0x52
 8777 2501 00       		.byte	0
 8778 2502 00       		.byte	0
 8779 2503 2A       		.uleb128 0x2a
 8780 2504 17040000 		.4byte	0x417
 8781 2508 50000000 		.4byte	.LBB300
 8782 250c E8020000 		.4byte	.Ldebug_ranges0+0x2e8
 8783 2510 01       		.byte	0x1
 8784 2511 F601     		.2byte	0x1f6
 8785 2513 2A250000 		.4byte	0x252a
 8786 2517 1B       		.uleb128 0x1b
 8787 2518 31040000 		.4byte	0x431
 8788 251c 31210000 		.4byte	.LLST225
 8789 2520 1B       		.uleb128 0x1b
 8790 2521 27040000 		.4byte	0x427
 8791 2525 44210000 		.4byte	.LLST226
 8792 2529 00       		.byte	0
 8793 252a 2B       		.uleb128 0x2b
 8794 252b 00030000 		.4byte	.Ldebug_ranges0+0x300
 8795 252f 2C       		.uleb128 0x2c
 8796 2530 A5200000 		.4byte	0x20a5
 8797 2534 59210000 		.4byte	.LLST227
 8798 2538 2C       		.uleb128 0x2c
 8799 2539 AF200000 		.4byte	0x20af
 8800 253d AC210000 		.4byte	.LLST228
 8801 2541 2B       		.uleb128 0x2b
 8802 2542 20030000 		.4byte	.Ldebug_ranges0+0x320
 8803 2546 3D       		.uleb128 0x3d
 8804 2547 BA200000 		.4byte	0x20ba
 8805 254b 2B       		.uleb128 0x2b
 8806 254c 38030000 		.4byte	.Ldebug_ranges0+0x338
ARM GAS  C:\Users\rdn\AppData\Local\Temp\ccYcaPXH.s 			page 191


 8807 2550 2C       		.uleb128 0x2c
 8808 2551 C7200000 		.4byte	0x20c7
 8809 2555 E5210000 		.4byte	.LLST229
 8810 2559 3D       		.uleb128 0x3d
 8811 255a D3200000 		.4byte	0x20d3
 8812 255e 2C       		.uleb128 0x2c
 8813 255f DF200000 		.4byte	0x20df
 8814 2563 12220000 		.4byte	.LLST230
 8815 2567 2C       		.uleb128 0x2c
 8816 2568 E9200000 		.4byte	0x20e9
 8817 256c 93220000 		.4byte	.LLST231
 8818 2570 2C       		.uleb128 0x2c
 8819 2571 F3200000 		.4byte	0x20f3
 8820 2575 C9220000 		.4byte	.LLST232
 8821 2579 2C       		.uleb128 0x2c
 8822 257a FD200000 		.4byte	0x20fd
 8823 257e 3A230000 		.4byte	.LLST233
 8824 2582 2C       		.uleb128 0x2c
 8825 2583 09210000 		.4byte	0x2109
 8826 2587 A0230000 		.4byte	.LLST234
 8827 258b 2C       		.uleb128 0x2c
 8828 258c 13210000 		.4byte	0x2113
 8829 2590 D4230000 		.4byte	.LLST235
 8830 2594 2C       		.uleb128 0x2c
 8831 2595 1D210000 		.4byte	0x211d
 8832 2599 F4230000 		.4byte	.LLST236
 8833 259d 39       		.uleb128 0x39
 8834 259e D0000000 		.4byte	.LVL395
 8835 25a2 49110000 		.4byte	0x1149
 8836 25a6 B1250000 		.4byte	0x25b1
 8837 25aa 21       		.uleb128 0x21
 8838 25ab 01       		.uleb128 0x1
 8839 25ac 50       		.byte	0x50
 8840 25ad 02       		.uleb128 0x2
 8841 25ae 76       		.byte	0x76
 8842 25af 00       		.sleb128 0
 8843 25b0 00       		.byte	0
 8844 25b1 39       		.uleb128 0x39
 8845 25b2 EE000000 		.4byte	.LVL398
 8846 25b6 49110000 		.4byte	0x1149
 8847 25ba C5250000 		.4byte	0x25c5
 8848 25be 21       		.uleb128 0x21
 8849 25bf 01       		.uleb128 0x1
 8850 25c0 50       		.byte	0x50
 8851 25c1 02       		.uleb128 0x2
 8852 25c2 76       		.byte	0x76
 8853 25c3 00       		.sleb128 0
 8854 25c4 00       		.byte	0
 8855 25c5 39       		.uleb128 0x39
 8856 25c6 12010000 		.4byte	.LVL403
 8857 25ca 0A110000 		.4byte	0x110a
 8858 25ce D9250000 		.4byte	0x25d9
 8859 25d2 21       		.uleb128 0x21
 8860 25d3 01       		.uleb128 0x1
 8861 25d4 50       		.byte	0x50
 8862 25d5 02       		.uleb128 0x2
 8863 25d6 76       		.byte	0x76
ARM GAS  C:\Users\rdn\AppData\Local\Temp\ccYcaPXH.s 			page 192


 8864 25d7 00       		.sleb128 0
 8865 25d8 00       		.byte	0
 8866 25d9 39       		.uleb128 0x39
 8867 25da 28010000 		.4byte	.LVL406
 8868 25de 0A110000 		.4byte	0x110a
 8869 25e2 ED250000 		.4byte	0x25ed
 8870 25e6 21       		.uleb128 0x21
 8871 25e7 01       		.uleb128 0x1
 8872 25e8 50       		.byte	0x50
 8873 25e9 02       		.uleb128 0x2
 8874 25ea 76       		.byte	0x76
 8875 25eb 00       		.sleb128 0
 8876 25ec 00       		.byte	0
 8877 25ed 39       		.uleb128 0x39
 8878 25ee 42010000 		.4byte	.LVL408
 8879 25f2 49110000 		.4byte	0x1149
 8880 25f6 01260000 		.4byte	0x2601
 8881 25fa 21       		.uleb128 0x21
 8882 25fb 01       		.uleb128 0x1
 8883 25fc 50       		.byte	0x50
 8884 25fd 02       		.uleb128 0x2
 8885 25fe 76       		.byte	0x76
 8886 25ff 00       		.sleb128 0
 8887 2600 00       		.byte	0
 8888 2601 39       		.uleb128 0x39
 8889 2602 BC040000 		.4byte	.LVL491
 8890 2606 0A110000 		.4byte	0x110a
 8891 260a 15260000 		.4byte	0x2615
 8892 260e 21       		.uleb128 0x21
 8893 260f 01       		.uleb128 0x1
 8894 2610 50       		.byte	0x50
 8895 2611 02       		.uleb128 0x2
 8896 2612 76       		.byte	0x76
 8897 2613 00       		.sleb128 0
 8898 2614 00       		.byte	0
 8899 2615 20       		.uleb128 0x20
 8900 2616 DE040000 		.4byte	.LVL492
 8901 261a 0A110000 		.4byte	0x110a
 8902 261e 21       		.uleb128 0x21
 8903 261f 01       		.uleb128 0x1
 8904 2620 50       		.byte	0x50
 8905 2621 02       		.uleb128 0x2
 8906 2622 76       		.byte	0x76
 8907 2623 00       		.sleb128 0
 8908 2624 00       		.byte	0
 8909 2625 00       		.byte	0
 8910 2626 00       		.byte	0
 8911 2627 00       		.byte	0
 8912 2628 00       		.byte	0
 8913 2629 00       		.byte	0
 8914 262a 2D       		.uleb128 0x2d
 8915 262b 4F210000 		.4byte	0x214f
 8916 262f 6E010000 		.4byte	.LBB316
 8917 2633 10010000 		.4byte	.LBE316-.LBB316
 8918 2637 01       		.byte	0x1
 8919 2638 B403     		.2byte	0x3b4
 8920 263a EF260000 		.4byte	0x26ef
ARM GAS  C:\Users\rdn\AppData\Local\Temp\ccYcaPXH.s 			page 193


 8921 263e 4A       		.uleb128 0x4a
 8922 263f 89210000 		.4byte	0x2189
 8923 2643 4A       		.uleb128 0x4a
 8924 2644 7E210000 		.4byte	0x217e
 8925 2648 4A       		.uleb128 0x4a
 8926 2649 74210000 		.4byte	0x2174
 8927 264d 1B       		.uleb128 0x1b
 8928 264e 68210000 		.4byte	0x2168
 8929 2652 14240000 		.4byte	.LLST237
 8930 2656 4A       		.uleb128 0x4a
 8931 2657 5C210000 		.4byte	0x215c
 8932 265b 1E       		.uleb128 0x1e
 8933 265c 6E010000 		.4byte	.LBB317
 8934 2660 10010000 		.4byte	.LBE317-.LBB317
 8935 2664 2C       		.uleb128 0x2c
 8936 2665 96210000 		.4byte	0x2196
 8937 2669 69240000 		.4byte	.LLST238
 8938 266d 2B       		.uleb128 0x2b
 8939 266e 58030000 		.4byte	.Ldebug_ranges0+0x358
 8940 2672 2C       		.uleb128 0x2c
 8941 2673 A1210000 		.4byte	0x21a1
 8942 2677 7C240000 		.4byte	.LLST239
 8943 267b 2C       		.uleb128 0x2c
 8944 267c AB210000 		.4byte	0x21ab
 8945 2680 90240000 		.4byte	.LLST240
 8946 2684 39       		.uleb128 0x39
 8947 2685 A0010000 		.4byte	.LVL422
 8948 2689 D7290000 		.4byte	0x29d7
 8949 268d A0260000 		.4byte	0x26a0
 8950 2691 21       		.uleb128 0x21
 8951 2692 01       		.uleb128 0x1
 8952 2693 50       		.byte	0x50
 8953 2694 03       		.uleb128 0x3
 8954 2695 F5       		.byte	0xf5
 8955 2696 52       		.uleb128 0x52
 8956 2697 25       		.uleb128 0x25
 8957 2698 21       		.uleb128 0x21
 8958 2699 01       		.uleb128 0x1
 8959 269a 51       		.byte	0x51
 8960 269b 03       		.uleb128 0x3
 8961 269c F5       		.byte	0xf5
 8962 269d 51       		.uleb128 0x51
 8963 269e 25       		.uleb128 0x25
 8964 269f 00       		.byte	0
 8965 26a0 39       		.uleb128 0x39
 8966 26a1 B8010000 		.4byte	.LVL424
 8967 26a5 0A110000 		.4byte	0x110a
 8968 26a9 B4260000 		.4byte	0x26b4
 8969 26ad 21       		.uleb128 0x21
 8970 26ae 01       		.uleb128 0x1
 8971 26af 50       		.byte	0x50
 8972 26b0 02       		.uleb128 0x2
 8973 26b1 76       		.byte	0x76
 8974 26b2 00       		.sleb128 0
 8975 26b3 00       		.byte	0
 8976 26b4 39       		.uleb128 0x39
 8977 26b5 F6010000 		.4byte	.LVL428
ARM GAS  C:\Users\rdn\AppData\Local\Temp\ccYcaPXH.s 			page 194


 8978 26b9 0A110000 		.4byte	0x110a
 8979 26bd C8260000 		.4byte	0x26c8
 8980 26c1 21       		.uleb128 0x21
 8981 26c2 01       		.uleb128 0x1
 8982 26c3 50       		.byte	0x50
 8983 26c4 02       		.uleb128 0x2
 8984 26c5 76       		.byte	0x76
 8985 26c6 00       		.sleb128 0
 8986 26c7 00       		.byte	0
 8987 26c8 39       		.uleb128 0x39
 8988 26c9 1C020000 		.4byte	.LVL433
 8989 26cd 0A110000 		.4byte	0x110a
 8990 26d1 DC260000 		.4byte	0x26dc
 8991 26d5 21       		.uleb128 0x21
 8992 26d6 01       		.uleb128 0x1
 8993 26d7 50       		.byte	0x50
 8994 26d8 02       		.uleb128 0x2
 8995 26d9 76       		.byte	0x76
 8996 26da 00       		.sleb128 0
 8997 26db 00       		.byte	0
 8998 26dc 20       		.uleb128 0x20
 8999 26dd 5C020000 		.4byte	.LVL437
 9000 26e1 0A110000 		.4byte	0x110a
 9001 26e5 21       		.uleb128 0x21
 9002 26e6 01       		.uleb128 0x1
 9003 26e7 50       		.byte	0x50
 9004 26e8 02       		.uleb128 0x2
 9005 26e9 76       		.byte	0x76
 9006 26ea 00       		.sleb128 0
 9007 26eb 00       		.byte	0
 9008 26ec 00       		.byte	0
 9009 26ed 00       		.byte	0
 9010 26ee 00       		.byte	0
 9011 26ef 2D       		.uleb128 0x2d
 9012 26f0 B8210000 		.4byte	0x21b8
 9013 26f4 7E020000 		.4byte	.LBB320
 9014 26f8 A2000000 		.4byte	.LBE320-.LBB320
 9015 26fc 01       		.byte	0x1
 9016 26fd B603     		.2byte	0x3b6
 9017 26ff 7F270000 		.4byte	0x277f
 9018 2703 1B       		.uleb128 0x1b
 9019 2704 F3210000 		.4byte	0x21f3
 9020 2708 A4240000 		.4byte	.LLST241
 9021 270c 1B       		.uleb128 0x1b
 9022 270d E9210000 		.4byte	0x21e9
 9023 2711 B8240000 		.4byte	.LLST242
 9024 2715 1B       		.uleb128 0x1b
 9025 2716 DD210000 		.4byte	0x21dd
 9026 271a CB240000 		.4byte	.LLST243
 9027 271e 1B       		.uleb128 0x1b
 9028 271f D1210000 		.4byte	0x21d1
 9029 2723 E5240000 		.4byte	.LLST244
 9030 2727 1B       		.uleb128 0x1b
 9031 2728 C5210000 		.4byte	0x21c5
 9032 272c 03250000 		.4byte	.LLST245
 9033 2730 1E       		.uleb128 0x1e
 9034 2731 7E020000 		.4byte	.LBB321
ARM GAS  C:\Users\rdn\AppData\Local\Temp\ccYcaPXH.s 			page 195


 9035 2735 A2000000 		.4byte	.LBE321-.LBB321
 9036 2739 2C       		.uleb128 0x2c
 9037 273a FD210000 		.4byte	0x21fd
 9038 273e 16250000 		.4byte	.LLST246
 9039 2742 2C       		.uleb128 0x2c
 9040 2743 09220000 		.4byte	0x2209
 9041 2747 2A250000 		.4byte	.LLST247
 9042 274b 1E       		.uleb128 0x1e
 9043 274c 9E020000 		.4byte	.LBB322
 9044 2750 82000000 		.4byte	.LBE322-.LBB322
 9045 2754 2C       		.uleb128 0x2c
 9046 2755 16220000 		.4byte	0x2216
 9047 2759 3E250000 		.4byte	.LLST248
 9048 275d 2B       		.uleb128 0x2b
 9049 275e 70030000 		.4byte	.Ldebug_ranges0+0x370
 9050 2762 2C       		.uleb128 0x2c
 9051 2763 23220000 		.4byte	0x2223
 9052 2767 75250000 		.4byte	.LLST249
 9053 276b 20       		.uleb128 0x20
 9054 276c E2020000 		.4byte	.LVL449
 9055 2770 0A110000 		.4byte	0x110a
 9056 2774 21       		.uleb128 0x21
 9057 2775 01       		.uleb128 0x1
 9058 2776 50       		.byte	0x50
 9059 2777 02       		.uleb128 0x2
 9060 2778 76       		.byte	0x76
 9061 2779 00       		.sleb128 0
 9062 277a 00       		.byte	0
 9063 277b 00       		.byte	0
 9064 277c 00       		.byte	0
 9065 277d 00       		.byte	0
 9066 277e 00       		.byte	0
 9067 277f 2D       		.uleb128 0x2d
 9068 2780 30220000 		.4byte	0x2230
 9069 2784 2C030000 		.4byte	.LBB325
 9070 2788 50000000 		.4byte	.LBE325-.LBB325
 9071 278c 01       		.byte	0x1
 9072 278d B903     		.2byte	0x3b9
 9073 278f 12280000 		.4byte	0x2812
 9074 2793 1B       		.uleb128 0x1b
 9075 2794 6D220000 		.4byte	0x226d
 9076 2798 88250000 		.4byte	.LLST250
 9077 279c 1B       		.uleb128 0x1b
 9078 279d 63220000 		.4byte	0x2263
 9079 27a1 9C250000 		.4byte	.LLST251
 9080 27a5 1B       		.uleb128 0x1b
 9081 27a6 57220000 		.4byte	0x2257
 9082 27aa 701F0000 		.4byte	.LLST211
 9083 27ae 1B       		.uleb128 0x1b
 9084 27af 4C220000 		.4byte	0x224c
 9085 27b3 AF250000 		.4byte	.LLST253
 9086 27b7 1B       		.uleb128 0x1b
 9087 27b8 41220000 		.4byte	0x2241
 9088 27bc C2250000 		.4byte	.LLST254
 9089 27c0 1E       		.uleb128 0x1e
 9090 27c1 2C030000 		.4byte	.LBB326
 9091 27c5 50000000 		.4byte	.LBE326-.LBB326
ARM GAS  C:\Users\rdn\AppData\Local\Temp\ccYcaPXH.s 			page 196


 9092 27c9 2C       		.uleb128 0x2c
 9093 27ca 78220000 		.4byte	0x2278
 9094 27ce D7250000 		.4byte	.LLST255
 9095 27d2 2C       		.uleb128 0x2c
 9096 27d3 82220000 		.4byte	0x2282
 9097 27d7 EB250000 		.4byte	.LLST256
 9098 27db 3D       		.uleb128 0x3d
 9099 27dc 8C220000 		.4byte	0x228c
 9100 27e0 2D       		.uleb128 0x2d
 9101 27e1 17040000 		.4byte	0x417
 9102 27e5 32030000 		.4byte	.LBB327
 9103 27e9 0C000000 		.4byte	.LBE327-.LBB327
 9104 27ed 01       		.byte	0x1
 9105 27ee 1A01     		.2byte	0x11a
 9106 27f0 07280000 		.4byte	0x2807
 9107 27f4 1B       		.uleb128 0x1b
 9108 27f5 31040000 		.4byte	0x431
 9109 27f9 15260000 		.4byte	.LLST257
 9110 27fd 1B       		.uleb128 0x1b
 9111 27fe 27040000 		.4byte	0x427
 9112 2802 28260000 		.4byte	.LLST258
 9113 2806 00       		.byte	0
 9114 2807 3A       		.uleb128 0x3a
 9115 2808 32030000 		.4byte	.LVL455
 9116 280c 91040000 		.4byte	0x491
 9117 2810 00       		.byte	0
 9118 2811 00       		.byte	0
 9119 2812 2D       		.uleb128 0x2d
 9120 2813 98220000 		.4byte	0x2298
 9121 2817 AC030000 		.4byte	.LBB329
 9122 281b E2000000 		.4byte	.LBE329-.LBB329
 9123 281f 01       		.byte	0x1
 9124 2820 BC03     		.2byte	0x3bc
 9125 2822 BC280000 		.4byte	0x28bc
 9126 2826 1B       		.uleb128 0x1b
 9127 2827 E6220000 		.4byte	0x22e6
 9128 282b 3D260000 		.4byte	.LLST259
 9129 282f 1B       		.uleb128 0x1b
 9130 2830 DC220000 		.4byte	0x22dc
 9131 2834 51260000 		.4byte	.LLST260
 9132 2838 1B       		.uleb128 0x1b
 9133 2839 D2220000 		.4byte	0x22d2
 9134 283d 64260000 		.4byte	.LLST261
 9135 2841 1B       		.uleb128 0x1b
 9136 2842 C6220000 		.4byte	0x22c6
 9137 2846 78260000 		.4byte	.LLST262
 9138 284a 1B       		.uleb128 0x1b
 9139 284b BB220000 		.4byte	0x22bb
 9140 284f A1260000 		.4byte	.LLST263
 9141 2853 1B       		.uleb128 0x1b
 9142 2854 B0220000 		.4byte	0x22b0
 9143 2858 B6260000 		.4byte	.LLST264
 9144 285c 1B       		.uleb128 0x1b
 9145 285d A5220000 		.4byte	0x22a5
 9146 2861 CA260000 		.4byte	.LLST265
 9147 2865 1E       		.uleb128 0x1e
 9148 2866 AC030000 		.4byte	.LBB330
ARM GAS  C:\Users\rdn\AppData\Local\Temp\ccYcaPXH.s 			page 197


 9149 286a E2000000 		.4byte	.LBE330-.LBB330
 9150 286e 3D       		.uleb128 0x3d
 9151 286f F1220000 		.4byte	0x22f1
 9152 2873 2C       		.uleb128 0x2c
 9153 2874 FD220000 		.4byte	0x22fd
 9154 2878 DF260000 		.4byte	.LLST266
 9155 287c 2C       		.uleb128 0x2c
 9156 287d 07230000 		.4byte	0x2307
 9157 2881 F2260000 		.4byte	.LLST267
 9158 2885 2C       		.uleb128 0x2c
 9159 2886 11230000 		.4byte	0x2311
 9160 288a 06270000 		.4byte	.LLST268
 9161 288e 2C       		.uleb128 0x2c
 9162 288f 1B230000 		.4byte	0x231b
 9163 2893 19270000 		.4byte	.LLST269
 9164 2897 4B       		.uleb128 0x4b
 9165 2898 17040000 		.4byte	0x417
 9166 289c AC030000 		.4byte	.LBB331
 9167 28a0 88030000 		.4byte	.Ldebug_ranges0+0x388
 9168 28a4 01       		.byte	0x1
 9169 28a5 ED02     		.2byte	0x2ed
 9170 28a7 1B       		.uleb128 0x1b
 9171 28a8 31040000 		.4byte	0x431
 9172 28ac 43270000 		.4byte	.LLST270
 9173 28b0 1B       		.uleb128 0x1b
 9174 28b1 27040000 		.4byte	0x427
 9175 28b5 6A270000 		.4byte	.LLST271
 9176 28b9 00       		.byte	0
 9177 28ba 00       		.byte	0
 9178 28bb 00       		.byte	0
 9179 28bc 39       		.uleb128 0x39
 9180 28bd 60010000 		.4byte	.LVL417
 9181 28c1 682A0000 		.4byte	0x2a68
 9182 28c5 D0280000 		.4byte	0x28d0
 9183 28c9 21       		.uleb128 0x21
 9184 28ca 01       		.uleb128 0x1
 9185 28cb 50       		.byte	0x50
 9186 28cc 02       		.uleb128 0x2
 9187 28cd 76       		.byte	0x76
 9188 28ce 00       		.sleb128 0
 9189 28cf 00       		.byte	0
 9190 28d0 20       		.uleb128 0x20
 9191 28d1 2C030000 		.4byte	.LVL453
 9192 28d5 3C040000 		.4byte	0x43c
 9193 28d9 21       		.uleb128 0x21
 9194 28da 01       		.uleb128 0x1
 9195 28db 50       		.byte	0x50
 9196 28dc 02       		.uleb128 0x2
 9197 28dd 7B       		.byte	0x7b
 9198 28de 00       		.sleb128 0
 9199 28df 21       		.uleb128 0x21
 9200 28e0 01       		.uleb128 0x1
 9201 28e1 51       		.byte	0x51
 9202 28e2 03       		.uleb128 0x3
 9203 28e3 91       		.byte	0x91
 9204 28e4 00       		.sleb128 0
 9205 28e5 06       		.byte	0x6
ARM GAS  C:\Users\rdn\AppData\Local\Temp\ccYcaPXH.s 			page 198


 9206 28e6 00       		.byte	0
 9207 28e7 00       		.byte	0
 9208 28e8 0C       		.uleb128 0xc
 9209 28e9 360F0000 		.4byte	0xf36
 9210 28ed F8280000 		.4byte	0x28f8
 9211 28f1 0D       		.uleb128 0xd
 9212 28f2 41010000 		.4byte	0x141
 9213 28f6 06       		.byte	0x6
 9214 28f7 00       		.byte	0
 9215 28f8 4E       		.uleb128 0x4e
 9216 28f9 76010000 		.4byte	.LASF169
 9217 28fd 02       		.byte	0x2
 9218 28fe 2A       		.byte	0x2a
 9219 28ff 03290000 		.4byte	0x2903
 9220 2903 0F       		.uleb128 0xf
 9221 2904 E8280000 		.4byte	0x28e8
 9222 2908 4E       		.uleb128 0x4e
 9223 2909 7D000000 		.4byte	.LASF170
 9224 290d 02       		.byte	0x2
 9225 290e 2B       		.byte	0x2b
 9226 290f 13290000 		.4byte	0x2913
 9227 2913 0F       		.uleb128 0xf
 9228 2914 E8280000 		.4byte	0x28e8
 9229 2918 4E       		.uleb128 0x4e
 9230 2919 40010000 		.4byte	.LASF171
 9231 291d 02       		.byte	0x2
 9232 291e 2C       		.byte	0x2c
 9233 291f 23290000 		.4byte	0x2923
 9234 2923 0F       		.uleb128 0xf
 9235 2924 E8280000 		.4byte	0x28e8
 9236 2928 0C       		.uleb128 0xc
 9237 2929 360F0000 		.4byte	0xf36
 9238 292d 44290000 		.4byte	0x2944
 9239 2931 0D       		.uleb128 0xd
 9240 2932 41010000 		.4byte	0x141
 9241 2936 03       		.byte	0x3
 9242 2937 0D       		.uleb128 0xd
 9243 2938 41010000 		.4byte	0x141
 9244 293c 01       		.byte	0x1
 9245 293d 0D       		.uleb128 0xd
 9246 293e 41010000 		.4byte	0x141
 9247 2942 01       		.byte	0x1
 9248 2943 00       		.byte	0
 9249 2944 4E       		.uleb128 0x4e
 9250 2945 37090000 		.4byte	.LASF172
 9251 2949 02       		.byte	0x2
 9252 294a 4E       		.byte	0x4e
 9253 294b 4F290000 		.4byte	0x294f
 9254 294f 0F       		.uleb128 0xf
 9255 2950 28290000 		.4byte	0x2928
 9256 2954 0C       		.uleb128 0xc
 9257 2955 F7020000 		.4byte	0x2f7
 9258 2959 76290000 		.4byte	0x2976
 9259 295d 0D       		.uleb128 0xd
 9260 295e 41010000 		.4byte	0x141
 9261 2962 01       		.byte	0x1
 9262 2963 0D       		.uleb128 0xd
ARM GAS  C:\Users\rdn\AppData\Local\Temp\ccYcaPXH.s 			page 199


 9263 2964 41010000 		.4byte	0x141
 9264 2968 01       		.byte	0x1
 9265 2969 0D       		.uleb128 0xd
 9266 296a 41010000 		.4byte	0x141
 9267 296e FF       		.byte	0xff
 9268 296f 0D       		.uleb128 0xd
 9269 2970 41010000 		.4byte	0x141
 9270 2974 03       		.byte	0x3
 9271 2975 00       		.byte	0
 9272 2976 4E       		.uleb128 0x4e
 9273 2977 E0030000 		.4byte	.LASF173
 9274 297b 02       		.byte	0x2
 9275 297c 9C       		.byte	0x9c
 9276 297d 81290000 		.4byte	0x2981
 9277 2981 0F       		.uleb128 0xf
 9278 2982 54290000 		.4byte	0x2954
 9279 2986 0C       		.uleb128 0xc
 9280 2987 7E100000 		.4byte	0x107e
 9281 298b 91290000 		.4byte	0x2991
 9282 298f 4F       		.uleb128 0x4f
 9283 2990 00       		.byte	0
 9284 2991 4E       		.uleb128 0x4e
 9285 2992 F0050000 		.4byte	.LASF174
 9286 2996 02       		.byte	0x2
 9287 2997 9D       		.byte	0x9d
 9288 2998 9C290000 		.4byte	0x299c
 9289 299c 0F       		.uleb128 0xf
 9290 299d 86290000 		.4byte	0x2986
 9291 29a1 0C       		.uleb128 0xc
 9292 29a2 C70A0000 		.4byte	0xac7
 9293 29a6 B2290000 		.4byte	0x29b2
 9294 29aa 4F       		.uleb128 0x4f
 9295 29ab 0D       		.uleb128 0xd
 9296 29ac 41010000 		.4byte	0x141
 9297 29b0 10       		.byte	0x10
 9298 29b1 00       		.byte	0
 9299 29b2 4E       		.uleb128 0x4e
 9300 29b3 EA010000 		.4byte	.LASF175
 9301 29b7 02       		.byte	0x2
 9302 29b8 9E       		.byte	0x9e
 9303 29b9 BD290000 		.4byte	0x29bd
 9304 29bd 0F       		.uleb128 0xf
 9305 29be A1290000 		.4byte	0x29a1
 9306 29c2 50       		.uleb128 0x50
 9307 29c3 6A040000 		.4byte	.LASF183
 9308 29c7 6A040000 		.4byte	.LASF183
 9309 29cb 51       		.uleb128 0x51
 9310 29cc EB040000 		.4byte	.LASF176
 9311 29d0 EB040000 		.4byte	.LASF176
 9312 29d4 0B       		.byte	0xb
 9313 29d5 9101     		.2byte	0x191
 9314 29d7 51       		.uleb128 0x51
 9315 29d8 DB060000 		.4byte	.LASF177
 9316 29dc DB060000 		.4byte	.LASF177
 9317 29e0 0B       		.byte	0xb
 9318 29e1 9701     		.2byte	0x197
 9319 29e3 51       		.uleb128 0x51
ARM GAS  C:\Users\rdn\AppData\Local\Temp\ccYcaPXH.s 			page 200


 9320 29e4 31080000 		.4byte	.LASF178
 9321 29e8 31080000 		.4byte	.LASF178
 9322 29ec 0B       		.byte	0xb
 9323 29ed 8501     		.2byte	0x185
 9324 29ef 52       		.uleb128 0x52
 9325 29f0 CE040000 		.4byte	.LASF179
 9326 29f4 CE040000 		.4byte	.LASF179
 9327 29f8 04       		.byte	0x4
 9328 29f9 C8       		.byte	0xc8
 9329 29fa 52       		.uleb128 0x52
 9330 29fb 4A010000 		.4byte	.LASF180
 9331 29ff 4A010000 		.4byte	.LASF180
 9332 2a03 04       		.byte	0x4
 9333 2a04 CC       		.byte	0xcc
 9334 2a05 52       		.uleb128 0x52
 9335 2a06 A6020000 		.4byte	.LASF181
 9336 2a0a A6020000 		.4byte	.LASF181
 9337 2a0e 04       		.byte	0x4
 9338 2a0f C9       		.byte	0xc9
 9339 2a10 52       		.uleb128 0x52
 9340 2a11 8F040000 		.4byte	.LASF182
 9341 2a15 8F040000 		.4byte	.LASF182
 9342 2a19 04       		.byte	0x4
 9343 2a1a CB       		.byte	0xcb
 9344 2a1b 50       		.uleb128 0x50
 9345 2a1c A3080000 		.4byte	.LASF184
 9346 2a20 A3080000 		.4byte	.LASF184
 9347 2a24 52       		.uleb128 0x52
 9348 2a25 FF080000 		.4byte	.LASF185
 9349 2a29 FF080000 		.4byte	.LASF185
 9350 2a2d 0C       		.byte	0xc
 9351 2a2e 28       		.byte	0x28
 9352 2a2f 52       		.uleb128 0x52
 9353 2a30 93020000 		.4byte	.LASF186
 9354 2a34 93020000 		.4byte	.LASF186
 9355 2a38 0D       		.byte	0xd
 9356 2a39 43       		.byte	0x43
 9357 2a3a 52       		.uleb128 0x52
 9358 2a3b 94030000 		.4byte	.LASF187
 9359 2a3f 94030000 		.4byte	.LASF187
 9360 2a43 0E       		.byte	0xe
 9361 2a44 3F       		.byte	0x3f
 9362 2a45 52       		.uleb128 0x52
 9363 2a46 67090000 		.4byte	.LASF188
 9364 2a4a 67090000 		.4byte	.LASF188
 9365 2a4e 09       		.byte	0x9
 9366 2a4f 3A       		.byte	0x3a
 9367 2a50 51       		.uleb128 0x51
 9368 2a51 2E020000 		.4byte	.LASF189
 9369 2a55 2E020000 		.4byte	.LASF189
 9370 2a59 0B       		.byte	0xb
 9371 2a5a 9801     		.2byte	0x198
 9372 2a5c 51       		.uleb128 0x51
 9373 2a5d D4060000 		.4byte	.LASF190
 9374 2a61 D4060000 		.4byte	.LASF190
 9375 2a65 0B       		.byte	0xb
 9376 2a66 9401     		.2byte	0x194
ARM GAS  C:\Users\rdn\AppData\Local\Temp\ccYcaPXH.s 			page 201


 9377 2a68 52       		.uleb128 0x52
 9378 2a69 47080000 		.4byte	.LASF191
 9379 2a6d 47080000 		.4byte	.LASF191
 9380 2a71 04       		.byte	0x4
 9381 2a72 86       		.byte	0x86
 9382 2a73 00       		.byte	0
 9383              		.section	.debug_abbrev,"",%progbits
 9384              	.Ldebug_abbrev0:
 9385 0000 01       		.uleb128 0x1
 9386 0001 11       		.uleb128 0x11
 9387 0002 01       		.byte	0x1
 9388 0003 25       		.uleb128 0x25
 9389 0004 0E       		.uleb128 0xe
 9390 0005 13       		.uleb128 0x13
 9391 0006 0B       		.uleb128 0xb
 9392 0007 03       		.uleb128 0x3
 9393 0008 0E       		.uleb128 0xe
 9394 0009 1B       		.uleb128 0x1b
 9395 000a 0E       		.uleb128 0xe
 9396 000b 55       		.uleb128 0x55
 9397 000c 17       		.uleb128 0x17
 9398 000d 11       		.uleb128 0x11
 9399 000e 01       		.uleb128 0x1
 9400 000f 10       		.uleb128 0x10
 9401 0010 17       		.uleb128 0x17
 9402 0011 00       		.byte	0
 9403 0012 00       		.byte	0
 9404 0013 02       		.uleb128 0x2
 9405 0014 24       		.uleb128 0x24
 9406 0015 00       		.byte	0
 9407 0016 0B       		.uleb128 0xb
 9408 0017 0B       		.uleb128 0xb
 9409 0018 3E       		.uleb128 0x3e
 9410 0019 0B       		.uleb128 0xb
 9411 001a 03       		.uleb128 0x3
 9412 001b 0E       		.uleb128 0xe
 9413 001c 00       		.byte	0
 9414 001d 00       		.byte	0
 9415 001e 03       		.uleb128 0x3
 9416 001f 24       		.uleb128 0x24
 9417 0020 00       		.byte	0
 9418 0021 0B       		.uleb128 0xb
 9419 0022 0B       		.uleb128 0xb
 9420 0023 3E       		.uleb128 0x3e
 9421 0024 0B       		.uleb128 0xb
 9422 0025 03       		.uleb128 0x3
 9423 0026 08       		.uleb128 0x8
 9424 0027 00       		.byte	0
 9425 0028 00       		.byte	0
 9426 0029 04       		.uleb128 0x4
 9427 002a 16       		.uleb128 0x16
 9428 002b 00       		.byte	0
 9429 002c 03       		.uleb128 0x3
 9430 002d 0E       		.uleb128 0xe
 9431 002e 3A       		.uleb128 0x3a
 9432 002f 0B       		.uleb128 0xb
 9433 0030 3B       		.uleb128 0x3b
ARM GAS  C:\Users\rdn\AppData\Local\Temp\ccYcaPXH.s 			page 202


 9434 0031 0B       		.uleb128 0xb
 9435 0032 49       		.uleb128 0x49
 9436 0033 13       		.uleb128 0x13
 9437 0034 00       		.byte	0
 9438 0035 00       		.byte	0
 9439 0036 05       		.uleb128 0x5
 9440 0037 04       		.uleb128 0x4
 9441 0038 01       		.byte	0x1
 9442 0039 03       		.uleb128 0x3
 9443 003a 0E       		.uleb128 0xe
 9444 003b 0B       		.uleb128 0xb
 9445 003c 0B       		.uleb128 0xb
 9446 003d 49       		.uleb128 0x49
 9447 003e 13       		.uleb128 0x13
 9448 003f 3A       		.uleb128 0x3a
 9449 0040 0B       		.uleb128 0xb
 9450 0041 3B       		.uleb128 0x3b
 9451 0042 0B       		.uleb128 0xb
 9452 0043 01       		.uleb128 0x1
 9453 0044 13       		.uleb128 0x13
 9454 0045 00       		.byte	0
 9455 0046 00       		.byte	0
 9456 0047 06       		.uleb128 0x6
 9457 0048 28       		.uleb128 0x28
 9458 0049 00       		.byte	0
 9459 004a 03       		.uleb128 0x3
 9460 004b 0E       		.uleb128 0xe
 9461 004c 1C       		.uleb128 0x1c
 9462 004d 0B       		.uleb128 0xb
 9463 004e 00       		.byte	0
 9464 004f 00       		.byte	0
 9465 0050 07       		.uleb128 0x7
 9466 0051 13       		.uleb128 0x13
 9467 0052 01       		.byte	0x1
 9468 0053 03       		.uleb128 0x3
 9469 0054 0E       		.uleb128 0xe
 9470 0055 0B       		.uleb128 0xb
 9471 0056 0B       		.uleb128 0xb
 9472 0057 3A       		.uleb128 0x3a
 9473 0058 0B       		.uleb128 0xb
 9474 0059 3B       		.uleb128 0x3b
 9475 005a 0B       		.uleb128 0xb
 9476 005b 01       		.uleb128 0x1
 9477 005c 13       		.uleb128 0x13
 9478 005d 00       		.byte	0
 9479 005e 00       		.byte	0
 9480 005f 08       		.uleb128 0x8
 9481 0060 0D       		.uleb128 0xd
 9482 0061 00       		.byte	0
 9483 0062 03       		.uleb128 0x3
 9484 0063 0E       		.uleb128 0xe
 9485 0064 3A       		.uleb128 0x3a
 9486 0065 0B       		.uleb128 0xb
 9487 0066 3B       		.uleb128 0x3b
 9488 0067 0B       		.uleb128 0xb
 9489 0068 49       		.uleb128 0x49
 9490 0069 13       		.uleb128 0x13
ARM GAS  C:\Users\rdn\AppData\Local\Temp\ccYcaPXH.s 			page 203


 9491 006a 38       		.uleb128 0x38
 9492 006b 0B       		.uleb128 0xb
 9493 006c 00       		.byte	0
 9494 006d 00       		.byte	0
 9495 006e 09       		.uleb128 0x9
 9496 006f 0D       		.uleb128 0xd
 9497 0070 00       		.byte	0
 9498 0071 03       		.uleb128 0x3
 9499 0072 08       		.uleb128 0x8
 9500 0073 3A       		.uleb128 0x3a
 9501 0074 0B       		.uleb128 0xb
 9502 0075 3B       		.uleb128 0x3b
 9503 0076 0B       		.uleb128 0xb
 9504 0077 49       		.uleb128 0x49
 9505 0078 13       		.uleb128 0x13
 9506 0079 0B       		.uleb128 0xb
 9507 007a 0B       		.uleb128 0xb
 9508 007b 0D       		.uleb128 0xd
 9509 007c 0B       		.uleb128 0xb
 9510 007d 0C       		.uleb128 0xc
 9511 007e 0B       		.uleb128 0xb
 9512 007f 38       		.uleb128 0x38
 9513 0080 0B       		.uleb128 0xb
 9514 0081 00       		.byte	0
 9515 0082 00       		.byte	0
 9516 0083 0A       		.uleb128 0xa
 9517 0084 0D       		.uleb128 0xd
 9518 0085 00       		.byte	0
 9519 0086 03       		.uleb128 0x3
 9520 0087 0E       		.uleb128 0xe
 9521 0088 3A       		.uleb128 0x3a
 9522 0089 0B       		.uleb128 0xb
 9523 008a 3B       		.uleb128 0x3b
 9524 008b 0B       		.uleb128 0xb
 9525 008c 49       		.uleb128 0x49
 9526 008d 13       		.uleb128 0x13
 9527 008e 0B       		.uleb128 0xb
 9528 008f 0B       		.uleb128 0xb
 9529 0090 0D       		.uleb128 0xd
 9530 0091 0B       		.uleb128 0xb
 9531 0092 0C       		.uleb128 0xc
 9532 0093 0B       		.uleb128 0xb
 9533 0094 38       		.uleb128 0x38
 9534 0095 0B       		.uleb128 0xb
 9535 0096 00       		.byte	0
 9536 0097 00       		.byte	0
 9537 0098 0B       		.uleb128 0xb
 9538 0099 0D       		.uleb128 0xd
 9539 009a 00       		.byte	0
 9540 009b 03       		.uleb128 0x3
 9541 009c 08       		.uleb128 0x8
 9542 009d 3A       		.uleb128 0x3a
 9543 009e 0B       		.uleb128 0xb
 9544 009f 3B       		.uleb128 0x3b
 9545 00a0 0B       		.uleb128 0xb
 9546 00a1 49       		.uleb128 0x49
 9547 00a2 13       		.uleb128 0x13
ARM GAS  C:\Users\rdn\AppData\Local\Temp\ccYcaPXH.s 			page 204


 9548 00a3 38       		.uleb128 0x38
 9549 00a4 0B       		.uleb128 0xb
 9550 00a5 00       		.byte	0
 9551 00a6 00       		.byte	0
 9552 00a7 0C       		.uleb128 0xc
 9553 00a8 01       		.uleb128 0x1
 9554 00a9 01       		.byte	0x1
 9555 00aa 49       		.uleb128 0x49
 9556 00ab 13       		.uleb128 0x13
 9557 00ac 01       		.uleb128 0x1
 9558 00ad 13       		.uleb128 0x13
 9559 00ae 00       		.byte	0
 9560 00af 00       		.byte	0
 9561 00b0 0D       		.uleb128 0xd
 9562 00b1 21       		.uleb128 0x21
 9563 00b2 00       		.byte	0
 9564 00b3 49       		.uleb128 0x49
 9565 00b4 13       		.uleb128 0x13
 9566 00b5 2F       		.uleb128 0x2f
 9567 00b6 0B       		.uleb128 0xb
 9568 00b7 00       		.byte	0
 9569 00b8 00       		.byte	0
 9570 00b9 0E       		.uleb128 0xe
 9571 00ba 0F       		.uleb128 0xf
 9572 00bb 00       		.byte	0
 9573 00bc 0B       		.uleb128 0xb
 9574 00bd 0B       		.uleb128 0xb
 9575 00be 49       		.uleb128 0x49
 9576 00bf 13       		.uleb128 0x13
 9577 00c0 00       		.byte	0
 9578 00c1 00       		.byte	0
 9579 00c2 0F       		.uleb128 0xf
 9580 00c3 26       		.uleb128 0x26
 9581 00c4 00       		.byte	0
 9582 00c5 49       		.uleb128 0x49
 9583 00c6 13       		.uleb128 0x13
 9584 00c7 00       		.byte	0
 9585 00c8 00       		.byte	0
 9586 00c9 10       		.uleb128 0x10
 9587 00ca 2E       		.uleb128 0x2e
 9588 00cb 01       		.byte	0x1
 9589 00cc 03       		.uleb128 0x3
 9590 00cd 0E       		.uleb128 0xe
 9591 00ce 3A       		.uleb128 0x3a
 9592 00cf 0B       		.uleb128 0xb
 9593 00d0 3B       		.uleb128 0x3b
 9594 00d1 0B       		.uleb128 0xb
 9595 00d2 27       		.uleb128 0x27
 9596 00d3 19       		.uleb128 0x19
 9597 00d4 49       		.uleb128 0x49
 9598 00d5 13       		.uleb128 0x13
 9599 00d6 20       		.uleb128 0x20
 9600 00d7 0B       		.uleb128 0xb
 9601 00d8 01       		.uleb128 0x1
 9602 00d9 13       		.uleb128 0x13
 9603 00da 00       		.byte	0
 9604 00db 00       		.byte	0
ARM GAS  C:\Users\rdn\AppData\Local\Temp\ccYcaPXH.s 			page 205


 9605 00dc 11       		.uleb128 0x11
 9606 00dd 05       		.uleb128 0x5
 9607 00de 00       		.byte	0
 9608 00df 03       		.uleb128 0x3
 9609 00e0 08       		.uleb128 0x8
 9610 00e1 3A       		.uleb128 0x3a
 9611 00e2 0B       		.uleb128 0xb
 9612 00e3 3B       		.uleb128 0x3b
 9613 00e4 0B       		.uleb128 0xb
 9614 00e5 49       		.uleb128 0x49
 9615 00e6 13       		.uleb128 0x13
 9616 00e7 00       		.byte	0
 9617 00e8 00       		.byte	0
 9618 00e9 12       		.uleb128 0x12
 9619 00ea 2E       		.uleb128 0x2e
 9620 00eb 01       		.byte	0x1
 9621 00ec 03       		.uleb128 0x3
 9622 00ed 0E       		.uleb128 0xe
 9623 00ee 3A       		.uleb128 0x3a
 9624 00ef 0B       		.uleb128 0xb
 9625 00f0 3B       		.uleb128 0x3b
 9626 00f1 0B       		.uleb128 0xb
 9627 00f2 27       		.uleb128 0x27
 9628 00f3 19       		.uleb128 0x19
 9629 00f4 49       		.uleb128 0x49
 9630 00f5 13       		.uleb128 0x13
 9631 00f6 11       		.uleb128 0x11
 9632 00f7 01       		.uleb128 0x1
 9633 00f8 12       		.uleb128 0x12
 9634 00f9 06       		.uleb128 0x6
 9635 00fa 40       		.uleb128 0x40
 9636 00fb 18       		.uleb128 0x18
 9637 00fc 9742     		.uleb128 0x2117
 9638 00fe 19       		.uleb128 0x19
 9639 00ff 01       		.uleb128 0x1
 9640 0100 13       		.uleb128 0x13
 9641 0101 00       		.byte	0
 9642 0102 00       		.byte	0
 9643 0103 13       		.uleb128 0x13
 9644 0104 05       		.uleb128 0x5
 9645 0105 00       		.byte	0
 9646 0106 03       		.uleb128 0x3
 9647 0107 08       		.uleb128 0x8
 9648 0108 3A       		.uleb128 0x3a
 9649 0109 0B       		.uleb128 0xb
 9650 010a 3B       		.uleb128 0x3b
 9651 010b 0B       		.uleb128 0xb
 9652 010c 49       		.uleb128 0x49
 9653 010d 13       		.uleb128 0x13
 9654 010e 02       		.uleb128 0x2
 9655 010f 17       		.uleb128 0x17
 9656 0110 00       		.byte	0
 9657 0111 00       		.byte	0
 9658 0112 14       		.uleb128 0x14
 9659 0113 05       		.uleb128 0x5
 9660 0114 00       		.byte	0
 9661 0115 03       		.uleb128 0x3
ARM GAS  C:\Users\rdn\AppData\Local\Temp\ccYcaPXH.s 			page 206


 9662 0116 0E       		.uleb128 0xe
 9663 0117 3A       		.uleb128 0x3a
 9664 0118 0B       		.uleb128 0xb
 9665 0119 3B       		.uleb128 0x3b
 9666 011a 0B       		.uleb128 0xb
 9667 011b 49       		.uleb128 0x49
 9668 011c 13       		.uleb128 0x13
 9669 011d 02       		.uleb128 0x2
 9670 011e 17       		.uleb128 0x17
 9671 011f 00       		.byte	0
 9672 0120 00       		.byte	0
 9673 0121 15       		.uleb128 0x15
 9674 0122 34       		.uleb128 0x34
 9675 0123 00       		.byte	0
 9676 0124 03       		.uleb128 0x3
 9677 0125 0E       		.uleb128 0xe
 9678 0126 3A       		.uleb128 0x3a
 9679 0127 0B       		.uleb128 0xb
 9680 0128 3B       		.uleb128 0x3b
 9681 0129 0B       		.uleb128 0xb
 9682 012a 49       		.uleb128 0x49
 9683 012b 13       		.uleb128 0x13
 9684 012c 02       		.uleb128 0x2
 9685 012d 17       		.uleb128 0x17
 9686 012e 00       		.byte	0
 9687 012f 00       		.byte	0
 9688 0130 16       		.uleb128 0x16
 9689 0131 34       		.uleb128 0x34
 9690 0132 00       		.byte	0
 9691 0133 03       		.uleb128 0x3
 9692 0134 0E       		.uleb128 0xe
 9693 0135 3A       		.uleb128 0x3a
 9694 0136 0B       		.uleb128 0xb
 9695 0137 3B       		.uleb128 0x3b
 9696 0138 0B       		.uleb128 0xb
 9697 0139 49       		.uleb128 0x49
 9698 013a 13       		.uleb128 0x13
 9699 013b 02       		.uleb128 0x2
 9700 013c 18       		.uleb128 0x18
 9701 013d 00       		.byte	0
 9702 013e 00       		.byte	0
 9703 013f 17       		.uleb128 0x17
 9704 0140 34       		.uleb128 0x34
 9705 0141 00       		.byte	0
 9706 0142 03       		.uleb128 0x3
 9707 0143 08       		.uleb128 0x8
 9708 0144 3A       		.uleb128 0x3a
 9709 0145 0B       		.uleb128 0xb
 9710 0146 3B       		.uleb128 0x3b
 9711 0147 0B       		.uleb128 0xb
 9712 0148 49       		.uleb128 0x49
 9713 0149 13       		.uleb128 0x13
 9714 014a 02       		.uleb128 0x2
 9715 014b 17       		.uleb128 0x17
 9716 014c 00       		.byte	0
 9717 014d 00       		.byte	0
 9718 014e 18       		.uleb128 0x18
ARM GAS  C:\Users\rdn\AppData\Local\Temp\ccYcaPXH.s 			page 207


 9719 014f 2E       		.uleb128 0x2e
 9720 0150 01       		.byte	0x1
 9721 0151 03       		.uleb128 0x3
 9722 0152 0E       		.uleb128 0xe
 9723 0153 3A       		.uleb128 0x3a
 9724 0154 0B       		.uleb128 0xb
 9725 0155 3B       		.uleb128 0x3b
 9726 0156 0B       		.uleb128 0xb
 9727 0157 27       		.uleb128 0x27
 9728 0158 19       		.uleb128 0x19
 9729 0159 11       		.uleb128 0x11
 9730 015a 01       		.uleb128 0x1
 9731 015b 12       		.uleb128 0x12
 9732 015c 06       		.uleb128 0x6
 9733 015d 40       		.uleb128 0x40
 9734 015e 18       		.uleb128 0x18
 9735 015f 9742     		.uleb128 0x2117
 9736 0161 19       		.uleb128 0x19
 9737 0162 01       		.uleb128 0x1
 9738 0163 13       		.uleb128 0x13
 9739 0164 00       		.byte	0
 9740 0165 00       		.byte	0
 9741 0166 19       		.uleb128 0x19
 9742 0167 34       		.uleb128 0x34
 9743 0168 00       		.byte	0
 9744 0169 03       		.uleb128 0x3
 9745 016a 08       		.uleb128 0x8
 9746 016b 3A       		.uleb128 0x3a
 9747 016c 0B       		.uleb128 0xb
 9748 016d 3B       		.uleb128 0x3b
 9749 016e 0B       		.uleb128 0xb
 9750 016f 49       		.uleb128 0x49
 9751 0170 13       		.uleb128 0x13
 9752 0171 00       		.byte	0
 9753 0172 00       		.byte	0
 9754 0173 1A       		.uleb128 0x1a
 9755 0174 1D       		.uleb128 0x1d
 9756 0175 01       		.byte	0x1
 9757 0176 31       		.uleb128 0x31
 9758 0177 13       		.uleb128 0x13
 9759 0178 52       		.uleb128 0x52
 9760 0179 01       		.uleb128 0x1
 9761 017a 55       		.uleb128 0x55
 9762 017b 17       		.uleb128 0x17
 9763 017c 58       		.uleb128 0x58
 9764 017d 0B       		.uleb128 0xb
 9765 017e 59       		.uleb128 0x59
 9766 017f 0B       		.uleb128 0xb
 9767 0180 01       		.uleb128 0x1
 9768 0181 13       		.uleb128 0x13
 9769 0182 00       		.byte	0
 9770 0183 00       		.byte	0
 9771 0184 1B       		.uleb128 0x1b
 9772 0185 05       		.uleb128 0x5
 9773 0186 00       		.byte	0
 9774 0187 31       		.uleb128 0x31
 9775 0188 13       		.uleb128 0x13
ARM GAS  C:\Users\rdn\AppData\Local\Temp\ccYcaPXH.s 			page 208


 9776 0189 02       		.uleb128 0x2
 9777 018a 17       		.uleb128 0x17
 9778 018b 00       		.byte	0
 9779 018c 00       		.byte	0
 9780 018d 1C       		.uleb128 0x1c
 9781 018e 0B       		.uleb128 0xb
 9782 018f 01       		.byte	0x1
 9783 0190 11       		.uleb128 0x11
 9784 0191 01       		.uleb128 0x1
 9785 0192 12       		.uleb128 0x12
 9786 0193 06       		.uleb128 0x6
 9787 0194 01       		.uleb128 0x1
 9788 0195 13       		.uleb128 0x13
 9789 0196 00       		.byte	0
 9790 0197 00       		.byte	0
 9791 0198 1D       		.uleb128 0x1d
 9792 0199 34       		.uleb128 0x34
 9793 019a 00       		.byte	0
 9794 019b 03       		.uleb128 0x3
 9795 019c 08       		.uleb128 0x8
 9796 019d 3A       		.uleb128 0x3a
 9797 019e 0B       		.uleb128 0xb
 9798 019f 3B       		.uleb128 0x3b
 9799 01a0 05       		.uleb128 0x5
 9800 01a1 49       		.uleb128 0x49
 9801 01a2 13       		.uleb128 0x13
 9802 01a3 02       		.uleb128 0x2
 9803 01a4 17       		.uleb128 0x17
 9804 01a5 00       		.byte	0
 9805 01a6 00       		.byte	0
 9806 01a7 1E       		.uleb128 0x1e
 9807 01a8 0B       		.uleb128 0xb
 9808 01a9 01       		.byte	0x1
 9809 01aa 11       		.uleb128 0x11
 9810 01ab 01       		.uleb128 0x1
 9811 01ac 12       		.uleb128 0x12
 9812 01ad 06       		.uleb128 0x6
 9813 01ae 00       		.byte	0
 9814 01af 00       		.byte	0
 9815 01b0 1F       		.uleb128 0x1f
 9816 01b1 34       		.uleb128 0x34
 9817 01b2 00       		.byte	0
 9818 01b3 03       		.uleb128 0x3
 9819 01b4 0E       		.uleb128 0xe
 9820 01b5 3A       		.uleb128 0x3a
 9821 01b6 0B       		.uleb128 0xb
 9822 01b7 3B       		.uleb128 0x3b
 9823 01b8 05       		.uleb128 0x5
 9824 01b9 49       		.uleb128 0x49
 9825 01ba 13       		.uleb128 0x13
 9826 01bb 02       		.uleb128 0x2
 9827 01bc 17       		.uleb128 0x17
 9828 01bd 00       		.byte	0
 9829 01be 00       		.byte	0
 9830 01bf 20       		.uleb128 0x20
 9831 01c0 898201   		.uleb128 0x4109
 9832 01c3 01       		.byte	0x1
ARM GAS  C:\Users\rdn\AppData\Local\Temp\ccYcaPXH.s 			page 209


 9833 01c4 11       		.uleb128 0x11
 9834 01c5 01       		.uleb128 0x1
 9835 01c6 31       		.uleb128 0x31
 9836 01c7 13       		.uleb128 0x13
 9837 01c8 00       		.byte	0
 9838 01c9 00       		.byte	0
 9839 01ca 21       		.uleb128 0x21
 9840 01cb 8A8201   		.uleb128 0x410a
 9841 01ce 00       		.byte	0
 9842 01cf 02       		.uleb128 0x2
 9843 01d0 18       		.uleb128 0x18
 9844 01d1 9142     		.uleb128 0x2111
 9845 01d3 18       		.uleb128 0x18
 9846 01d4 00       		.byte	0
 9847 01d5 00       		.byte	0
 9848 01d6 22       		.uleb128 0x22
 9849 01d7 2E       		.uleb128 0x2e
 9850 01d8 01       		.byte	0x1
 9851 01d9 03       		.uleb128 0x3
 9852 01da 0E       		.uleb128 0xe
 9853 01db 3A       		.uleb128 0x3a
 9854 01dc 0B       		.uleb128 0xb
 9855 01dd 3B       		.uleb128 0x3b
 9856 01de 05       		.uleb128 0x5
 9857 01df 27       		.uleb128 0x27
 9858 01e0 19       		.uleb128 0x19
 9859 01e1 49       		.uleb128 0x49
 9860 01e2 13       		.uleb128 0x13
 9861 01e3 20       		.uleb128 0x20
 9862 01e4 0B       		.uleb128 0xb
 9863 01e5 01       		.uleb128 0x1
 9864 01e6 13       		.uleb128 0x13
 9865 01e7 00       		.byte	0
 9866 01e8 00       		.byte	0
 9867 01e9 23       		.uleb128 0x23
 9868 01ea 05       		.uleb128 0x5
 9869 01eb 00       		.byte	0
 9870 01ec 03       		.uleb128 0x3
 9871 01ed 08       		.uleb128 0x8
 9872 01ee 3A       		.uleb128 0x3a
 9873 01ef 0B       		.uleb128 0xb
 9874 01f0 3B       		.uleb128 0x3b
 9875 01f1 05       		.uleb128 0x5
 9876 01f2 49       		.uleb128 0x49
 9877 01f3 13       		.uleb128 0x13
 9878 01f4 00       		.byte	0
 9879 01f5 00       		.byte	0
 9880 01f6 24       		.uleb128 0x24
 9881 01f7 05       		.uleb128 0x5
 9882 01f8 00       		.byte	0
 9883 01f9 03       		.uleb128 0x3
 9884 01fa 0E       		.uleb128 0xe
 9885 01fb 3A       		.uleb128 0x3a
 9886 01fc 0B       		.uleb128 0xb
 9887 01fd 3B       		.uleb128 0x3b
 9888 01fe 05       		.uleb128 0x5
 9889 01ff 49       		.uleb128 0x49
ARM GAS  C:\Users\rdn\AppData\Local\Temp\ccYcaPXH.s 			page 210


 9890 0200 13       		.uleb128 0x13
 9891 0201 00       		.byte	0
 9892 0202 00       		.byte	0
 9893 0203 25       		.uleb128 0x25
 9894 0204 34       		.uleb128 0x34
 9895 0205 00       		.byte	0
 9896 0206 03       		.uleb128 0x3
 9897 0207 0E       		.uleb128 0xe
 9898 0208 3A       		.uleb128 0x3a
 9899 0209 0B       		.uleb128 0xb
 9900 020a 3B       		.uleb128 0x3b
 9901 020b 05       		.uleb128 0x5
 9902 020c 49       		.uleb128 0x49
 9903 020d 13       		.uleb128 0x13
 9904 020e 00       		.byte	0
 9905 020f 00       		.byte	0
 9906 0210 26       		.uleb128 0x26
 9907 0211 2E       		.uleb128 0x2e
 9908 0212 01       		.byte	0x1
 9909 0213 03       		.uleb128 0x3
 9910 0214 0E       		.uleb128 0xe
 9911 0215 3A       		.uleb128 0x3a
 9912 0216 0B       		.uleb128 0xb
 9913 0217 3B       		.uleb128 0x3b
 9914 0218 05       		.uleb128 0x5
 9915 0219 27       		.uleb128 0x27
 9916 021a 19       		.uleb128 0x19
 9917 021b 49       		.uleb128 0x49
 9918 021c 13       		.uleb128 0x13
 9919 021d 11       		.uleb128 0x11
 9920 021e 01       		.uleb128 0x1
 9921 021f 12       		.uleb128 0x12
 9922 0220 06       		.uleb128 0x6
 9923 0221 40       		.uleb128 0x40
 9924 0222 18       		.uleb128 0x18
 9925 0223 9742     		.uleb128 0x2117
 9926 0225 19       		.uleb128 0x19
 9927 0226 01       		.uleb128 0x1
 9928 0227 13       		.uleb128 0x13
 9929 0228 00       		.byte	0
 9930 0229 00       		.byte	0
 9931 022a 27       		.uleb128 0x27
 9932 022b 05       		.uleb128 0x5
 9933 022c 00       		.byte	0
 9934 022d 03       		.uleb128 0x3
 9935 022e 08       		.uleb128 0x8
 9936 022f 3A       		.uleb128 0x3a
 9937 0230 0B       		.uleb128 0xb
 9938 0231 3B       		.uleb128 0x3b
 9939 0232 05       		.uleb128 0x5
 9940 0233 49       		.uleb128 0x49
 9941 0234 13       		.uleb128 0x13
 9942 0235 02       		.uleb128 0x2
 9943 0236 17       		.uleb128 0x17
 9944 0237 00       		.byte	0
 9945 0238 00       		.byte	0
 9946 0239 28       		.uleb128 0x28
ARM GAS  C:\Users\rdn\AppData\Local\Temp\ccYcaPXH.s 			page 211


 9947 023a 05       		.uleb128 0x5
 9948 023b 00       		.byte	0
 9949 023c 03       		.uleb128 0x3
 9950 023d 0E       		.uleb128 0xe
 9951 023e 3A       		.uleb128 0x3a
 9952 023f 0B       		.uleb128 0xb
 9953 0240 3B       		.uleb128 0x3b
 9954 0241 05       		.uleb128 0x5
 9955 0242 49       		.uleb128 0x49
 9956 0243 13       		.uleb128 0x13
 9957 0244 02       		.uleb128 0x2
 9958 0245 17       		.uleb128 0x17
 9959 0246 00       		.byte	0
 9960 0247 00       		.byte	0
 9961 0248 29       		.uleb128 0x29
 9962 0249 34       		.uleb128 0x34
 9963 024a 00       		.byte	0
 9964 024b 03       		.uleb128 0x3
 9965 024c 08       		.uleb128 0x8
 9966 024d 3A       		.uleb128 0x3a
 9967 024e 0B       		.uleb128 0xb
 9968 024f 3B       		.uleb128 0x3b
 9969 0250 05       		.uleb128 0x5
 9970 0251 49       		.uleb128 0x49
 9971 0252 13       		.uleb128 0x13
 9972 0253 00       		.byte	0
 9973 0254 00       		.byte	0
 9974 0255 2A       		.uleb128 0x2a
 9975 0256 1D       		.uleb128 0x1d
 9976 0257 01       		.byte	0x1
 9977 0258 31       		.uleb128 0x31
 9978 0259 13       		.uleb128 0x13
 9979 025a 52       		.uleb128 0x52
 9980 025b 01       		.uleb128 0x1
 9981 025c 55       		.uleb128 0x55
 9982 025d 17       		.uleb128 0x17
 9983 025e 58       		.uleb128 0x58
 9984 025f 0B       		.uleb128 0xb
 9985 0260 59       		.uleb128 0x59
 9986 0261 05       		.uleb128 0x5
 9987 0262 01       		.uleb128 0x1
 9988 0263 13       		.uleb128 0x13
 9989 0264 00       		.byte	0
 9990 0265 00       		.byte	0
 9991 0266 2B       		.uleb128 0x2b
 9992 0267 0B       		.uleb128 0xb
 9993 0268 01       		.byte	0x1
 9994 0269 55       		.uleb128 0x55
 9995 026a 17       		.uleb128 0x17
 9996 026b 00       		.byte	0
 9997 026c 00       		.byte	0
 9998 026d 2C       		.uleb128 0x2c
 9999 026e 34       		.uleb128 0x34
 10000 026f 00       		.byte	0
 10001 0270 31       		.uleb128 0x31
 10002 0271 13       		.uleb128 0x13
 10003 0272 02       		.uleb128 0x2
ARM GAS  C:\Users\rdn\AppData\Local\Temp\ccYcaPXH.s 			page 212


 10004 0273 17       		.uleb128 0x17
 10005 0274 00       		.byte	0
 10006 0275 00       		.byte	0
 10007 0276 2D       		.uleb128 0x2d
 10008 0277 1D       		.uleb128 0x1d
 10009 0278 01       		.byte	0x1
 10010 0279 31       		.uleb128 0x31
 10011 027a 13       		.uleb128 0x13
 10012 027b 11       		.uleb128 0x11
 10013 027c 01       		.uleb128 0x1
 10014 027d 12       		.uleb128 0x12
 10015 027e 06       		.uleb128 0x6
 10016 027f 58       		.uleb128 0x58
 10017 0280 0B       		.uleb128 0xb
 10018 0281 59       		.uleb128 0x59
 10019 0282 05       		.uleb128 0x5
 10020 0283 01       		.uleb128 0x1
 10021 0284 13       		.uleb128 0x13
 10022 0285 00       		.byte	0
 10023 0286 00       		.byte	0
 10024 0287 2E       		.uleb128 0x2e
 10025 0288 05       		.uleb128 0x5
 10026 0289 00       		.byte	0
 10027 028a 03       		.uleb128 0x3
 10028 028b 08       		.uleb128 0x8
 10029 028c 3A       		.uleb128 0x3a
 10030 028d 0B       		.uleb128 0xb
 10031 028e 3B       		.uleb128 0x3b
 10032 028f 05       		.uleb128 0x5
 10033 0290 49       		.uleb128 0x49
 10034 0291 13       		.uleb128 0x13
 10035 0292 02       		.uleb128 0x2
 10036 0293 18       		.uleb128 0x18
 10037 0294 00       		.byte	0
 10038 0295 00       		.byte	0
 10039 0296 2F       		.uleb128 0x2f
 10040 0297 1D       		.uleb128 0x1d
 10041 0298 01       		.byte	0x1
 10042 0299 31       		.uleb128 0x31
 10043 029a 13       		.uleb128 0x13
 10044 029b 11       		.uleb128 0x11
 10045 029c 01       		.uleb128 0x1
 10046 029d 12       		.uleb128 0x12
 10047 029e 06       		.uleb128 0x6
 10048 029f 58       		.uleb128 0x58
 10049 02a0 0B       		.uleb128 0xb
 10050 02a1 59       		.uleb128 0x59
 10051 02a2 05       		.uleb128 0x5
 10052 02a3 00       		.byte	0
 10053 02a4 00       		.byte	0
 10054 02a5 30       		.uleb128 0x30
 10055 02a6 34       		.uleb128 0x34
 10056 02a7 00       		.byte	0
 10057 02a8 03       		.uleb128 0x3
 10058 02a9 08       		.uleb128 0x8
 10059 02aa 3A       		.uleb128 0x3a
 10060 02ab 0B       		.uleb128 0xb
ARM GAS  C:\Users\rdn\AppData\Local\Temp\ccYcaPXH.s 			page 213


 10061 02ac 3B       		.uleb128 0x3b
 10062 02ad 0B       		.uleb128 0xb
 10063 02ae 49       		.uleb128 0x49
 10064 02af 13       		.uleb128 0x13
 10065 02b0 1C       		.uleb128 0x1c
 10066 02b1 0A       		.uleb128 0xa
 10067 02b2 00       		.byte	0
 10068 02b3 00       		.byte	0
 10069 02b4 31       		.uleb128 0x31
 10070 02b5 17       		.uleb128 0x17
 10071 02b6 01       		.byte	0x1
 10072 02b7 0B       		.uleb128 0xb
 10073 02b8 0B       		.uleb128 0xb
 10074 02b9 3A       		.uleb128 0x3a
 10075 02ba 0B       		.uleb128 0xb
 10076 02bb 3B       		.uleb128 0x3b
 10077 02bc 0B       		.uleb128 0xb
 10078 02bd 01       		.uleb128 0x1
 10079 02be 13       		.uleb128 0x13
 10080 02bf 00       		.byte	0
 10081 02c0 00       		.byte	0
 10082 02c1 32       		.uleb128 0x32
 10083 02c2 0D       		.uleb128 0xd
 10084 02c3 00       		.byte	0
 10085 02c4 03       		.uleb128 0x3
 10086 02c5 08       		.uleb128 0x8
 10087 02c6 3A       		.uleb128 0x3a
 10088 02c7 0B       		.uleb128 0xb
 10089 02c8 3B       		.uleb128 0x3b
 10090 02c9 0B       		.uleb128 0xb
 10091 02ca 49       		.uleb128 0x49
 10092 02cb 13       		.uleb128 0x13
 10093 02cc 00       		.byte	0
 10094 02cd 00       		.byte	0
 10095 02ce 33       		.uleb128 0x33
 10096 02cf 35       		.uleb128 0x35
 10097 02d0 00       		.byte	0
 10098 02d1 49       		.uleb128 0x49
 10099 02d2 13       		.uleb128 0x13
 10100 02d3 00       		.byte	0
 10101 02d4 00       		.byte	0
 10102 02d5 34       		.uleb128 0x34
 10103 02d6 05       		.uleb128 0x5
 10104 02d7 00       		.byte	0
 10105 02d8 03       		.uleb128 0x3
 10106 02d9 0E       		.uleb128 0xe
 10107 02da 3A       		.uleb128 0x3a
 10108 02db 0B       		.uleb128 0xb
 10109 02dc 3B       		.uleb128 0x3b
 10110 02dd 0B       		.uleb128 0xb
 10111 02de 49       		.uleb128 0x49
 10112 02df 13       		.uleb128 0x13
 10113 02e0 02       		.uleb128 0x2
 10114 02e1 18       		.uleb128 0x18
 10115 02e2 00       		.byte	0
 10116 02e3 00       		.byte	0
 10117 02e4 35       		.uleb128 0x35
ARM GAS  C:\Users\rdn\AppData\Local\Temp\ccYcaPXH.s 			page 214


 10118 02e5 34       		.uleb128 0x34
 10119 02e6 00       		.byte	0
 10120 02e7 03       		.uleb128 0x3
 10121 02e8 08       		.uleb128 0x8
 10122 02e9 3A       		.uleb128 0x3a
 10123 02ea 0B       		.uleb128 0xb
 10124 02eb 3B       		.uleb128 0x3b
 10125 02ec 0B       		.uleb128 0xb
 10126 02ed 49       		.uleb128 0x49
 10127 02ee 13       		.uleb128 0x13
 10128 02ef 02       		.uleb128 0x2
 10129 02f0 18       		.uleb128 0x18
 10130 02f1 00       		.byte	0
 10131 02f2 00       		.byte	0
 10132 02f3 36       		.uleb128 0x36
 10133 02f4 34       		.uleb128 0x34
 10134 02f5 00       		.byte	0
 10135 02f6 03       		.uleb128 0x3
 10136 02f7 0E       		.uleb128 0xe
 10137 02f8 3A       		.uleb128 0x3a
 10138 02f9 0B       		.uleb128 0xb
 10139 02fa 3B       		.uleb128 0x3b
 10140 02fb 0B       		.uleb128 0xb
 10141 02fc 49       		.uleb128 0x49
 10142 02fd 13       		.uleb128 0x13
 10143 02fe 1C       		.uleb128 0x1c
 10144 02ff 05       		.uleb128 0x5
 10145 0300 00       		.byte	0
 10146 0301 00       		.byte	0
 10147 0302 37       		.uleb128 0x37
 10148 0303 34       		.uleb128 0x34
 10149 0304 00       		.byte	0
 10150 0305 03       		.uleb128 0x3
 10151 0306 0E       		.uleb128 0xe
 10152 0307 3A       		.uleb128 0x3a
 10153 0308 0B       		.uleb128 0xb
 10154 0309 3B       		.uleb128 0x3b
 10155 030a 0B       		.uleb128 0xb
 10156 030b 49       		.uleb128 0x49
 10157 030c 13       		.uleb128 0x13
 10158 030d 1C       		.uleb128 0x1c
 10159 030e 06       		.uleb128 0x6
 10160 030f 00       		.byte	0
 10161 0310 00       		.byte	0
 10162 0311 38       		.uleb128 0x38
 10163 0312 0B       		.uleb128 0xb
 10164 0313 01       		.byte	0x1
 10165 0314 55       		.uleb128 0x55
 10166 0315 17       		.uleb128 0x17
 10167 0316 01       		.uleb128 0x1
 10168 0317 13       		.uleb128 0x13
 10169 0318 00       		.byte	0
 10170 0319 00       		.byte	0
 10171 031a 39       		.uleb128 0x39
 10172 031b 898201   		.uleb128 0x4109
 10173 031e 01       		.byte	0x1
 10174 031f 11       		.uleb128 0x11
ARM GAS  C:\Users\rdn\AppData\Local\Temp\ccYcaPXH.s 			page 215


 10175 0320 01       		.uleb128 0x1
 10176 0321 31       		.uleb128 0x31
 10177 0322 13       		.uleb128 0x13
 10178 0323 01       		.uleb128 0x1
 10179 0324 13       		.uleb128 0x13
 10180 0325 00       		.byte	0
 10181 0326 00       		.byte	0
 10182 0327 3A       		.uleb128 0x3a
 10183 0328 898201   		.uleb128 0x4109
 10184 032b 00       		.byte	0
 10185 032c 11       		.uleb128 0x11
 10186 032d 01       		.uleb128 0x1
 10187 032e 31       		.uleb128 0x31
 10188 032f 13       		.uleb128 0x13
 10189 0330 00       		.byte	0
 10190 0331 00       		.byte	0
 10191 0332 3B       		.uleb128 0x3b
 10192 0333 05       		.uleb128 0x5
 10193 0334 00       		.byte	0
 10194 0335 31       		.uleb128 0x31
 10195 0336 13       		.uleb128 0x13
 10196 0337 02       		.uleb128 0x2
 10197 0338 18       		.uleb128 0x18
 10198 0339 00       		.byte	0
 10199 033a 00       		.byte	0
 10200 033b 3C       		.uleb128 0x3c
 10201 033c 34       		.uleb128 0x34
 10202 033d 00       		.byte	0
 10203 033e 31       		.uleb128 0x31
 10204 033f 13       		.uleb128 0x13
 10205 0340 02       		.uleb128 0x2
 10206 0341 18       		.uleb128 0x18
 10207 0342 00       		.byte	0
 10208 0343 00       		.byte	0
 10209 0344 3D       		.uleb128 0x3d
 10210 0345 34       		.uleb128 0x34
 10211 0346 00       		.byte	0
 10212 0347 31       		.uleb128 0x31
 10213 0348 13       		.uleb128 0x13
 10214 0349 00       		.byte	0
 10215 034a 00       		.byte	0
 10216 034b 3E       		.uleb128 0x3e
 10217 034c 898201   		.uleb128 0x4109
 10218 034f 00       		.byte	0
 10219 0350 11       		.uleb128 0x11
 10220 0351 01       		.uleb128 0x1
 10221 0352 9542     		.uleb128 0x2115
 10222 0354 19       		.uleb128 0x19
 10223 0355 31       		.uleb128 0x31
 10224 0356 13       		.uleb128 0x13
 10225 0357 00       		.byte	0
 10226 0358 00       		.byte	0
 10227 0359 3F       		.uleb128 0x3f
 10228 035a 898201   		.uleb128 0x4109
 10229 035d 01       		.byte	0x1
 10230 035e 11       		.uleb128 0x11
 10231 035f 01       		.uleb128 0x1
ARM GAS  C:\Users\rdn\AppData\Local\Temp\ccYcaPXH.s 			page 216


 10232 0360 9542     		.uleb128 0x2115
 10233 0362 19       		.uleb128 0x19
 10234 0363 31       		.uleb128 0x31
 10235 0364 13       		.uleb128 0x13
 10236 0365 00       		.byte	0
 10237 0366 00       		.byte	0
 10238 0367 40       		.uleb128 0x40
 10239 0368 2E       		.uleb128 0x2e
 10240 0369 01       		.byte	0x1
 10241 036a 03       		.uleb128 0x3
 10242 036b 0E       		.uleb128 0xe
 10243 036c 3A       		.uleb128 0x3a
 10244 036d 0B       		.uleb128 0xb
 10245 036e 3B       		.uleb128 0x3b
 10246 036f 05       		.uleb128 0x5
 10247 0370 27       		.uleb128 0x27
 10248 0371 19       		.uleb128 0x19
 10249 0372 11       		.uleb128 0x11
 10250 0373 01       		.uleb128 0x1
 10251 0374 12       		.uleb128 0x12
 10252 0375 06       		.uleb128 0x6
 10253 0376 40       		.uleb128 0x40
 10254 0377 18       		.uleb128 0x18
 10255 0378 9742     		.uleb128 0x2117
 10256 037a 19       		.uleb128 0x19
 10257 037b 01       		.uleb128 0x1
 10258 037c 13       		.uleb128 0x13
 10259 037d 00       		.byte	0
 10260 037e 00       		.byte	0
 10261 037f 41       		.uleb128 0x41
 10262 0380 05       		.uleb128 0x5
 10263 0381 00       		.byte	0
 10264 0382 03       		.uleb128 0x3
 10265 0383 0E       		.uleb128 0xe
 10266 0384 3A       		.uleb128 0x3a
 10267 0385 0B       		.uleb128 0xb
 10268 0386 3B       		.uleb128 0x3b
 10269 0387 0B       		.uleb128 0xb
 10270 0388 49       		.uleb128 0x49
 10271 0389 13       		.uleb128 0x13
 10272 038a 00       		.byte	0
 10273 038b 00       		.byte	0
 10274 038c 42       		.uleb128 0x42
 10275 038d 34       		.uleb128 0x34
 10276 038e 00       		.byte	0
 10277 038f 03       		.uleb128 0x3
 10278 0390 0E       		.uleb128 0xe
 10279 0391 3A       		.uleb128 0x3a
 10280 0392 0B       		.uleb128 0xb
 10281 0393 3B       		.uleb128 0x3b
 10282 0394 0B       		.uleb128 0xb
 10283 0395 49       		.uleb128 0x49
 10284 0396 13       		.uleb128 0x13
 10285 0397 00       		.byte	0
 10286 0398 00       		.byte	0
 10287 0399 43       		.uleb128 0x43
 10288 039a 0B       		.uleb128 0xb
ARM GAS  C:\Users\rdn\AppData\Local\Temp\ccYcaPXH.s 			page 217


 10289 039b 01       		.byte	0x1
 10290 039c 01       		.uleb128 0x1
 10291 039d 13       		.uleb128 0x13
 10292 039e 00       		.byte	0
 10293 039f 00       		.byte	0
 10294 03a0 44       		.uleb128 0x44
 10295 03a1 0B       		.uleb128 0xb
 10296 03a2 01       		.byte	0x1
 10297 03a3 00       		.byte	0
 10298 03a4 00       		.byte	0
 10299 03a5 45       		.uleb128 0x45
 10300 03a6 2E       		.uleb128 0x2e
 10301 03a7 01       		.byte	0x1
 10302 03a8 3F       		.uleb128 0x3f
 10303 03a9 19       		.uleb128 0x19
 10304 03aa 03       		.uleb128 0x3
 10305 03ab 0E       		.uleb128 0xe
 10306 03ac 3A       		.uleb128 0x3a
 10307 03ad 0B       		.uleb128 0xb
 10308 03ae 3B       		.uleb128 0x3b
 10309 03af 05       		.uleb128 0x5
 10310 03b0 27       		.uleb128 0x27
 10311 03b1 19       		.uleb128 0x19
 10312 03b2 11       		.uleb128 0x11
 10313 03b3 01       		.uleb128 0x1
 10314 03b4 12       		.uleb128 0x12
 10315 03b5 06       		.uleb128 0x6
 10316 03b6 40       		.uleb128 0x40
 10317 03b7 18       		.uleb128 0x18
 10318 03b8 9742     		.uleb128 0x2117
 10319 03ba 19       		.uleb128 0x19
 10320 03bb 01       		.uleb128 0x1
 10321 03bc 13       		.uleb128 0x13
 10322 03bd 00       		.byte	0
 10323 03be 00       		.byte	0
 10324 03bf 46       		.uleb128 0x46
 10325 03c0 34       		.uleb128 0x34
 10326 03c1 00       		.byte	0
 10327 03c2 03       		.uleb128 0x3
 10328 03c3 0E       		.uleb128 0xe
 10329 03c4 3A       		.uleb128 0x3a
 10330 03c5 0B       		.uleb128 0xb
 10331 03c6 3B       		.uleb128 0x3b
 10332 03c7 05       		.uleb128 0x5
 10333 03c8 49       		.uleb128 0x49
 10334 03c9 13       		.uleb128 0x13
 10335 03ca 02       		.uleb128 0x2
 10336 03cb 18       		.uleb128 0x18
 10337 03cc 00       		.byte	0
 10338 03cd 00       		.byte	0
 10339 03ce 47       		.uleb128 0x47
 10340 03cf 34       		.uleb128 0x34
 10341 03d0 00       		.byte	0
 10342 03d1 03       		.uleb128 0x3
 10343 03d2 0E       		.uleb128 0xe
 10344 03d3 3A       		.uleb128 0x3a
 10345 03d4 0B       		.uleb128 0xb
ARM GAS  C:\Users\rdn\AppData\Local\Temp\ccYcaPXH.s 			page 218


 10346 03d5 3B       		.uleb128 0x3b
 10347 03d6 05       		.uleb128 0x5
 10348 03d7 49       		.uleb128 0x49
 10349 03d8 13       		.uleb128 0x13
 10350 03d9 1C       		.uleb128 0x1c
 10351 03da 0B       		.uleb128 0xb
 10352 03db 00       		.byte	0
 10353 03dc 00       		.byte	0
 10354 03dd 48       		.uleb128 0x48
 10355 03de 2E       		.uleb128 0x2e
 10356 03df 01       		.byte	0x1
 10357 03e0 03       		.uleb128 0x3
 10358 03e1 0E       		.uleb128 0xe
 10359 03e2 3A       		.uleb128 0x3a
 10360 03e3 0B       		.uleb128 0xb
 10361 03e4 3B       		.uleb128 0x3b
 10362 03e5 05       		.uleb128 0x5
 10363 03e6 27       		.uleb128 0x27
 10364 03e7 19       		.uleb128 0x19
 10365 03e8 20       		.uleb128 0x20
 10366 03e9 0B       		.uleb128 0xb
 10367 03ea 01       		.uleb128 0x1
 10368 03eb 13       		.uleb128 0x13
 10369 03ec 00       		.byte	0
 10370 03ed 00       		.byte	0
 10371 03ee 49       		.uleb128 0x49
 10372 03ef 05       		.uleb128 0x5
 10373 03f0 00       		.byte	0
 10374 03f1 03       		.uleb128 0x3
 10375 03f2 0E       		.uleb128 0xe
 10376 03f3 3A       		.uleb128 0x3a
 10377 03f4 0B       		.uleb128 0xb
 10378 03f5 3B       		.uleb128 0x3b
 10379 03f6 05       		.uleb128 0x5
 10380 03f7 49       		.uleb128 0x49
 10381 03f8 13       		.uleb128 0x13
 10382 03f9 02       		.uleb128 0x2
 10383 03fa 18       		.uleb128 0x18
 10384 03fb 00       		.byte	0
 10385 03fc 00       		.byte	0
 10386 03fd 4A       		.uleb128 0x4a
 10387 03fe 05       		.uleb128 0x5
 10388 03ff 00       		.byte	0
 10389 0400 31       		.uleb128 0x31
 10390 0401 13       		.uleb128 0x13
 10391 0402 00       		.byte	0
 10392 0403 00       		.byte	0
 10393 0404 4B       		.uleb128 0x4b
 10394 0405 1D       		.uleb128 0x1d
 10395 0406 01       		.byte	0x1
 10396 0407 31       		.uleb128 0x31
 10397 0408 13       		.uleb128 0x13
 10398 0409 52       		.uleb128 0x52
 10399 040a 01       		.uleb128 0x1
 10400 040b 55       		.uleb128 0x55
 10401 040c 17       		.uleb128 0x17
 10402 040d 58       		.uleb128 0x58
ARM GAS  C:\Users\rdn\AppData\Local\Temp\ccYcaPXH.s 			page 219


 10403 040e 0B       		.uleb128 0xb
 10404 040f 59       		.uleb128 0x59
 10405 0410 05       		.uleb128 0x5
 10406 0411 00       		.byte	0
 10407 0412 00       		.byte	0
 10408 0413 4C       		.uleb128 0x4c
 10409 0414 2E       		.uleb128 0x2e
 10410 0415 01       		.byte	0x1
 10411 0416 3F       		.uleb128 0x3f
 10412 0417 19       		.uleb128 0x19
 10413 0418 03       		.uleb128 0x3
 10414 0419 0E       		.uleb128 0xe
 10415 041a 3A       		.uleb128 0x3a
 10416 041b 0B       		.uleb128 0xb
 10417 041c 3B       		.uleb128 0x3b
 10418 041d 05       		.uleb128 0x5
 10419 041e 27       		.uleb128 0x27
 10420 041f 19       		.uleb128 0x19
 10421 0420 49       		.uleb128 0x49
 10422 0421 13       		.uleb128 0x13
 10423 0422 11       		.uleb128 0x11
 10424 0423 01       		.uleb128 0x1
 10425 0424 12       		.uleb128 0x12
 10426 0425 06       		.uleb128 0x6
 10427 0426 40       		.uleb128 0x40
 10428 0427 18       		.uleb128 0x18
 10429 0428 9742     		.uleb128 0x2117
 10430 042a 19       		.uleb128 0x19
 10431 042b 01       		.uleb128 0x1
 10432 042c 13       		.uleb128 0x13
 10433 042d 00       		.byte	0
 10434 042e 00       		.byte	0
 10435 042f 4D       		.uleb128 0x4d
 10436 0430 34       		.uleb128 0x34
 10437 0431 00       		.byte	0
 10438 0432 03       		.uleb128 0x3
 10439 0433 08       		.uleb128 0x8
 10440 0434 3A       		.uleb128 0x3a
 10441 0435 0B       		.uleb128 0xb
 10442 0436 3B       		.uleb128 0x3b
 10443 0437 05       		.uleb128 0x5
 10444 0438 49       		.uleb128 0x49
 10445 0439 13       		.uleb128 0x13
 10446 043a 02       		.uleb128 0x2
 10447 043b 18       		.uleb128 0x18
 10448 043c 00       		.byte	0
 10449 043d 00       		.byte	0
 10450 043e 4E       		.uleb128 0x4e
 10451 043f 34       		.uleb128 0x34
 10452 0440 00       		.byte	0
 10453 0441 03       		.uleb128 0x3
 10454 0442 0E       		.uleb128 0xe
 10455 0443 3A       		.uleb128 0x3a
 10456 0444 0B       		.uleb128 0xb
 10457 0445 3B       		.uleb128 0x3b
 10458 0446 0B       		.uleb128 0xb
 10459 0447 49       		.uleb128 0x49
ARM GAS  C:\Users\rdn\AppData\Local\Temp\ccYcaPXH.s 			page 220


 10460 0448 13       		.uleb128 0x13
 10461 0449 3F       		.uleb128 0x3f
 10462 044a 19       		.uleb128 0x19
 10463 044b 3C       		.uleb128 0x3c
 10464 044c 19       		.uleb128 0x19
 10465 044d 00       		.byte	0
 10466 044e 00       		.byte	0
 10467 044f 4F       		.uleb128 0x4f
 10468 0450 21       		.uleb128 0x21
 10469 0451 00       		.byte	0
 10470 0452 00       		.byte	0
 10471 0453 00       		.byte	0
 10472 0454 50       		.uleb128 0x50
 10473 0455 2E       		.uleb128 0x2e
 10474 0456 00       		.byte	0
 10475 0457 3F       		.uleb128 0x3f
 10476 0458 19       		.uleb128 0x19
 10477 0459 3C       		.uleb128 0x3c
 10478 045a 19       		.uleb128 0x19
 10479 045b 6E       		.uleb128 0x6e
 10480 045c 0E       		.uleb128 0xe
 10481 045d 03       		.uleb128 0x3
 10482 045e 0E       		.uleb128 0xe
 10483 045f 00       		.byte	0
 10484 0460 00       		.byte	0
 10485 0461 51       		.uleb128 0x51
 10486 0462 2E       		.uleb128 0x2e
 10487 0463 00       		.byte	0
 10488 0464 3F       		.uleb128 0x3f
 10489 0465 19       		.uleb128 0x19
 10490 0466 3C       		.uleb128 0x3c
 10491 0467 19       		.uleb128 0x19
 10492 0468 6E       		.uleb128 0x6e
 10493 0469 0E       		.uleb128 0xe
 10494 046a 03       		.uleb128 0x3
 10495 046b 0E       		.uleb128 0xe
 10496 046c 3A       		.uleb128 0x3a
 10497 046d 0B       		.uleb128 0xb
 10498 046e 3B       		.uleb128 0x3b
 10499 046f 05       		.uleb128 0x5
 10500 0470 00       		.byte	0
 10501 0471 00       		.byte	0
 10502 0472 52       		.uleb128 0x52
 10503 0473 2E       		.uleb128 0x2e
 10504 0474 00       		.byte	0
 10505 0475 3F       		.uleb128 0x3f
 10506 0476 19       		.uleb128 0x19
 10507 0477 3C       		.uleb128 0x3c
 10508 0478 19       		.uleb128 0x19
 10509 0479 6E       		.uleb128 0x6e
 10510 047a 0E       		.uleb128 0xe
 10511 047b 03       		.uleb128 0x3
 10512 047c 0E       		.uleb128 0xe
 10513 047d 3A       		.uleb128 0x3a
 10514 047e 0B       		.uleb128 0xb
 10515 047f 3B       		.uleb128 0x3b
 10516 0480 0B       		.uleb128 0xb
ARM GAS  C:\Users\rdn\AppData\Local\Temp\ccYcaPXH.s 			page 221


 10517 0481 00       		.byte	0
 10518 0482 00       		.byte	0
 10519 0483 00       		.byte	0
 10520              		.section	.debug_loc,"",%progbits
 10521              	.Ldebug_loc0:
 10522              	.LLST0:
 10523 0000 00000000 		.4byte	.LVL0
 10524 0004 2A000000 		.4byte	.LVL6
 10525 0008 0100     		.2byte	0x1
 10526 000a 50       		.byte	0x50
 10527 000b 2A000000 		.4byte	.LVL6
 10528 000f 34000000 		.4byte	.LFE20
 10529 0013 0400     		.2byte	0x4
 10530 0015 F3       		.byte	0xf3
 10531 0016 01       		.uleb128 0x1
 10532 0017 50       		.byte	0x50
 10533 0018 9F       		.byte	0x9f
 10534 0019 00000000 		.4byte	0
 10535 001d 00000000 		.4byte	0
 10536              	.LLST1:
 10537 0021 00000000 		.4byte	.LVL0
 10538 0025 18000000 		.4byte	.LVL4
 10539 0029 0100     		.2byte	0x1
 10540 002b 51       		.byte	0x51
 10541 002c 18000000 		.4byte	.LVL4
 10542 0030 34000000 		.4byte	.LFE20
 10543 0034 0400     		.2byte	0x4
 10544 0036 F3       		.byte	0xf3
 10545 0037 01       		.uleb128 0x1
 10546 0038 51       		.byte	0x51
 10547 0039 9F       		.byte	0x9f
 10548 003a 00000000 		.4byte	0
 10549 003e 00000000 		.4byte	0
 10550              	.LLST2:
 10551 0042 0A000000 		.4byte	.LVL1
 10552 0046 0C000000 		.4byte	.LVL2
 10553 004a 0100     		.2byte	0x1
 10554 004c 53       		.byte	0x53
 10555 004d 0C000000 		.4byte	.LVL2
 10556 0051 14000000 		.4byte	.LVL3
 10557 0055 0300     		.2byte	0x3
 10558 0057 73       		.byte	0x73
 10559 0058 7F       		.sleb128 -1
 10560 0059 9F       		.byte	0x9f
 10561 005a 00000000 		.4byte	0
 10562 005e 00000000 		.4byte	0
 10563              	.LLST3:
 10564 0062 0C000000 		.4byte	.LVL2
 10565 0066 14000000 		.4byte	.LVL3
 10566 006a 0A00     		.2byte	0xa
 10567 006c 71       		.byte	0x71
 10568 006d 00       		.sleb128 0
 10569 006e 33       		.byte	0x33
 10570 006f 24       		.byte	0x24
 10571 0070 73       		.byte	0x73
 10572 0071 00       		.sleb128 0
 10573 0072 3A       		.byte	0x3a
ARM GAS  C:\Users\rdn\AppData\Local\Temp\ccYcaPXH.s 			page 222


 10574 0073 1E       		.byte	0x1e
 10575 0074 1B       		.byte	0x1b
 10576 0075 9F       		.byte	0x9f
 10577 0076 1C000000 		.4byte	.LVL5
 10578 007a 34000000 		.4byte	.LFE20
 10579 007e 0100     		.2byte	0x1
 10580 0080 51       		.byte	0x51
 10581 0081 00000000 		.4byte	0
 10582 0085 00000000 		.4byte	0
 10583              	.LLST4:
 10584 0089 00000000 		.4byte	.LVL7
 10585 008d 0E000000 		.4byte	.LVL9
 10586 0091 0100     		.2byte	0x1
 10587 0093 50       		.byte	0x50
 10588 0094 0E000000 		.4byte	.LVL9
 10589 0098 2A000000 		.4byte	.LVL13
 10590 009c 0100     		.2byte	0x1
 10591 009e 50       		.byte	0x50
 10592 009f 00000000 		.4byte	0
 10593 00a3 00000000 		.4byte	0
 10594              	.LLST5:
 10595 00a7 00000000 		.4byte	.LVL7
 10596 00ab 08000000 		.4byte	.LVL8
 10597 00af 0600     		.2byte	0x6
 10598 00b1 9E       		.byte	0x9e
 10599 00b2 04       		.uleb128 0x4
 10600 00b3 0000803F 		.4byte	0x3f800000
 10601 00b7 08000000 		.4byte	.LVL8
 10602 00bb 3C000000 		.4byte	.LFE21
 10603 00bf 0200     		.2byte	0x2
 10604 00c1 90       		.byte	0x90
 10605 00c2 4F       		.uleb128 0x4f
 10606 00c3 00000000 		.4byte	0
 10607 00c7 00000000 		.4byte	0
 10608              	.LLST6:
 10609 00cb 00000000 		.4byte	.LVL14
 10610 00cf 06000000 		.4byte	.LVL15
 10611 00d3 0100     		.2byte	0x1
 10612 00d5 50       		.byte	0x50
 10613 00d6 06000000 		.4byte	.LVL15
 10614 00da 7C000000 		.4byte	.LFE24
 10615 00de 0400     		.2byte	0x4
 10616 00e0 F3       		.byte	0xf3
 10617 00e1 01       		.uleb128 0x1
 10618 00e2 50       		.byte	0x50
 10619 00e3 9F       		.byte	0x9f
 10620 00e4 00000000 		.4byte	0
 10621 00e8 00000000 		.4byte	0
 10622              	.LLST7:
 10623 00ec 00000000 		.4byte	.LVL14
 10624 00f0 0B000000 		.4byte	.LVL16-1
 10625 00f4 0100     		.2byte	0x1
 10626 00f6 51       		.byte	0x51
 10627 00f7 0B000000 		.4byte	.LVL16-1
 10628 00fb 7C000000 		.4byte	.LFE24
 10629 00ff 0400     		.2byte	0x4
 10630 0101 F3       		.byte	0xf3
ARM GAS  C:\Users\rdn\AppData\Local\Temp\ccYcaPXH.s 			page 223


 10631 0102 01       		.uleb128 0x1
 10632 0103 51       		.byte	0x51
 10633 0104 9F       		.byte	0x9f
 10634 0105 00000000 		.4byte	0
 10635 0109 00000000 		.4byte	0
 10636              	.LLST8:
 10637 010d 00000000 		.4byte	.LVL14
 10638 0111 0B000000 		.4byte	.LVL16-1
 10639 0115 0100     		.2byte	0x1
 10640 0117 52       		.byte	0x52
 10641 0118 0B000000 		.4byte	.LVL16-1
 10642 011c 7C000000 		.4byte	.LFE24
 10643 0120 0400     		.2byte	0x4
 10644 0122 F3       		.byte	0xf3
 10645 0123 01       		.uleb128 0x1
 10646 0124 52       		.byte	0x52
 10647 0125 9F       		.byte	0x9f
 10648 0126 00000000 		.4byte	0
 10649 012a 00000000 		.4byte	0
 10650              	.LLST9:
 10651 012e 00000000 		.4byte	.LVL14
 10652 0132 0B000000 		.4byte	.LVL16-1
 10653 0136 0100     		.2byte	0x1
 10654 0138 53       		.byte	0x53
 10655 0139 0B000000 		.4byte	.LVL16-1
 10656 013d 78000000 		.4byte	.LVL23
 10657 0141 0100     		.2byte	0x1
 10658 0143 54       		.byte	0x54
 10659 0144 78000000 		.4byte	.LVL23
 10660 0148 7C000000 		.4byte	.LFE24
 10661 014c 0400     		.2byte	0x4
 10662 014e F3       		.byte	0xf3
 10663 014f 01       		.uleb128 0x1
 10664 0150 53       		.byte	0x53
 10665 0151 9F       		.byte	0x9f
 10666 0152 00000000 		.4byte	0
 10667 0156 00000000 		.4byte	0
 10668              	.LLST10:
 10669 015a 00000000 		.4byte	.LVL14
 10670 015e 78000000 		.4byte	.LVL23
 10671 0162 0200     		.2byte	0x2
 10672 0164 91       		.byte	0x91
 10673 0165 00       		.sleb128 0
 10674 0166 78000000 		.4byte	.LVL23
 10675 016a 7C000000 		.4byte	.LFE24
 10676 016e 0200     		.2byte	0x2
 10677 0170 7D       		.byte	0x7d
 10678 0171 00       		.sleb128 0
 10679 0172 00000000 		.4byte	0
 10680 0176 00000000 		.4byte	0
 10681              	.LLST11:
 10682 017a 0C000000 		.4byte	.LVL16
 10683 017e 1A000000 		.4byte	.LVL17
 10684 0182 0100     		.2byte	0x1
 10685 0184 51       		.byte	0x51
 10686 0185 00000000 		.4byte	0
 10687 0189 00000000 		.4byte	0
ARM GAS  C:\Users\rdn\AppData\Local\Temp\ccYcaPXH.s 			page 224


 10688              	.LLST12:
 10689 018d 0C000000 		.4byte	.LVL16
 10690 0191 1A000000 		.4byte	.LVL17
 10691 0195 0100     		.2byte	0x1
 10692 0197 56       		.byte	0x56
 10693 0198 00000000 		.4byte	0
 10694 019c 00000000 		.4byte	0
 10695              	.LLST13:
 10696 01a0 24000000 		.4byte	.LVL18
 10697 01a4 2E000000 		.4byte	.LVL19
 10698 01a8 0200     		.2byte	0x2
 10699 01aa 30       		.byte	0x30
 10700 01ab 9F       		.byte	0x9f
 10701 01ac 2E000000 		.4byte	.LVL19
 10702 01b0 7C000000 		.4byte	.LFE24
 10703 01b4 0100     		.2byte	0x1
 10704 01b6 51       		.byte	0x51
 10705 01b7 00000000 		.4byte	0
 10706 01bb 00000000 		.4byte	0
 10707              	.LLST14:
 10708 01bf 32000000 		.4byte	.LVL20
 10709 01c3 76000000 		.4byte	.LVL22
 10710 01c7 0200     		.2byte	0x2
 10711 01c9 90       		.byte	0x90
 10712 01ca 4D       		.uleb128 0x4d
 10713 01cb 00000000 		.4byte	0
 10714 01cf 00000000 		.4byte	0
 10715              	.LLST15:
 10716 01d3 00000000 		.4byte	.LVL24
 10717 01d7 7C000000 		.4byte	.LVL33
 10718 01db 0100     		.2byte	0x1
 10719 01dd 50       		.byte	0x50
 10720 01de 7C000000 		.4byte	.LVL33
 10721 01e2 2C020000 		.4byte	.LFE27
 10722 01e6 0400     		.2byte	0x4
 10723 01e8 F3       		.byte	0xf3
 10724 01e9 01       		.uleb128 0x1
 10725 01ea 50       		.byte	0x50
 10726 01eb 9F       		.byte	0x9f
 10727 01ec 00000000 		.4byte	0
 10728 01f0 00000000 		.4byte	0
 10729              	.LLST16:
 10730 01f4 00000000 		.4byte	.LVL24
 10731 01f8 7C000000 		.4byte	.LVL33
 10732 01fc 0100     		.2byte	0x1
 10733 01fe 51       		.byte	0x51
 10734 01ff 7C000000 		.4byte	.LVL33
 10735 0203 2C020000 		.4byte	.LFE27
 10736 0207 0400     		.2byte	0x4
 10737 0209 F3       		.byte	0xf3
 10738 020a 01       		.uleb128 0x1
 10739 020b 51       		.byte	0x51
 10740 020c 9F       		.byte	0x9f
 10741 020d 00000000 		.4byte	0
 10742 0211 00000000 		.4byte	0
 10743              	.LLST17:
 10744 0215 00000000 		.4byte	.LVL24
ARM GAS  C:\Users\rdn\AppData\Local\Temp\ccYcaPXH.s 			page 225


 10745 0219 3E000000 		.4byte	.LVL30
 10746 021d 0100     		.2byte	0x1
 10747 021f 52       		.byte	0x52
 10748 0220 3E000000 		.4byte	.LVL30
 10749 0224 2C020000 		.4byte	.LFE27
 10750 0228 0400     		.2byte	0x4
 10751 022a F3       		.byte	0xf3
 10752 022b 01       		.uleb128 0x1
 10753 022c 52       		.byte	0x52
 10754 022d 9F       		.byte	0x9f
 10755 022e 00000000 		.4byte	0
 10756 0232 00000000 		.4byte	0
 10757              	.LLST18:
 10758 0236 00000000 		.4byte	.LVL24
 10759 023a 10000000 		.4byte	.LVL25
 10760 023e 0100     		.2byte	0x1
 10761 0240 53       		.byte	0x53
 10762 0241 10000000 		.4byte	.LVL25
 10763 0245 1E020000 		.4byte	.LVL71
 10764 0249 0200     		.2byte	0x2
 10765 024b 91       		.byte	0x91
 10766 024c 54       		.sleb128 -44
 10767 024d 1E020000 		.4byte	.LVL71
 10768 0251 2C020000 		.4byte	.LFE27
 10769 0255 0200     		.2byte	0x2
 10770 0257 7D       		.byte	0x7d
 10771 0258 54       		.sleb128 -44
 10772 0259 00000000 		.4byte	0
 10773 025d 00000000 		.4byte	0
 10774              	.LLST19:
 10775 0261 00000000 		.4byte	.LVL24
 10776 0265 1E020000 		.4byte	.LVL71
 10777 0269 0200     		.2byte	0x2
 10778 026b 91       		.byte	0x91
 10779 026c 00       		.sleb128 0
 10780 026d 1E020000 		.4byte	.LVL71
 10781 0271 2C020000 		.4byte	.LFE27
 10782 0275 0200     		.2byte	0x2
 10783 0277 7D       		.byte	0x7d
 10784 0278 00       		.sleb128 0
 10785 0279 00000000 		.4byte	0
 10786 027d 00000000 		.4byte	0
 10787              	.LLST20:
 10788 0281 00000000 		.4byte	.LVL24
 10789 0285 52000000 		.4byte	.LVL32
 10790 0289 0200     		.2byte	0x2
 10791 028b 91       		.byte	0x91
 10792 028c 04       		.sleb128 4
 10793 028d 52000000 		.4byte	.LVL32
 10794 0291 1E020000 		.4byte	.LVL71
 10795 0295 0100     		.2byte	0x1
 10796 0297 56       		.byte	0x56
 10797 0298 00000000 		.4byte	0
 10798 029c 00000000 		.4byte	0
 10799              	.LLST21:
 10800 02a0 00000000 		.4byte	.LVL24
 10801 02a4 1E020000 		.4byte	.LVL71
ARM GAS  C:\Users\rdn\AppData\Local\Temp\ccYcaPXH.s 			page 226


 10802 02a8 0200     		.2byte	0x2
 10803 02aa 91       		.byte	0x91
 10804 02ab 08       		.sleb128 8
 10805 02ac 1E020000 		.4byte	.LVL71
 10806 02b0 2C020000 		.4byte	.LFE27
 10807 02b4 0200     		.2byte	0x2
 10808 02b6 7D       		.byte	0x7d
 10809 02b7 08       		.sleb128 8
 10810 02b8 00000000 		.4byte	0
 10811 02bc 00000000 		.4byte	0
 10812              	.LLST22:
 10813 02c0 2A000000 		.4byte	.LVL28
 10814 02c4 EE010000 		.4byte	.LVL69
 10815 02c8 0100     		.2byte	0x1
 10816 02ca 55       		.byte	0x55
 10817 02cb 00000000 		.4byte	0
 10818 02cf 00000000 		.4byte	0
 10819              	.LLST23:
 10820 02d3 48000000 		.4byte	.LVL31
 10821 02d7 7C000000 		.4byte	.LVL33
 10822 02db 0200     		.2byte	0x2
 10823 02dd 30       		.byte	0x30
 10824 02de 9F       		.byte	0x9f
 10825 02df 7C000000 		.4byte	.LVL33
 10826 02e3 2C020000 		.4byte	.LFE27
 10827 02e7 0100     		.2byte	0x1
 10828 02e9 5E       		.byte	0x5e
 10829 02ea 00000000 		.4byte	0
 10830 02ee 00000000 		.4byte	0
 10831              	.LLST24:
 10832 02f2 48000000 		.4byte	.LVL31
 10833 02f6 7C000000 		.4byte	.LVL33
 10834 02fa 0200     		.2byte	0x2
 10835 02fc 30       		.byte	0x30
 10836 02fd 9F       		.byte	0x9f
 10837 02fe 7C000000 		.4byte	.LVL33
 10838 0302 1E020000 		.4byte	.LVL71
 10839 0306 0100     		.2byte	0x1
 10840 0308 5B       		.byte	0x5b
 10841 0309 00000000 		.4byte	0
 10842 030d 00000000 		.4byte	0
 10843              	.LLST25:
 10844 0311 48000000 		.4byte	.LVL31
 10845 0315 7C000000 		.4byte	.LVL33
 10846 0319 0200     		.2byte	0x2
 10847 031b 30       		.byte	0x30
 10848 031c 9F       		.byte	0x9f
 10849 031d 7C000000 		.4byte	.LVL33
 10850 0321 1E020000 		.4byte	.LVL71
 10851 0325 0300     		.2byte	0x3
 10852 0327 91       		.byte	0x91
 10853 0328 B07F     		.sleb128 -80
 10854 032a 1E020000 		.4byte	.LVL71
 10855 032e 2C020000 		.4byte	.LFE27
 10856 0332 0300     		.2byte	0x3
 10857 0334 7D       		.byte	0x7d
 10858 0335 B07F     		.sleb128 -80
ARM GAS  C:\Users\rdn\AppData\Local\Temp\ccYcaPXH.s 			page 227


 10859 0337 00000000 		.4byte	0
 10860 033b 00000000 		.4byte	0
 10861              	.LLST26:
 10862 033f 48000000 		.4byte	.LVL31
 10863 0343 7C000000 		.4byte	.LVL33
 10864 0347 0200     		.2byte	0x2
 10865 0349 30       		.byte	0x30
 10866 034a 9F       		.byte	0x9f
 10867 034b A8010000 		.4byte	.LVL60
 10868 034f AC010000 		.4byte	.LVL61
 10869 0353 0100     		.2byte	0x1
 10870 0355 5E       		.byte	0x5e
 10871 0356 0A020000 		.4byte	.LVL70
 10872 035a 1E020000 		.4byte	.LVL71
 10873 035e 0300     		.2byte	0x3
 10874 0360 91       		.byte	0x91
 10875 0361 AC7F     		.sleb128 -84
 10876 0363 1E020000 		.4byte	.LVL71
 10877 0367 2C020000 		.4byte	.LFE27
 10878 036b 0300     		.2byte	0x3
 10879 036d 7D       		.byte	0x7d
 10880 036e AC7F     		.sleb128 -84
 10881 0370 00000000 		.4byte	0
 10882 0374 00000000 		.4byte	0
 10883              	.LLST27:
 10884 0378 48000000 		.4byte	.LVL31
 10885 037c 7C000000 		.4byte	.LVL33
 10886 0380 0200     		.2byte	0x2
 10887 0382 30       		.byte	0x30
 10888 0383 9F       		.byte	0x9f
 10889 0384 A8010000 		.4byte	.LVL60
 10890 0388 AC010000 		.4byte	.LVL61
 10891 038c 0300     		.2byte	0x3
 10892 038e 91       		.byte	0x91
 10893 038f B87F     		.sleb128 -72
 10894 0391 00000000 		.4byte	0
 10895 0395 00000000 		.4byte	0
 10896              	.LLST28:
 10897 0399 00000000 		.4byte	.LVL24
 10898 039d 3C000000 		.4byte	.LVL29
 10899 03a1 0600     		.2byte	0x6
 10900 03a3 F2       		.byte	0xf2
 10901 03a4 A5060000 		.4byte	.Ldebug_info0+1701
 10902 03a8 00       		.sleb128 0
 10903 03a9 00000000 		.4byte	0
 10904 03ad 00000000 		.4byte	0
 10905              	.LLST29:
 10906 03b1 00000000 		.4byte	.LVL24
 10907 03b5 3C000000 		.4byte	.LVL29
 10908 03b9 0100     		.2byte	0x1
 10909 03bb 52       		.byte	0x52
 10910 03bc 00000000 		.4byte	0
 10911 03c0 00000000 		.4byte	0
 10912              	.LLST30:
 10913 03c4 00000000 		.4byte	.LVL24
 10914 03c8 3C000000 		.4byte	.LVL29
 10915 03cc 0100     		.2byte	0x1
ARM GAS  C:\Users\rdn\AppData\Local\Temp\ccYcaPXH.s 			page 228


 10916 03ce 51       		.byte	0x51
 10917 03cf 00000000 		.4byte	0
 10918 03d3 00000000 		.4byte	0
 10919              	.LLST31:
 10920 03d7 12000000 		.4byte	.LVL26
 10921 03db 16000000 		.4byte	.LVL27
 10922 03df 0100     		.2byte	0x1
 10923 03e1 53       		.byte	0x53
 10924 03e2 16000000 		.4byte	.LVL27
 10925 03e6 3C000000 		.4byte	.LVL29
 10926 03ea 0300     		.2byte	0x3
 10927 03ec 74       		.byte	0x74
 10928 03ed 7D       		.sleb128 -3
 10929 03ee 9F       		.byte	0x9f
 10930 03ef 00000000 		.4byte	0
 10931 03f3 00000000 		.4byte	0
 10932              	.LLST32:
 10933 03f7 3C000000 		.4byte	.LVL29
 10934 03fb 48000000 		.4byte	.LVL31
 10935 03ff 0100     		.2byte	0x1
 10936 0401 51       		.byte	0x51
 10937 0402 00000000 		.4byte	0
 10938 0406 00000000 		.4byte	0
 10939              	.LLST33:
 10940 040a 3C000000 		.4byte	.LVL29
 10941 040e 48000000 		.4byte	.LVL31
 10942 0412 0100     		.2byte	0x1
 10943 0414 50       		.byte	0x50
 10944 0415 00000000 		.4byte	0
 10945 0419 00000000 		.4byte	0
 10946              	.LLST34:
 10947 041d 52000000 		.4byte	.LVL32
 10948 0421 7C000000 		.4byte	.LVL33
 10949 0425 0200     		.2byte	0x2
 10950 0427 30       		.byte	0x30
 10951 0428 9F       		.byte	0x9f
 10952 0429 7C000000 		.4byte	.LVL33
 10953 042d 2C020000 		.4byte	.LFE27
 10954 0431 0100     		.2byte	0x1
 10955 0433 5C       		.byte	0x5c
 10956 0434 00000000 		.4byte	0
 10957 0438 00000000 		.4byte	0
 10958              	.LLST35:
 10959 043c 52000000 		.4byte	.LVL32
 10960 0440 7C000000 		.4byte	.LVL33
 10961 0444 0200     		.2byte	0x2
 10962 0446 30       		.byte	0x30
 10963 0447 9F       		.byte	0x9f
 10964 0448 7C000000 		.4byte	.LVL33
 10965 044c 1E020000 		.4byte	.LVL71
 10966 0450 0100     		.2byte	0x1
 10967 0452 54       		.byte	0x54
 10968 0453 00000000 		.4byte	0
 10969 0457 00000000 		.4byte	0
 10970              	.LLST36:
 10971 045b B2000000 		.4byte	.LVL37
 10972 045f DA010000 		.4byte	.LVL68
ARM GAS  C:\Users\rdn\AppData\Local\Temp\ccYcaPXH.s 			page 229


 10973 0463 0200     		.2byte	0x2
 10974 0465 90       		.byte	0x90
 10975 0466 4E       		.uleb128 0x4e
 10976 0467 00000000 		.4byte	0
 10977 046b 00000000 		.4byte	0
 10978              	.LLST37:
 10979 046f CE000000 		.4byte	.LVL38
 10980 0473 DA010000 		.4byte	.LVL68
 10981 0477 0100     		.2byte	0x1
 10982 0479 51       		.byte	0x51
 10983 047a 00000000 		.4byte	0
 10984 047e 00000000 		.4byte	0
 10985              	.LLST38:
 10986 0482 EA000000 		.4byte	.LVL39
 10987 0486 B6010000 		.4byte	.LVL63
 10988 048a 0100     		.2byte	0x1
 10989 048c 52       		.byte	0x52
 10990 048d 00000000 		.4byte	0
 10991 0491 00000000 		.4byte	0
 10992              	.LLST39:
 10993 0495 F8000000 		.4byte	.LVL40
 10994 0499 FC000000 		.4byte	.LVL41
 10995 049d 0100     		.2byte	0x1
 10996 049f 53       		.byte	0x53
 10997 04a0 FC000000 		.4byte	.LVL41
 10998 04a4 DA010000 		.4byte	.LVL68
 10999 04a8 0300     		.2byte	0x3
 11000 04aa 91       		.byte	0x91
 11001 04ab BC7F     		.sleb128 -68
 11002 04ad 00000000 		.4byte	0
 11003 04b1 00000000 		.4byte	0
 11004              	.LLST40:
 11005 04b5 04010000 		.4byte	.LVL42
 11006 04b9 BE010000 		.4byte	.LVL64
 11007 04bd 0100     		.2byte	0x1
 11008 04bf 59       		.byte	0x59
 11009 04c0 BE010000 		.4byte	.LVL64
 11010 04c4 D8010000 		.4byte	.LVL67
 11011 04c8 2000     		.2byte	0x20
 11012 04ca 78       		.byte	0x78
 11013 04cb 00       		.sleb128 0
 11014 04cc F6       		.byte	0xf6
 11015 04cd 04       		.byte	0x4
 11016 04ce 25       		.uleb128 0x25
 11017 04cf 19       		.byte	0x19
 11018 04d0 F5       		.byte	0xf5
 11019 04d1 4E       		.uleb128 0x4e
 11020 04d2 25       		.uleb128 0x25
 11021 04d3 22       		.byte	0x22
 11022 04d4 F7       		.byte	0xf7
 11023 04d5 25       		.uleb128 0x25
 11024 04d6 F7       		.byte	0xf7
 11025 04d7 33       		.uleb128 0x33
 11026 04d8 30       		.byte	0x30
 11027 04d9 2E       		.byte	0x2e
 11028 04da 31       		.byte	0x31
 11029 04db 92       		.byte	0x92
ARM GAS  C:\Users\rdn\AppData\Local\Temp\ccYcaPXH.s 			page 230


 11030 04dc 4F       		.uleb128 0x4f
 11031 04dd 00       		.sleb128 0
 11032 04de 92       		.byte	0x92
 11033 04df 4F       		.uleb128 0x4f
 11034 04e0 00       		.sleb128 0
 11035 04e1 30       		.byte	0x30
 11036 04e2 2E       		.byte	0x2e
 11037 04e3 28       		.byte	0x28
 11038 04e4 0100     		.2byte	0x1
 11039 04e6 16       		.byte	0x16
 11040 04e7 13       		.byte	0x13
 11041 04e8 22       		.byte	0x22
 11042 04e9 9F       		.byte	0x9f
 11043 04ea D8010000 		.4byte	.LVL67
 11044 04ee DA010000 		.4byte	.LVL68
 11045 04f2 2000     		.2byte	0x20
 11046 04f4 78       		.byte	0x78
 11047 04f5 78       		.sleb128 -8
 11048 04f6 F6       		.byte	0xf6
 11049 04f7 04       		.byte	0x4
 11050 04f8 25       		.uleb128 0x25
 11051 04f9 19       		.byte	0x19
 11052 04fa F5       		.byte	0xf5
 11053 04fb 4E       		.uleb128 0x4e
 11054 04fc 25       		.uleb128 0x25
 11055 04fd 22       		.byte	0x22
 11056 04fe F7       		.byte	0xf7
 11057 04ff 25       		.uleb128 0x25
 11058 0500 F7       		.byte	0xf7
 11059 0501 33       		.uleb128 0x33
 11060 0502 30       		.byte	0x30
 11061 0503 2E       		.byte	0x2e
 11062 0504 31       		.byte	0x31
 11063 0505 92       		.byte	0x92
 11064 0506 4F       		.uleb128 0x4f
 11065 0507 00       		.sleb128 0
 11066 0508 92       		.byte	0x92
 11067 0509 4F       		.uleb128 0x4f
 11068 050a 00       		.sleb128 0
 11069 050b 30       		.byte	0x30
 11070 050c 2E       		.byte	0x2e
 11071 050d 28       		.byte	0x28
 11072 050e 0100     		.2byte	0x1
 11073 0510 16       		.byte	0x16
 11074 0511 13       		.byte	0x13
 11075 0512 22       		.byte	0x22
 11076 0513 9F       		.byte	0x9f
 11077 0514 00000000 		.4byte	0
 11078 0518 00000000 		.4byte	0
 11079              	.LLST41:
 11080 051c 40010000 		.4byte	.LVL49
 11081 0520 68010000 		.4byte	.LVL51
 11082 0524 0300     		.2byte	0x3
 11083 0526 91       		.byte	0x91
 11084 0527 B47F     		.sleb128 -76
 11085 0529 68010000 		.4byte	.LVL51
 11086 052d 80010000 		.4byte	.LVL57
ARM GAS  C:\Users\rdn\AppData\Local\Temp\ccYcaPXH.s 			page 231


 11087 0531 0100     		.2byte	0x1
 11088 0533 53       		.byte	0x53
 11089 0534 00000000 		.4byte	0
 11090 0538 00000000 		.4byte	0
 11091              	.LLST42:
 11092 053c 0A010000 		.4byte	.LVL43
 11093 0540 0E010000 		.4byte	.LVL44
 11094 0544 0200     		.2byte	0x2
 11095 0546 30       		.byte	0x30
 11096 0547 9F       		.byte	0x9f
 11097 0548 0E010000 		.4byte	.LVL44
 11098 054c 3A010000 		.4byte	.LVL47
 11099 0550 0200     		.2byte	0x2
 11100 0552 31       		.byte	0x31
 11101 0553 9F       		.byte	0x9f
 11102 0554 3A010000 		.4byte	.LVL47
 11103 0558 3C010000 		.4byte	.LVL48
 11104 055c 0200     		.2byte	0x2
 11105 055e 30       		.byte	0x30
 11106 055f 9F       		.byte	0x9f
 11107 0560 3C010000 		.4byte	.LVL48
 11108 0564 80010000 		.4byte	.LVL57
 11109 0568 0100     		.2byte	0x1
 11110 056a 57       		.byte	0x57
 11111 056b 80010000 		.4byte	.LVL57
 11112 056f 82010000 		.4byte	.LVL58
 11113 0573 0200     		.2byte	0x2
 11114 0575 30       		.byte	0x30
 11115 0576 9F       		.byte	0x9f
 11116 0577 82010000 		.4byte	.LVL58
 11117 057b B4010000 		.4byte	.LVL62
 11118 057f 0100     		.2byte	0x1
 11119 0581 57       		.byte	0x57
 11120 0582 00000000 		.4byte	0
 11121 0586 00000000 		.4byte	0
 11122              	.LLST43:
 11123 058a 00000000 		.4byte	.LVL72
 11124 058e 0A000000 		.4byte	.LVL73
 11125 0592 0100     		.2byte	0x1
 11126 0594 50       		.byte	0x50
 11127 0595 0A000000 		.4byte	.LVL73
 11128 0599 38000000 		.4byte	.LFE38
 11129 059d 0400     		.2byte	0x4
 11130 059f F3       		.byte	0xf3
 11131 05a0 01       		.uleb128 0x1
 11132 05a1 50       		.byte	0x50
 11133 05a2 9F       		.byte	0x9f
 11134 05a3 00000000 		.4byte	0
 11135 05a7 00000000 		.4byte	0
 11136              	.LLST44:
 11137 05ab 00000000 		.4byte	.LVL72
 11138 05af 0A000000 		.4byte	.LVL73
 11139 05b3 0100     		.2byte	0x1
 11140 05b5 51       		.byte	0x51
 11141 05b6 00000000 		.4byte	0
 11142 05ba 00000000 		.4byte	0
 11143              	.LLST45:
ARM GAS  C:\Users\rdn\AppData\Local\Temp\ccYcaPXH.s 			page 232


 11144 05be 00000000 		.4byte	.LVL72
 11145 05c2 0A000000 		.4byte	.LVL73
 11146 05c6 0100     		.2byte	0x1
 11147 05c8 50       		.byte	0x50
 11148 05c9 00000000 		.4byte	0
 11149 05cd 00000000 		.4byte	0
 11150              	.LLST46:
 11151 05d1 00000000 		.4byte	.LVL74
 11152 05d5 42000000 		.4byte	.LVL80
 11153 05d9 0100     		.2byte	0x1
 11154 05db 50       		.byte	0x50
 11155 05dc 42000000 		.4byte	.LVL80
 11156 05e0 3E010000 		.4byte	.LVL107
 11157 05e4 0400     		.2byte	0x4
 11158 05e6 F3       		.byte	0xf3
 11159 05e7 01       		.uleb128 0x1
 11160 05e8 50       		.byte	0x50
 11161 05e9 9F       		.byte	0x9f
 11162 05ea 3E010000 		.4byte	.LVL107
 11163 05ee 46010000 		.4byte	.LVL108
 11164 05f2 0100     		.2byte	0x1
 11165 05f4 50       		.byte	0x50
 11166 05f5 46010000 		.4byte	.LVL108
 11167 05f9 E6030000 		.4byte	.LFE22
 11168 05fd 0400     		.2byte	0x4
 11169 05ff F3       		.byte	0xf3
 11170 0600 01       		.uleb128 0x1
 11171 0601 50       		.byte	0x50
 11172 0602 9F       		.byte	0x9f
 11173 0603 00000000 		.4byte	0
 11174 0607 00000000 		.4byte	0
 11175              	.LLST47:
 11176 060b 00000000 		.4byte	.LVL74
 11177 060f 40000000 		.4byte	.LVL79
 11178 0613 0100     		.2byte	0x1
 11179 0615 51       		.byte	0x51
 11180 0616 40000000 		.4byte	.LVL79
 11181 061a 3E010000 		.4byte	.LVL107
 11182 061e 0400     		.2byte	0x4
 11183 0620 F3       		.byte	0xf3
 11184 0621 01       		.uleb128 0x1
 11185 0622 51       		.byte	0x51
 11186 0623 9F       		.byte	0x9f
 11187 0624 3E010000 		.4byte	.LVL107
 11188 0628 46010000 		.4byte	.LVL108
 11189 062c 0100     		.2byte	0x1
 11190 062e 51       		.byte	0x51
 11191 062f 46010000 		.4byte	.LVL108
 11192 0633 E6030000 		.4byte	.LFE22
 11193 0637 0400     		.2byte	0x4
 11194 0639 F3       		.byte	0xf3
 11195 063a 01       		.uleb128 0x1
 11196 063b 51       		.byte	0x51
 11197 063c 9F       		.byte	0x9f
 11198 063d 00000000 		.4byte	0
 11199 0641 00000000 		.4byte	0
 11200              	.LLST48:
ARM GAS  C:\Users\rdn\AppData\Local\Temp\ccYcaPXH.s 			page 233


 11201 0645 00000000 		.4byte	.LVL74
 11202 0649 3E000000 		.4byte	.LVL78
 11203 064d 0100     		.2byte	0x1
 11204 064f 52       		.byte	0x52
 11205 0650 3E000000 		.4byte	.LVL78
 11206 0654 3E010000 		.4byte	.LVL107
 11207 0658 0100     		.2byte	0x1
 11208 065a 54       		.byte	0x54
 11209 065b 3E010000 		.4byte	.LVL107
 11210 065f 46010000 		.4byte	.LVL108
 11211 0663 0100     		.2byte	0x1
 11212 0665 52       		.byte	0x52
 11213 0666 46010000 		.4byte	.LVL108
 11214 066a 50010000 		.4byte	.LVL109
 11215 066e 0100     		.2byte	0x1
 11216 0670 54       		.byte	0x54
 11217 0671 50010000 		.4byte	.LVL109
 11218 0675 E6030000 		.4byte	.LFE22
 11219 0679 0400     		.2byte	0x4
 11220 067b F3       		.byte	0xf3
 11221 067c 01       		.uleb128 0x1
 11222 067d 52       		.byte	0x52
 11223 067e 9F       		.byte	0x9f
 11224 067f 00000000 		.4byte	0
 11225 0683 00000000 		.4byte	0
 11226              	.LLST49:
 11227 0687 00000000 		.4byte	.LVL74
 11228 068b 0C000000 		.4byte	.LVL75
 11229 068f 0100     		.2byte	0x1
 11230 0691 53       		.byte	0x53
 11231 0692 0C000000 		.4byte	.LVL75
 11232 0696 62000000 		.4byte	.LVL83
 11233 069a 0100     		.2byte	0x1
 11234 069c 58       		.byte	0x58
 11235 069d 62000000 		.4byte	.LVL83
 11236 06a1 3E010000 		.4byte	.LVL107
 11237 06a5 0400     		.2byte	0x4
 11238 06a7 F3       		.byte	0xf3
 11239 06a8 01       		.uleb128 0x1
 11240 06a9 53       		.byte	0x53
 11241 06aa 9F       		.byte	0x9f
 11242 06ab 3E010000 		.4byte	.LVL107
 11243 06af 46010000 		.4byte	.LVL108
 11244 06b3 0100     		.2byte	0x1
 11245 06b5 58       		.byte	0x58
 11246 06b6 46010000 		.4byte	.LVL108
 11247 06ba E6030000 		.4byte	.LFE22
 11248 06be 0400     		.2byte	0x4
 11249 06c0 F3       		.byte	0xf3
 11250 06c1 01       		.uleb128 0x1
 11251 06c2 53       		.byte	0x53
 11252 06c3 9F       		.byte	0x9f
 11253 06c4 00000000 		.4byte	0
 11254 06c8 00000000 		.4byte	0
 11255              	.LLST50:
 11256 06cc 00000000 		.4byte	.LVL74
 11257 06d0 45000000 		.4byte	.LVL81-1
ARM GAS  C:\Users\rdn\AppData\Local\Temp\ccYcaPXH.s 			page 234


 11258 06d4 0200     		.2byte	0x2
 11259 06d6 90       		.byte	0x90
 11260 06d7 40       		.uleb128 0x40
 11261 06d8 45000000 		.4byte	.LVL81-1
 11262 06dc 3E010000 		.4byte	.LVL107
 11263 06e0 0200     		.2byte	0x2
 11264 06e2 90       		.byte	0x90
 11265 06e3 52       		.uleb128 0x52
 11266 06e4 3E010000 		.4byte	.LVL107
 11267 06e8 46010000 		.4byte	.LVL108
 11268 06ec 0200     		.2byte	0x2
 11269 06ee 90       		.byte	0x90
 11270 06ef 40       		.uleb128 0x40
 11271 06f0 46010000 		.4byte	.LVL108
 11272 06f4 AE020000 		.4byte	.LVL137
 11273 06f8 0200     		.2byte	0x2
 11274 06fa 90       		.byte	0x90
 11275 06fb 52       		.uleb128 0x52
 11276 06fc AE020000 		.4byte	.LVL137
 11277 0700 E6030000 		.4byte	.LFE22
 11278 0704 0600     		.2byte	0x6
 11279 0706 F3       		.byte	0xf3
 11280 0707 03       		.uleb128 0x3
 11281 0708 F5       		.byte	0xf5
 11282 0709 40       		.uleb128 0x40
 11283 070a 25       		.uleb128 0x25
 11284 070b 9F       		.byte	0x9f
 11285 070c 00000000 		.4byte	0
 11286 0710 00000000 		.4byte	0
 11287              	.LLST51:
 11288 0714 34000000 		.4byte	.LVL77
 11289 0718 D8020000 		.4byte	.LVL141
 11290 071c 0100     		.2byte	0x1
 11291 071e 57       		.byte	0x57
 11292 071f 00000000 		.4byte	0
 11293 0723 00000000 		.4byte	0
 11294              	.LLST52:
 11295 0727 34000000 		.4byte	.LVL77
 11296 072b 5E000000 		.4byte	.LVL82
 11297 072f 0200     		.2byte	0x2
 11298 0731 30       		.byte	0x30
 11299 0732 9F       		.byte	0x9f
 11300 0733 5E000000 		.4byte	.LVL82
 11301 0737 62000000 		.4byte	.LVL83
 11302 073b 0B00     		.2byte	0xb
 11303 073d 78       		.byte	0x78
 11304 073e 00       		.sleb128 0
 11305 073f 35       		.byte	0x35
 11306 0740 24       		.byte	0x24
 11307 0741 79       		.byte	0x79
 11308 0742 00       		.sleb128 0
 11309 0743 08       		.byte	0x8
 11310 0744 7D       		.byte	0x7d
 11311 0745 1E       		.byte	0x1e
 11312 0746 1B       		.byte	0x1b
 11313 0747 9F       		.byte	0x9f
 11314 0748 62000000 		.4byte	.LVL83
ARM GAS  C:\Users\rdn\AppData\Local\Temp\ccYcaPXH.s 			page 235


 11315 074c 6C000000 		.4byte	.LVL84
 11316 0750 0C00     		.2byte	0xc
 11317 0752 F3       		.byte	0xf3
 11318 0753 01       		.uleb128 0x1
 11319 0754 53       		.byte	0x53
 11320 0755 35       		.byte	0x35
 11321 0756 24       		.byte	0x24
 11322 0757 79       		.byte	0x79
 11323 0758 00       		.sleb128 0
 11324 0759 08       		.byte	0x8
 11325 075a 7D       		.byte	0x7d
 11326 075b 1E       		.byte	0x1e
 11327 075c 1B       		.byte	0x1b
 11328 075d 9F       		.byte	0x9f
 11329 075e 6C000000 		.4byte	.LVL84
 11330 0762 78000000 		.4byte	.LVL86
 11331 0766 0100     		.2byte	0x1
 11332 0768 58       		.byte	0x58
 11333 0769 78000000 		.4byte	.LVL86
 11334 076d 8E000000 		.4byte	.LVL87
 11335 0771 0C00     		.2byte	0xc
 11336 0773 F3       		.byte	0xf3
 11337 0774 01       		.uleb128 0x1
 11338 0775 53       		.byte	0x53
 11339 0776 35       		.byte	0x35
 11340 0777 24       		.byte	0x24
 11341 0778 79       		.byte	0x79
 11342 0779 00       		.sleb128 0
 11343 077a 08       		.byte	0x8
 11344 077b 7D       		.byte	0x7d
 11345 077c 1E       		.byte	0x1e
 11346 077d 1B       		.byte	0x1b
 11347 077e 9F       		.byte	0x9f
 11348 077f 8E000000 		.4byte	.LVL87
 11349 0783 3E010000 		.4byte	.LVL107
 11350 0787 0100     		.2byte	0x1
 11351 0789 58       		.byte	0x58
 11352 078a 3E010000 		.4byte	.LVL107
 11353 078e 46010000 		.4byte	.LVL108
 11354 0792 0200     		.2byte	0x2
 11355 0794 30       		.byte	0x30
 11356 0795 9F       		.byte	0x9f
 11357 0796 46010000 		.4byte	.LVL108
 11358 079a 46020000 		.4byte	.LVL129
 11359 079e 0100     		.2byte	0x1
 11360 07a0 58       		.byte	0x58
 11361 07a1 00000000 		.4byte	0
 11362 07a5 00000000 		.4byte	0
 11363              	.LLST53:
 11364 07a9 34000000 		.4byte	.LVL77
 11365 07ad 3C010000 		.4byte	.LVL106
 11366 07b1 0600     		.2byte	0x6
 11367 07b3 9E       		.byte	0x9e
 11368 07b4 04       		.uleb128 0x4
 11369 07b5 00000000 		.4byte	0
 11370 07b9 3C010000 		.4byte	.LVL106
 11371 07bd 3E010000 		.4byte	.LVL107
ARM GAS  C:\Users\rdn\AppData\Local\Temp\ccYcaPXH.s 			page 236


 11372 07c1 0200     		.2byte	0x2
 11373 07c3 90       		.byte	0x90
 11374 07c4 50       		.uleb128 0x50
 11375 07c5 3E010000 		.4byte	.LVL107
 11376 07c9 46010000 		.4byte	.LVL108
 11377 07cd 0600     		.2byte	0x6
 11378 07cf 9E       		.byte	0x9e
 11379 07d0 04       		.uleb128 0x4
 11380 07d1 00000000 		.4byte	0
 11381 07d5 46010000 		.4byte	.LVL108
 11382 07d9 EA010000 		.4byte	.LVL125
 11383 07dd 0200     		.2byte	0x2
 11384 07df 90       		.byte	0x90
 11385 07e0 50       		.uleb128 0x50
 11386 07e1 3A020000 		.4byte	.LVL127
 11387 07e5 3E020000 		.4byte	.LVL128
 11388 07e9 0200     		.2byte	0x2
 11389 07eb 90       		.byte	0x90
 11390 07ec 50       		.uleb128 0x50
 11391 07ed 00000000 		.4byte	0
 11392 07f1 00000000 		.4byte	0
 11393              	.LLST54:
 11394 07f5 46010000 		.4byte	.LVL108
 11395 07f9 50010000 		.4byte	.LVL109
 11396 07fd 0600     		.2byte	0x6
 11397 07ff 9E       		.byte	0x9e
 11398 0800 04       		.uleb128 0x4
 11399 0801 00000000 		.4byte	0
 11400 0805 50010000 		.4byte	.LVL109
 11401 0809 7B010000 		.4byte	.LVL113-1
 11402 080d 0100     		.2byte	0x1
 11403 080f 50       		.byte	0x50
 11404 0810 80010000 		.4byte	.LVL114
 11405 0814 87010000 		.4byte	.LVL115-1
 11406 0818 0100     		.2byte	0x1
 11407 081a 50       		.byte	0x50
 11408 081b 88010000 		.4byte	.LVL115
 11409 081f 8F010000 		.4byte	.LVL116-1
 11410 0823 0100     		.2byte	0x1
 11411 0825 50       		.byte	0x50
 11412 0826 90010000 		.4byte	.LVL116
 11413 082a 97010000 		.4byte	.LVL117-1
 11414 082e 0100     		.2byte	0x1
 11415 0830 50       		.byte	0x50
 11416 0831 98010000 		.4byte	.LVL117
 11417 0835 B1010000 		.4byte	.LVL121-1
 11418 0839 0100     		.2byte	0x1
 11419 083b 50       		.byte	0x50
 11420 083c 00000000 		.4byte	0
 11421 0840 00000000 		.4byte	0
 11422              	.LLST55:
 11423 0844 B8010000 		.4byte	.LVL122
 11424 0848 4C020000 		.4byte	.LVL130
 11425 084c 0100     		.2byte	0x1
 11426 084e 50       		.byte	0x50
 11427 084f 4C020000 		.4byte	.LVL130
 11428 0853 E6030000 		.4byte	.LFE22
ARM GAS  C:\Users\rdn\AppData\Local\Temp\ccYcaPXH.s 			page 237


 11429 0857 0200     		.2byte	0x2
 11430 0859 90       		.byte	0x90
 11431 085a 51       		.uleb128 0x51
 11432 085b 00000000 		.4byte	0
 11433 085f 00000000 		.4byte	0
 11434              	.LLST56:
 11435 0863 3E020000 		.4byte	.LVL128
 11436 0867 E2030000 		.4byte	.LVL164
 11437 086b 0200     		.2byte	0x2
 11438 086d 90       		.byte	0x90
 11439 086e 50       		.uleb128 0x50
 11440 086f 00000000 		.4byte	0
 11441 0873 00000000 		.4byte	0
 11442              	.LLST57:
 11443 0877 98020000 		.4byte	.LVL136
 11444 087b AE020000 		.4byte	.LVL137
 11445 087f 1800     		.2byte	0x18
 11446 0881 91       		.byte	0x91
 11447 0882 00       		.sleb128 0
 11448 0883 06       		.byte	0x6
 11449 0884 F7       		.byte	0xf7
 11450 0885 2C       		.uleb128 0x2c
 11451 0886 F7       		.byte	0xf7
 11452 0887 25       		.uleb128 0x25
 11453 0888 F5       		.byte	0xf5
 11454 0889 52       		.uleb128 0x52
 11455 088a 25       		.uleb128 0x25
 11456 088b 22       		.byte	0x22
 11457 088c F4       		.byte	0xf4
 11458 088d 25       		.uleb128 0x25
 11459 088e 04       		.byte	0x4
 11460 088f 0000003F 		.4byte	0x3f000000
 11461 0893 22       		.byte	0x22
 11462 0894 F7       		.byte	0xf7
 11463 0895 2C       		.uleb128 0x2c
 11464 0896 F7       		.byte	0xf7
 11465 0897 00       		.uleb128 0
 11466 0898 9F       		.byte	0x9f
 11467 0899 AE020000 		.4byte	.LVL137
 11468 089d E6030000 		.4byte	.LFE22
 11469 08a1 1A00     		.2byte	0x1a
 11470 08a3 91       		.byte	0x91
 11471 08a4 00       		.sleb128 0
 11472 08a5 06       		.byte	0x6
 11473 08a6 F7       		.byte	0xf7
 11474 08a7 2C       		.uleb128 0x2c
 11475 08a8 F7       		.byte	0xf7
 11476 08a9 25       		.uleb128 0x25
 11477 08aa F3       		.byte	0xf3
 11478 08ab 03       		.uleb128 0x3
 11479 08ac F5       		.byte	0xf5
 11480 08ad 40       		.uleb128 0x40
 11481 08ae 25       		.uleb128 0x25
 11482 08af 22       		.byte	0x22
 11483 08b0 F4       		.byte	0xf4
 11484 08b1 25       		.uleb128 0x25
 11485 08b2 04       		.byte	0x4
ARM GAS  C:\Users\rdn\AppData\Local\Temp\ccYcaPXH.s 			page 238


 11486 08b3 0000003F 		.4byte	0x3f000000
 11487 08b7 22       		.byte	0x22
 11488 08b8 F7       		.byte	0xf7
 11489 08b9 2C       		.uleb128 0x2c
 11490 08ba F7       		.byte	0xf7
 11491 08bb 00       		.uleb128 0
 11492 08bc 9F       		.byte	0x9f
 11493 08bd 00000000 		.4byte	0
 11494 08c1 00000000 		.4byte	0
 11495              	.LLST58:
 11496 08c5 BA020000 		.4byte	.LVL138
 11497 08c9 D8020000 		.4byte	.LVL141
 11498 08cd 0100     		.2byte	0x1
 11499 08cf 50       		.byte	0x50
 11500 08d0 D8020000 		.4byte	.LVL141
 11501 08d4 2C030000 		.4byte	.LVL154
 11502 08d8 0100     		.2byte	0x1
 11503 08da 54       		.byte	0x54
 11504 08db 38030000 		.4byte	.LVL155
 11505 08df CE030000 		.4byte	.LVL161
 11506 08e3 0100     		.2byte	0x1
 11507 08e5 54       		.byte	0x54
 11508 08e6 CE030000 		.4byte	.LVL161
 11509 08ea D8030000 		.4byte	.LVL162
 11510 08ee 0E00     		.2byte	0xe
 11511 08f0 74       		.byte	0x74
 11512 08f1 00       		.sleb128 0
 11513 08f2 70       		.byte	0x70
 11514 08f3 00       		.sleb128 0
 11515 08f4 73       		.byte	0x73
 11516 08f5 00       		.sleb128 0
 11517 08f6 30       		.byte	0x30
 11518 08f7 29       		.byte	0x29
 11519 08f8 28       		.byte	0x28
 11520 08f9 0100     		.2byte	0x1
 11521 08fb 16       		.byte	0x16
 11522 08fc 13       		.byte	0x13
 11523 08fd 9F       		.byte	0x9f
 11524 08fe D8030000 		.4byte	.LVL162
 11525 0902 E6030000 		.4byte	.LFE22
 11526 0906 0100     		.2byte	0x1
 11527 0908 50       		.byte	0x50
 11528 0909 00000000 		.4byte	0
 11529 090d 00000000 		.4byte	0
 11530              	.LLST59:
 11531 0911 50030000 		.4byte	.LVL157
 11532 0915 54030000 		.4byte	.LVL158
 11533 0919 0200     		.2byte	0x2
 11534 091b 90       		.byte	0x90
 11535 091c 4D       		.uleb128 0x4d
 11536 091d 00000000 		.4byte	0
 11537 0921 00000000 		.4byte	0
 11538              	.LLST60:
 11539 0925 00000000 		.4byte	.LVL74
 11540 0929 1C000000 		.4byte	.LVL76
 11541 092d 0100     		.2byte	0x1
 11542 092f 51       		.byte	0x51
ARM GAS  C:\Users\rdn\AppData\Local\Temp\ccYcaPXH.s 			page 239


 11543 0930 00000000 		.4byte	0
 11544 0934 00000000 		.4byte	0
 11545              	.LLST61:
 11546 0938 00000000 		.4byte	.LVL74
 11547 093c 1C000000 		.4byte	.LVL76
 11548 0940 0100     		.2byte	0x1
 11549 0942 50       		.byte	0x50
 11550 0943 00000000 		.4byte	0
 11551 0947 00000000 		.4byte	0
 11552              	.LLST62:
 11553 094b 5E000000 		.4byte	.LVL82
 11554 094f 72000000 		.4byte	.LVL85
 11555 0953 1200     		.2byte	0x12
 11556 0955 7B       		.byte	0x7b
 11557 0956 00       		.sleb128 0
 11558 0957 31       		.byte	0x31
 11559 0958 24       		.byte	0x24
 11560 0959 75       		.byte	0x75
 11561 095a 00       		.sleb128 0
 11562 095b 22       		.byte	0x22
 11563 095c 35       		.byte	0x35
 11564 095d 1C       		.byte	0x1c
 11565 095e 32       		.byte	0x32
 11566 095f 24       		.byte	0x24
 11567 0960 91       		.byte	0x91
 11568 0961 00       		.sleb128 0
 11569 0962 22       		.byte	0x22
 11570 0963 0A       		.byte	0xa
 11571 0964 2004     		.2byte	0x420
 11572 0966 1C       		.byte	0x1c
 11573 0967 72000000 		.4byte	.LVL85
 11574 096b 3E010000 		.4byte	.LVL107
 11575 096f 1200     		.2byte	0x12
 11576 0971 79       		.byte	0x79
 11577 0972 7F       		.sleb128 -1
 11578 0973 31       		.byte	0x31
 11579 0974 24       		.byte	0x24
 11580 0975 75       		.byte	0x75
 11581 0976 00       		.sleb128 0
 11582 0977 22       		.byte	0x22
 11583 0978 35       		.byte	0x35
 11584 0979 1C       		.byte	0x1c
 11585 097a 32       		.byte	0x32
 11586 097b 24       		.byte	0x24
 11587 097c 91       		.byte	0x91
 11588 097d 00       		.sleb128 0
 11589 097e 22       		.byte	0x22
 11590 097f 0A       		.byte	0xa
 11591 0980 2004     		.2byte	0x420
 11592 0982 1C       		.byte	0x1c
 11593 0983 00000000 		.4byte	0
 11594 0987 00000000 		.4byte	0
 11595              	.LLST63:
 11596 098b 8E000000 		.4byte	.LVL87
 11597 098f A2000000 		.4byte	.LVL88
 11598 0993 0600     		.2byte	0x6
 11599 0995 9E       		.byte	0x9e
ARM GAS  C:\Users\rdn\AppData\Local\Temp\ccYcaPXH.s 			page 240


 11600 0996 04       		.uleb128 0x4
 11601 0997 ACC52737 		.4byte	0x3727c5ac
 11602 099b A2000000 		.4byte	.LVL88
 11603 099f 06010000 		.4byte	.LVL102
 11604 09a3 0200     		.2byte	0x2
 11605 09a5 90       		.byte	0x90
 11606 09a6 4F       		.uleb128 0x4f
 11607 09a7 00000000 		.4byte	0
 11608 09ab 00000000 		.4byte	0
 11609              	.LLST64:
 11610 09af 8E000000 		.4byte	.LVL87
 11611 09b3 A2000000 		.4byte	.LVL88
 11612 09b7 0600     		.2byte	0x6
 11613 09b9 9E       		.byte	0x9e
 11614 09ba 04       		.uleb128 0x4
 11615 09bb ACC52737 		.4byte	0x3727c5ac
 11616 09bf A2000000 		.4byte	.LVL88
 11617 09c3 B6000000 		.4byte	.LVL89
 11618 09c7 0200     		.2byte	0x2
 11619 09c9 90       		.byte	0x90
 11620 09ca 4E       		.uleb128 0x4e
 11621 09cb C4000000 		.4byte	.LVL92
 11622 09cf CC000000 		.4byte	.LVL93
 11623 09d3 0200     		.2byte	0x2
 11624 09d5 90       		.byte	0x90
 11625 09d6 4E       		.uleb128 0x4e
 11626 09d7 D8000000 		.4byte	.LVL95
 11627 09db E0000000 		.4byte	.LVL96
 11628 09df 0200     		.2byte	0x2
 11629 09e1 90       		.byte	0x90
 11630 09e2 4E       		.uleb128 0x4e
 11631 09e3 EC000000 		.4byte	.LVL98
 11632 09e7 12010000 		.4byte	.LVL103
 11633 09eb 0200     		.2byte	0x2
 11634 09ed 90       		.byte	0x90
 11635 09ee 4E       		.uleb128 0x4e
 11636 09ef 00000000 		.4byte	0
 11637 09f3 00000000 		.4byte	0
 11638              	.LLST65:
 11639 09f7 8E000000 		.4byte	.LVL87
 11640 09fb A2000000 		.4byte	.LVL88
 11641 09ff 0600     		.2byte	0x6
 11642 0a01 9E       		.byte	0x9e
 11643 0a02 04       		.uleb128 0x4
 11644 0a03 00000000 		.4byte	0
 11645 0a07 A2000000 		.4byte	.LVL88
 11646 0a0b C4000000 		.4byte	.LVL92
 11647 0a0f 0200     		.2byte	0x2
 11648 0a11 90       		.byte	0x90
 11649 0a12 4B       		.uleb128 0x4b
 11650 0a13 C4000000 		.4byte	.LVL92
 11651 0a17 D8000000 		.4byte	.LVL95
 11652 0a1b 0200     		.2byte	0x2
 11653 0a1d 90       		.byte	0x90
 11654 0a1e 4A       		.uleb128 0x4a
 11655 0a1f D8000000 		.4byte	.LVL95
 11656 0a23 EC000000 		.4byte	.LVL98
ARM GAS  C:\Users\rdn\AppData\Local\Temp\ccYcaPXH.s 			page 241


 11657 0a27 0200     		.2byte	0x2
 11658 0a29 90       		.byte	0x90
 11659 0a2a 4B       		.uleb128 0x4b
 11660 0a2b EC000000 		.4byte	.LVL98
 11661 0a2f F8000000 		.4byte	.LVL100
 11662 0a33 0200     		.2byte	0x2
 11663 0a35 90       		.byte	0x90
 11664 0a36 4A       		.uleb128 0x4a
 11665 0a37 F8000000 		.4byte	.LVL100
 11666 0a3b 1D010000 		.4byte	.LVL104-1
 11667 0a3f 0200     		.2byte	0x2
 11668 0a41 90       		.byte	0x90
 11669 0a42 4B       		.uleb128 0x4b
 11670 0a43 00000000 		.4byte	0
 11671 0a47 00000000 		.4byte	0
 11672              	.LLST66:
 11673 0a4b 1E010000 		.4byte	.LVL104
 11674 0a4f 2A010000 		.4byte	.LVL105
 11675 0a53 0800     		.2byte	0x8
 11676 0a55 F5       		.byte	0xf5
 11677 0a56 00       		.uleb128 0
 11678 0a57 25       		.uleb128 0x25
 11679 0a58 F7       		.byte	0xf7
 11680 0a59 2C       		.uleb128 0x2c
 11681 0a5a F7       		.byte	0xf7
 11682 0a5b 00       		.uleb128 0
 11683 0a5c 9F       		.byte	0x9f
 11684 0a5d 00000000 		.4byte	0
 11685 0a61 00000000 		.4byte	0
 11686              	.LLST67:
 11687 0a65 8E000000 		.4byte	.LVL87
 11688 0a69 A2000000 		.4byte	.LVL88
 11689 0a6d 0200     		.2byte	0x2
 11690 0a6f 30       		.byte	0x30
 11691 0a70 9F       		.byte	0x9f
 11692 0a71 A2000000 		.4byte	.LVL88
 11693 0a75 B8000000 		.4byte	.LVL90
 11694 0a79 0100     		.2byte	0x1
 11695 0a7b 52       		.byte	0x52
 11696 0a7c B8000000 		.4byte	.LVL90
 11697 0a80 FC000000 		.4byte	.LVL101
 11698 0a84 0300     		.2byte	0x3
 11699 0a86 72       		.byte	0x72
 11700 0a87 7F       		.sleb128 -1
 11701 0a88 9F       		.byte	0x9f
 11702 0a89 FC000000 		.4byte	.LVL101
 11703 0a8d 1D010000 		.4byte	.LVL104-1
 11704 0a91 0100     		.2byte	0x1
 11705 0a93 52       		.byte	0x52
 11706 0a94 00000000 		.4byte	0
 11707 0a98 00000000 		.4byte	0
 11708              	.LLST68:
 11709 0a9c 46010000 		.4byte	.LVL108
 11710 0aa0 50010000 		.4byte	.LVL109
 11711 0aa4 0200     		.2byte	0x2
 11712 0aa6 30       		.byte	0x30
 11713 0aa7 9F       		.byte	0x9f
ARM GAS  C:\Users\rdn\AppData\Local\Temp\ccYcaPXH.s 			page 242


 11714 0aa8 50010000 		.4byte	.LVL109
 11715 0aac 4C020000 		.4byte	.LVL130
 11716 0ab0 0100     		.2byte	0x1
 11717 0ab2 59       		.byte	0x59
 11718 0ab3 00000000 		.4byte	0
 11719 0ab7 00000000 		.4byte	0
 11720              	.LLST69:
 11721 0abb 6C010000 		.4byte	.LVL110
 11722 0abf A4010000 		.4byte	.LVL119
 11723 0ac3 0200     		.2byte	0x2
 11724 0ac5 90       		.byte	0x90
 11725 0ac6 51       		.uleb128 0x51
 11726 0ac7 00000000 		.4byte	0
 11727 0acb 00000000 		.4byte	0
 11728              	.LLST70:
 11729 0acf 70010000 		.4byte	.LVL111
 11730 0ad3 AE010000 		.4byte	.LVL120
 11731 0ad7 0200     		.2byte	0x2
 11732 0ad9 90       		.byte	0x90
 11733 0ada 55       		.uleb128 0x55
 11734 0adb 00000000 		.4byte	0
 11735 0adf 00000000 		.4byte	0
 11736              	.LLST71:
 11737 0ae3 78010000 		.4byte	.LVL112
 11738 0ae7 AE010000 		.4byte	.LVL120
 11739 0aeb 0200     		.2byte	0x2
 11740 0aed 90       		.byte	0x90
 11741 0aee 54       		.uleb128 0x54
 11742 0aef 00000000 		.4byte	0
 11743 0af3 00000000 		.4byte	0
 11744              	.LLST72:
 11745 0af7 80010000 		.4byte	.LVL114
 11746 0afb AE010000 		.4byte	.LVL120
 11747 0aff 0200     		.2byte	0x2
 11748 0b01 90       		.byte	0x90
 11749 0b02 53       		.uleb128 0x53
 11750 0b03 00000000 		.4byte	0
 11751 0b07 00000000 		.4byte	0
 11752              	.LLST73:
 11753 0b0b BA010000 		.4byte	.LVL123
 11754 0b0f 28020000 		.4byte	.LVL126
 11755 0b13 0400     		.2byte	0x4
 11756 0b15 78       		.byte	0x78
 11757 0b16 00       		.sleb128 0
 11758 0b17 1F       		.byte	0x1f
 11759 0b18 9F       		.byte	0x9f
 11760 0b19 00000000 		.4byte	0
 11761 0b1d 00000000 		.4byte	0
 11762              	.LLST74:
 11763 0b21 BA010000 		.4byte	.LVL123
 11764 0b25 28020000 		.4byte	.LVL126
 11765 0b29 0100     		.2byte	0x1
 11766 0b2b 50       		.byte	0x50
 11767 0b2c 00000000 		.4byte	0
 11768 0b30 00000000 		.4byte	0
 11769              	.LLST75:
 11770 0b34 BA010000 		.4byte	.LVL123
ARM GAS  C:\Users\rdn\AppData\Local\Temp\ccYcaPXH.s 			page 243


 11771 0b38 DC010000 		.4byte	.LVL124
 11772 0b3c 0300     		.2byte	0x3
 11773 0b3e 50       		.byte	0x50
 11774 0b3f 93       		.byte	0x93
 11775 0b40 04       		.uleb128 0x4
 11776 0b41 DC010000 		.4byte	.LVL124
 11777 0b45 28020000 		.4byte	.LVL126
 11778 0b49 0C00     		.2byte	0xc
 11779 0b4b 70       		.byte	0x70
 11780 0b4c 00       		.sleb128 0
 11781 0b4d 78       		.byte	0x78
 11782 0b4e 00       		.sleb128 0
 11783 0b4f 47       		.byte	0x47
 11784 0b50 24       		.byte	0x24
 11785 0b51 1C       		.byte	0x1c
 11786 0b52 F9       		.byte	0xf9
 11787 0b53 25       		.uleb128 0x25
 11788 0b54 9F       		.byte	0x9f
 11789 0b55 93       		.byte	0x93
 11790 0b56 04       		.uleb128 0x4
 11791 0b57 00000000 		.4byte	0
 11792 0b5b 00000000 		.4byte	0
 11793              	.LLST76:
 11794 0b5f 3E020000 		.4byte	.LVL128
 11795 0b63 4C020000 		.4byte	.LVL130
 11796 0b67 0200     		.2byte	0x2
 11797 0b69 30       		.byte	0x30
 11798 0b6a 9F       		.byte	0x9f
 11799 0b6b 4C020000 		.4byte	.LVL130
 11800 0b6f 5C020000 		.4byte	.LVL131
 11801 0b73 0100     		.2byte	0x1
 11802 0b75 54       		.byte	0x54
 11803 0b76 5C020000 		.4byte	.LVL131
 11804 0b7a 74020000 		.4byte	.LVL135
 11805 0b7e 0300     		.2byte	0x3
 11806 0b80 74       		.byte	0x74
 11807 0b81 7F       		.sleb128 -1
 11808 0b82 9F       		.byte	0x9f
 11809 0b83 74020000 		.4byte	.LVL135
 11810 0b87 CC020000 		.4byte	.LVL140
 11811 0b8b 0100     		.2byte	0x1
 11812 0b8d 54       		.byte	0x54
 11813 0b8e 00000000 		.4byte	0
 11814 0b92 00000000 		.4byte	0
 11815              	.LLST77:
 11816 0b96 64020000 		.4byte	.LVL132
 11817 0b9a 70020000 		.4byte	.LVL134
 11818 0b9e 0100     		.2byte	0x1
 11819 0ba0 50       		.byte	0x50
 11820 0ba1 00000000 		.4byte	0
 11821 0ba5 00000000 		.4byte	0
 11822              	.LLST78:
 11823 0ba9 70020000 		.4byte	.LVL134
 11824 0bad 74020000 		.4byte	.LVL135
 11825 0bb1 0900     		.2byte	0x9
 11826 0bb3 92       		.byte	0x92
 11827 0bb4 4F       		.uleb128 0x4f
ARM GAS  C:\Users\rdn\AppData\Local\Temp\ccYcaPXH.s 			page 244


 11828 0bb5 00       		.sleb128 0
 11829 0bb6 46       		.byte	0x46
 11830 0bb7 25       		.byte	0x25
 11831 0bb8 08       		.byte	0x8
 11832 0bb9 FE       		.byte	0xfe
 11833 0bba 1C       		.byte	0x1c
 11834 0bbb 9F       		.byte	0x9f
 11835 0bbc 00000000 		.4byte	0
 11836 0bc0 00000000 		.4byte	0
 11837              	.LLST79:
 11838 0bc4 BA020000 		.4byte	.LVL138
 11839 0bc8 D8020000 		.4byte	.LVL141
 11840 0bcc 0300     		.2byte	0x3
 11841 0bce 08       		.byte	0x8
 11842 0bcf 80       		.byte	0x80
 11843 0bd0 9F       		.byte	0x9f
 11844 0bd1 D8020000 		.4byte	.LVL141
 11845 0bd5 54030000 		.4byte	.LVL158
 11846 0bd9 0100     		.2byte	0x1
 11847 0bdb 5C       		.byte	0x5c
 11848 0bdc 00000000 		.4byte	0
 11849 0be0 00000000 		.4byte	0
 11850              	.LLST80:
 11851 0be4 E6020000 		.4byte	.LVL142
 11852 0be8 FA020000 		.4byte	.LVL144
 11853 0bec 0100     		.2byte	0x1
 11854 0bee 51       		.byte	0x51
 11855 0bef FA020000 		.4byte	.LVL144
 11856 0bf3 1C030000 		.4byte	.LVL150
 11857 0bf7 0100     		.2byte	0x1
 11858 0bf9 5B       		.byte	0x5b
 11859 0bfa 1C030000 		.4byte	.LVL150
 11860 0bfe 22030000 		.4byte	.LVL152
 11861 0c02 0300     		.2byte	0x3
 11862 0c04 7B       		.byte	0x7b
 11863 0c05 01       		.sleb128 1
 11864 0c06 9F       		.byte	0x9f
 11865 0c07 22030000 		.4byte	.LVL152
 11866 0c0b 24030000 		.4byte	.LVL153
 11867 0c0f 0100     		.2byte	0x1
 11868 0c11 51       		.byte	0x51
 11869 0c12 00000000 		.4byte	0
 11870 0c16 00000000 		.4byte	0
 11871              	.LLST81:
 11872 0c1a C8020000 		.4byte	.LVL139
 11873 0c1e D8020000 		.4byte	.LVL141
 11874 0c22 0100     		.2byte	0x1
 11875 0c24 53       		.byte	0x53
 11876 0c25 D8020000 		.4byte	.LVL141
 11877 0c29 38030000 		.4byte	.LVL155
 11878 0c2d 0200     		.2byte	0x2
 11879 0c2f 7D       		.byte	0x7d
 11880 0c30 00       		.sleb128 0
 11881 0c31 38030000 		.4byte	.LVL155
 11882 0c35 54030000 		.4byte	.LVL158
 11883 0c39 0100     		.2byte	0x1
 11884 0c3b 53       		.byte	0x53
ARM GAS  C:\Users\rdn\AppData\Local\Temp\ccYcaPXH.s 			page 245


 11885 0c3c 54030000 		.4byte	.LVL158
 11886 0c40 DE030000 		.4byte	.LVL163
 11887 0c44 0200     		.2byte	0x2
 11888 0c46 7D       		.byte	0x7d
 11889 0c47 00       		.sleb128 0
 11890 0c48 DE030000 		.4byte	.LVL163
 11891 0c4c E6030000 		.4byte	.LFE22
 11892 0c50 0300     		.2byte	0x3
 11893 0c52 91       		.byte	0x91
 11894 0c53 D077     		.sleb128 -1072
 11895 0c55 00000000 		.4byte	0
 11896 0c59 00000000 		.4byte	0
 11897              	.LLST82:
 11898 0c5d E6020000 		.4byte	.LVL142
 11899 0c61 FA020000 		.4byte	.LVL144
 11900 0c65 0200     		.2byte	0x2
 11901 0c67 30       		.byte	0x30
 11902 0c68 9F       		.byte	0x9f
 11903 0c69 FA020000 		.4byte	.LVL144
 11904 0c6d 22030000 		.4byte	.LVL152
 11905 0c71 0100     		.2byte	0x1
 11906 0c73 57       		.byte	0x57
 11907 0c74 22030000 		.4byte	.LVL152
 11908 0c78 24030000 		.4byte	.LVL153
 11909 0c7c 0200     		.2byte	0x2
 11910 0c7e 30       		.byte	0x30
 11911 0c7f 9F       		.byte	0x9f
 11912 0c80 00000000 		.4byte	0
 11913 0c84 00000000 		.4byte	0
 11914              	.LLST83:
 11915 0c88 FE020000 		.4byte	.LVL145
 11916 0c8c 02030000 		.4byte	.LVL146
 11917 0c90 0600     		.2byte	0x6
 11918 0c92 72       		.byte	0x72
 11919 0c93 00       		.sleb128 0
 11920 0c94 78       		.byte	0x78
 11921 0c95 00       		.sleb128 0
 11922 0c96 1C       		.byte	0x1c
 11923 0c97 9F       		.byte	0x9f
 11924 0c98 02030000 		.4byte	.LVL146
 11925 0c9c 0E030000 		.4byte	.LVL147
 11926 0ca0 0100     		.2byte	0x1
 11927 0ca2 52       		.byte	0x52
 11928 0ca3 0E030000 		.4byte	.LVL147
 11929 0ca7 16030000 		.4byte	.LVL148
 11930 0cab 0C00     		.2byte	0xc
 11931 0cad 7B       		.byte	0x7b
 11932 0cae 00       		.sleb128 0
 11933 0caf 32       		.byte	0x32
 11934 0cb0 24       		.byte	0x24
 11935 0cb1 7A       		.byte	0x7a
 11936 0cb2 00       		.sleb128 0
 11937 0cb3 22       		.byte	0x22
 11938 0cb4 06       		.byte	0x6
 11939 0cb5 78       		.byte	0x78
 11940 0cb6 00       		.sleb128 0
 11941 0cb7 1C       		.byte	0x1c
ARM GAS  C:\Users\rdn\AppData\Local\Temp\ccYcaPXH.s 			page 246


 11942 0cb8 9F       		.byte	0x9f
 11943 0cb9 16030000 		.4byte	.LVL148
 11944 0cbd 18030000 		.4byte	.LVL149
 11945 0cc1 0100     		.2byte	0x1
 11946 0cc3 52       		.byte	0x52
 11947 0cc4 18030000 		.4byte	.LVL149
 11948 0cc8 1C030000 		.4byte	.LVL150
 11949 0ccc 0C00     		.2byte	0xc
 11950 0cce 7B       		.byte	0x7b
 11951 0ccf 00       		.sleb128 0
 11952 0cd0 32       		.byte	0x32
 11953 0cd1 24       		.byte	0x24
 11954 0cd2 7A       		.byte	0x7a
 11955 0cd3 00       		.sleb128 0
 11956 0cd4 22       		.byte	0x22
 11957 0cd5 06       		.byte	0x6
 11958 0cd6 78       		.byte	0x78
 11959 0cd7 00       		.sleb128 0
 11960 0cd8 1C       		.byte	0x1c
 11961 0cd9 9F       		.byte	0x9f
 11962 0cda 1C030000 		.4byte	.LVL150
 11963 0cde 22030000 		.4byte	.LVL152
 11964 0ce2 0C00     		.2byte	0xc
 11965 0ce4 7B       		.byte	0x7b
 11966 0ce5 01       		.sleb128 1
 11967 0ce6 32       		.byte	0x32
 11968 0ce7 24       		.byte	0x24
 11969 0ce8 7A       		.byte	0x7a
 11970 0ce9 00       		.sleb128 0
 11971 0cea 22       		.byte	0x22
 11972 0ceb 06       		.byte	0x6
 11973 0cec 78       		.byte	0x78
 11974 0ced 00       		.sleb128 0
 11975 0cee 1C       		.byte	0x1c
 11976 0cef 9F       		.byte	0x9f
 11977 0cf0 00000000 		.4byte	0
 11978 0cf4 00000000 		.4byte	0
 11979              	.LLST84:
 11980 0cf8 50030000 		.4byte	.LVL157
 11981 0cfc 54030000 		.4byte	.LVL158
 11982 0d00 0300     		.2byte	0x3
 11983 0d02 08       		.byte	0x8
 11984 0d03 80       		.byte	0x80
 11985 0d04 9F       		.byte	0x9f
 11986 0d05 54030000 		.4byte	.LVL158
 11987 0d09 E6030000 		.4byte	.LFE22
 11988 0d0d 0100     		.2byte	0x1
 11989 0d0f 55       		.byte	0x55
 11990 0d10 00000000 		.4byte	0
 11991 0d14 00000000 		.4byte	0
 11992              	.LLST85:
 11993 0d18 00000000 		.4byte	.LVL165
 11994 0d1c 1F000000 		.4byte	.LVL168-1
 11995 0d20 0100     		.2byte	0x1
 11996 0d22 50       		.byte	0x50
 11997 0d23 1F000000 		.4byte	.LVL168-1
 11998 0d27 20000000 		.4byte	.LFE8
ARM GAS  C:\Users\rdn\AppData\Local\Temp\ccYcaPXH.s 			page 247


 11999 0d2b 0400     		.2byte	0x4
 12000 0d2d F3       		.byte	0xf3
 12001 0d2e 01       		.uleb128 0x1
 12002 0d2f 50       		.byte	0x50
 12003 0d30 9F       		.byte	0x9f
 12004 0d31 00000000 		.4byte	0
 12005 0d35 00000000 		.4byte	0
 12006              	.LLST86:
 12007 0d39 00000000 		.4byte	.LVL165
 12008 0d3d 1F000000 		.4byte	.LVL168-1
 12009 0d41 0100     		.2byte	0x1
 12010 0d43 51       		.byte	0x51
 12011 0d44 1F000000 		.4byte	.LVL168-1
 12012 0d48 20000000 		.4byte	.LFE8
 12013 0d4c 0400     		.2byte	0x4
 12014 0d4e F3       		.byte	0xf3
 12015 0d4f 01       		.uleb128 0x1
 12016 0d50 51       		.byte	0x51
 12017 0d51 9F       		.byte	0x9f
 12018 0d52 00000000 		.4byte	0
 12019 0d56 00000000 		.4byte	0
 12020              	.LLST87:
 12021 0d5a 00000000 		.4byte	.LVL165
 12022 0d5e 0E000000 		.4byte	.LVL166
 12023 0d62 0100     		.2byte	0x1
 12024 0d64 52       		.byte	0x52
 12025 0d65 0E000000 		.4byte	.LVL166
 12026 0d69 1A000000 		.4byte	.LVL167
 12027 0d6d 0400     		.2byte	0x4
 12028 0d6f F3       		.byte	0xf3
 12029 0d70 01       		.uleb128 0x1
 12030 0d71 52       		.byte	0x52
 12031 0d72 9F       		.byte	0x9f
 12032 0d73 1A000000 		.4byte	.LVL167
 12033 0d77 1F000000 		.4byte	.LVL168-1
 12034 0d7b 0100     		.2byte	0x1
 12035 0d7d 52       		.byte	0x52
 12036 0d7e 1F000000 		.4byte	.LVL168-1
 12037 0d82 20000000 		.4byte	.LFE8
 12038 0d86 0400     		.2byte	0x4
 12039 0d88 F3       		.byte	0xf3
 12040 0d89 01       		.uleb128 0x1
 12041 0d8a 52       		.byte	0x52
 12042 0d8b 9F       		.byte	0x9f
 12043 0d8c 00000000 		.4byte	0
 12044 0d90 00000000 		.4byte	0
 12045              	.LLST88:
 12046 0d94 00000000 		.4byte	.LVL165
 12047 0d98 1F000000 		.4byte	.LVL168-1
 12048 0d9c 0300     		.2byte	0x3
 12049 0d9e 70       		.byte	0x70
 12050 0d9f 1C       		.sleb128 28
 12051 0da0 9F       		.byte	0x9f
 12052 0da1 1F000000 		.4byte	.LVL168-1
 12053 0da5 20000000 		.4byte	.LFE8
 12054 0da9 0600     		.2byte	0x6
 12055 0dab F3       		.byte	0xf3
ARM GAS  C:\Users\rdn\AppData\Local\Temp\ccYcaPXH.s 			page 248


 12056 0dac 01       		.uleb128 0x1
 12057 0dad 50       		.byte	0x50
 12058 0dae 23       		.byte	0x23
 12059 0daf 1C       		.uleb128 0x1c
 12060 0db0 9F       		.byte	0x9f
 12061 0db1 00000000 		.4byte	0
 12062 0db5 00000000 		.4byte	0
 12063              	.LLST89:
 12064 0db9 00000000 		.4byte	.LVL169
 12065 0dbd 05000000 		.4byte	.LVL170-1
 12066 0dc1 0100     		.2byte	0x1
 12067 0dc3 50       		.byte	0x50
 12068 0dc4 05000000 		.4byte	.LVL170-1
 12069 0dc8 06000000 		.4byte	.LFE7
 12070 0dcc 0400     		.2byte	0x4
 12071 0dce F3       		.byte	0xf3
 12072 0dcf 01       		.uleb128 0x1
 12073 0dd0 50       		.byte	0x50
 12074 0dd1 9F       		.byte	0x9f
 12075 0dd2 00000000 		.4byte	0
 12076 0dd6 00000000 		.4byte	0
 12077              	.LLST90:
 12078 0dda 00000000 		.4byte	.LVL169
 12079 0dde 05000000 		.4byte	.LVL170-1
 12080 0de2 0100     		.2byte	0x1
 12081 0de4 51       		.byte	0x51
 12082 0de5 05000000 		.4byte	.LVL170-1
 12083 0de9 06000000 		.4byte	.LFE7
 12084 0ded 0400     		.2byte	0x4
 12085 0def F3       		.byte	0xf3
 12086 0df0 01       		.uleb128 0x1
 12087 0df1 51       		.byte	0x51
 12088 0df2 9F       		.byte	0x9f
 12089 0df3 00000000 		.4byte	0
 12090 0df7 00000000 		.4byte	0
 12091              	.LLST91:
 12092 0dfb 00000000 		.4byte	.LVL171
 12093 0dff 33000000 		.4byte	.LVL177-1
 12094 0e03 0100     		.2byte	0x1
 12095 0e05 50       		.byte	0x50
 12096 0e06 33000000 		.4byte	.LVL177-1
 12097 0e0a 34000000 		.4byte	.LVL177
 12098 0e0e 0400     		.2byte	0x4
 12099 0e10 F3       		.byte	0xf3
 12100 0e11 01       		.uleb128 0x1
 12101 0e12 50       		.byte	0x50
 12102 0e13 9F       		.byte	0x9f
 12103 0e14 34000000 		.4byte	.LVL177
 12104 0e18 38000000 		.4byte	.LFE11
 12105 0e1c 0100     		.2byte	0x1
 12106 0e1e 50       		.byte	0x50
 12107 0e1f 00000000 		.4byte	0
 12108 0e23 00000000 		.4byte	0
 12109              	.LLST92:
 12110 0e27 00000000 		.4byte	.LVL171
 12111 0e2b 0E000000 		.4byte	.LVL173
 12112 0e2f 0100     		.2byte	0x1
ARM GAS  C:\Users\rdn\AppData\Local\Temp\ccYcaPXH.s 			page 249


 12113 0e31 51       		.byte	0x51
 12114 0e32 0E000000 		.4byte	.LVL173
 12115 0e36 38000000 		.4byte	.LFE11
 12116 0e3a 0400     		.2byte	0x4
 12117 0e3c F3       		.byte	0xf3
 12118 0e3d 01       		.uleb128 0x1
 12119 0e3e 51       		.byte	0x51
 12120 0e3f 9F       		.byte	0x9f
 12121 0e40 00000000 		.4byte	0
 12122 0e44 00000000 		.4byte	0
 12123              	.LLST93:
 12124 0e48 00000000 		.4byte	.LVL171
 12125 0e4c 0C000000 		.4byte	.LVL172
 12126 0e50 0100     		.2byte	0x1
 12127 0e52 52       		.byte	0x52
 12128 0e53 0C000000 		.4byte	.LVL172
 12129 0e57 38000000 		.4byte	.LFE11
 12130 0e5b 0400     		.2byte	0x4
 12131 0e5d F3       		.byte	0xf3
 12132 0e5e 01       		.uleb128 0x1
 12133 0e5f 52       		.byte	0x52
 12134 0e60 9F       		.byte	0x9f
 12135 0e61 00000000 		.4byte	0
 12136 0e65 00000000 		.4byte	0
 12137              	.LLST94:
 12138 0e69 00000000 		.4byte	.LVL171
 12139 0e6d 0E000000 		.4byte	.LVL173
 12140 0e71 0100     		.2byte	0x1
 12141 0e73 51       		.byte	0x51
 12142 0e74 0E000000 		.4byte	.LVL173
 12143 0e78 38000000 		.4byte	.LFE11
 12144 0e7c 0400     		.2byte	0x4
 12145 0e7e F3       		.byte	0xf3
 12146 0e7f 01       		.uleb128 0x1
 12147 0e80 51       		.byte	0x51
 12148 0e81 9F       		.byte	0x9f
 12149 0e82 00000000 		.4byte	0
 12150 0e86 00000000 		.4byte	0
 12151              	.LLST95:
 12152 0e8a 00000000 		.4byte	.LVL171
 12153 0e8e 33000000 		.4byte	.LVL177-1
 12154 0e92 0300     		.2byte	0x3
 12155 0e94 70       		.byte	0x70
 12156 0e95 04       		.sleb128 4
 12157 0e96 9F       		.byte	0x9f
 12158 0e97 33000000 		.4byte	.LVL177-1
 12159 0e9b 34000000 		.4byte	.LVL177
 12160 0e9f 0600     		.2byte	0x6
 12161 0ea1 F3       		.byte	0xf3
 12162 0ea2 01       		.uleb128 0x1
 12163 0ea3 50       		.byte	0x50
 12164 0ea4 23       		.byte	0x23
 12165 0ea5 04       		.uleb128 0x4
 12166 0ea6 9F       		.byte	0x9f
 12167 0ea7 34000000 		.4byte	.LVL177
 12168 0eab 38000000 		.4byte	.LFE11
 12169 0eaf 0300     		.2byte	0x3
ARM GAS  C:\Users\rdn\AppData\Local\Temp\ccYcaPXH.s 			page 250


 12170 0eb1 70       		.byte	0x70
 12171 0eb2 04       		.sleb128 4
 12172 0eb3 9F       		.byte	0x9f
 12173 0eb4 00000000 		.4byte	0
 12174 0eb8 00000000 		.4byte	0
 12175              	.LLST96:
 12176 0ebc 10000000 		.4byte	.LVL174
 12177 0ec0 18000000 		.4byte	.LVL175
 12178 0ec4 0100     		.2byte	0x1
 12179 0ec6 53       		.byte	0x53
 12180 0ec7 18000000 		.4byte	.LVL175
 12181 0ecb 1C000000 		.4byte	.LVL176
 12182 0ecf 0600     		.2byte	0x6
 12183 0ed1 70       		.byte	0x70
 12184 0ed2 08       		.sleb128 8
 12185 0ed3 06       		.byte	0x6
 12186 0ed4 3A       		.byte	0x3a
 12187 0ed5 25       		.byte	0x25
 12188 0ed6 9F       		.byte	0x9f
 12189 0ed7 00000000 		.4byte	0
 12190 0edb 00000000 		.4byte	0
 12191              	.LLST97:
 12192 0edf 00000000 		.4byte	.LVL178
 12193 0ee3 13000000 		.4byte	.LVL179-1
 12194 0ee7 0100     		.2byte	0x1
 12195 0ee9 50       		.byte	0x50
 12196 0eea 13000000 		.4byte	.LVL179-1
 12197 0eee 14000000 		.4byte	.LVL179
 12198 0ef2 0400     		.2byte	0x4
 12199 0ef4 F3       		.byte	0xf3
 12200 0ef5 01       		.uleb128 0x1
 12201 0ef6 50       		.byte	0x50
 12202 0ef7 9F       		.byte	0x9f
 12203 0ef8 14000000 		.4byte	.LVL179
 12204 0efc 16000000 		.4byte	.LVL180
 12205 0f00 0100     		.2byte	0x1
 12206 0f02 50       		.byte	0x50
 12207 0f03 16000000 		.4byte	.LVL180
 12208 0f07 26000000 		.4byte	.LFE10
 12209 0f0b 0100     		.2byte	0x1
 12210 0f0d 53       		.byte	0x53
 12211 0f0e 00000000 		.4byte	0
 12212 0f12 00000000 		.4byte	0
 12213              	.LLST98:
 12214 0f16 00000000 		.4byte	.LVL178
 12215 0f1a 13000000 		.4byte	.LVL179-1
 12216 0f1e 0100     		.2byte	0x1
 12217 0f20 51       		.byte	0x51
 12218 0f21 13000000 		.4byte	.LVL179-1
 12219 0f25 14000000 		.4byte	.LVL179
 12220 0f29 0400     		.2byte	0x4
 12221 0f2b F3       		.byte	0xf3
 12222 0f2c 01       		.uleb128 0x1
 12223 0f2d 51       		.byte	0x51
 12224 0f2e 9F       		.byte	0x9f
 12225 0f2f 14000000 		.4byte	.LVL179
 12226 0f33 1A000000 		.4byte	.LVL181
ARM GAS  C:\Users\rdn\AppData\Local\Temp\ccYcaPXH.s 			page 251


 12227 0f37 0100     		.2byte	0x1
 12228 0f39 51       		.byte	0x51
 12229 0f3a 1A000000 		.4byte	.LVL181
 12230 0f3e 24000000 		.4byte	.LVL183
 12231 0f42 0100     		.2byte	0x1
 12232 0f44 54       		.byte	0x54
 12233 0f45 24000000 		.4byte	.LVL183
 12234 0f49 26000000 		.4byte	.LFE10
 12235 0f4d 0400     		.2byte	0x4
 12236 0f4f F3       		.byte	0xf3
 12237 0f50 01       		.uleb128 0x1
 12238 0f51 51       		.byte	0x51
 12239 0f52 9F       		.byte	0x9f
 12240 0f53 00000000 		.4byte	0
 12241 0f57 00000000 		.4byte	0
 12242              	.LLST99:
 12243 0f5b 00000000 		.4byte	.LVL178
 12244 0f5f 13000000 		.4byte	.LVL179-1
 12245 0f63 0300     		.2byte	0x3
 12246 0f65 70       		.byte	0x70
 12247 0f66 1C       		.sleb128 28
 12248 0f67 9F       		.byte	0x9f
 12249 0f68 13000000 		.4byte	.LVL179-1
 12250 0f6c 14000000 		.4byte	.LVL179
 12251 0f70 0600     		.2byte	0x6
 12252 0f72 F3       		.byte	0xf3
 12253 0f73 01       		.uleb128 0x1
 12254 0f74 50       		.byte	0x50
 12255 0f75 23       		.byte	0x23
 12256 0f76 1C       		.uleb128 0x1c
 12257 0f77 9F       		.byte	0x9f
 12258 0f78 14000000 		.4byte	.LVL179
 12259 0f7c 16000000 		.4byte	.LVL180
 12260 0f80 0300     		.2byte	0x3
 12261 0f82 70       		.byte	0x70
 12262 0f83 1C       		.sleb128 28
 12263 0f84 9F       		.byte	0x9f
 12264 0f85 16000000 		.4byte	.LVL180
 12265 0f89 26000000 		.4byte	.LFE10
 12266 0f8d 0300     		.2byte	0x3
 12267 0f8f 73       		.byte	0x73
 12268 0f90 1C       		.sleb128 28
 12269 0f91 9F       		.byte	0x9f
 12270 0f92 00000000 		.4byte	0
 12271 0f96 00000000 		.4byte	0
 12272              	.LLST100:
 12273 0f9a 00000000 		.4byte	.LVL184
 12274 0f9e 05000000 		.4byte	.LVL185-1
 12275 0fa2 0100     		.2byte	0x1
 12276 0fa4 50       		.byte	0x50
 12277 0fa5 05000000 		.4byte	.LVL185-1
 12278 0fa9 06000000 		.4byte	.LFE9
 12279 0fad 0400     		.2byte	0x4
 12280 0faf F3       		.byte	0xf3
 12281 0fb0 01       		.uleb128 0x1
 12282 0fb1 50       		.byte	0x50
 12283 0fb2 9F       		.byte	0x9f
ARM GAS  C:\Users\rdn\AppData\Local\Temp\ccYcaPXH.s 			page 252


 12284 0fb3 00000000 		.4byte	0
 12285 0fb7 00000000 		.4byte	0
 12286              	.LLST101:
 12287 0fbb 00000000 		.4byte	.LVL186
 12288 0fbf 89000000 		.4byte	.LVL198-1
 12289 0fc3 0100     		.2byte	0x1
 12290 0fc5 50       		.byte	0x50
 12291 0fc6 89000000 		.4byte	.LVL198-1
 12292 0fca 8E000000 		.4byte	.LFE12
 12293 0fce 0400     		.2byte	0x4
 12294 0fd0 F3       		.byte	0xf3
 12295 0fd1 01       		.uleb128 0x1
 12296 0fd2 50       		.byte	0x50
 12297 0fd3 9F       		.byte	0x9f
 12298 0fd4 00000000 		.4byte	0
 12299 0fd8 00000000 		.4byte	0
 12300              	.LLST102:
 12301 0fdc 00000000 		.4byte	.LVL186
 12302 0fe0 89000000 		.4byte	.LVL198-1
 12303 0fe4 0100     		.2byte	0x1
 12304 0fe6 51       		.byte	0x51
 12305 0fe7 89000000 		.4byte	.LVL198-1
 12306 0feb 8E000000 		.4byte	.LFE12
 12307 0fef 0400     		.2byte	0x4
 12308 0ff1 F3       		.byte	0xf3
 12309 0ff2 01       		.uleb128 0x1
 12310 0ff3 51       		.byte	0x51
 12311 0ff4 9F       		.byte	0x9f
 12312 0ff5 00000000 		.4byte	0
 12313 0ff9 00000000 		.4byte	0
 12314              	.LLST103:
 12315 0ffd 00000000 		.4byte	.LVL186
 12316 1001 89000000 		.4byte	.LVL198-1
 12317 1005 0100     		.2byte	0x1
 12318 1007 51       		.byte	0x51
 12319 1008 89000000 		.4byte	.LVL198-1
 12320 100c 8E000000 		.4byte	.LFE12
 12321 1010 0400     		.2byte	0x4
 12322 1012 F3       		.byte	0xf3
 12323 1013 01       		.uleb128 0x1
 12324 1014 51       		.byte	0x51
 12325 1015 9F       		.byte	0x9f
 12326 1016 00000000 		.4byte	0
 12327 101a 00000000 		.4byte	0
 12328              	.LLST104:
 12329 101e 00000000 		.4byte	.LVL186
 12330 1022 89000000 		.4byte	.LVL198-1
 12331 1026 0300     		.2byte	0x3
 12332 1028 70       		.byte	0x70
 12333 1029 04       		.sleb128 4
 12334 102a 9F       		.byte	0x9f
 12335 102b 89000000 		.4byte	.LVL198-1
 12336 102f 8E000000 		.4byte	.LFE12
 12337 1033 0600     		.2byte	0x6
 12338 1035 F3       		.byte	0xf3
 12339 1036 01       		.uleb128 0x1
 12340 1037 50       		.byte	0x50
ARM GAS  C:\Users\rdn\AppData\Local\Temp\ccYcaPXH.s 			page 253


 12341 1038 23       		.byte	0x23
 12342 1039 04       		.uleb128 0x4
 12343 103a 9F       		.byte	0x9f
 12344 103b 00000000 		.4byte	0
 12345 103f 00000000 		.4byte	0
 12346              	.LLST105:
 12347 1043 0A000000 		.4byte	.LVL187
 12348 1047 7E000000 		.4byte	.LVL196
 12349 104b 0100     		.2byte	0x1
 12350 104d 55       		.byte	0x55
 12351 104e 7E000000 		.4byte	.LVL196
 12352 1052 84000000 		.4byte	.LVL197
 12353 1056 0A00     		.2byte	0xa
 12354 1058 70       		.byte	0x70
 12355 1059 08       		.sleb128 8
 12356 105a 06       		.byte	0x6
 12357 105b 09       		.byte	0x9
 12358 105c EA       		.byte	0xea
 12359 105d 24       		.byte	0x24
 12360 105e 09       		.byte	0x9
 12361 105f F4       		.byte	0xf4
 12362 1060 25       		.byte	0x25
 12363 1061 9F       		.byte	0x9f
 12364 1062 00000000 		.4byte	0
 12365 1066 00000000 		.4byte	0
 12366              	.LLST106:
 12367 106a 1E000000 		.4byte	.LVL188
 12368 106e 2A000000 		.4byte	.LVL189
 12369 1072 0200     		.2byte	0x2
 12370 1074 40       		.byte	0x40
 12371 1075 9F       		.byte	0x9f
 12372 1076 2A000000 		.4byte	.LVL189
 12373 107a 36000000 		.4byte	.LVL190
 12374 107e 0200     		.2byte	0x2
 12375 1080 38       		.byte	0x38
 12376 1081 9F       		.byte	0x9f
 12377 1082 36000000 		.4byte	.LVL190
 12378 1086 48000000 		.4byte	.LVL191
 12379 108a 0100     		.2byte	0x1
 12380 108c 53       		.byte	0x53
 12381 108d 48000000 		.4byte	.LVL191
 12382 1091 5A000000 		.4byte	.LVL192
 12383 1095 0100     		.2byte	0x1
 12384 1097 52       		.byte	0x52
 12385 1098 5A000000 		.4byte	.LVL192
 12386 109c 68000000 		.4byte	.LVL193
 12387 10a0 0100     		.2byte	0x1
 12388 10a2 53       		.byte	0x53
 12389 10a3 68000000 		.4byte	.LVL193
 12390 10a7 6A000000 		.4byte	.LVL194
 12391 10ab 0100     		.2byte	0x1
 12392 10ad 54       		.byte	0x54
 12393 10ae 6A000000 		.4byte	.LVL194
 12394 10b2 6C000000 		.4byte	.LVL195
 12395 10b6 0200     		.2byte	0x2
 12396 10b8 40       		.byte	0x40
 12397 10b9 9F       		.byte	0x9f
ARM GAS  C:\Users\rdn\AppData\Local\Temp\ccYcaPXH.s 			page 254


 12398 10ba 6C000000 		.4byte	.LVL195
 12399 10be 8E000000 		.4byte	.LFE12
 12400 10c2 0100     		.2byte	0x1
 12401 10c4 54       		.byte	0x54
 12402 10c5 00000000 		.4byte	0
 12403 10c9 00000000 		.4byte	0
 12404              	.LLST107:
 12405 10cd 00000000 		.4byte	.LVL199
 12406 10d1 19000000 		.4byte	.LVL201-1
 12407 10d5 0100     		.2byte	0x1
 12408 10d7 50       		.byte	0x50
 12409 10d8 19000000 		.4byte	.LVL201-1
 12410 10dc 6C020000 		.4byte	.LFE40
 12411 10e0 0400     		.2byte	0x4
 12412 10e2 F3       		.byte	0xf3
 12413 10e3 01       		.uleb128 0x1
 12414 10e4 50       		.byte	0x50
 12415 10e5 9F       		.byte	0x9f
 12416 10e6 00000000 		.4byte	0
 12417 10ea 00000000 		.4byte	0
 12418              	.LLST108:
 12419 10ee 00000000 		.4byte	.LVL199
 12420 10f2 19000000 		.4byte	.LVL201-1
 12421 10f6 0100     		.2byte	0x1
 12422 10f8 51       		.byte	0x51
 12423 10f9 19000000 		.4byte	.LVL201-1
 12424 10fd 6C020000 		.4byte	.LFE40
 12425 1101 0400     		.2byte	0x4
 12426 1103 F3       		.byte	0xf3
 12427 1104 01       		.uleb128 0x1
 12428 1105 51       		.byte	0x51
 12429 1106 9F       		.byte	0x9f
 12430 1107 00000000 		.4byte	0
 12431 110b 00000000 		.4byte	0
 12432              	.LLST109:
 12433 110f 00000000 		.4byte	.LVL199
 12434 1113 19000000 		.4byte	.LVL201-1
 12435 1117 0100     		.2byte	0x1
 12436 1119 52       		.byte	0x52
 12437 111a 19000000 		.4byte	.LVL201-1
 12438 111e 54020000 		.4byte	.LVL253
 12439 1122 0100     		.2byte	0x1
 12440 1124 57       		.byte	0x57
 12441 1125 54020000 		.4byte	.LVL253
 12442 1129 6C020000 		.4byte	.LFE40
 12443 112d 0400     		.2byte	0x4
 12444 112f F3       		.byte	0xf3
 12445 1130 01       		.uleb128 0x1
 12446 1131 52       		.byte	0x52
 12447 1132 9F       		.byte	0x9f
 12448 1133 00000000 		.4byte	0
 12449 1137 00000000 		.4byte	0
 12450              	.LLST110:
 12451 113b 00000000 		.4byte	.LVL199
 12452 113f 19000000 		.4byte	.LVL201-1
 12453 1143 0100     		.2byte	0x1
 12454 1145 53       		.byte	0x53
ARM GAS  C:\Users\rdn\AppData\Local\Temp\ccYcaPXH.s 			page 255


 12455 1146 19000000 		.4byte	.LVL201-1
 12456 114a 6C020000 		.4byte	.LFE40
 12457 114e 0400     		.2byte	0x4
 12458 1150 F3       		.byte	0xf3
 12459 1151 01       		.uleb128 0x1
 12460 1152 53       		.byte	0x53
 12461 1153 9F       		.byte	0x9f
 12462 1154 00000000 		.4byte	0
 12463 1158 00000000 		.4byte	0
 12464              	.LLST111:
 12465 115c 00000000 		.4byte	.LVL199
 12466 1160 54020000 		.4byte	.LVL253
 12467 1164 0200     		.2byte	0x2
 12468 1166 91       		.byte	0x91
 12469 1167 00       		.sleb128 0
 12470 1168 54020000 		.4byte	.LVL253
 12471 116c 6C020000 		.4byte	.LFE40
 12472 1170 0200     		.2byte	0x2
 12473 1172 7D       		.byte	0x7d
 12474 1173 00       		.sleb128 0
 12475 1174 00000000 		.4byte	0
 12476 1178 00000000 		.4byte	0
 12477              	.LLST112:
 12478 117c 00000000 		.4byte	.LVL199
 12479 1180 54020000 		.4byte	.LVL253
 12480 1184 0200     		.2byte	0x2
 12481 1186 91       		.byte	0x91
 12482 1187 04       		.sleb128 4
 12483 1188 54020000 		.4byte	.LVL253
 12484 118c 6C020000 		.4byte	.LFE40
 12485 1190 0200     		.2byte	0x2
 12486 1192 7D       		.byte	0x7d
 12487 1193 04       		.sleb128 4
 12488 1194 00000000 		.4byte	0
 12489 1198 00000000 		.4byte	0
 12490              	.LLST113:
 12491 119c 00000000 		.4byte	.LVL199
 12492 11a0 54020000 		.4byte	.LVL253
 12493 11a4 0200     		.2byte	0x2
 12494 11a6 91       		.byte	0x91
 12495 11a7 08       		.sleb128 8
 12496 11a8 54020000 		.4byte	.LVL253
 12497 11ac 6C020000 		.4byte	.LFE40
 12498 11b0 0200     		.2byte	0x2
 12499 11b2 7D       		.byte	0x7d
 12500 11b3 08       		.sleb128 8
 12501 11b4 00000000 		.4byte	0
 12502 11b8 00000000 		.4byte	0
 12503              	.LLST114:
 12504 11bc 00000000 		.4byte	.LVL199
 12505 11c0 54020000 		.4byte	.LVL253
 12506 11c4 0200     		.2byte	0x2
 12507 11c6 91       		.byte	0x91
 12508 11c7 0C       		.sleb128 12
 12509 11c8 54020000 		.4byte	.LVL253
 12510 11cc 6C020000 		.4byte	.LFE40
 12511 11d0 0200     		.2byte	0x2
ARM GAS  C:\Users\rdn\AppData\Local\Temp\ccYcaPXH.s 			page 256


 12512 11d2 7D       		.byte	0x7d
 12513 11d3 0C       		.sleb128 12
 12514 11d4 00000000 		.4byte	0
 12515 11d8 00000000 		.4byte	0
 12516              	.LLST115:
 12517 11dc 7C000000 		.4byte	.LVL207
 12518 11e0 54020000 		.4byte	.LVL253
 12519 11e4 0100     		.2byte	0x1
 12520 11e6 54       		.byte	0x54
 12521 11e7 00000000 		.4byte	0
 12522 11eb 00000000 		.4byte	0
 12523              	.LLST116:
 12524 11ef 7C000000 		.4byte	.LVL207
 12525 11f3 83000000 		.4byte	.LVL208-1
 12526 11f7 0200     		.2byte	0x2
 12527 11f9 90       		.byte	0x90
 12528 11fa 4F       		.uleb128 0x4f
 12529 11fb 8A000000 		.4byte	.LVL209
 12530 11ff 9A000000 		.4byte	.LVL210
 12531 1203 0100     		.2byte	0x1
 12532 1205 50       		.byte	0x50
 12533 1206 9E000000 		.4byte	.LVL211
 12534 120a 10010000 		.4byte	.LVL220
 12535 120e 0200     		.2byte	0x2
 12536 1210 90       		.byte	0x90
 12537 1211 50       		.uleb128 0x50
 12538 1212 00000000 		.4byte	0
 12539 1216 00000000 		.4byte	0
 12540              	.LLST117:
 12541 121a A6000000 		.4byte	.LVL213
 12542 121e BE000000 		.4byte	.LVL214
 12543 1222 0100     		.2byte	0x1
 12544 1224 50       		.byte	0x50
 12545 1225 BE000000 		.4byte	.LVL214
 12546 1229 54020000 		.4byte	.LVL253
 12547 122d 0100     		.2byte	0x1
 12548 122f 58       		.byte	0x58
 12549 1230 00000000 		.4byte	0
 12550 1234 00000000 		.4byte	0
 12551              	.LLST118:
 12552 1238 C6000000 		.4byte	.LVL216
 12553 123c DA000000 		.4byte	.LVL217
 12554 1240 0100     		.2byte	0x1
 12555 1242 50       		.byte	0x50
 12556 1243 DA000000 		.4byte	.LVL217
 12557 1247 DD000000 		.4byte	.LVL218-1
 12558 124b 0100     		.2byte	0x1
 12559 124d 52       		.byte	0x52
 12560 124e DD000000 		.4byte	.LVL218-1
 12561 1252 54020000 		.4byte	.LVL253
 12562 1256 0300     		.2byte	0x3
 12563 1258 91       		.byte	0x91
 12564 1259 E47E     		.sleb128 -156
 12565 125b 54020000 		.4byte	.LVL253
 12566 125f 6C020000 		.4byte	.LFE40
 12567 1263 0300     		.2byte	0x3
 12568 1265 7D       		.byte	0x7d
ARM GAS  C:\Users\rdn\AppData\Local\Temp\ccYcaPXH.s 			page 257


 12569 1266 E47E     		.sleb128 -156
 12570 1268 00000000 		.4byte	0
 12571 126c 00000000 		.4byte	0
 12572              	.LLST119:
 12573 1270 F6000000 		.4byte	.LVL219
 12574 1274 26010000 		.4byte	.LVL221
 12575 1278 0100     		.2byte	0x1
 12576 127a 50       		.byte	0x50
 12577 127b 26010000 		.4byte	.LVL221
 12578 127f 4A020000 		.4byte	.LVL252
 12579 1283 0300     		.2byte	0x3
 12580 1285 91       		.byte	0x91
 12581 1286 EC7E     		.sleb128 -148
 12582 1288 00000000 		.4byte	0
 12583 128c 00000000 		.4byte	0
 12584              	.LLST120:
 12585 1290 16000000 		.4byte	.LVL200
 12586 1294 19000000 		.4byte	.LVL201-1
 12587 1298 0100     		.2byte	0x1
 12588 129a 52       		.byte	0x52
 12589 129b 19000000 		.4byte	.LVL201-1
 12590 129f 2E000000 		.4byte	.LVL202
 12591 12a3 0100     		.2byte	0x1
 12592 12a5 57       		.byte	0x57
 12593 12a6 00000000 		.4byte	0
 12594 12aa 00000000 		.4byte	0
 12595              	.LLST121:
 12596 12ae 16000000 		.4byte	.LVL200
 12597 12b2 19000000 		.4byte	.LVL201-1
 12598 12b6 0100     		.2byte	0x1
 12599 12b8 51       		.byte	0x51
 12600 12b9 19000000 		.4byte	.LVL201-1
 12601 12bd 2E000000 		.4byte	.LVL202
 12602 12c1 0400     		.2byte	0x4
 12603 12c3 F3       		.byte	0xf3
 12604 12c4 01       		.uleb128 0x1
 12605 12c5 51       		.byte	0x51
 12606 12c6 9F       		.byte	0x9f
 12607 12c7 00000000 		.4byte	0
 12608 12cb 00000000 		.4byte	0
 12609              	.LLST122:
 12610 12cf 16000000 		.4byte	.LVL200
 12611 12d3 2E000000 		.4byte	.LVL202
 12612 12d7 0100     		.2byte	0x1
 12613 12d9 56       		.byte	0x56
 12614 12da 00000000 		.4byte	0
 12615 12de 00000000 		.4byte	0
 12616              	.LLST123:
 12617 12e2 2A010000 		.4byte	.LVL222
 12618 12e6 2D010000 		.4byte	.LVL223-1
 12619 12ea 0600     		.2byte	0x6
 12620 12ec 78       		.byte	0x78
 12621 12ed 00       		.sleb128 0
 12622 12ee 73       		.byte	0x73
 12623 12ef 00       		.sleb128 0
 12624 12f0 22       		.byte	0x22
 12625 12f1 9F       		.byte	0x9f
ARM GAS  C:\Users\rdn\AppData\Local\Temp\ccYcaPXH.s 			page 258


 12626 12f2 2D010000 		.4byte	.LVL223-1
 12627 12f6 0E020000 		.4byte	.LVL248
 12628 12fa 0800     		.2byte	0x8
 12629 12fc 78       		.byte	0x78
 12630 12fd 00       		.sleb128 0
 12631 12fe 91       		.byte	0x91
 12632 12ff E87E     		.sleb128 -152
 12633 1301 06       		.byte	0x6
 12634 1302 22       		.byte	0x22
 12635 1303 9F       		.byte	0x9f
 12636 1304 26020000 		.4byte	.LVL250
 12637 1308 2A020000 		.4byte	.LVL251
 12638 130c 0800     		.2byte	0x8
 12639 130e 78       		.byte	0x78
 12640 130f 00       		.sleb128 0
 12641 1310 91       		.byte	0x91
 12642 1311 E87E     		.sleb128 -152
 12643 1313 06       		.byte	0x6
 12644 1314 22       		.byte	0x22
 12645 1315 9F       		.byte	0x9f
 12646 1316 00000000 		.4byte	0
 12647 131a 00000000 		.4byte	0
 12648              	.LLST124:
 12649 131e 2A010000 		.4byte	.LVL222
 12650 1322 0E020000 		.4byte	.LVL248
 12651 1326 0100     		.2byte	0x1
 12652 1328 54       		.byte	0x54
 12653 1329 26020000 		.4byte	.LVL250
 12654 132d 2A020000 		.4byte	.LVL251
 12655 1331 0100     		.2byte	0x1
 12656 1333 54       		.byte	0x54
 12657 1334 00000000 		.4byte	0
 12658 1338 00000000 		.4byte	0
 12659              	.LLST125:
 12660 133c 2A010000 		.4byte	.LVL222
 12661 1340 0E020000 		.4byte	.LVL248
 12662 1344 0300     		.2byte	0x3
 12663 1346 91       		.byte	0x91
 12664 1347 EC7E     		.sleb128 -148
 12665 1349 26020000 		.4byte	.LVL250
 12666 134d 2A020000 		.4byte	.LVL251
 12667 1351 0300     		.2byte	0x3
 12668 1353 91       		.byte	0x91
 12669 1354 EC7E     		.sleb128 -148
 12670 1356 00000000 		.4byte	0
 12671 135a 00000000 		.4byte	0
 12672              	.LLST126:
 12673 135e 2A010000 		.4byte	.LVL222
 12674 1362 CC010000 		.4byte	.LVL241
 12675 1366 0100     		.2byte	0x1
 12676 1368 59       		.byte	0x59
 12677 1369 CC010000 		.4byte	.LVL241
 12678 136d CE010000 		.4byte	.LVL242
 12679 1371 0800     		.2byte	0x8
 12680 1373 78       		.byte	0x78
 12681 1374 00       		.sleb128 0
 12682 1375 91       		.byte	0x91
ARM GAS  C:\Users\rdn\AppData\Local\Temp\ccYcaPXH.s 			page 259


 12683 1376 E47E     		.sleb128 -156
 12684 1378 06       		.byte	0x6
 12685 1379 22       		.byte	0x22
 12686 137a 9F       		.byte	0x9f
 12687 137b CE010000 		.4byte	.LVL242
 12688 137f E0010000 		.4byte	.LVL243
 12689 1383 0100     		.2byte	0x1
 12690 1385 59       		.byte	0x59
 12691 1386 E0010000 		.4byte	.LVL243
 12692 138a E8010000 		.4byte	.LVL244
 12693 138e 0800     		.2byte	0x8
 12694 1390 78       		.byte	0x78
 12695 1391 00       		.sleb128 0
 12696 1392 91       		.byte	0x91
 12697 1393 E47E     		.sleb128 -156
 12698 1395 06       		.byte	0x6
 12699 1396 22       		.byte	0x22
 12700 1397 9F       		.byte	0x9f
 12701 1398 E8010000 		.4byte	.LVL244
 12702 139c 0E020000 		.4byte	.LVL248
 12703 13a0 0100     		.2byte	0x1
 12704 13a2 59       		.byte	0x59
 12705 13a3 26020000 		.4byte	.LVL250
 12706 13a7 2A020000 		.4byte	.LVL251
 12707 13ab 0100     		.2byte	0x1
 12708 13ad 59       		.byte	0x59
 12709 13ae 00000000 		.4byte	0
 12710 13b2 00000000 		.4byte	0
 12711              	.LLST127:
 12712 13b6 2A010000 		.4byte	.LVL222
 12713 13ba 0E020000 		.4byte	.LVL248
 12714 13be 0100     		.2byte	0x1
 12715 13c0 55       		.byte	0x55
 12716 13c1 26020000 		.4byte	.LVL250
 12717 13c5 2A020000 		.4byte	.LVL251
 12718 13c9 0100     		.2byte	0x1
 12719 13cb 55       		.byte	0x55
 12720 13cc 00000000 		.4byte	0
 12721 13d0 00000000 		.4byte	0
 12722              	.LLST128:
 12723 13d4 2A010000 		.4byte	.LVL222
 12724 13d8 0E020000 		.4byte	.LVL248
 12725 13dc 0100     		.2byte	0x1
 12726 13de 56       		.byte	0x56
 12727 13df 26020000 		.4byte	.LVL250
 12728 13e3 2A020000 		.4byte	.LVL251
 12729 13e7 0100     		.2byte	0x1
 12730 13e9 56       		.byte	0x56
 12731 13ea 00000000 		.4byte	0
 12732 13ee 00000000 		.4byte	0
 12733              	.LLST129:
 12734 13f2 3E010000 		.4byte	.LVL224
 12735 13f6 5A010000 		.4byte	.LVL227
 12736 13fa 0100     		.2byte	0x1
 12737 13fc 5E       		.byte	0x5e
 12738 13fd 5A010000 		.4byte	.LVL227
 12739 1401 62010000 		.4byte	.LVL229
ARM GAS  C:\Users\rdn\AppData\Local\Temp\ccYcaPXH.s 			page 260


 12740 1405 0600     		.2byte	0x6
 12741 1407 7B       		.byte	0x7b
 12742 1408 00       		.sleb128 0
 12743 1409 72       		.byte	0x72
 12744 140a 00       		.sleb128 0
 12745 140b 22       		.byte	0x22
 12746 140c 9F       		.byte	0x9f
 12747 140d 62010000 		.4byte	.LVL229
 12748 1411 6C010000 		.4byte	.LVL230
 12749 1415 0900     		.2byte	0x9
 12750 1417 91       		.byte	0x91
 12751 1418 00       		.sleb128 0
 12752 1419 72       		.byte	0x72
 12753 141a 00       		.sleb128 0
 12754 141b 22       		.byte	0x22
 12755 141c 08       		.byte	0x8
 12756 141d 84       		.byte	0x84
 12757 141e 1C       		.byte	0x1c
 12758 141f 9F       		.byte	0x9f
 12759 1420 6C010000 		.4byte	.LVL230
 12760 1424 76010000 		.4byte	.LVL233
 12761 1428 0B00     		.2byte	0xb
 12762 142a 75       		.byte	0x75
 12763 142b 00       		.sleb128 0
 12764 142c 3C       		.byte	0x3c
 12765 142d 1E       		.byte	0x1e
 12766 142e 91       		.byte	0x91
 12767 142f 00       		.sleb128 0
 12768 1430 22       		.byte	0x22
 12769 1431 08       		.byte	0x8
 12770 1432 84       		.byte	0x84
 12771 1433 1C       		.byte	0x1c
 12772 1434 9F       		.byte	0x9f
 12773 1435 76010000 		.4byte	.LVL233
 12774 1439 82010000 		.4byte	.LVL235
 12775 143d 0100     		.2byte	0x1
 12776 143f 5E       		.byte	0x5e
 12777 1440 82010000 		.4byte	.LVL235
 12778 1444 0E020000 		.4byte	.LVL248
 12779 1448 0B00     		.2byte	0xb
 12780 144a 75       		.byte	0x75
 12781 144b 00       		.sleb128 0
 12782 144c 3C       		.byte	0x3c
 12783 144d 1E       		.byte	0x1e
 12784 144e 91       		.byte	0x91
 12785 144f 00       		.sleb128 0
 12786 1450 22       		.byte	0x22
 12787 1451 08       		.byte	0x8
 12788 1452 84       		.byte	0x84
 12789 1453 1C       		.byte	0x1c
 12790 1454 9F       		.byte	0x9f
 12791 1455 26020000 		.4byte	.LVL250
 12792 1459 2A020000 		.4byte	.LVL251
 12793 145d 0B00     		.2byte	0xb
 12794 145f 75       		.byte	0x75
 12795 1460 00       		.sleb128 0
 12796 1461 3C       		.byte	0x3c
ARM GAS  C:\Users\rdn\AppData\Local\Temp\ccYcaPXH.s 			page 261


 12797 1462 1E       		.byte	0x1e
 12798 1463 91       		.byte	0x91
 12799 1464 00       		.sleb128 0
 12800 1465 22       		.byte	0x22
 12801 1466 08       		.byte	0x8
 12802 1467 84       		.byte	0x84
 12803 1468 1C       		.byte	0x1c
 12804 1469 9F       		.byte	0x9f
 12805 146a 00000000 		.4byte	0
 12806 146e 00000000 		.4byte	0
 12807              	.LLST130:
 12808 1472 48010000 		.4byte	.LVL225
 12809 1476 4A010000 		.4byte	.LVL226
 12810 147a 0100     		.2byte	0x1
 12811 147c 51       		.byte	0x51
 12812 147d 70010000 		.4byte	.LVL231
 12813 1481 76010000 		.4byte	.LVL233
 12814 1485 0100     		.2byte	0x1
 12815 1487 51       		.byte	0x51
 12816 1488 80010000 		.4byte	.LVL234
 12817 148c 92010000 		.4byte	.LVL236
 12818 1490 0100     		.2byte	0x1
 12819 1492 51       		.byte	0x51
 12820 1493 92010000 		.4byte	.LVL236
 12821 1497 FE010000 		.4byte	.LVL245
 12822 149b 0100     		.2byte	0x1
 12823 149d 52       		.byte	0x52
 12824 149e 08020000 		.4byte	.LVL246
 12825 14a2 0A020000 		.4byte	.LVL247
 12826 14a6 0100     		.2byte	0x1
 12827 14a8 52       		.byte	0x52
 12828 14a9 26020000 		.4byte	.LVL250
 12829 14ad 2A020000 		.4byte	.LVL251
 12830 14b1 0100     		.2byte	0x1
 12831 14b3 52       		.byte	0x52
 12832 14b4 00000000 		.4byte	0
 12833 14b8 00000000 		.4byte	0
 12834              	.LLST131:
 12835 14bc 3E010000 		.4byte	.LVL224
 12836 14c0 74010000 		.4byte	.LVL232
 12837 14c4 0300     		.2byte	0x3
 12838 14c6 08       		.byte	0x8
 12839 14c7 30       		.byte	0x30
 12840 14c8 9F       		.byte	0x9f
 12841 14c9 74010000 		.4byte	.LVL232
 12842 14cd 76010000 		.4byte	.LVL233
 12843 14d1 0100     		.2byte	0x1
 12844 14d3 50       		.byte	0x50
 12845 14d4 76010000 		.4byte	.LVL233
 12846 14d8 82010000 		.4byte	.LVL235
 12847 14dc 0300     		.2byte	0x3
 12848 14de 08       		.byte	0x8
 12849 14df 30       		.byte	0x30
 12850 14e0 9F       		.byte	0x9f
 12851 14e1 82010000 		.4byte	.LVL235
 12852 14e5 9E010000 		.4byte	.LVL237
 12853 14e9 0100     		.2byte	0x1
ARM GAS  C:\Users\rdn\AppData\Local\Temp\ccYcaPXH.s 			page 262


 12854 14eb 50       		.byte	0x50
 12855 14ec CE010000 		.4byte	.LVL242
 12856 14f0 0E020000 		.4byte	.LVL248
 12857 14f4 0100     		.2byte	0x1
 12858 14f6 50       		.byte	0x50
 12859 14f7 26020000 		.4byte	.LVL250
 12860 14fb 2A020000 		.4byte	.LVL251
 12861 14ff 0100     		.2byte	0x1
 12862 1501 50       		.byte	0x50
 12863 1502 00000000 		.4byte	0
 12864 1506 00000000 		.4byte	0
 12865              	.LLST132:
 12866 150a 5E010000 		.4byte	.LVL228
 12867 150e 76010000 		.4byte	.LVL233
 12868 1512 0100     		.2byte	0x1
 12869 1514 5C       		.byte	0x5c
 12870 1515 00000000 		.4byte	0
 12871 1519 00000000 		.4byte	0
 12872              	.LLST133:
 12873 151d 5E010000 		.4byte	.LVL228
 12874 1521 76010000 		.4byte	.LVL233
 12875 1525 0100     		.2byte	0x1
 12876 1527 5E       		.byte	0x5e
 12877 1528 00000000 		.4byte	0
 12878 152c 00000000 		.4byte	0
 12879              	.LLST134:
 12880 1530 B2010000 		.4byte	.LVL238
 12881 1534 BC010000 		.4byte	.LVL240
 12882 1538 0100     		.2byte	0x1
 12883 153a 51       		.byte	0x51
 12884 153b 00000000 		.4byte	0
 12885 153f 00000000 		.4byte	0
 12886              	.LLST135:
 12887 1543 B2010000 		.4byte	.LVL238
 12888 1547 B4010000 		.4byte	.LVL239
 12889 154b 0F00     		.2byte	0xf
 12890 154d 73       		.byte	0x73
 12891 154e 00       		.sleb128 0
 12892 154f 74       		.byte	0x74
 12893 1550 00       		.sleb128 0
 12894 1551 1C       		.byte	0x1c
 12895 1552 71       		.byte	0x71
 12896 1553 00       		.sleb128 0
 12897 1554 1E       		.byte	0x1e
 12898 1555 72       		.byte	0x72
 12899 1556 00       		.sleb128 0
 12900 1557 1B       		.byte	0x1b
 12901 1558 71       		.byte	0x71
 12902 1559 00       		.sleb128 0
 12903 155a 22       		.byte	0x22
 12904 155b 9F       		.byte	0x9f
 12905 155c B4010000 		.4byte	.LVL239
 12906 1560 BC010000 		.4byte	.LVL240
 12907 1564 1100     		.2byte	0x11
 12908 1566 91       		.byte	0x91
 12909 1567 EC7E     		.sleb128 -148
 12910 1569 06       		.byte	0x6
ARM GAS  C:\Users\rdn\AppData\Local\Temp\ccYcaPXH.s 			page 263


 12911 156a 74       		.byte	0x74
 12912 156b 00       		.sleb128 0
 12913 156c 1C       		.byte	0x1c
 12914 156d 71       		.byte	0x71
 12915 156e 00       		.sleb128 0
 12916 156f 1E       		.byte	0x1e
 12917 1570 72       		.byte	0x72
 12918 1571 00       		.sleb128 0
 12919 1572 1B       		.byte	0x1b
 12920 1573 71       		.byte	0x71
 12921 1574 00       		.sleb128 0
 12922 1575 22       		.byte	0x22
 12923 1576 9F       		.byte	0x9f
 12924 1577 BC010000 		.4byte	.LVL240
 12925 157b CE010000 		.4byte	.LVL242
 12926 157f 0100     		.2byte	0x1
 12927 1581 51       		.byte	0x51
 12928 1582 00000000 		.4byte	0
 12929 1586 00000000 		.4byte	0
 12930              	.LLST136:
 12931 158a 00000000 		.4byte	.LVL254
 12932 158e 08000000 		.4byte	.LVL255
 12933 1592 0100     		.2byte	0x1
 12934 1594 50       		.byte	0x50
 12935 1595 08000000 		.4byte	.LVL255
 12936 1599 36000000 		.4byte	.LVL261
 12937 159d 0100     		.2byte	0x1
 12938 159f 54       		.byte	0x54
 12939 15a0 36000000 		.4byte	.LVL261
 12940 15a4 39000000 		.4byte	.LVL262-1
 12941 15a8 0100     		.2byte	0x1
 12942 15aa 50       		.byte	0x50
 12943 15ab 39000000 		.4byte	.LVL262-1
 12944 15af 3A000000 		.4byte	.LFE41
 12945 15b3 0400     		.2byte	0x4
 12946 15b5 F3       		.byte	0xf3
 12947 15b6 01       		.uleb128 0x1
 12948 15b7 50       		.byte	0x50
 12949 15b8 9F       		.byte	0x9f
 12950 15b9 00000000 		.4byte	0
 12951 15bd 00000000 		.4byte	0
 12952              	.LLST137:
 12953 15c1 00000000 		.4byte	.LVL254
 12954 15c5 0A000000 		.4byte	.LVL256
 12955 15c9 0100     		.2byte	0x1
 12956 15cb 51       		.byte	0x51
 12957 15cc 0A000000 		.4byte	.LVL256
 12958 15d0 3A000000 		.4byte	.LFE41
 12959 15d4 0400     		.2byte	0x4
 12960 15d6 F3       		.byte	0xf3
 12961 15d7 01       		.uleb128 0x1
 12962 15d8 51       		.byte	0x51
 12963 15d9 9F       		.byte	0x9f
 12964 15da 00000000 		.4byte	0
 12965 15de 00000000 		.4byte	0
 12966              	.LLST138:
 12967 15e2 00000000 		.4byte	.LVL254
ARM GAS  C:\Users\rdn\AppData\Local\Temp\ccYcaPXH.s 			page 264


 12968 15e6 0D000000 		.4byte	.LVL257-1
 12969 15ea 0100     		.2byte	0x1
 12970 15ec 52       		.byte	0x52
 12971 15ed 0D000000 		.4byte	.LVL257-1
 12972 15f1 3A000000 		.4byte	.LFE41
 12973 15f5 0400     		.2byte	0x4
 12974 15f7 F3       		.byte	0xf3
 12975 15f8 01       		.uleb128 0x1
 12976 15f9 52       		.byte	0x52
 12977 15fa 9F       		.byte	0x9f
 12978 15fb 00000000 		.4byte	0
 12979 15ff 00000000 		.4byte	0
 12980              	.LLST139:
 12981 1603 00000000 		.4byte	.LVL254
 12982 1607 0D000000 		.4byte	.LVL257-1
 12983 160b 0100     		.2byte	0x1
 12984 160d 53       		.byte	0x53
 12985 160e 0D000000 		.4byte	.LVL257-1
 12986 1612 36000000 		.4byte	.LVL261
 12987 1616 0100     		.2byte	0x1
 12988 1618 55       		.byte	0x55
 12989 1619 36000000 		.4byte	.LVL261
 12990 161d 3A000000 		.4byte	.LFE41
 12991 1621 0400     		.2byte	0x4
 12992 1623 F3       		.byte	0xf3
 12993 1624 01       		.uleb128 0x1
 12994 1625 53       		.byte	0x53
 12995 1626 9F       		.byte	0x9f
 12996 1627 00000000 		.4byte	0
 12997 162b 00000000 		.4byte	0
 12998              	.LLST140:
 12999 162f 0E000000 		.4byte	.LVL257
 13000 1633 1E000000 		.4byte	.LVL258
 13001 1637 0100     		.2byte	0x1
 13002 1639 50       		.byte	0x50
 13003 163a 1E000000 		.4byte	.LVL258
 13004 163e 21000000 		.4byte	.LVL259-1
 13005 1642 0100     		.2byte	0x1
 13006 1644 52       		.byte	0x52
 13007 1645 00000000 		.4byte	0
 13008 1649 00000000 		.4byte	0
 13009              	.LLST141:
 13010 164d 00000000 		.4byte	.LVL263
 13011 1651 62000000 		.4byte	.LVL269
 13012 1655 0100     		.2byte	0x1
 13013 1657 50       		.byte	0x50
 13014 1658 62000000 		.4byte	.LVL269
 13015 165c 86040000 		.4byte	.LFE42
 13016 1660 0100     		.2byte	0x1
 13017 1662 57       		.byte	0x57
 13018 1663 00000000 		.4byte	0
 13019 1667 00000000 		.4byte	0
 13020              	.LLST142:
 13021 166b 00000000 		.4byte	.LVL263
 13022 166f 3C000000 		.4byte	.LVL266
 13023 1673 0100     		.2byte	0x1
 13024 1675 51       		.byte	0x51
ARM GAS  C:\Users\rdn\AppData\Local\Temp\ccYcaPXH.s 			page 265


 13025 1676 3C000000 		.4byte	.LVL266
 13026 167a 86040000 		.4byte	.LFE42
 13027 167e 0400     		.2byte	0x4
 13028 1680 F3       		.byte	0xf3
 13029 1681 01       		.uleb128 0x1
 13030 1682 51       		.byte	0x51
 13031 1683 9F       		.byte	0x9f
 13032 1684 00000000 		.4byte	0
 13033 1688 00000000 		.4byte	0
 13034              	.LLST143:
 13035 168c 00000000 		.4byte	.LVL263
 13036 1690 10000000 		.4byte	.LVL264
 13037 1694 0100     		.2byte	0x1
 13038 1696 52       		.byte	0x52
 13039 1697 10000000 		.4byte	.LVL264
 13040 169b 86040000 		.4byte	.LFE42
 13041 169f 0400     		.2byte	0x4
 13042 16a1 F3       		.byte	0xf3
 13043 16a2 01       		.uleb128 0x1
 13044 16a3 52       		.byte	0x52
 13045 16a4 9F       		.byte	0x9f
 13046 16a5 00000000 		.4byte	0
 13047 16a9 00000000 		.4byte	0
 13048              	.LLST144:
 13049 16ad 00000000 		.4byte	.LVL263
 13050 16b1 1E000000 		.4byte	.LVL265
 13051 16b5 0100     		.2byte	0x1
 13052 16b7 53       		.byte	0x53
 13053 16b8 1E000000 		.4byte	.LVL265
 13054 16bc 86040000 		.4byte	.LFE42
 13055 16c0 0400     		.2byte	0x4
 13056 16c2 F3       		.byte	0xf3
 13057 16c3 01       		.uleb128 0x1
 13058 16c4 53       		.byte	0x53
 13059 16c5 9F       		.byte	0x9f
 13060 16c6 00000000 		.4byte	0
 13061 16ca 00000000 		.4byte	0
 13062              	.LLST145:
 13063 16ce 5A000000 		.4byte	.LVL267
 13064 16d2 12030000 		.4byte	.LVL334
 13065 16d6 0100     		.2byte	0x1
 13066 16d8 58       		.byte	0x58
 13067 16d9 CE030000 		.4byte	.LVL352
 13068 16dd EE030000 		.4byte	.LVL356
 13069 16e1 0100     		.2byte	0x1
 13070 16e3 58       		.byte	0x58
 13071 16e4 00000000 		.4byte	0
 13072 16e8 00000000 		.4byte	0
 13073              	.LLST146:
 13074 16ec 5A000000 		.4byte	.LVL267
 13075 16f0 66000000 		.4byte	.LVL270
 13076 16f4 0100     		.2byte	0x1
 13077 16f6 55       		.byte	0x55
 13078 16f7 66000000 		.4byte	.LVL270
 13079 16fb 17010000 		.4byte	.LVL291-1
 13080 16ff 0500     		.2byte	0x5
 13081 1701 91       		.byte	0x91
ARM GAS  C:\Users\rdn\AppData\Local\Temp\ccYcaPXH.s 			page 266


 13082 1702 04       		.sleb128 4
 13083 1703 06       		.byte	0x6
 13084 1704 23       		.byte	0x23
 13085 1705 04       		.uleb128 0x4
 13086 1706 17010000 		.4byte	.LVL291-1
 13087 170a 86040000 		.4byte	.LFE42
 13088 170e 0300     		.2byte	0x3
 13089 1710 91       		.byte	0x91
 13090 1711 A07F     		.sleb128 -96
 13091 1713 00000000 		.4byte	0
 13092 1717 00000000 		.4byte	0
 13093              	.LLST147:
 13094 171b 08030000 		.4byte	.LVL333
 13095 171f 16030000 		.4byte	.LVL335
 13096 1723 0100     		.2byte	0x1
 13097 1725 50       		.byte	0x50
 13098 1726 CE030000 		.4byte	.LVL352
 13099 172a EE030000 		.4byte	.LVL356
 13100 172e 0100     		.2byte	0x1
 13101 1730 50       		.byte	0x50
 13102 1731 00000000 		.4byte	0
 13103 1735 00000000 		.4byte	0
 13104              	.LLST148:
 13105 1739 5A000000 		.4byte	.LVL267
 13106 173d 66000000 		.4byte	.LVL270
 13107 1741 0100     		.2byte	0x1
 13108 1743 55       		.byte	0x55
 13109 1744 66000000 		.4byte	.LVL270
 13110 1748 10010000 		.4byte	.LVL290
 13111 174c 0500     		.2byte	0x5
 13112 174e 91       		.byte	0x91
 13113 174f 04       		.sleb128 4
 13114 1750 06       		.byte	0x6
 13115 1751 23       		.byte	0x23
 13116 1752 04       		.uleb128 0x4
 13117 1753 00000000 		.4byte	0
 13118 1757 00000000 		.4byte	0
 13119              	.LLST149:
 13120 175b 5A000000 		.4byte	.LVL267
 13121 175f 74000000 		.4byte	.LVL271
 13122 1763 0100     		.2byte	0x1
 13123 1765 52       		.byte	0x52
 13124 1766 74000000 		.4byte	.LVL271
 13125 176a 10010000 		.4byte	.LVL290
 13126 176e 0200     		.2byte	0x2
 13127 1770 91       		.byte	0x91
 13128 1771 08       		.sleb128 8
 13129 1772 00000000 		.4byte	0
 13130 1776 00000000 		.4byte	0
 13131              	.LLST150:
 13132 177a 5A000000 		.4byte	.LVL267
 13133 177e 10010000 		.4byte	.LVL290
 13134 1782 0800     		.2byte	0x8
 13135 1784 7A       		.byte	0x7a
 13136 1785 00       		.sleb128 0
 13137 1786 08       		.byte	0x8
 13138 1787 FF       		.byte	0xff
ARM GAS  C:\Users\rdn\AppData\Local\Temp\ccYcaPXH.s 			page 267


 13139 1788 1A       		.byte	0x1a
 13140 1789 34       		.byte	0x34
 13141 178a 2B       		.byte	0x2b
 13142 178b 9F       		.byte	0x9f
 13143 178c 00000000 		.4byte	0
 13144 1790 00000000 		.4byte	0
 13145              	.LLST151:
 13146 1794 5A000000 		.4byte	.LVL267
 13147 1798 00010000 		.4byte	.LVL286
 13148 179c 0100     		.2byte	0x1
 13149 179e 51       		.byte	0x51
 13150 179f 00000000 		.4byte	0
 13151 17a3 00000000 		.4byte	0
 13152              	.LLST152:
 13153 17a7 5A000000 		.4byte	.LVL267
 13154 17ab B4000000 		.4byte	.LVL279
 13155 17af 0200     		.2byte	0x2
 13156 17b1 90       		.byte	0x90
 13157 17b2 4E       		.uleb128 0x4e
 13158 17b3 B4000000 		.4byte	.LVL279
 13159 17b7 DE000000 		.4byte	.LVL284
 13160 17bb 2000     		.2byte	0x20
 13161 17bd F4       		.byte	0xf4
 13162 17be 25       		.uleb128 0x25
 13163 17bf 04       		.byte	0x4
 13164 17c0 0000003F 		.4byte	0x3f000000
 13165 17c4 F4       		.byte	0xf4
 13166 17c5 25       		.uleb128 0x25
 13167 17c6 04       		.byte	0x4
 13168 17c7 0000203F 		.4byte	0x3f200000
 13169 17cb 7A       		.byte	0x7a
 13170 17cc 00       		.sleb128 0
 13171 17cd 40       		.byte	0x40
 13172 17ce 4B       		.byte	0x4b
 13173 17cf 24       		.byte	0x24
 13174 17d0 22       		.byte	0x22
 13175 17d1 0C       		.byte	0xc
 13176 17d2 04000080 		.4byte	0x80000004
 13177 17d6 2B       		.byte	0x2b
 13178 17d7 28       		.byte	0x28
 13179 17d8 0100     		.2byte	0x1
 13180 17da 16       		.byte	0x16
 13181 17db 13       		.byte	0x13
 13182 17dc 9F       		.byte	0x9f
 13183 17dd DE000000 		.4byte	.LVL284
 13184 17e1 10010000 		.4byte	.LVL290
 13185 17e5 1C00     		.2byte	0x1c
 13186 17e7 F5       		.byte	0xf5
 13187 17e8 50       		.uleb128 0x50
 13188 17e9 25       		.uleb128 0x25
 13189 17ea F4       		.byte	0xf4
 13190 17eb 25       		.uleb128 0x25
 13191 17ec 04       		.byte	0x4
 13192 17ed 0000203F 		.4byte	0x3f200000
 13193 17f1 7A       		.byte	0x7a
 13194 17f2 00       		.sleb128 0
 13195 17f3 40       		.byte	0x40
ARM GAS  C:\Users\rdn\AppData\Local\Temp\ccYcaPXH.s 			page 268


 13196 17f4 4B       		.byte	0x4b
 13197 17f5 24       		.byte	0x24
 13198 17f6 22       		.byte	0x22
 13199 17f7 0C       		.byte	0xc
 13200 17f8 04000080 		.4byte	0x80000004
 13201 17fc 2B       		.byte	0x2b
 13202 17fd 28       		.byte	0x28
 13203 17fe 0100     		.2byte	0x1
 13204 1800 16       		.byte	0x16
 13205 1801 13       		.byte	0x13
 13206 1802 9F       		.byte	0x9f
 13207 1803 00000000 		.4byte	0
 13208 1807 00000000 		.4byte	0
 13209              	.LLST153:
 13210 180b 5A000000 		.4byte	.LVL267
 13211 180f 76000000 		.4byte	.LVL272
 13212 1813 0600     		.2byte	0x6
 13213 1815 9E       		.byte	0x9e
 13214 1816 04       		.uleb128 0x4
 13215 1817 00000000 		.4byte	0
 13216 181b 76000000 		.4byte	.LVL272
 13217 181f EC000000 		.4byte	.LVL285
 13218 1823 0200     		.2byte	0x2
 13219 1825 90       		.byte	0x90
 13220 1826 4F       		.uleb128 0x4f
 13221 1827 00000000 		.4byte	0
 13222 182b 00000000 		.4byte	0
 13223              	.LLST154:
 13224 182f 5E000000 		.4byte	.LVL268
 13225 1833 10010000 		.4byte	.LVL290
 13226 1837 0100     		.2byte	0x1
 13227 1839 53       		.byte	0x53
 13228 183a 00000000 		.4byte	0
 13229 183e 00000000 		.4byte	0
 13230              	.LLST155:
 13231 1842 5A000000 		.4byte	.LVL267
 13232 1846 76000000 		.4byte	.LVL272
 13233 184a 0200     		.2byte	0x2
 13234 184c 30       		.byte	0x30
 13235 184d 9F       		.byte	0x9f
 13236 184e 76000000 		.4byte	.LVL272
 13237 1852 10010000 		.4byte	.LVL290
 13238 1856 0100     		.2byte	0x1
 13239 1858 52       		.byte	0x52
 13240 1859 00000000 		.4byte	0
 13241 185d 00000000 		.4byte	0
 13242              	.LLST156:
 13243 1861 5A000000 		.4byte	.LVL267
 13244 1865 76000000 		.4byte	.LVL272
 13245 1869 0200     		.2byte	0x2
 13246 186b 30       		.byte	0x30
 13247 186c 9F       		.byte	0x9f
 13248 186d 76000000 		.4byte	.LVL272
 13249 1871 AE000000 		.4byte	.LVL276
 13250 1875 0100     		.2byte	0x1
 13251 1877 50       		.byte	0x50
 13252 1878 B2000000 		.4byte	.LVL278
ARM GAS  C:\Users\rdn\AppData\Local\Temp\ccYcaPXH.s 			page 269


 13253 187c 10010000 		.4byte	.LVL290
 13254 1880 0100     		.2byte	0x1
 13255 1882 50       		.byte	0x50
 13256 1883 00000000 		.4byte	0
 13257 1887 00000000 		.4byte	0
 13258              	.LLST157:
 13259 188b 04010000 		.4byte	.LVL287
 13260 188f 0C010000 		.4byte	.LVL288
 13261 1893 0100     		.2byte	0x1
 13262 1895 51       		.byte	0x51
 13263 1896 0C010000 		.4byte	.LVL288
 13264 189a 0E010000 		.4byte	.LVL289
 13265 189e 0600     		.2byte	0x6
 13266 18a0 38       		.byte	0x38
 13267 18a1 92       		.byte	0x92
 13268 18a2 4F       		.uleb128 0x4f
 13269 18a3 00       		.sleb128 0
 13270 18a4 1C       		.byte	0x1c
 13271 18a5 9F       		.byte	0x9f
 13272 18a6 00000000 		.4byte	0
 13273 18aa 00000000 		.4byte	0
 13274              	.LLST158:
 13275 18ae 10010000 		.4byte	.LVL290
 13276 18b2 18010000 		.4byte	.LVL291
 13277 18b6 0100     		.2byte	0x1
 13278 18b8 57       		.byte	0x57
 13279 18b9 00000000 		.4byte	0
 13280 18bd 00000000 		.4byte	0
 13281              	.LLST159:
 13282 18c1 18010000 		.4byte	.LVL291
 13283 18c5 00030000 		.4byte	.LVL331
 13284 18c9 0100     		.2byte	0x1
 13285 18cb 58       		.byte	0x58
 13286 18cc 00000000 		.4byte	0
 13287 18d0 00000000 		.4byte	0
 13288              	.LLST160:
 13289 18d4 18010000 		.4byte	.LVL291
 13290 18d8 00030000 		.4byte	.LVL331
 13291 18dc 0300     		.2byte	0x3
 13292 18de 91       		.byte	0x91
 13293 18df A07F     		.sleb128 -96
 13294 18e1 00000000 		.4byte	0
 13295 18e5 00000000 		.4byte	0
 13296              	.LLST161:
 13297 18e9 18010000 		.4byte	.LVL291
 13298 18ed 00030000 		.4byte	.LVL331
 13299 18f1 0200     		.2byte	0x2
 13300 18f3 91       		.byte	0x91
 13301 18f4 08       		.sleb128 8
 13302 18f5 00000000 		.4byte	0
 13303 18f9 00000000 		.4byte	0
 13304              	.LLST162:
 13305 18fd 18010000 		.4byte	.LVL291
 13306 1901 00030000 		.4byte	.LVL331
 13307 1905 0200     		.2byte	0x2
 13308 1907 91       		.byte	0x91
 13309 1908 00       		.sleb128 0
ARM GAS  C:\Users\rdn\AppData\Local\Temp\ccYcaPXH.s 			page 270


 13310 1909 00000000 		.4byte	0
 13311 190d 00000000 		.4byte	0
 13312              	.LLST163:
 13313 1911 18010000 		.4byte	.LVL291
 13314 1915 00030000 		.4byte	.LVL331
 13315 1919 0100     		.2byte	0x1
 13316 191b 5A       		.byte	0x5a
 13317 191c 00000000 		.4byte	0
 13318 1920 00000000 		.4byte	0
 13319              	.LLST164:
 13320 1924 18010000 		.4byte	.LVL291
 13321 1928 00030000 		.4byte	.LVL331
 13322 192c 0100     		.2byte	0x1
 13323 192e 57       		.byte	0x57
 13324 192f 00000000 		.4byte	0
 13325 1933 00000000 		.4byte	0
 13326              	.LLST165:
 13327 1937 56010000 		.4byte	.LVL295
 13328 193b 70010000 		.4byte	.LVL296
 13329 193f 0200     		.2byte	0x2
 13330 1941 30       		.byte	0x30
 13331 1942 9F       		.byte	0x9f
 13332 1943 70010000 		.4byte	.LVL296
 13333 1947 00030000 		.4byte	.LVL331
 13334 194b 0300     		.2byte	0x3
 13335 194d 91       		.byte	0x91
 13336 194e A47F     		.sleb128 -92
 13337 1950 00000000 		.4byte	0
 13338 1954 00000000 		.4byte	0
 13339              	.LLST166:
 13340 1958 18010000 		.4byte	.LVL291
 13341 195c 3E010000 		.4byte	.LVL294
 13342 1960 0200     		.2byte	0x2
 13343 1962 30       		.byte	0x30
 13344 1963 9F       		.byte	0x9f
 13345 1964 00000000 		.4byte	0
 13346 1968 00000000 		.4byte	0
 13347              	.LLST167:
 13348 196c 18010000 		.4byte	.LVL291
 13349 1970 3E010000 		.4byte	.LVL294
 13350 1974 0200     		.2byte	0x2
 13351 1976 91       		.byte	0x91
 13352 1977 00       		.sleb128 0
 13353 1978 00000000 		.4byte	0
 13354 197c 00000000 		.4byte	0
 13355              	.LLST168:
 13356 1980 18010000 		.4byte	.LVL291
 13357 1984 3E010000 		.4byte	.LVL294
 13358 1988 0100     		.2byte	0x1
 13359 198a 5A       		.byte	0x5a
 13360 198b 00000000 		.4byte	0
 13361 198f 00000000 		.4byte	0
 13362              	.LLST169:
 13363 1993 24010000 		.4byte	.LVL292
 13364 1997 2C010000 		.4byte	.LVL293
 13365 199b 0100     		.2byte	0x1
 13366 199d 52       		.byte	0x52
ARM GAS  C:\Users\rdn\AppData\Local\Temp\ccYcaPXH.s 			page 271


 13367 199e 00000000 		.4byte	0
 13368 19a2 00000000 		.4byte	0
 13369              	.LLST170:
 13370 19a6 3E010000 		.4byte	.LVL294
 13371 19aa 56010000 		.4byte	.LVL295
 13372 19ae 0100     		.2byte	0x1
 13373 19b0 5A       		.byte	0x5a
 13374 19b1 00000000 		.4byte	0
 13375 19b5 00000000 		.4byte	0
 13376              	.LLST171:
 13377 19b9 56010000 		.4byte	.LVL295
 13378 19bd 70010000 		.4byte	.LVL296
 13379 19c1 0200     		.2byte	0x2
 13380 19c3 30       		.byte	0x30
 13381 19c4 9F       		.byte	0x9f
 13382 19c5 70010000 		.4byte	.LVL296
 13383 19c9 DC020000 		.4byte	.LVL327
 13384 19cd 0200     		.2byte	0x2
 13385 19cf 7D       		.byte	0x7d
 13386 19d0 00       		.sleb128 0
 13387 19d1 DC020000 		.4byte	.LVL327
 13388 19d5 F6020000 		.4byte	.LVL329
 13389 19d9 0100     		.2byte	0x1
 13390 19db 53       		.byte	0x53
 13391 19dc F6020000 		.4byte	.LVL329
 13392 19e0 00030000 		.4byte	.LVL331
 13393 19e4 0200     		.2byte	0x2
 13394 19e6 7D       		.byte	0x7d
 13395 19e7 00       		.sleb128 0
 13396 19e8 00000000 		.4byte	0
 13397 19ec 00000000 		.4byte	0
 13398              	.LLST172:
 13399 19f0 56010000 		.4byte	.LVL295
 13400 19f4 70010000 		.4byte	.LVL296
 13401 19f8 0200     		.2byte	0x2
 13402 19fa 30       		.byte	0x30
 13403 19fb 9F       		.byte	0x9f
 13404 19fc 70010000 		.4byte	.LVL296
 13405 1a00 FC020000 		.4byte	.LVL330
 13406 1a04 0300     		.2byte	0x3
 13407 1a06 91       		.byte	0x91
 13408 1a07 9C7F     		.sleb128 -100
 13409 1a09 FC020000 		.4byte	.LVL330
 13410 1a0d 00030000 		.4byte	.LVL331
 13411 1a11 0100     		.2byte	0x1
 13412 1a13 53       		.byte	0x53
 13413 1a14 00000000 		.4byte	0
 13414 1a18 00000000 		.4byte	0
 13415              	.LLST173:
 13416 1a1c A2010000 		.4byte	.LVL299
 13417 1a20 F4020000 		.4byte	.LVL328
 13418 1a24 0200     		.2byte	0x2
 13419 1a26 90       		.byte	0x90
 13420 1a27 51       		.uleb128 0x51
 13421 1a28 00000000 		.4byte	0
 13422 1a2c 00000000 		.4byte	0
 13423              	.LLST174:
ARM GAS  C:\Users\rdn\AppData\Local\Temp\ccYcaPXH.s 			page 272


 13424 1a30 C0010000 		.4byte	.LVL300
 13425 1a34 B8020000 		.4byte	.LVL324
 13426 1a38 0100     		.2byte	0x1
 13427 1a3a 56       		.byte	0x56
 13428 1a3b 00000000 		.4byte	0
 13429 1a3f 00000000 		.4byte	0
 13430              	.LLST175:
 13431 1a43 D8010000 		.4byte	.LVL301
 13432 1a47 F4020000 		.4byte	.LVL328
 13433 1a4b 0100     		.2byte	0x1
 13434 1a4d 59       		.byte	0x59
 13435 1a4e 00000000 		.4byte	0
 13436 1a52 00000000 		.4byte	0
 13437              	.LLST176:
 13438 1a56 D8010000 		.4byte	.LVL301
 13439 1a5a E8010000 		.4byte	.LVL305
 13440 1a5e 0100     		.2byte	0x1
 13441 1a60 53       		.byte	0x53
 13442 1a61 E8010000 		.4byte	.LVL305
 13443 1a65 58020000 		.4byte	.LVL317
 13444 1a69 0300     		.2byte	0x3
 13445 1a6b 91       		.byte	0x91
 13446 1a6c A87F     		.sleb128 -88
 13447 1a6e 58020000 		.4byte	.LVL317
 13448 1a72 5A020000 		.4byte	.LVL318
 13449 1a76 0100     		.2byte	0x1
 13450 1a78 53       		.byte	0x53
 13451 1a79 5A020000 		.4byte	.LVL318
 13452 1a7d F4020000 		.4byte	.LVL328
 13453 1a81 0300     		.2byte	0x3
 13454 1a83 91       		.byte	0x91
 13455 1a84 A87F     		.sleb128 -88
 13456 1a86 00000000 		.4byte	0
 13457 1a8a 00000000 		.4byte	0
 13458              	.LLST177:
 13459 1a8e DC010000 		.4byte	.LVL302
 13460 1a92 DE010000 		.4byte	.LVL303
 13461 1a96 0500     		.2byte	0x5
 13462 1a98 75       		.byte	0x75
 13463 1a99 00       		.sleb128 0
 13464 1a9a 32       		.byte	0x32
 13465 1a9b 25       		.byte	0x25
 13466 1a9c 9F       		.byte	0x9f
 13467 1a9d DE010000 		.4byte	.LVL303
 13468 1aa1 4A020000 		.4byte	.LVL313
 13469 1aa5 0100     		.2byte	0x1
 13470 1aa7 55       		.byte	0x55
 13471 1aa8 58020000 		.4byte	.LVL317
 13472 1aac 5A020000 		.4byte	.LVL318
 13473 1ab0 0100     		.2byte	0x1
 13474 1ab2 55       		.byte	0x55
 13475 1ab3 00000000 		.4byte	0
 13476 1ab7 00000000 		.4byte	0
 13477              	.LLST178:
 13478 1abb DC010000 		.4byte	.LVL302
 13479 1abf E6010000 		.4byte	.LVL304
 13480 1ac3 0200     		.2byte	0x2
ARM GAS  C:\Users\rdn\AppData\Local\Temp\ccYcaPXH.s 			page 273


 13481 1ac5 30       		.byte	0x30
 13482 1ac6 9F       		.byte	0x9f
 13483 1ac7 E6010000 		.4byte	.LVL304
 13484 1acb FC010000 		.4byte	.LVL306
 13485 1acf 0200     		.2byte	0x2
 13486 1ad1 31       		.byte	0x31
 13487 1ad2 9F       		.byte	0x9f
 13488 1ad3 FC010000 		.4byte	.LVL306
 13489 1ad7 02020000 		.4byte	.LVL307
 13490 1adb 0300     		.2byte	0x3
 13491 1add 91       		.byte	0x91
 13492 1ade B87F     		.sleb128 -72
 13493 1ae0 02020000 		.4byte	.LVL307
 13494 1ae4 58020000 		.4byte	.LVL317
 13495 1ae8 0100     		.2byte	0x1
 13496 1aea 54       		.byte	0x54
 13497 1aeb 58020000 		.4byte	.LVL317
 13498 1aef 5A020000 		.4byte	.LVL318
 13499 1af3 0200     		.2byte	0x2
 13500 1af5 30       		.byte	0x30
 13501 1af6 9F       		.byte	0x9f
 13502 1af7 5A020000 		.4byte	.LVL318
 13503 1afb C6020000 		.4byte	.LVL325
 13504 1aff 0100     		.2byte	0x1
 13505 1b01 54       		.byte	0x54
 13506 1b02 00000000 		.4byte	0
 13507 1b06 00000000 		.4byte	0
 13508              	.LLST179:
 13509 1b0a DC010000 		.4byte	.LVL302
 13510 1b0e 52020000 		.4byte	.LVL315
 13511 1b12 0200     		.2byte	0x2
 13512 1b14 30       		.byte	0x30
 13513 1b15 9F       		.byte	0x9f
 13514 1b16 52020000 		.4byte	.LVL315
 13515 1b1a 58020000 		.4byte	.LVL317
 13516 1b1e 0100     		.2byte	0x1
 13517 1b20 55       		.byte	0x55
 13518 1b21 58020000 		.4byte	.LVL317
 13519 1b25 5A020000 		.4byte	.LVL318
 13520 1b29 0200     		.2byte	0x2
 13521 1b2b 30       		.byte	0x30
 13522 1b2c 9F       		.byte	0x9f
 13523 1b2d 5A020000 		.4byte	.LVL318
 13524 1b31 F4020000 		.4byte	.LVL328
 13525 1b35 0100     		.2byte	0x1
 13526 1b37 55       		.byte	0x55
 13527 1b38 00000000 		.4byte	0
 13528 1b3c 00000000 		.4byte	0
 13529              	.LLST180:
 13530 1b40 16030000 		.4byte	.LVL335
 13531 1b44 64030000 		.4byte	.LVL340
 13532 1b48 0100     		.2byte	0x1
 13533 1b4a 54       		.byte	0x54
 13534 1b4b 64030000 		.4byte	.LVL340
 13535 1b4f 68030000 		.4byte	.LVL341
 13536 1b53 0100     		.2byte	0x1
 13537 1b55 5A       		.byte	0x5a
ARM GAS  C:\Users\rdn\AppData\Local\Temp\ccYcaPXH.s 			page 274


 13538 1b56 68030000 		.4byte	.LVL341
 13539 1b5a 88030000 		.4byte	.LVL343
 13540 1b5e 0100     		.2byte	0x1
 13541 1b60 54       		.byte	0x54
 13542 1b61 88030000 		.4byte	.LVL343
 13543 1b65 8A030000 		.4byte	.LVL344
 13544 1b69 0100     		.2byte	0x1
 13545 1b6b 5A       		.byte	0x5a
 13546 1b6c 8A030000 		.4byte	.LVL344
 13547 1b70 90030000 		.4byte	.LVL345
 13548 1b74 0100     		.2byte	0x1
 13549 1b76 54       		.byte	0x54
 13550 1b77 90030000 		.4byte	.LVL345
 13551 1b7b A6030000 		.4byte	.LVL347
 13552 1b7f 0100     		.2byte	0x1
 13553 1b81 56       		.byte	0x56
 13554 1b82 A6030000 		.4byte	.LVL347
 13555 1b86 C2030000 		.4byte	.LVL349
 13556 1b8a 0100     		.2byte	0x1
 13557 1b8c 54       		.byte	0x54
 13558 1b8d C2030000 		.4byte	.LVL349
 13559 1b91 C4030000 		.4byte	.LVL350
 13560 1b95 0100     		.2byte	0x1
 13561 1b97 56       		.byte	0x56
 13562 1b98 C4030000 		.4byte	.LVL350
 13563 1b9c CE030000 		.4byte	.LVL352
 13564 1ba0 0100     		.2byte	0x1
 13565 1ba2 54       		.byte	0x54
 13566 1ba3 00000000 		.4byte	0
 13567 1ba7 00000000 		.4byte	0
 13568              	.LLST181:
 13569 1bab 16030000 		.4byte	.LVL335
 13570 1baf CE030000 		.4byte	.LVL352
 13571 1bb3 0100     		.2byte	0x1
 13572 1bb5 59       		.byte	0x59
 13573 1bb6 00000000 		.4byte	0
 13574 1bba 00000000 		.4byte	0
 13575              	.LLST182:
 13576 1bbe 24030000 		.4byte	.LVL336
 13577 1bc2 CE030000 		.4byte	.LVL352
 13578 1bc6 0200     		.2byte	0x2
 13579 1bc8 90       		.byte	0x90
 13580 1bc9 51       		.uleb128 0x51
 13581 1bca 00000000 		.4byte	0
 13582 1bce 00000000 		.4byte	0
 13583              	.LLST183:
 13584 1bd2 38030000 		.4byte	.LVL337
 13585 1bd6 90030000 		.4byte	.LVL345
 13586 1bda 0100     		.2byte	0x1
 13587 1bdc 56       		.byte	0x56
 13588 1bdd 00000000 		.4byte	0
 13589 1be1 00000000 		.4byte	0
 13590              	.LLST184:
 13591 1be5 4C030000 		.4byte	.LVL338
 13592 1be9 CE030000 		.4byte	.LVL352
 13593 1bed 0100     		.2byte	0x1
 13594 1bef 55       		.byte	0x55
ARM GAS  C:\Users\rdn\AppData\Local\Temp\ccYcaPXH.s 			page 275


 13595 1bf0 00000000 		.4byte	0
 13596 1bf4 00000000 		.4byte	0
 13597              	.LLST185:
 13598 1bf8 CE030000 		.4byte	.LVL352
 13599 1bfc 7C040000 		.4byte	.LVL368
 13600 1c00 0300     		.2byte	0x3
 13601 1c02 91       		.byte	0x91
 13602 1c03 A07F     		.sleb128 -96
 13603 1c05 00000000 		.4byte	0
 13604 1c09 00000000 		.4byte	0
 13605              	.LLST186:
 13606 1c0d CE030000 		.4byte	.LVL352
 13607 1c11 7C040000 		.4byte	.LVL368
 13608 1c15 0200     		.2byte	0x2
 13609 1c17 91       		.byte	0x91
 13610 1c18 08       		.sleb128 8
 13611 1c19 00000000 		.4byte	0
 13612 1c1d 00000000 		.4byte	0
 13613              	.LLST187:
 13614 1c21 CE030000 		.4byte	.LVL352
 13615 1c25 EA030000 		.4byte	.LVL355
 13616 1c29 0800     		.2byte	0x8
 13617 1c2b 7A       		.byte	0x7a
 13618 1c2c 00       		.sleb128 0
 13619 1c2d 08       		.byte	0x8
 13620 1c2e FF       		.byte	0xff
 13621 1c2f 1A       		.byte	0x1a
 13622 1c30 34       		.byte	0x34
 13623 1c31 2B       		.byte	0x2b
 13624 1c32 9F       		.byte	0x9f
 13625 1c33 00000000 		.4byte	0
 13626 1c37 00000000 		.4byte	0
 13627              	.LLST188:
 13628 1c3b CE030000 		.4byte	.LVL352
 13629 1c3f EE030000 		.4byte	.LVL356
 13630 1c43 0100     		.2byte	0x1
 13631 1c45 50       		.byte	0x50
 13632 1c46 EE030000 		.4byte	.LVL356
 13633 1c4a 7C040000 		.4byte	.LVL368
 13634 1c4e 0100     		.2byte	0x1
 13635 1c50 54       		.byte	0x54
 13636 1c51 00000000 		.4byte	0
 13637 1c55 00000000 		.4byte	0
 13638              	.LLST189:
 13639 1c59 CE030000 		.4byte	.LVL352
 13640 1c5d 7C040000 		.4byte	.LVL368
 13641 1c61 0100     		.2byte	0x1
 13642 1c63 57       		.byte	0x57
 13643 1c64 00000000 		.4byte	0
 13644 1c68 00000000 		.4byte	0
 13645              	.LLST190:
 13646 1c6c E0030000 		.4byte	.LVL353
 13647 1c70 7C040000 		.4byte	.LVL368
 13648 1c74 0200     		.2byte	0x2
 13649 1c76 90       		.byte	0x90
 13650 1c77 51       		.uleb128 0x51
 13651 1c78 00000000 		.4byte	0
ARM GAS  C:\Users\rdn\AppData\Local\Temp\ccYcaPXH.s 			page 276


 13652 1c7c 00000000 		.4byte	0
 13653              	.LLST191:
 13654 1c80 E4030000 		.4byte	.LVL354
 13655 1c84 7C040000 		.4byte	.LVL368
 13656 1c88 0200     		.2byte	0x2
 13657 1c8a 90       		.byte	0x90
 13658 1c8b 50       		.uleb128 0x50
 13659 1c8c 00000000 		.4byte	0
 13660 1c90 00000000 		.4byte	0
 13661              	.LLST192:
 13662 1c94 E4030000 		.4byte	.LVL354
 13663 1c98 EE030000 		.4byte	.LVL356
 13664 1c9c 0200     		.2byte	0x2
 13665 1c9e 30       		.byte	0x30
 13666 1c9f 9F       		.byte	0x9f
 13667 1ca0 EE030000 		.4byte	.LVL356
 13668 1ca4 06040000 		.4byte	.LVL358
 13669 1ca8 0100     		.2byte	0x1
 13670 1caa 58       		.byte	0x58
 13671 1cab 06040000 		.4byte	.LVL358
 13672 1caf 0C040000 		.4byte	.LVL359
 13673 1cb3 0300     		.2byte	0x3
 13674 1cb5 78       		.byte	0x78
 13675 1cb6 7F       		.sleb128 -1
 13676 1cb7 9F       		.byte	0x9f
 13677 1cb8 0C040000 		.4byte	.LVL359
 13678 1cbc 7C040000 		.4byte	.LVL368
 13679 1cc0 0100     		.2byte	0x1
 13680 1cc2 58       		.byte	0x58
 13681 1cc3 00000000 		.4byte	0
 13682 1cc7 00000000 		.4byte	0
 13683              	.LLST193:
 13684 1ccb FC030000 		.4byte	.LVL357
 13685 1ccf 7C040000 		.4byte	.LVL368
 13686 1cd3 0100     		.2byte	0x1
 13687 1cd5 59       		.byte	0x59
 13688 1cd6 00000000 		.4byte	0
 13689 1cda 00000000 		.4byte	0
 13690              	.LLST194:
 13691 1cde 1C040000 		.4byte	.LVL360
 13692 1ce2 36040000 		.4byte	.LVL362
 13693 1ce6 0200     		.2byte	0x2
 13694 1ce8 90       		.byte	0x90
 13695 1ce9 52       		.uleb128 0x52
 13696 1cea 36040000 		.4byte	.LVL362
 13697 1cee 7C040000 		.4byte	.LVL368
 13698 1cf2 0500     		.2byte	0x5
 13699 1cf4 F5       		.byte	0xf5
 13700 1cf5 53       		.uleb128 0x53
 13701 1cf6 25       		.uleb128 0x25
 13702 1cf7 19       		.byte	0x19
 13703 1cf8 9F       		.byte	0x9f
 13704 1cf9 00000000 		.4byte	0
 13705 1cfd 00000000 		.4byte	0
 13706              	.LLST195:
 13707 1d01 56040000 		.4byte	.LVL363
 13708 1d05 76040000 		.4byte	.LVL366
ARM GAS  C:\Users\rdn\AppData\Local\Temp\ccYcaPXH.s 			page 277


 13709 1d09 0100     		.2byte	0x1
 13710 1d0b 56       		.byte	0x56
 13711 1d0c 00000000 		.4byte	0
 13712 1d10 00000000 		.4byte	0
 13713              	.LLST196:
 13714 1d14 00000000 		.4byte	.LVL369
 13715 1d18 0A000000 		.4byte	.LVL371
 13716 1d1c 0100     		.2byte	0x1
 13717 1d1e 50       		.byte	0x50
 13718 1d1f 0A000000 		.4byte	.LVL371
 13719 1d23 50000000 		.4byte	.LVL378
 13720 1d27 0100     		.2byte	0x1
 13721 1d29 56       		.byte	0x56
 13722 1d2a 50000000 		.4byte	.LVL378
 13723 1d2e 54000000 		.4byte	.LFE43
 13724 1d32 0400     		.2byte	0x4
 13725 1d34 F3       		.byte	0xf3
 13726 1d35 01       		.uleb128 0x1
 13727 1d36 50       		.byte	0x50
 13728 1d37 9F       		.byte	0x9f
 13729 1d38 00000000 		.4byte	0
 13730 1d3c 00000000 		.4byte	0
 13731              	.LLST197:
 13732 1d40 00000000 		.4byte	.LVL369
 13733 1d44 08000000 		.4byte	.LVL370
 13734 1d48 0100     		.2byte	0x1
 13735 1d4a 51       		.byte	0x51
 13736 1d4b 08000000 		.4byte	.LVL370
 13737 1d4f 54000000 		.4byte	.LFE43
 13738 1d53 0400     		.2byte	0x4
 13739 1d55 F3       		.byte	0xf3
 13740 1d56 01       		.uleb128 0x1
 13741 1d57 51       		.byte	0x51
 13742 1d58 9F       		.byte	0x9f
 13743 1d59 00000000 		.4byte	0
 13744 1d5d 00000000 		.4byte	0
 13745              	.LLST198:
 13746 1d61 00000000 		.4byte	.LVL369
 13747 1d65 0F000000 		.4byte	.LVL372-1
 13748 1d69 0100     		.2byte	0x1
 13749 1d6b 52       		.byte	0x52
 13750 1d6c 0F000000 		.4byte	.LVL372-1
 13751 1d70 54000000 		.4byte	.LFE43
 13752 1d74 0400     		.2byte	0x4
 13753 1d76 F3       		.byte	0xf3
 13754 1d77 01       		.uleb128 0x1
 13755 1d78 52       		.byte	0x52
 13756 1d79 9F       		.byte	0x9f
 13757 1d7a 00000000 		.4byte	0
 13758 1d7e 00000000 		.4byte	0
 13759              	.LLST199:
 13760 1d82 00000000 		.4byte	.LVL369
 13761 1d86 0F000000 		.4byte	.LVL372-1
 13762 1d8a 0100     		.2byte	0x1
 13763 1d8c 53       		.byte	0x53
 13764 1d8d 0F000000 		.4byte	.LVL372-1
 13765 1d91 50000000 		.4byte	.LVL378
ARM GAS  C:\Users\rdn\AppData\Local\Temp\ccYcaPXH.s 			page 278


 13766 1d95 0100     		.2byte	0x1
 13767 1d97 54       		.byte	0x54
 13768 1d98 50000000 		.4byte	.LVL378
 13769 1d9c 54000000 		.4byte	.LFE43
 13770 1da0 0400     		.2byte	0x4
 13771 1da2 F3       		.byte	0xf3
 13772 1da3 01       		.uleb128 0x1
 13773 1da4 53       		.byte	0x53
 13774 1da5 9F       		.byte	0x9f
 13775 1da6 00000000 		.4byte	0
 13776 1daa 00000000 		.4byte	0
 13777              	.LLST200:
 13778 1dae 10000000 		.4byte	.LVL372
 13779 1db2 16000000 		.4byte	.LVL373
 13780 1db6 0100     		.2byte	0x1
 13781 1db8 50       		.byte	0x50
 13782 1db9 16000000 		.4byte	.LVL373
 13783 1dbd 1D000000 		.4byte	.LVL374-1
 13784 1dc1 0100     		.2byte	0x1
 13785 1dc3 51       		.byte	0x51
 13786 1dc4 00000000 		.4byte	0
 13787 1dc8 00000000 		.4byte	0
 13788              	.LLST201:
 13789 1dcc 10000000 		.4byte	.LVL372
 13790 1dd0 1D000000 		.4byte	.LVL374-1
 13791 1dd4 0100     		.2byte	0x1
 13792 1dd6 52       		.byte	0x52
 13793 1dd7 00000000 		.4byte	0
 13794 1ddb 00000000 		.4byte	0
 13795              	.LLST202:
 13796 1ddf 10000000 		.4byte	.LVL372
 13797 1de3 42000000 		.4byte	.LVL377
 13798 1de7 0100     		.2byte	0x1
 13799 1de9 57       		.byte	0x57
 13800 1dea 00000000 		.4byte	0
 13801 1dee 00000000 		.4byte	0
 13802              	.LLST203:
 13803 1df2 00000000 		.4byte	.LVL379
 13804 1df6 27000000 		.4byte	.LVL385-1
 13805 1dfa 0100     		.2byte	0x1
 13806 1dfc 50       		.byte	0x50
 13807 1dfd 27000000 		.4byte	.LVL385-1
 13808 1e01 40030000 		.4byte	.LVL457
 13809 1e05 0100     		.2byte	0x1
 13810 1e07 56       		.byte	0x56
 13811 1e08 40030000 		.4byte	.LVL457
 13812 1e0c 8E040000 		.4byte	.LVL481
 13813 1e10 0400     		.2byte	0x4
 13814 1e12 F3       		.byte	0xf3
 13815 1e13 01       		.uleb128 0x1
 13816 1e14 50       		.byte	0x50
 13817 1e15 9F       		.byte	0x9f
 13818 1e16 8E040000 		.4byte	.LVL481
 13819 1e1a 4A050000 		.4byte	.LVL504
 13820 1e1e 0100     		.2byte	0x1
 13821 1e20 56       		.byte	0x56
 13822 1e21 4A050000 		.4byte	.LVL504
ARM GAS  C:\Users\rdn\AppData\Local\Temp\ccYcaPXH.s 			page 279


 13823 1e25 54050000 		.4byte	.LFE44
 13824 1e29 0400     		.2byte	0x4
 13825 1e2b F3       		.byte	0xf3
 13826 1e2c 01       		.uleb128 0x1
 13827 1e2d 50       		.byte	0x50
 13828 1e2e 9F       		.byte	0x9f
 13829 1e2f 00000000 		.4byte	0
 13830 1e33 00000000 		.4byte	0
 13831              	.LLST204:
 13832 1e37 00000000 		.4byte	.LVL379
 13833 1e3b 22000000 		.4byte	.LVL383
 13834 1e3f 0100     		.2byte	0x1
 13835 1e41 51       		.byte	0x51
 13836 1e42 22000000 		.4byte	.LVL383
 13837 1e46 54050000 		.4byte	.LFE44
 13838 1e4a 0400     		.2byte	0x4
 13839 1e4c F3       		.byte	0xf3
 13840 1e4d 01       		.uleb128 0x1
 13841 1e4e 51       		.byte	0x51
 13842 1e4f 9F       		.byte	0x9f
 13843 1e50 00000000 		.4byte	0
 13844 1e54 00000000 		.4byte	0
 13845              	.LLST205:
 13846 1e58 00000000 		.4byte	.LVL379
 13847 1e5c 27000000 		.4byte	.LVL385-1
 13848 1e60 0100     		.2byte	0x1
 13849 1e62 52       		.byte	0x52
 13850 1e63 27000000 		.4byte	.LVL385-1
 13851 1e67 54050000 		.4byte	.LFE44
 13852 1e6b 0400     		.2byte	0x4
 13853 1e6d F3       		.byte	0xf3
 13854 1e6e 01       		.uleb128 0x1
 13855 1e6f 52       		.byte	0x52
 13856 1e70 9F       		.byte	0x9f
 13857 1e71 00000000 		.4byte	0
 13858 1e75 00000000 		.4byte	0
 13859              	.LLST206:
 13860 1e79 00000000 		.4byte	.LVL379
 13861 1e7d 10000000 		.4byte	.LVL380
 13862 1e81 0100     		.2byte	0x1
 13863 1e83 53       		.byte	0x53
 13864 1e84 10000000 		.4byte	.LVL380
 13865 1e88 54050000 		.4byte	.LFE44
 13866 1e8c 0400     		.2byte	0x4
 13867 1e8e F3       		.byte	0xf3
 13868 1e8f 01       		.uleb128 0x1
 13869 1e90 53       		.byte	0x53
 13870 1e91 9F       		.byte	0x9f
 13871 1e92 00000000 		.4byte	0
 13872 1e96 00000000 		.4byte	0
 13873              	.LLST207:
 13874 1e9a 20000000 		.4byte	.LVL382
 13875 1e9e 27000000 		.4byte	.LVL385-1
 13876 1ea2 0100     		.2byte	0x1
 13877 1ea4 53       		.byte	0x53
 13878 1ea5 27000000 		.4byte	.LVL385-1
 13879 1ea9 4C050000 		.4byte	.LVL505
ARM GAS  C:\Users\rdn\AppData\Local\Temp\ccYcaPXH.s 			page 280


 13880 1ead 0200     		.2byte	0x2
 13881 1eaf 7D       		.byte	0x7d
 13882 1eb0 00       		.sleb128 0
 13883 1eb1 4C050000 		.4byte	.LVL505
 13884 1eb5 54050000 		.4byte	.LFE44
 13885 1eb9 0300     		.2byte	0x3
 13886 1ebb 91       		.byte	0x91
 13887 1ebc 887F     		.sleb128 -120
 13888 1ebe 00000000 		.4byte	0
 13889 1ec2 00000000 		.4byte	0
 13890              	.LLST208:
 13891 1ec6 20000000 		.4byte	.LVL382
 13892 1eca 5A010000 		.4byte	.LVL416
 13893 1ece 0200     		.2byte	0x2
 13894 1ed0 30       		.byte	0x30
 13895 1ed1 9F       		.byte	0x9f
 13896 1ed2 8E040000 		.4byte	.LVL481
 13897 1ed6 4A050000 		.4byte	.LVL504
 13898 1eda 0200     		.2byte	0x2
 13899 1edc 30       		.byte	0x30
 13900 1edd 9F       		.byte	0x9f
 13901 1ede 00000000 		.4byte	0
 13902 1ee2 00000000 		.4byte	0
 13903              	.LLST209:
 13904 1ee6 6C000000 		.4byte	.LVL389
 13905 1eea 80000000 		.4byte	.LVL390
 13906 1eee 0200     		.2byte	0x2
 13907 1ef0 30       		.byte	0x30
 13908 1ef1 9F       		.byte	0x9f
 13909 1ef2 80000000 		.4byte	.LVL390
 13910 1ef6 E0010000 		.4byte	.LVL425
 13911 1efa 0100     		.2byte	0x1
 13912 1efc 54       		.byte	0x54
 13913 1efd E6010000 		.4byte	.LVL426
 13914 1f01 04020000 		.4byte	.LVL429
 13915 1f05 0100     		.2byte	0x1
 13916 1f07 54       		.byte	0x54
 13917 1f08 0A020000 		.4byte	.LVL430
 13918 1f0c 46020000 		.4byte	.LVL434
 13919 1f10 0100     		.2byte	0x1
 13920 1f12 54       		.byte	0x54
 13921 1f13 4C020000 		.4byte	.LVL435
 13922 1f17 6E020000 		.4byte	.LVL438
 13923 1f1b 0100     		.2byte	0x1
 13924 1f1d 54       		.byte	0x54
 13925 1f1e 74020000 		.4byte	.LVL439
 13926 1f22 A8030000 		.4byte	.LVL463
 13927 1f26 0100     		.2byte	0x1
 13928 1f28 54       		.byte	0x54
 13929 1f29 AC030000 		.4byte	.LVL464
 13930 1f2d 0A040000 		.4byte	.LVL470
 13931 1f31 0100     		.2byte	0x1
 13932 1f33 54       		.byte	0x54
 13933 1f34 8E040000 		.4byte	.LVL481
 13934 1f38 10050000 		.4byte	.LVL495
 13935 1f3c 0100     		.2byte	0x1
 13936 1f3e 54       		.byte	0x54
ARM GAS  C:\Users\rdn\AppData\Local\Temp\ccYcaPXH.s 			page 281


 13937 1f3f 18050000 		.4byte	.LVL496
 13938 1f43 4A050000 		.4byte	.LVL504
 13939 1f47 0100     		.2byte	0x1
 13940 1f49 54       		.byte	0x54
 13941 1f4a 00000000 		.4byte	0
 13942 1f4e 00000000 		.4byte	0
 13943              	.LLST210:
 13944 1f52 64010000 		.4byte	.LVL418
 13945 1f56 76010000 		.4byte	.LVL419
 13946 1f5a 0100     		.2byte	0x1
 13947 1f5c 50       		.byte	0x50
 13948 1f5d 7E020000 		.4byte	.LVL442
 13949 1f61 A6020000 		.4byte	.LVL444
 13950 1f65 0100     		.2byte	0x1
 13951 1f67 50       		.byte	0x50
 13952 1f68 00000000 		.4byte	0
 13953 1f6c 00000000 		.4byte	0
 13954              	.LLST211:
 13955 1f70 2C030000 		.4byte	.LVL453
 13956 1f74 2E030000 		.4byte	.LVL454
 13957 1f78 0600     		.2byte	0x6
 13958 1f7a 75       		.byte	0x75
 13959 1f7b 00       		.sleb128 0
 13960 1f7c 70       		.byte	0x70
 13961 1f7d 00       		.sleb128 0
 13962 1f7e 1C       		.byte	0x1c
 13963 1f7f 9F       		.byte	0x9f
 13964 1f80 2E030000 		.4byte	.LVL454
 13965 1f84 31030000 		.4byte	.LVL455-1
 13966 1f88 0100     		.2byte	0x1
 13967 1f8a 50       		.byte	0x50
 13968 1f8b 00000000 		.4byte	0
 13969 1f8f 00000000 		.4byte	0
 13970              	.LLST212:
 13971 1f93 24000000 		.4byte	.LVL384
 13972 1f97 27000000 		.4byte	.LVL385-1
 13973 1f9b 0100     		.2byte	0x1
 13974 1f9d 50       		.byte	0x50
 13975 1f9e 27000000 		.4byte	.LVL385-1
 13976 1fa2 3E000000 		.4byte	.LVL386
 13977 1fa6 0100     		.2byte	0x1
 13978 1fa8 56       		.byte	0x56
 13979 1fa9 00000000 		.4byte	0
 13980 1fad 00000000 		.4byte	0
 13981              	.LLST213:
 13982 1fb1 3E000000 		.4byte	.LVL386
 13983 1fb5 5A010000 		.4byte	.LVL416
 13984 1fb9 0600     		.2byte	0x6
 13985 1fbb F2       		.byte	0xf2
 13986 1fbc E2230000 		.4byte	.Ldebug_info0+9186
 13987 1fc0 00       		.sleb128 0
 13988 1fc1 8E040000 		.4byte	.LVL481
 13989 1fc5 4A050000 		.4byte	.LVL504
 13990 1fc9 0600     		.2byte	0x6
 13991 1fcb F2       		.byte	0xf2
 13992 1fcc E2230000 		.4byte	.Ldebug_info0+9186
 13993 1fd0 00       		.sleb128 0
ARM GAS  C:\Users\rdn\AppData\Local\Temp\ccYcaPXH.s 			page 282


 13994 1fd1 00000000 		.4byte	0
 13995 1fd5 00000000 		.4byte	0
 13996              	.LLST214:
 13997 1fd9 3E000000 		.4byte	.LVL386
 13998 1fdd 5A010000 		.4byte	.LVL416
 13999 1fe1 0100     		.2byte	0x1
 14000 1fe3 5A       		.byte	0x5a
 14001 1fe4 8E040000 		.4byte	.LVL481
 14002 1fe8 4A050000 		.4byte	.LVL504
 14003 1fec 0100     		.2byte	0x1
 14004 1fee 5A       		.byte	0x5a
 14005 1fef 00000000 		.4byte	0
 14006 1ff3 00000000 		.4byte	0
 14007              	.LLST215:
 14008 1ff7 3E000000 		.4byte	.LVL386
 14009 1ffb 5A010000 		.4byte	.LVL416
 14010 1fff 0300     		.2byte	0x3
 14011 2001 91       		.byte	0x91
 14012 2002 9C7F     		.sleb128 -100
 14013 2004 8E040000 		.4byte	.LVL481
 14014 2008 4A050000 		.4byte	.LVL504
 14015 200c 0300     		.2byte	0x3
 14016 200e 91       		.byte	0x91
 14017 200f 9C7F     		.sleb128 -100
 14018 2011 00000000 		.4byte	0
 14019 2015 00000000 		.4byte	0
 14020              	.LLST216:
 14021 2019 3E000000 		.4byte	.LVL386
 14022 201d 5A010000 		.4byte	.LVL416
 14023 2021 0200     		.2byte	0x2
 14024 2023 7D       		.byte	0x7d
 14025 2024 00       		.sleb128 0
 14026 2025 8E040000 		.4byte	.LVL481
 14027 2029 4A050000 		.4byte	.LVL504
 14028 202d 0200     		.2byte	0x2
 14029 202f 7D       		.byte	0x7d
 14030 2030 00       		.sleb128 0
 14031 2031 00000000 		.4byte	0
 14032 2035 00000000 		.4byte	0
 14033              	.LLST217:
 14034 2039 3E000000 		.4byte	.LVL386
 14035 203d 52000000 		.4byte	.LVL388
 14036 2041 0100     		.2byte	0x1
 14037 2043 52       		.byte	0x52
 14038 2044 52000000 		.4byte	.LVL388
 14039 2048 5A010000 		.4byte	.LVL416
 14040 204c 0200     		.2byte	0x2
 14041 204e 91       		.byte	0x91
 14042 204f 00       		.sleb128 0
 14043 2050 8E040000 		.4byte	.LVL481
 14044 2054 4A050000 		.4byte	.LVL504
 14045 2058 0200     		.2byte	0x2
 14046 205a 91       		.byte	0x91
 14047 205b 00       		.sleb128 0
 14048 205c 00000000 		.4byte	0
 14049 2060 00000000 		.4byte	0
 14050              	.LLST218:
ARM GAS  C:\Users\rdn\AppData\Local\Temp\ccYcaPXH.s 			page 283


 14051 2064 3E000000 		.4byte	.LVL386
 14052 2068 5A010000 		.4byte	.LVL416
 14053 206c 0100     		.2byte	0x1
 14054 206e 5B       		.byte	0x5b
 14055 206f 8E040000 		.4byte	.LVL481
 14056 2073 4A050000 		.4byte	.LVL504
 14057 2077 0100     		.2byte	0x1
 14058 2079 5B       		.byte	0x5b
 14059 207a 00000000 		.4byte	0
 14060 207e 00000000 		.4byte	0
 14061              	.LLST219:
 14062 2082 3E000000 		.4byte	.LVL386
 14063 2086 5A010000 		.4byte	.LVL416
 14064 208a 0300     		.2byte	0x3
 14065 208c 91       		.byte	0x91
 14066 208d A07F     		.sleb128 -96
 14067 208f 8E040000 		.4byte	.LVL481
 14068 2093 4A050000 		.4byte	.LVL504
 14069 2097 0300     		.2byte	0x3
 14070 2099 91       		.byte	0x91
 14071 209a A07F     		.sleb128 -96
 14072 209c 00000000 		.4byte	0
 14073 20a0 00000000 		.4byte	0
 14074              	.LLST220:
 14075 20a4 3E000000 		.4byte	.LVL386
 14076 20a8 5A010000 		.4byte	.LVL416
 14077 20ac 0100     		.2byte	0x1
 14078 20ae 56       		.byte	0x56
 14079 20af 8E040000 		.4byte	.LVL481
 14080 20b3 4A050000 		.4byte	.LVL504
 14081 20b7 0100     		.2byte	0x1
 14082 20b9 56       		.byte	0x56
 14083 20ba 00000000 		.4byte	0
 14084 20be 00000000 		.4byte	0
 14085              	.LLST221:
 14086 20c2 6C000000 		.4byte	.LVL389
 14087 20c6 80000000 		.4byte	.LVL390
 14088 20ca 0200     		.2byte	0x2
 14089 20cc 30       		.byte	0x30
 14090 20cd 9F       		.byte	0x9f
 14091 20ce 80000000 		.4byte	.LVL390
 14092 20d2 5A010000 		.4byte	.LVL416
 14093 20d6 0100     		.2byte	0x1
 14094 20d8 59       		.byte	0x59
 14095 20d9 8E040000 		.4byte	.LVL481
 14096 20dd 2A050000 		.4byte	.LVL500
 14097 20e1 0100     		.2byte	0x1
 14098 20e3 59       		.byte	0x59
 14099 20e4 46050000 		.4byte	.LVL503
 14100 20e8 4A050000 		.4byte	.LVL504
 14101 20ec 0100     		.2byte	0x1
 14102 20ee 59       		.byte	0x59
 14103 20ef 00000000 		.4byte	0
 14104 20f3 00000000 		.4byte	0
 14105              	.LLST222:
 14106 20f7 3E000000 		.4byte	.LVL386
 14107 20fb 50000000 		.4byte	.LVL387
ARM GAS  C:\Users\rdn\AppData\Local\Temp\ccYcaPXH.s 			page 284


 14108 20ff 0200     		.2byte	0x2
 14109 2101 30       		.byte	0x30
 14110 2102 9F       		.byte	0x9f
 14111 2103 00000000 		.4byte	0
 14112 2107 00000000 		.4byte	0
 14113              	.LLST223:
 14114 210b 3E000000 		.4byte	.LVL386
 14115 210f 50000000 		.4byte	.LVL387
 14116 2113 0100     		.2byte	0x1
 14117 2115 52       		.byte	0x52
 14118 2116 00000000 		.4byte	0
 14119 211a 00000000 		.4byte	0
 14120              	.LLST224:
 14121 211e 3E000000 		.4byte	.LVL386
 14122 2122 50000000 		.4byte	.LVL387
 14123 2126 0100     		.2byte	0x1
 14124 2128 5B       		.byte	0x5b
 14125 2129 00000000 		.4byte	0
 14126 212d 00000000 		.4byte	0
 14127              	.LLST225:
 14128 2131 50000000 		.4byte	.LVL387
 14129 2135 6C000000 		.4byte	.LVL389
 14130 2139 0100     		.2byte	0x1
 14131 213b 5B       		.byte	0x5b
 14132 213c 00000000 		.4byte	0
 14133 2140 00000000 		.4byte	0
 14134              	.LLST226:
 14135 2144 50000000 		.4byte	.LVL387
 14136 2148 6C000000 		.4byte	.LVL389
 14137 214c 0300     		.2byte	0x3
 14138 214e 91       		.byte	0x91
 14139 214f A07F     		.sleb128 -96
 14140 2151 00000000 		.4byte	0
 14141 2155 00000000 		.4byte	0
 14142              	.LLST227:
 14143 2159 6C000000 		.4byte	.LVL389
 14144 215d 80000000 		.4byte	.LVL390
 14145 2161 0200     		.2byte	0x2
 14146 2163 30       		.byte	0x30
 14147 2164 9F       		.byte	0x9f
 14148 2165 80000000 		.4byte	.LVL390
 14149 2169 50010000 		.4byte	.LVL413
 14150 216d 0300     		.2byte	0x3
 14151 216f 91       		.byte	0x91
 14152 2170 8C7F     		.sleb128 -116
 14153 2172 50010000 		.4byte	.LVL413
 14154 2176 52010000 		.4byte	.LVL414
 14155 217a 0100     		.2byte	0x1
 14156 217c 53       		.byte	0x53
 14157 217d 52010000 		.4byte	.LVL414
 14158 2181 5A010000 		.4byte	.LVL416
 14159 2185 0300     		.2byte	0x3
 14160 2187 91       		.byte	0x91
 14161 2188 8C7F     		.sleb128 -116
 14162 218a 8E040000 		.4byte	.LVL481
 14163 218e 3E050000 		.4byte	.LVL502
 14164 2192 0300     		.2byte	0x3
ARM GAS  C:\Users\rdn\AppData\Local\Temp\ccYcaPXH.s 			page 285


 14165 2194 91       		.byte	0x91
 14166 2195 8C7F     		.sleb128 -116
 14167 2197 46050000 		.4byte	.LVL503
 14168 219b 4A050000 		.4byte	.LVL504
 14169 219f 0300     		.2byte	0x3
 14170 21a1 91       		.byte	0x91
 14171 21a2 8C7F     		.sleb128 -116
 14172 21a4 00000000 		.4byte	0
 14173 21a8 00000000 		.4byte	0
 14174              	.LLST228:
 14175 21ac 6C000000 		.4byte	.LVL389
 14176 21b0 80000000 		.4byte	.LVL390
 14177 21b4 0200     		.2byte	0x2
 14178 21b6 30       		.byte	0x30
 14179 21b7 9F       		.byte	0x9f
 14180 21b8 80000000 		.4byte	.LVL390
 14181 21bc 58010000 		.4byte	.LVL415
 14182 21c0 0300     		.2byte	0x3
 14183 21c2 91       		.byte	0x91
 14184 21c3 907F     		.sleb128 -112
 14185 21c5 58010000 		.4byte	.LVL415
 14186 21c9 5A010000 		.4byte	.LVL416
 14187 21cd 0100     		.2byte	0x1
 14188 21cf 53       		.byte	0x53
 14189 21d0 8E040000 		.4byte	.LVL481
 14190 21d4 4A050000 		.4byte	.LVL504
 14191 21d8 0300     		.2byte	0x3
 14192 21da 91       		.byte	0x91
 14193 21db 907F     		.sleb128 -112
 14194 21dd 00000000 		.4byte	0
 14195 21e1 00000000 		.4byte	0
 14196              	.LLST229:
 14197 21e5 BC000000 		.4byte	.LVL393
 14198 21e9 BE000000 		.4byte	.LVL394
 14199 21ed 0100     		.2byte	0x1
 14200 21ef 52       		.byte	0x52
 14201 21f0 BE000000 		.4byte	.LVL394
 14202 21f4 50010000 		.4byte	.LVL413
 14203 21f8 0300     		.2byte	0x3
 14204 21fa 91       		.byte	0x91
 14205 21fb A87F     		.sleb128 -88
 14206 21fd 8E040000 		.4byte	.LVL481
 14207 2201 9C040000 		.4byte	.LVL483
 14208 2205 0300     		.2byte	0x3
 14209 2207 91       		.byte	0x91
 14210 2208 A87F     		.sleb128 -88
 14211 220a 00000000 		.4byte	0
 14212 220e 00000000 		.4byte	0
 14213              	.LLST230:
 14214 2212 BC000000 		.4byte	.LVL393
 14215 2216 FE000000 		.4byte	.LVL401
 14216 221a 0200     		.2byte	0x2
 14217 221c 30       		.byte	0x30
 14218 221d 9F       		.byte	0x9f
 14219 221e FE000000 		.4byte	.LVL401
 14220 2222 11010000 		.4byte	.LVL403-1
 14221 2226 0100     		.2byte	0x1
ARM GAS  C:\Users\rdn\AppData\Local\Temp\ccYcaPXH.s 			page 286


 14222 2228 53       		.byte	0x53
 14223 2229 11010000 		.4byte	.LVL403-1
 14224 222d 1E010000 		.4byte	.LVL404
 14225 2231 0300     		.2byte	0x3
 14226 2233 91       		.byte	0x91
 14227 2234 AC7F     		.sleb128 -84
 14228 2236 1E010000 		.4byte	.LVL404
 14229 223a 27010000 		.4byte	.LVL406-1
 14230 223e 0100     		.2byte	0x1
 14231 2240 53       		.byte	0x53
 14232 2241 27010000 		.4byte	.LVL406-1
 14233 2245 4A010000 		.4byte	.LVL411
 14234 2249 0300     		.2byte	0x3
 14235 224b 91       		.byte	0x91
 14236 224c AC7F     		.sleb128 -84
 14237 224e 4A010000 		.4byte	.LVL411
 14238 2252 50010000 		.4byte	.LVL413
 14239 2256 0100     		.2byte	0x1
 14240 2258 53       		.byte	0x53
 14241 2259 8E040000 		.4byte	.LVL481
 14242 225d 96040000 		.4byte	.LVL482
 14243 2261 0200     		.2byte	0x2
 14244 2263 30       		.byte	0x30
 14245 2264 9F       		.byte	0x9f
 14246 2265 96040000 		.4byte	.LVL482
 14247 2269 A6040000 		.4byte	.LVL487
 14248 226d 0100     		.2byte	0x1
 14249 226f 53       		.byte	0x53
 14250 2270 A6040000 		.4byte	.LVL487
 14251 2274 B0040000 		.4byte	.LVL488
 14252 2278 0600     		.2byte	0x6
 14253 227a 71       		.byte	0x71
 14254 227b 00       		.sleb128 0
 14255 227c 73       		.byte	0x73
 14256 227d 00       		.sleb128 0
 14257 227e 21       		.byte	0x21
 14258 227f 9F       		.byte	0x9f
 14259 2280 B0040000 		.4byte	.LVL488
 14260 2284 02050000 		.4byte	.LVL494
 14261 2288 0100     		.2byte	0x1
 14262 228a 58       		.byte	0x58
 14263 228b 00000000 		.4byte	0
 14264 228f 00000000 		.4byte	0
 14265              	.LLST231:
 14266 2293 BC000000 		.4byte	.LVL393
 14267 2297 FE000000 		.4byte	.LVL401
 14268 229b 0200     		.2byte	0x2
 14269 229d 30       		.byte	0x30
 14270 229e 9F       		.byte	0x9f
 14271 229f FE000000 		.4byte	.LVL401
 14272 22a3 50010000 		.4byte	.LVL413
 14273 22a7 0100     		.2byte	0x1
 14274 22a9 57       		.byte	0x57
 14275 22aa 8E040000 		.4byte	.LVL481
 14276 22ae 96040000 		.4byte	.LVL482
 14277 22b2 0200     		.2byte	0x2
 14278 22b4 30       		.byte	0x30
ARM GAS  C:\Users\rdn\AppData\Local\Temp\ccYcaPXH.s 			page 287


 14279 22b5 9F       		.byte	0x9f
 14280 22b6 96040000 		.4byte	.LVL482
 14281 22ba F6040000 		.4byte	.LVL493
 14282 22be 0100     		.2byte	0x1
 14283 22c0 57       		.byte	0x57
 14284 22c1 00000000 		.4byte	0
 14285 22c5 00000000 		.4byte	0
 14286              	.LLST232:
 14287 22c9 BC000000 		.4byte	.LVL393
 14288 22cd DA000000 		.4byte	.LVL396
 14289 22d1 0200     		.2byte	0x2
 14290 22d3 30       		.byte	0x30
 14291 22d4 9F       		.byte	0x9f
 14292 22d5 DA000000 		.4byte	.LVL396
 14293 22d9 F4000000 		.4byte	.LVL399
 14294 22dd 0200     		.2byte	0x2
 14295 22df 31       		.byte	0x31
 14296 22e0 9F       		.byte	0x9f
 14297 22e1 F4000000 		.4byte	.LVL399
 14298 22e5 F8000000 		.4byte	.LVL400
 14299 22e9 0200     		.2byte	0x2
 14300 22eb 30       		.byte	0x30
 14301 22ec 9F       		.byte	0x9f
 14302 22ed FE000000 		.4byte	.LVL401
 14303 22f1 24010000 		.4byte	.LVL405
 14304 22f5 0100     		.2byte	0x1
 14305 22f7 55       		.byte	0x55
 14306 22f8 3C010000 		.4byte	.LVL407
 14307 22fc 50010000 		.4byte	.LVL413
 14308 2300 0100     		.2byte	0x1
 14309 2302 55       		.byte	0x55
 14310 2303 8E040000 		.4byte	.LVL481
 14311 2307 96040000 		.4byte	.LVL482
 14312 230b 0200     		.2byte	0x2
 14313 230d 30       		.byte	0x30
 14314 230e 9F       		.byte	0x9f
 14315 230f 96040000 		.4byte	.LVL482
 14316 2313 1E050000 		.4byte	.LVL497
 14317 2317 0100     		.2byte	0x1
 14318 2319 55       		.byte	0x55
 14319 231a 1E050000 		.4byte	.LVL497
 14320 231e 20050000 		.4byte	.LVL498
 14321 2322 0300     		.2byte	0x3
 14322 2324 75       		.byte	0x75
 14323 2325 74       		.sleb128 -12
 14324 2326 9F       		.byte	0x9f
 14325 2327 22050000 		.4byte	.LVL499
 14326 232b 38050000 		.4byte	.LVL501
 14327 232f 0100     		.2byte	0x1
 14328 2331 55       		.byte	0x55
 14329 2332 00000000 		.4byte	0
 14330 2336 00000000 		.4byte	0
 14331              	.LLST233:
 14332 233a BC000000 		.4byte	.LVL393
 14333 233e EE000000 		.4byte	.LVL398
 14334 2342 0200     		.2byte	0x2
 14335 2344 30       		.byte	0x30
ARM GAS  C:\Users\rdn\AppData\Local\Temp\ccYcaPXH.s 			page 288


 14336 2345 9F       		.byte	0x9f
 14337 2346 EE000000 		.4byte	.LVL398
 14338 234a F4000000 		.4byte	.LVL399
 14339 234e 0200     		.2byte	0x2
 14340 2350 31       		.byte	0x31
 14341 2351 9F       		.byte	0x9f
 14342 2352 F4000000 		.4byte	.LVL399
 14343 2356 F8000000 		.4byte	.LVL400
 14344 235a 0200     		.2byte	0x2
 14345 235c 30       		.byte	0x30
 14346 235d 9F       		.byte	0x9f
 14347 235e FE000000 		.4byte	.LVL401
 14348 2362 46010000 		.4byte	.LVL409
 14349 2366 0100     		.2byte	0x1
 14350 2368 58       		.byte	0x58
 14351 2369 46010000 		.4byte	.LVL409
 14352 236d 48010000 		.4byte	.LVL410
 14353 2371 0300     		.2byte	0x3
 14354 2373 78       		.byte	0x78
 14355 2374 7F       		.sleb128 -1
 14356 2375 9F       		.byte	0x9f
 14357 2376 48010000 		.4byte	.LVL410
 14358 237a 50010000 		.4byte	.LVL413
 14359 237e 0100     		.2byte	0x1
 14360 2380 58       		.byte	0x58
 14361 2381 8E040000 		.4byte	.LVL481
 14362 2385 96040000 		.4byte	.LVL482
 14363 2389 0200     		.2byte	0x2
 14364 238b 30       		.byte	0x30
 14365 238c 9F       		.byte	0x9f
 14366 238d 96040000 		.4byte	.LVL482
 14367 2391 B0040000 		.4byte	.LVL488
 14368 2395 0100     		.2byte	0x1
 14369 2397 58       		.byte	0x58
 14370 2398 00000000 		.4byte	0
 14371 239c 00000000 		.4byte	0
 14372              	.LLST234:
 14373 23a0 D0000000 		.4byte	.LVL395
 14374 23a4 EA000000 		.4byte	.LVL397
 14375 23a8 0100     		.2byte	0x1
 14376 23aa 50       		.byte	0x50
 14377 23ab EE000000 		.4byte	.LVL398
 14378 23af 0C010000 		.4byte	.LVL402
 14379 23b3 0100     		.2byte	0x1
 14380 23b5 50       		.byte	0x50
 14381 23b6 42010000 		.4byte	.LVL408
 14382 23ba 4E010000 		.4byte	.LVL412
 14383 23be 0100     		.2byte	0x1
 14384 23c0 50       		.byte	0x50
 14385 23c1 8E040000 		.4byte	.LVL481
 14386 23c5 B8040000 		.4byte	.LVL490
 14387 23c9 0100     		.2byte	0x1
 14388 23cb 50       		.byte	0x50
 14389 23cc 00000000 		.4byte	0
 14390 23d0 00000000 		.4byte	0
 14391              	.LLST235:
 14392 23d4 9C040000 		.4byte	.LVL483
ARM GAS  C:\Users\rdn\AppData\Local\Temp\ccYcaPXH.s 			page 289


 14393 23d8 9E040000 		.4byte	.LVL484
 14394 23dc 0100     		.2byte	0x1
 14395 23de 52       		.byte	0x52
 14396 23df 9E040000 		.4byte	.LVL484
 14397 23e3 4A050000 		.4byte	.LVL504
 14398 23e7 0300     		.2byte	0x3
 14399 23e9 91       		.byte	0x91
 14400 23ea A87F     		.sleb128 -88
 14401 23ec 00000000 		.4byte	0
 14402 23f0 00000000 		.4byte	0
 14403              	.LLST236:
 14404 23f4 A0040000 		.4byte	.LVL485
 14405 23f8 A2040000 		.4byte	.LVL486
 14406 23fc 0100     		.2byte	0x1
 14407 23fe 52       		.byte	0x52
 14408 23ff A2040000 		.4byte	.LVL486
 14409 2403 4A050000 		.4byte	.LVL504
 14410 2407 0300     		.2byte	0x3
 14411 2409 91       		.byte	0x91
 14412 240a AC7F     		.sleb128 -84
 14413 240c 00000000 		.4byte	0
 14414 2410 00000000 		.4byte	0
 14415              	.LLST237:
 14416 2414 76010000 		.4byte	.LVL419
 14417 2418 B4010000 		.4byte	.LVL423
 14418 241c 0100     		.2byte	0x1
 14419 241e 55       		.byte	0x55
 14420 241f B4010000 		.4byte	.LVL423
 14421 2423 EA010000 		.4byte	.LVL427
 14422 2427 0100     		.2byte	0x1
 14423 2429 59       		.byte	0x59
 14424 242a EA010000 		.4byte	.LVL427
 14425 242e 0C020000 		.4byte	.LVL431
 14426 2432 0100     		.2byte	0x1
 14427 2434 55       		.byte	0x55
 14428 2435 0C020000 		.4byte	.LVL431
 14429 2439 14020000 		.4byte	.LVL432
 14430 243d 0100     		.2byte	0x1
 14431 243f 59       		.byte	0x59
 14432 2440 14020000 		.4byte	.LVL432
 14433 2444 54020000 		.4byte	.LVL436
 14434 2448 0100     		.2byte	0x1
 14435 244a 55       		.byte	0x55
 14436 244b 54020000 		.4byte	.LVL436
 14437 244f 76020000 		.4byte	.LVL440
 14438 2453 0100     		.2byte	0x1
 14439 2455 59       		.byte	0x59
 14440 2456 76020000 		.4byte	.LVL440
 14441 245a 7E020000 		.4byte	.LVL442
 14442 245e 0100     		.2byte	0x1
 14443 2460 55       		.byte	0x55
 14444 2461 00000000 		.4byte	0
 14445 2465 00000000 		.4byte	0
 14446              	.LLST238:
 14447 2469 76010000 		.4byte	.LVL419
 14448 246d 7E020000 		.4byte	.LVL442
 14449 2471 0100     		.2byte	0x1
ARM GAS  C:\Users\rdn\AppData\Local\Temp\ccYcaPXH.s 			page 290


 14450 2473 57       		.byte	0x57
 14451 2474 00000000 		.4byte	0
 14452 2478 00000000 		.4byte	0
 14453              	.LLST239:
 14454 247c 90010000 		.4byte	.LVL420
 14455 2480 7E020000 		.4byte	.LVL442
 14456 2484 0200     		.2byte	0x2
 14457 2486 90       		.byte	0x90
 14458 2487 52       		.uleb128 0x52
 14459 2488 00000000 		.4byte	0
 14460 248c 00000000 		.4byte	0
 14461              	.LLST240:
 14462 2490 94010000 		.4byte	.LVL421
 14463 2494 7E020000 		.4byte	.LVL442
 14464 2498 0200     		.2byte	0x2
 14465 249a 90       		.byte	0x90
 14466 249b 51       		.uleb128 0x51
 14467 249c 00000000 		.4byte	0
 14468 24a0 00000000 		.4byte	0
 14469              	.LLST241:
 14470 24a4 7E020000 		.4byte	.LVL442
 14471 24a8 20030000 		.4byte	.LVL452
 14472 24ac 0200     		.2byte	0x2
 14473 24ae 7D       		.byte	0x7d
 14474 24af 00       		.sleb128 0
 14475 24b0 00000000 		.4byte	0
 14476 24b4 00000000 		.4byte	0
 14477              	.LLST242:
 14478 24b8 7E020000 		.4byte	.LVL442
 14479 24bc 20030000 		.4byte	.LVL452
 14480 24c0 0100     		.2byte	0x1
 14481 24c2 5A       		.byte	0x5a
 14482 24c3 00000000 		.4byte	0
 14483 24c7 00000000 		.4byte	0
 14484              	.LLST243:
 14485 24cb 7E020000 		.4byte	.LVL442
 14486 24cf 20030000 		.4byte	.LVL452
 14487 24d3 0800     		.2byte	0x8
 14488 24d5 7B       		.byte	0x7b
 14489 24d6 00       		.sleb128 0
 14490 24d7 08       		.byte	0x8
 14491 24d8 FF       		.byte	0xff
 14492 24d9 1A       		.byte	0x1a
 14493 24da 34       		.byte	0x34
 14494 24db 2B       		.byte	0x2b
 14495 24dc 9F       		.byte	0x9f
 14496 24dd 00000000 		.4byte	0
 14497 24e1 00000000 		.4byte	0
 14498              	.LLST244:
 14499 24e5 7E020000 		.4byte	.LVL442
 14500 24e9 A6020000 		.4byte	.LVL444
 14501 24ed 0100     		.2byte	0x1
 14502 24ef 50       		.byte	0x50
 14503 24f0 A6020000 		.4byte	.LVL444
 14504 24f4 20030000 		.4byte	.LVL452
 14505 24f8 0100     		.2byte	0x1
 14506 24fa 55       		.byte	0x55
ARM GAS  C:\Users\rdn\AppData\Local\Temp\ccYcaPXH.s 			page 291


 14507 24fb 00000000 		.4byte	0
 14508 24ff 00000000 		.4byte	0
 14509              	.LLST245:
 14510 2503 7E020000 		.4byte	.LVL442
 14511 2507 20030000 		.4byte	.LVL452
 14512 250b 0100     		.2byte	0x1
 14513 250d 56       		.byte	0x56
 14514 250e 00000000 		.4byte	0
 14515 2512 00000000 		.4byte	0
 14516              	.LLST246:
 14517 2516 9E020000 		.4byte	.LVL443
 14518 251a 20030000 		.4byte	.LVL452
 14519 251e 0200     		.2byte	0x2
 14520 2520 90       		.byte	0x90
 14521 2521 51       		.uleb128 0x51
 14522 2522 00000000 		.4byte	0
 14523 2526 00000000 		.4byte	0
 14524              	.LLST247:
 14525 252a 9E020000 		.4byte	.LVL443
 14526 252e 20030000 		.4byte	.LVL452
 14527 2532 0200     		.2byte	0x2
 14528 2534 90       		.byte	0x90
 14529 2535 50       		.uleb128 0x50
 14530 2536 00000000 		.4byte	0
 14531 253a 00000000 		.4byte	0
 14532              	.LLST248:
 14533 253e 9E020000 		.4byte	.LVL443
 14534 2542 A6020000 		.4byte	.LVL444
 14535 2546 0200     		.2byte	0x2
 14536 2548 30       		.byte	0x30
 14537 2549 9F       		.byte	0x9f
 14538 254a A6020000 		.4byte	.LVL444
 14539 254e BA020000 		.4byte	.LVL446
 14540 2552 0100     		.2byte	0x1
 14541 2554 59       		.byte	0x59
 14542 2555 BA020000 		.4byte	.LVL446
 14543 2559 C4020000 		.4byte	.LVL448
 14544 255d 0300     		.2byte	0x3
 14545 255f 79       		.byte	0x79
 14546 2560 7F       		.sleb128 -1
 14547 2561 9F       		.byte	0x9f
 14548 2562 C4020000 		.4byte	.LVL448
 14549 2566 20030000 		.4byte	.LVL452
 14550 256a 0100     		.2byte	0x1
 14551 256c 59       		.byte	0x59
 14552 256d 00000000 		.4byte	0
 14553 2571 00000000 		.4byte	0
 14554              	.LLST249:
 14555 2575 B0020000 		.4byte	.LVL445
 14556 2579 20030000 		.4byte	.LVL452
 14557 257d 0100     		.2byte	0x1
 14558 257f 58       		.byte	0x58
 14559 2580 00000000 		.4byte	0
 14560 2584 00000000 		.4byte	0
 14561              	.LLST250:
 14562 2588 2C030000 		.4byte	.LVL453
 14563 258c 7C030000 		.4byte	.LVL462
ARM GAS  C:\Users\rdn\AppData\Local\Temp\ccYcaPXH.s 			page 292


 14564 2590 0200     		.2byte	0x2
 14565 2592 7D       		.byte	0x7d
 14566 2593 00       		.sleb128 0
 14567 2594 00000000 		.4byte	0
 14568 2598 00000000 		.4byte	0
 14569              	.LLST251:
 14570 259c 2C030000 		.4byte	.LVL453
 14571 25a0 7C030000 		.4byte	.LVL462
 14572 25a4 0100     		.2byte	0x1
 14573 25a6 5A       		.byte	0x5a
 14574 25a7 00000000 		.4byte	0
 14575 25ab 00000000 		.4byte	0
 14576              	.LLST253:
 14577 25af 2C030000 		.4byte	.LVL453
 14578 25b3 7C030000 		.4byte	.LVL462
 14579 25b7 0100     		.2byte	0x1
 14580 25b9 5B       		.byte	0x5b
 14581 25ba 00000000 		.4byte	0
 14582 25be 00000000 		.4byte	0
 14583              	.LLST254:
 14584 25c2 2C030000 		.4byte	.LVL453
 14585 25c6 7C030000 		.4byte	.LVL462
 14586 25ca 0300     		.2byte	0x3
 14587 25cc 91       		.byte	0x91
 14588 25cd A07F     		.sleb128 -96
 14589 25cf 00000000 		.4byte	0
 14590 25d3 00000000 		.4byte	0
 14591              	.LLST255:
 14592 25d7 32030000 		.4byte	.LVL455
 14593 25db 7C030000 		.4byte	.LVL462
 14594 25df 0200     		.2byte	0x2
 14595 25e1 90       		.byte	0x90
 14596 25e2 40       		.uleb128 0x40
 14597 25e3 00000000 		.4byte	0
 14598 25e7 00000000 		.4byte	0
 14599              	.LLST256:
 14600 25eb 3E030000 		.4byte	.LVL456
 14601 25ef 40030000 		.4byte	.LVL457
 14602 25f3 0200     		.2byte	0x2
 14603 25f5 30       		.byte	0x30
 14604 25f6 9F       		.byte	0x9f
 14605 25f7 40030000 		.4byte	.LVL457
 14606 25fb 5A030000 		.4byte	.LVL459
 14607 25ff 0100     		.2byte	0x1
 14608 2601 53       		.byte	0x53
 14609 2602 60030000 		.4byte	.LVL460
 14610 2606 7C030000 		.4byte	.LVL462
 14611 260a 0100     		.2byte	0x1
 14612 260c 53       		.byte	0x53
 14613 260d 00000000 		.4byte	0
 14614 2611 00000000 		.4byte	0
 14615              	.LLST257:
 14616 2615 32030000 		.4byte	.LVL455
 14617 2619 3E030000 		.4byte	.LVL456
 14618 261d 0100     		.2byte	0x1
 14619 261f 5B       		.byte	0x5b
 14620 2620 00000000 		.4byte	0
ARM GAS  C:\Users\rdn\AppData\Local\Temp\ccYcaPXH.s 			page 293


 14621 2624 00000000 		.4byte	0
 14622              	.LLST258:
 14623 2628 32030000 		.4byte	.LVL455
 14624 262c 3E030000 		.4byte	.LVL456
 14625 2630 0300     		.2byte	0x3
 14626 2632 91       		.byte	0x91
 14627 2633 A07F     		.sleb128 -96
 14628 2635 00000000 		.4byte	0
 14629 2639 00000000 		.4byte	0
 14630              	.LLST259:
 14631 263d AC030000 		.4byte	.LVL464
 14632 2641 8E040000 		.4byte	.LVL481
 14633 2645 0200     		.2byte	0x2
 14634 2647 7D       		.byte	0x7d
 14635 2648 00       		.sleb128 0
 14636 2649 00000000 		.4byte	0
 14637 264d 00000000 		.4byte	0
 14638              	.LLST260:
 14639 2651 AC030000 		.4byte	.LVL464
 14640 2655 8E040000 		.4byte	.LVL481
 14641 2659 0100     		.2byte	0x1
 14642 265b 5A       		.byte	0x5a
 14643 265c 00000000 		.4byte	0
 14644 2660 00000000 		.4byte	0
 14645              	.LLST261:
 14646 2664 AC030000 		.4byte	.LVL464
 14647 2668 E8030000 		.4byte	.LVL467
 14648 266c 0200     		.2byte	0x2
 14649 266e 90       		.byte	0x90
 14650 266f 40       		.uleb128 0x40
 14651 2670 00000000 		.4byte	0
 14652 2674 00000000 		.4byte	0
 14653              	.LLST262:
 14654 2678 AC030000 		.4byte	.LVL464
 14655 267c 26040000 		.4byte	.LVL472
 14656 2680 0100     		.2byte	0x1
 14657 2682 54       		.byte	0x54
 14658 2683 2E040000 		.4byte	.LVL473
 14659 2687 68040000 		.4byte	.LVL478
 14660 268b 0100     		.2byte	0x1
 14661 268d 54       		.byte	0x54
 14662 268e 70040000 		.4byte	.LVL479
 14663 2692 8E040000 		.4byte	.LVL481
 14664 2696 0100     		.2byte	0x1
 14665 2698 54       		.byte	0x54
 14666 2699 00000000 		.4byte	0
 14667 269d 00000000 		.4byte	0
 14668              	.LLST263:
 14669 26a1 AC030000 		.4byte	.LVL464
 14670 26a5 8E040000 		.4byte	.LVL481
 14671 26a9 0300     		.2byte	0x3
 14672 26ab 91       		.byte	0x91
 14673 26ac A47F     		.sleb128 -92
 14674 26ae 00000000 		.4byte	0
 14675 26b2 00000000 		.4byte	0
 14676              	.LLST264:
 14677 26b6 AC030000 		.4byte	.LVL464
ARM GAS  C:\Users\rdn\AppData\Local\Temp\ccYcaPXH.s 			page 294


 14678 26ba 8E040000 		.4byte	.LVL481
 14679 26be 0200     		.2byte	0x2
 14680 26c0 91       		.byte	0x91
 14681 26c1 44       		.sleb128 -60
 14682 26c2 00000000 		.4byte	0
 14683 26c6 00000000 		.4byte	0
 14684              	.LLST265:
 14685 26ca AC030000 		.4byte	.LVL464
 14686 26ce 8E040000 		.4byte	.LVL481
 14687 26d2 0300     		.2byte	0x3
 14688 26d4 91       		.byte	0x91
 14689 26d5 A07F     		.sleb128 -96
 14690 26d7 00000000 		.4byte	0
 14691 26db 00000000 		.4byte	0
 14692              	.LLST266:
 14693 26df D4030000 		.4byte	.LVL466
 14694 26e3 8E040000 		.4byte	.LVL481
 14695 26e7 0100     		.2byte	0x1
 14696 26e9 52       		.byte	0x52
 14697 26ea 00000000 		.4byte	0
 14698 26ee 00000000 		.4byte	0
 14699              	.LLST267:
 14700 26f2 F2030000 		.4byte	.LVL468
 14701 26f6 8E040000 		.4byte	.LVL481
 14702 26fa 0200     		.2byte	0x2
 14703 26fc 90       		.byte	0x90
 14704 26fd 40       		.uleb128 0x40
 14705 26fe 00000000 		.4byte	0
 14706 2702 00000000 		.4byte	0
 14707              	.LLST268:
 14708 2706 F8030000 		.4byte	.LVL469
 14709 270a 8E040000 		.4byte	.LVL481
 14710 270e 0100     		.2byte	0x1
 14711 2710 53       		.byte	0x53
 14712 2711 00000000 		.4byte	0
 14713 2715 00000000 		.4byte	0
 14714              	.LLST269:
 14715 2719 F2030000 		.4byte	.LVL468
 14716 271d 0A040000 		.4byte	.LVL470
 14717 2721 0200     		.2byte	0x2
 14718 2723 30       		.byte	0x30
 14719 2724 9F       		.byte	0x9f
 14720 2725 0A040000 		.4byte	.LVL470
 14721 2729 4C040000 		.4byte	.LVL474
 14722 272d 0100     		.2byte	0x1
 14723 272f 51       		.byte	0x51
 14724 2730 50040000 		.4byte	.LVL476
 14725 2734 8E040000 		.4byte	.LVL481
 14726 2738 0100     		.2byte	0x1
 14727 273a 51       		.byte	0x51
 14728 273b 00000000 		.4byte	0
 14729 273f 00000000 		.4byte	0
 14730              	.LLST270:
 14731 2743 AC030000 		.4byte	.LVL464
 14732 2747 C4030000 		.4byte	.LVL465
 14733 274b 1500     		.2byte	0x15
 14734 274d 91       		.byte	0x91
ARM GAS  C:\Users\rdn\AppData\Local\Temp\ccYcaPXH.s 			page 295


 14735 274e 44       		.sleb128 -60
 14736 274f 94       		.byte	0x94
 14737 2750 01       		.byte	0x1
 14738 2751 12       		.byte	0x12
 14739 2752 08       		.byte	0x8
 14740 2753 FF       		.byte	0xff
 14741 2754 1A       		.byte	0x1a
 14742 2755 34       		.byte	0x34
 14743 2756 16       		.byte	0x16
 14744 2757 14       		.byte	0x14
 14745 2758 08       		.byte	0x8
 14746 2759 FF       		.byte	0xff
 14747 275a 1A       		.byte	0x1a
 14748 275b 2D       		.byte	0x2d
 14749 275c 28       		.byte	0x28
 14750 275d 0100     		.2byte	0x1
 14751 275f 16       		.byte	0x16
 14752 2760 13       		.byte	0x13
 14753 2761 9F       		.byte	0x9f
 14754 2762 00000000 		.4byte	0
 14755 2766 00000000 		.4byte	0
 14756              	.LLST271:
 14757 276a AC030000 		.4byte	.LVL464
 14758 276e C4030000 		.4byte	.LVL465
 14759 2772 0300     		.2byte	0x3
 14760 2774 91       		.byte	0x91
 14761 2775 A07F     		.sleb128 -96
 14762 2777 00000000 		.4byte	0
 14763 277b 00000000 		.4byte	0
 14764              		.section	.debug_aranges,"",%progbits
 14765 0000 9C000000 		.4byte	0x9c
 14766 0004 0200     		.2byte	0x2
 14767 0006 00000000 		.4byte	.Ldebug_info0
 14768 000a 04       		.byte	0x4
 14769 000b 00       		.byte	0
 14770 000c 0000     		.2byte	0
 14771 000e 0000     		.2byte	0
 14772 0010 00000000 		.4byte	.LFB20
 14773 0014 34000000 		.4byte	.LFE20-.LFB20
 14774 0018 00000000 		.4byte	.LFB21
 14775 001c 3C000000 		.4byte	.LFE21-.LFB21
 14776 0020 00000000 		.4byte	.LFB24
 14777 0024 7C000000 		.4byte	.LFE24-.LFB24
 14778 0028 00000000 		.4byte	.LFB27
 14779 002c 2C020000 		.4byte	.LFE27-.LFB27
 14780 0030 00000000 		.4byte	.LFB38
 14781 0034 38000000 		.4byte	.LFE38-.LFB38
 14782 0038 00000000 		.4byte	.LFB22
 14783 003c E6030000 		.4byte	.LFE22-.LFB22
 14784 0040 00000000 		.4byte	.LFB8
 14785 0044 20000000 		.4byte	.LFE8-.LFB8
 14786 0048 00000000 		.4byte	.LFB7
 14787 004c 06000000 		.4byte	.LFE7-.LFB7
 14788 0050 00000000 		.4byte	.LFB11
 14789 0054 38000000 		.4byte	.LFE11-.LFB11
 14790 0058 00000000 		.4byte	.LFB10
 14791 005c 26000000 		.4byte	.LFE10-.LFB10
ARM GAS  C:\Users\rdn\AppData\Local\Temp\ccYcaPXH.s 			page 296


 14792 0060 00000000 		.4byte	.LFB9
 14793 0064 06000000 		.4byte	.LFE9-.LFB9
 14794 0068 00000000 		.4byte	.LFB12
 14795 006c 8E000000 		.4byte	.LFE12-.LFB12
 14796 0070 00000000 		.4byte	.LFB40
 14797 0074 6C020000 		.4byte	.LFE40-.LFB40
 14798 0078 00000000 		.4byte	.LFB41
 14799 007c 3A000000 		.4byte	.LFE41-.LFB41
 14800 0080 00000000 		.4byte	.LFB42
 14801 0084 86040000 		.4byte	.LFE42-.LFB42
 14802 0088 00000000 		.4byte	.LFB43
 14803 008c 54000000 		.4byte	.LFE43-.LFB43
 14804 0090 00000000 		.4byte	.LFB44
 14805 0094 54050000 		.4byte	.LFE44-.LFB44
 14806 0098 00000000 		.4byte	0
 14807 009c 00000000 		.4byte	0
 14808              		.section	.debug_ranges,"",%progbits
 14809              	.Ldebug_ranges0:
 14810 0000 0C000000 		.4byte	.LBB78
 14811 0004 0E000000 		.4byte	.LBE78
 14812 0008 10000000 		.4byte	.LBB81
 14813 000c 22000000 		.4byte	.LBE81
 14814 0010 00000000 		.4byte	0
 14815 0014 00000000 		.4byte	0
 14816 0018 06000000 		.4byte	.LBB91
 14817 001c 08000000 		.4byte	.LBE91
 14818 0020 0A000000 		.4byte	.LBB95
 14819 0024 1A000000 		.4byte	.LBE95
 14820 0028 1C000000 		.4byte	.LBB96
 14821 002c 3C000000 		.4byte	.LBE96
 14822 0030 00000000 		.4byte	0
 14823 0034 00000000 		.4byte	0
 14824 0038 52000000 		.4byte	.LBB99
 14825 003c 72000000 		.4byte	.LBE99
 14826 0040 84000000 		.4byte	.LBB105
 14827 0044 DA010000 		.4byte	.LBE105
 14828 0048 00000000 		.4byte	0
 14829 004c 00000000 		.4byte	0
 14830 0050 52000000 		.4byte	.LBB100
 14831 0054 54000000 		.4byte	.LBE100
 14832 0058 56000000 		.4byte	.LBB102
 14833 005c 70000000 		.4byte	.LBE102
 14834 0060 84000000 		.4byte	.LBB103
 14835 0064 A4000000 		.4byte	.LBE103
 14836 0068 AE000000 		.4byte	.LBB104
 14837 006c DA010000 		.4byte	.LBE104
 14838 0070 00000000 		.4byte	0
 14839 0074 00000000 		.4byte	0
 14840 0078 0A000000 		.4byte	.LBB125
 14841 007c 0C000000 		.4byte	.LBE125
 14842 0080 18000000 		.4byte	.LBB128
 14843 0084 1C000000 		.4byte	.LBE128
 14844 0088 00000000 		.4byte	0
 14845 008c 00000000 		.4byte	0
 14846 0090 98000000 		.4byte	.LBB130
 14847 0094 9A000000 		.4byte	.LBE130
 14848 0098 9E000000 		.4byte	.LBB131
ARM GAS  C:\Users\rdn\AppData\Local\Temp\ccYcaPXH.s 			page 297


 14849 009c FE000000 		.4byte	.LBE131
 14850 00a0 00000000 		.4byte	0
 14851 00a4 00000000 		.4byte	0
 14852 00a8 4A010000 		.4byte	.LBB132
 14853 00ac 4E010000 		.4byte	.LBE132
 14854 00b0 50010000 		.4byte	.LBB135
 14855 00b4 AE010000 		.4byte	.LBE135
 14856 00b8 00000000 		.4byte	0
 14857 00bc 00000000 		.4byte	0
 14858 00c0 58010000 		.4byte	.LBB133
 14859 00c4 9C010000 		.4byte	.LBE133
 14860 00c8 A0010000 		.4byte	.LBB134
 14861 00cc AE010000 		.4byte	.LBE134
 14862 00d0 00000000 		.4byte	0
 14863 00d4 00000000 		.4byte	0
 14864 00d8 BA010000 		.4byte	.LBB136
 14865 00dc C8010000 		.4byte	.LBE136
 14866 00e0 CE010000 		.4byte	.LBB145
 14867 00e4 D2010000 		.4byte	.LBE145
 14868 00e8 DC010000 		.4byte	.LBB147
 14869 00ec 22020000 		.4byte	.LBE147
 14870 00f0 28020000 		.4byte	.LBB149
 14871 00f4 34020000 		.4byte	.LBE149
 14872 00f8 00000000 		.4byte	0
 14873 00fc 00000000 		.4byte	0
 14874 0100 C8010000 		.4byte	.LBB141
 14875 0104 CE010000 		.4byte	.LBE141
 14876 0108 D2010000 		.4byte	.LBB146
 14877 010c DC010000 		.4byte	.LBE146
 14878 0110 22020000 		.4byte	.LBB148
 14879 0114 28020000 		.4byte	.LBE148
 14880 0118 00000000 		.4byte	0
 14881 011c 00000000 		.4byte	0
 14882 0120 3E020000 		.4byte	.LBB151
 14883 0124 46020000 		.4byte	.LBE151
 14884 0128 64020000 		.4byte	.LBB154
 14885 012c 78020000 		.4byte	.LBE154
 14886 0130 00000000 		.4byte	0
 14887 0134 00000000 		.4byte	0
 14888 0138 BE020000 		.4byte	.LBB155
 14889 013c CA020000 		.4byte	.LBE155
 14890 0140 CC020000 		.4byte	.LBB161
 14891 0144 3E030000 		.4byte	.LBE161
 14892 0148 00000000 		.4byte	0
 14893 014c 00000000 		.4byte	0
 14894 0150 CC020000 		.4byte	.LBB156
 14895 0154 D0020000 		.4byte	.LBE156
 14896 0158 D4020000 		.4byte	.LBB159
 14897 015c 32030000 		.4byte	.LBE159
 14898 0160 36030000 		.4byte	.LBB160
 14899 0164 38030000 		.4byte	.LBE160
 14900 0168 00000000 		.4byte	0
 14901 016c 00000000 		.4byte	0
 14902 0170 FA020000 		.4byte	.LBB157
 14903 0174 18030000 		.4byte	.LBE157
 14904 0178 1C030000 		.4byte	.LBB158
 14905 017c 1E030000 		.4byte	.LBE158
ARM GAS  C:\Users\rdn\AppData\Local\Temp\ccYcaPXH.s 			page 298


 14906 0180 00000000 		.4byte	0
 14907 0184 00000000 		.4byte	0
 14908 0188 16000000 		.4byte	.LBB172
 14909 018c 2E000000 		.4byte	.LBE172
 14910 0190 30000000 		.4byte	.LBB176
 14911 0194 36000000 		.4byte	.LBE176
 14912 0198 3A000000 		.4byte	.LBB177
 14913 019c 40000000 		.4byte	.LBE177
 14914 01a0 00000000 		.4byte	0
 14915 01a4 00000000 		.4byte	0
 14916 01a8 18010000 		.4byte	.LBB178
 14917 01ac 20010000 		.4byte	.LBE178
 14918 01b0 24010000 		.4byte	.LBB185
 14919 01b4 26010000 		.4byte	.LBE185
 14920 01b8 2A010000 		.4byte	.LBB186
 14921 01bc 0E020000 		.4byte	.LBE186
 14922 01c0 26020000 		.4byte	.LBB187
 14923 01c4 2A020000 		.4byte	.LBE187
 14924 01c8 00000000 		.4byte	0
 14925 01cc 00000000 		.4byte	0
 14926 01d0 0A000000 		.4byte	.LBB214
 14927 01d4 0C000000 		.4byte	.LBE214
 14928 01d8 10000000 		.4byte	.LBB229
 14929 01dc 12000000 		.4byte	.LBE229
 14930 01e0 1A000000 		.4byte	.LBB230
 14931 01e4 58000000 		.4byte	.LBE230
 14932 01e8 5A000000 		.4byte	.LBB231
 14933 01ec 10010000 		.4byte	.LBE231
 14934 01f0 00000000 		.4byte	0
 14935 01f4 00000000 		.4byte	0
 14936 01f8 0A000000 		.4byte	.LBB216
 14937 01fc 0C000000 		.4byte	.LBE216
 14938 0200 10000000 		.4byte	.LBB222
 14939 0204 12000000 		.4byte	.LBE222
 14940 0208 1A000000 		.4byte	.LBB223
 14941 020c 1E000000 		.4byte	.LBE223
 14942 0210 20000000 		.4byte	.LBB224
 14943 0214 2A000000 		.4byte	.LBE224
 14944 0218 3C000000 		.4byte	.LBB225
 14945 021c 3E000000 		.4byte	.LBE225
 14946 0220 00000000 		.4byte	0
 14947 0224 00000000 		.4byte	0
 14948 0228 66010000 		.4byte	.LBB240
 14949 022c 6C010000 		.4byte	.LBE240
 14950 0230 6E010000 		.4byte	.LBB243
 14951 0234 00030000 		.4byte	.LBE243
 14952 0238 00000000 		.4byte	0
 14953 023c 00000000 		.4byte	0
 14954 0240 F8030000 		.4byte	.LBB250
 14955 0244 02040000 		.4byte	.LBE250
 14956 0248 10040000 		.4byte	.LBB253
 14957 024c 7C040000 		.4byte	.LBE253
 14958 0250 00000000 		.4byte	0
 14959 0254 00000000 		.4byte	0
 14960 0258 F8030000 		.4byte	.LBB251
 14961 025c FC030000 		.4byte	.LBE251
 14962 0260 14040000 		.4byte	.LBB252
ARM GAS  C:\Users\rdn\AppData\Local\Temp\ccYcaPXH.s 			page 299


 14963 0264 76040000 		.4byte	.LBE252
 14964 0268 00000000 		.4byte	0
 14965 026c 00000000 		.4byte	0
 14966 0270 10000000 		.4byte	.LBB254
 14967 0274 12000000 		.4byte	.LBE254
 14968 0278 16000000 		.4byte	.LBB258
 14969 027c 1A000000 		.4byte	.LBE258
 14970 0280 3E000000 		.4byte	.LBB259
 14971 0284 42000000 		.4byte	.LBE259
 14972 0288 00000000 		.4byte	0
 14973 028c 00000000 		.4byte	0
 14974 0290 20000000 		.4byte	.LBB289
 14975 0294 22000000 		.4byte	.LBE289
 14976 0298 24000000 		.4byte	.LBB293
 14977 029c 28000000 		.4byte	.LBE293
 14978 02a0 3C000000 		.4byte	.LBB314
 14979 02a4 3E000000 		.4byte	.LBE314
 14980 02a8 00000000 		.4byte	0
 14981 02ac 00000000 		.4byte	0
 14982 02b0 28000000 		.4byte	.LBB294
 14983 02b4 3C000000 		.4byte	.LBE294
 14984 02b8 3E000000 		.4byte	.LBB315
 14985 02bc 5A010000 		.4byte	.LBE315
 14986 02c0 8E040000 		.4byte	.LBB339
 14987 02c4 4A050000 		.4byte	.LBE339
 14988 02c8 00000000 		.4byte	0
 14989 02cc 00000000 		.4byte	0
 14990 02d0 28000000 		.4byte	.LBB296
 14991 02d4 3C000000 		.4byte	.LBE296
 14992 02d8 3E000000 		.4byte	.LBB299
 14993 02dc 50000000 		.4byte	.LBE299
 14994 02e0 00000000 		.4byte	0
 14995 02e4 00000000 		.4byte	0
 14996 02e8 50000000 		.4byte	.LBB300
 14997 02ec 66000000 		.4byte	.LBE300
 14998 02f0 6A000000 		.4byte	.LBB303
 14999 02f4 7A000000 		.4byte	.LBE303
 15000 02f8 00000000 		.4byte	0
 15001 02fc 00000000 		.4byte	0
 15002 0300 7A000000 		.4byte	.LBB304
 15003 0304 7C000000 		.4byte	.LBE304
 15004 0308 7E000000 		.4byte	.LBB310
 15005 030c 5A010000 		.4byte	.LBE310
 15006 0310 8E040000 		.4byte	.LBB311
 15007 0314 4A050000 		.4byte	.LBE311
 15008 0318 00000000 		.4byte	0
 15009 031c 00000000 		.4byte	0
 15010 0320 8A000000 		.4byte	.LBB305
 15011 0324 50010000 		.4byte	.LBE305
 15012 0328 8E040000 		.4byte	.LBB309
 15013 032c 4A050000 		.4byte	.LBE309
 15014 0330 00000000 		.4byte	0
 15015 0334 00000000 		.4byte	0
 15016 0338 B0000000 		.4byte	.LBB306
 15017 033c 50010000 		.4byte	.LBE306
 15018 0340 8E040000 		.4byte	.LBB307
 15019 0344 38050000 		.4byte	.LBE307
ARM GAS  C:\Users\rdn\AppData\Local\Temp\ccYcaPXH.s 			page 300


 15020 0348 40050000 		.4byte	.LBB308
 15021 034c 4A050000 		.4byte	.LBE308
 15022 0350 00000000 		.4byte	0
 15023 0354 00000000 		.4byte	0
 15024 0358 6E010000 		.4byte	.LBB318
 15025 035c 76010000 		.4byte	.LBE318
 15026 0360 84010000 		.4byte	.LBB319
 15027 0364 76020000 		.4byte	.LBE319
 15028 0368 00000000 		.4byte	0
 15029 036c 00000000 		.4byte	0
 15030 0370 B0020000 		.4byte	.LBB323
 15031 0374 B6020000 		.4byte	.LBE323
 15032 0378 C8020000 		.4byte	.LBB324
 15033 037c 20030000 		.4byte	.LBE324
 15034 0380 00000000 		.4byte	0
 15035 0384 00000000 		.4byte	0
 15036 0388 AC030000 		.4byte	.LBB331
 15037 038c AE030000 		.4byte	.LBE331
 15038 0390 B0030000 		.4byte	.LBB336
 15039 0394 B6030000 		.4byte	.LBE336
 15040 0398 BA030000 		.4byte	.LBB337
 15041 039c C0030000 		.4byte	.LBE337
 15042 03a0 C2030000 		.4byte	.LBB338
 15043 03a4 C4030000 		.4byte	.LBE338
 15044 03a8 00000000 		.4byte	0
 15045 03ac 00000000 		.4byte	0
 15046 03b0 00000000 		.4byte	.LFB20
 15047 03b4 34000000 		.4byte	.LFE20
 15048 03b8 00000000 		.4byte	.LFB21
 15049 03bc 3C000000 		.4byte	.LFE21
 15050 03c0 00000000 		.4byte	.LFB24
 15051 03c4 7C000000 		.4byte	.LFE24
 15052 03c8 00000000 		.4byte	.LFB27
 15053 03cc 2C020000 		.4byte	.LFE27
 15054 03d0 00000000 		.4byte	.LFB38
 15055 03d4 38000000 		.4byte	.LFE38
 15056 03d8 00000000 		.4byte	.LFB22
 15057 03dc E6030000 		.4byte	.LFE22
 15058 03e0 00000000 		.4byte	.LFB8
 15059 03e4 20000000 		.4byte	.LFE8
 15060 03e8 00000000 		.4byte	.LFB7
 15061 03ec 06000000 		.4byte	.LFE7
 15062 03f0 00000000 		.4byte	.LFB11
 15063 03f4 38000000 		.4byte	.LFE11
 15064 03f8 00000000 		.4byte	.LFB10
 15065 03fc 26000000 		.4byte	.LFE10
 15066 0400 00000000 		.4byte	.LFB9
 15067 0404 06000000 		.4byte	.LFE9
 15068 0408 00000000 		.4byte	.LFB12
 15069 040c 8E000000 		.4byte	.LFE12
 15070 0410 00000000 		.4byte	.LFB40
 15071 0414 6C020000 		.4byte	.LFE40
 15072 0418 00000000 		.4byte	.LFB41
 15073 041c 3A000000 		.4byte	.LFE41
 15074 0420 00000000 		.4byte	.LFB42
 15075 0424 86040000 		.4byte	.LFE42
 15076 0428 00000000 		.4byte	.LFB43
ARM GAS  C:\Users\rdn\AppData\Local\Temp\ccYcaPXH.s 			page 301


 15077 042c 54000000 		.4byte	.LFE43
 15078 0430 00000000 		.4byte	.LFB44
 15079 0434 54050000 		.4byte	.LFE44
 15080 0438 00000000 		.4byte	0
 15081 043c 00000000 		.4byte	0
 15082              		.section	.debug_line,"",%progbits
 15083              	.Ldebug_line0:
 15084 0000 150A0000 		.section	.debug_str,"MS",%progbits,1
 15084      02002302 
 15084      00000201 
 15084      FB0E0D00 
 15084      01010101 
 15085              	.LASF115:
 15086 0000 6B5F3230 		.ascii	"k_20_28\000"
 15086      5F323800 
 15087              	.LASF157:
 15088 0008 6765745F 		.ascii	"get_quantized\000"
 15088      7175616E 
 15088      74697A65 
 15088      6400
 15089              	.LASF27:
 15090 0016 4C43335F 		.ascii	"LC3_SRATE_24K\000"
 15090      53524154 
 15090      455F3234 
 15090      4B00
 15091              	.LASF116:
 15092 0024 6B5F3275 		.ascii	"k_2u7\000"
 15092      3700
 15093              	.LASF46:
 15094 002a 4C43335F 		.ascii	"LC3_BANDWIDTH_FB_HR\000"
 15094      42414E44 
 15094      57494454 
 15094      485F4642 
 15094      5F485200 
 15095              	.LASF42:
 15096 003e 4C43335F 		.ascii	"LC3_BANDWIDTH_WB\000"
 15096      42414E44 
 15096      57494454 
 15096      485F5742 
 15096      00
 15097              	.LASF146:
 15098 004f 7075745F 		.ascii	"put_quantized\000"
 15098      7175616E 
 15098      74697A65 
 15098      6400
 15099              	.LASF75:
 15100 005d 72635F6F 		.ascii	"rc_order\000"
 15100      72646572 
 15100      00
 15101              	.LASF63:
 15102 0066 6C63335F 		.ascii	"lc3_bits_buffer\000"
 15102      62697473 
 15102      5F627566 
 15102      66657200 
 15103              	.LASF70:
 15104 0076 62756666 		.ascii	"buffer\000"
 15104      657200
ARM GAS  C:\Users\rdn\AppData\Local\Temp\ccYcaPXH.s 			page 302


 15105              	.LASF170:
 15106 007d 6C63335F 		.ascii	"lc3_ne_2m5\000"
 15106      6E655F32 
 15106      6D3500
 15107              	.LASF1:
 15108 0088 756E7369 		.ascii	"unsigned int\000"
 15108      676E6564 
 15108      20696E74 
 15108      00
 15109              	.LASF29:
 15110 0095 4C43335F 		.ascii	"LC3_SRATE_48K\000"
 15110      53524154 
 15110      455F3438 
 15110      4B00
 15111              	.LASF131:
 15112 00a3 6765745F 		.ascii	"get_nbits_ac\000"
 15112      6E626974 
 15112      735F6163 
 15112      00
 15113              	.LASF86:
 15114 00b0 7265736F 		.ascii	"resolve_gain_offset\000"
 15114      6C76655F 
 15114      6761696E 
 15114      5F6F6666 
 15114      73657400 
 15115              	.LASF61:
 15116 00c4 63617272 		.ascii	"carry_count\000"
 15116      795F636F 
 15116      756E7400 
 15117              	.LASF8:
 15118 00d0 5F5F696E 		.ascii	"__int32_t\000"
 15118      7433325F 
 15118      7400
 15119              	.LASF139:
 15120 00da 73696465 		.ascii	"side\000"
 15120      00
 15121              	.LASF128:
 15122 00df 6C63335F 		.ascii	"lc3_get_bits\000"
 15122      6765745F 
 15122      62697473 
 15122      00
 15123              	.LASF76:
 15124 00ec 6C63335F 		.ascii	"lc3_tns_data_t\000"
 15124      746E735F 
 15124      64617461 
 15124      5F7400
 15125              	.LASF107:
 15126 00fb 6C63335F 		.ascii	"lc3_db_q16\000"
 15126      64625F71 
 15126      313600
 15127              	.LASF62:
 15128 0106 6572726F 		.ascii	"error\000"
 15128      7200
 15129              	.LASF68:
 15130 010c 6D6F6465 		.ascii	"mode\000"
 15130      00
 15131              	.LASF23:
ARM GAS  C:\Users\rdn\AppData\Local\Temp\ccYcaPXH.s 			page 303


 15132 0111 6C63335F 		.ascii	"lc3_dt\000"
 15132      647400
 15133              	.LASF168:
 15134 0118 6C63335F 		.ascii	"lc3_spec_decode\000"
 15134      73706563 
 15134      5F646563 
 15134      6F646500 
 15135              	.LASF30:
 15136 0128 4C43335F 		.ascii	"LC3_SRATE_48K_HR\000"
 15136      53524154 
 15136      455F3438 
 15136      4B5F4852 
 15136      00
 15137              	.LASF84:
 15138 0139 73725F69 		.ascii	"sr_ind\000"
 15138      6E6400
 15139              	.LASF171:
 15140 0140 6C63335F 		.ascii	"lc3_ns_4m\000"
 15140      6E735F34 
 15140      6D00
 15141              	.LASF180:
 15142 014a 6C63335F 		.ascii	"lc3_ac_write_renorm\000"
 15142      61635F77 
 15142      72697465 
 15142      5F72656E 
 15142      6F726D00 
 15143              	.LASF49:
 15144 015e 6C63335F 		.ascii	"lc3_bits_mode\000"
 15144      62697473 
 15144      5F6D6F64 
 15144      6500
 15145              	.LASF98:
 15146 016c 6E626974 		.ascii	"nbits_lsb\000"
 15146      735F6C73 
 15146      6200
 15147              	.LASF169:
 15148 0176 6C63335F 		.ascii	"lc3_ns_2m5\000"
 15148      6E735F32 
 15148      6D3500
 15149              	.LASF72:
 15150 0181 6C63335F 		.ascii	"lc3_tns_data\000"
 15150      746E735F 
 15150      64617461 
 15150      00
 15151              	.LASF78:
 15152 018e 675F6964 		.ascii	"g_idx\000"
 15152      7800
 15153              	.LASF80:
 15154 0194 6C63335F 		.ascii	"lc3_spec_side_t\000"
 15154      73706563 
 15154      5F736964 
 15154      655F7400 
 15155              	.LASF19:
 15156 01a4 4C43335F 		.ascii	"LC3_DT_5M\000"
 15156      44545F35 
 15156      4D00
 15157              	.LASF17:
ARM GAS  C:\Users\rdn\AppData\Local\Temp\ccYcaPXH.s 			page 304


 15158 01ae 75696E74 		.ascii	"uint32_t\000"
 15158      33325F74 
 15158      00
 15159              	.LASF106:
 15160 01b7 6C63335F 		.ascii	"lc3_ldexpf\000"
 15160      6C646578 
 15160      706600
 15161              	.LASF135:
 15162 01c2 66616374 		.ascii	"factor\000"
 15162      6F7200
 15163              	.LASF0:
 15164 01c9 666C6F61 		.ascii	"float\000"
 15164      7400
 15165              	.LASF100:
 15166 01cf 6E626974 		.ascii	"nbits_end\000"
 15166      735F656E 
 15166      6400
 15167              	.LASF93:
 15168 01d9 705F6C73 		.ascii	"p_lsb_mode\000"
 15168      625F6D6F 
 15168      646500
 15169              	.LASF60:
 15170 01e4 63617272 		.ascii	"carry\000"
 15170      7900
 15171              	.LASF175:
 15172 01ea 6C63335F 		.ascii	"lc3_spectrum_bits\000"
 15172      73706563 
 15172      7472756D 
 15172      5F626974 
 15172      7300
 15173              	.LASF166:
 15174 01fc 66696C6C 		.ascii	"fill_noise\000"
 15174      5F6E6F69 
 15174      736500
 15175              	.LASF13:
 15176 0207 6C6F6E67 		.ascii	"long long unsigned int\000"
 15176      206C6F6E 
 15176      6720756E 
 15176      7369676E 
 15176      65642069 
 15177              	.LASF96:
 15178 021e 68696768 		.ascii	"high_rate\000"
 15178      5F726174 
 15178      6500
 15179              	.LASF137:
 15180 0228 70697463 		.ascii	"pitch\000"
 15180      6800
 15181              	.LASF189:
 15182 022e 666D696E 		.ascii	"fminf\000"
 15182      6600
 15183              	.LASF167:
 15184 0234 6C63335F 		.ascii	"lc3_spec_get_side\000"
 15184      73706563 
 15184      5F676574 
 15184      5F736964 
 15184      6500
 15185              	.LASF6:
ARM GAS  C:\Users\rdn\AppData\Local\Temp\ccYcaPXH.s 			page 305


 15186 0246 5F5F7569 		.ascii	"__uint16_t\000"
 15186      6E743136 
 15186      5F7400
 15187              	.LASF124:
 15188 0251 6C63335F 		.ascii	"lc3_put_bit\000"
 15188      7075745F 
 15188      62697400 
 15189              	.LASF28:
 15190 025d 4C43335F 		.ascii	"LC3_SRATE_32K\000"
 15190      53524154 
 15190      455F3332 
 15190      4B00
 15191              	.LASF111:
 15192 026b 7265675F 		.ascii	"reg_bits\000"
 15192      62697473 
 15192      00
 15193              	.LASF22:
 15194 0274 4C43335F 		.ascii	"LC3_NUM_DT\000"
 15194      4E554D5F 
 15194      445400
 15195              	.LASF122:
 15196 027f 6C63335F 		.ascii	"lc3_put_bits\000"
 15196      7075745F 
 15196      62697473 
 15196      00
 15197              	.LASF113:
 15198 028c 78325F6D 		.ascii	"x2_max\000"
 15198      617800
 15199              	.LASF186:
 15200 0293 6C63335F 		.ascii	"lc3_ltpf_get_nbits\000"
 15200      6C747066 
 15200      5F676574 
 15200      5F6E6269 
 15200      747300
 15201              	.LASF181:
 15202 02a6 6C63335F 		.ascii	"lc3_get_bits_generic\000"
 15202      6765745F 
 15202      62697473 
 15202      5F67656E 
 15202      65726963 
 15203              	.LASF33:
 15204 02bb 5F426F6F 		.ascii	"_Bool\000"
 15204      6C00
 15205              	.LASF103:
 15206 02c1 78715F6F 		.ascii	"xq_off\000"
 15206      666600
 15207              	.LASF151:
 15208 02c8 78715F6C 		.ascii	"xq_lim\000"
 15208      696D00
 15209              	.LASF133:
 15210 02cf 675F6964 		.ascii	"g_idx_min\000"
 15210      785F6D69 
 15210      6E00
 15211              	.LASF71:
 15212 02d9 6C63335F 		.ascii	"lc3_bits_t\000"
 15212      62697473 
 15212      5F7400
ARM GAS  C:\Users\rdn\AppData\Local\Temp\ccYcaPXH.s 			page 306


 15213              	.LASF112:
 15214 02e4 6C6F775F 		.ascii	"low_bits\000"
 15214      62697473 
 15214      00
 15215              	.LASF193:
 15216 02ed 2E2E5C2E 		.ascii	"..\\..\\..\\liblc3\\src\\spec.c\000"
 15216      2E5C2E2E 
 15216      5C6C6962 
 15216      6C63335C 
 15216      7372635C 
 15217              	.LASF81:
 15218 0308 6C63335F 		.ascii	"lc3_hr\000"
 15218      687200
 15219              	.LASF163:
 15220 030f 78715F6F 		.ascii	"xq_off_1\000"
 15220      66665F31 
 15220      00
 15221              	.LASF164:
 15222 0318 78715F6F 		.ascii	"xq_off_2\000"
 15222      66665F32 
 15222      00
 15223              	.LASF69:
 15224 0321 61636375 		.ascii	"accu\000"
 15224      00
 15225              	.LASF38:
 15226 0326 63686172 		.ascii	"char\000"
 15226      00
 15227              	.LASF56:
 15228 032b 6C63335F 		.ascii	"lc3_bits_accu\000"
 15228      62697473 
 15228      5F616363 
 15228      7500
 15229              	.LASF36:
 15230 0339 6E626974 		.ascii	"nbits_spare\000"
 15230      735F7370 
 15230      61726500 
 15231              	.LASF194:
 15232 0345 433A5C55 		.ascii	"C:\\Users\\rdn\\Documents\\PSoC Creator\\SEES\\ble_"
 15232      73657273 
 15232      5C72646E 
 15232      5C446F63 
 15232      756D656E 
 15233 0372 74657374 		.ascii	"test.cydsn\000"
 15233      2E637964 
 15233      736E00
 15234              	.LASF57:
 15235 037d 6E6F7665 		.ascii	"nover\000"
 15235      7200
 15236              	.LASF41:
 15237 0383 4C43335F 		.ascii	"LC3_BANDWIDTH_NB\000"
 15237      42414E44 
 15237      57494454 
 15237      485F4E42 
 15237      00
 15238              	.LASF187:
 15239 0394 6C63335F 		.ascii	"lc3_sns_get_nbits\000"
 15239      736E735F 
ARM GAS  C:\Users\rdn\AppData\Local\Temp\ccYcaPXH.s 			page 307


 15239      6765745F 
 15239      6E626974 
 15239      7300
 15240              	.LASF14:
 15241 03a6 75696E74 		.ascii	"uint8_t\000"
 15241      385F7400 
 15242              	.LASF144:
 15243 03ae 6C63335F 		.ascii	"lc3_spec_put_side\000"
 15243      73706563 
 15243      5F707574 
 15243      5F736964 
 15243      6500
 15244              	.LASF142:
 15245 03c0 675F6164 		.ascii	"g_adj\000"
 15245      6A00
 15246              	.LASF66:
 15247 03c6 705F6277 		.ascii	"p_bw\000"
 15247      00
 15248              	.LASF123:
 15249 03cb 62697473 		.ascii	"bits\000"
 15249      00
 15250              	.LASF149:
 15251 03d0 68726D6F 		.ascii	"hrmode\000"
 15251      646500
 15252              	.LASF141:
 15253 03d7 6E626974 		.ascii	"nbits_nf\000"
 15253      735F6E66 
 15253      00
 15254              	.LASF173:
 15255 03e0 6C63335F 		.ascii	"lc3_spectrum_lookup\000"
 15255      73706563 
 15255      7472756D 
 15255      5F6C6F6F 
 15255      6B757000 
 15256              	.LASF12:
 15257 03f4 6C6F6E67 		.ascii	"long long int\000"
 15257      206C6F6E 
 15257      6720696E 
 15257      7400
 15258              	.LASF95:
 15259 0402 6E626974 		.ascii	"nbits_budget\000"
 15259      735F6275 
 15259      64676574 
 15259      00
 15260              	.LASF145:
 15261 040f 6E626974 		.ascii	"nbits_nq\000"
 15261      735F6E71 
 15261      00
 15262              	.LASF53:
 15263 0418 6C63335F 		.ascii	"lc3_ac_symbol\000"
 15263      61635F73 
 15263      796D626F 
 15263      6C00
 15264              	.LASF129:
 15265 0426 6C63335F 		.ascii	"lc3_get_bit\000"
 15265      6765745F 
 15265      62697400 
ARM GAS  C:\Users\rdn\AppData\Local\Temp\ccYcaPXH.s 			page 308


 15266              	.LASF35:
 15267 0432 6E626974 		.ascii	"nbits_off\000"
 15267      735F6F66 
 15267      6600
 15268              	.LASF108:
 15269 043c 65737469 		.ascii	"estimate_gain\000"
 15269      6D617465 
 15269      5F676169 
 15269      6E00
 15270              	.LASF97:
 15271 044a 6E626974 		.ascii	"nbits\000"
 15271      7300
 15272              	.LASF44:
 15273 0450 4C43335F 		.ascii	"LC3_BANDWIDTH_SWB\000"
 15273      42414E44 
 15273      57494454 
 15273      485F5357 
 15273      4200
 15274              	.LASF159:
 15275 0462 6D61785F 		.ascii	"max_shl\000"
 15275      73686C00 
 15276              	.LASF183:
 15277 046a 6D656D73 		.ascii	"memset\000"
 15277      657400
 15278              	.LASF83:
 15279 0471 6E627974 		.ascii	"nbytes\000"
 15279      657300
 15280              	.LASF160:
 15281 0478 6765745F 		.ascii	"get_noise_factor\000"
 15281      6E6F6973 
 15281      655F6661 
 15281      63746F72 
 15281      00
 15282              	.LASF54:
 15283 0489 72616E67 		.ascii	"range\000"
 15283      6500
 15284              	.LASF182:
 15285 048f 6C63335F 		.ascii	"lc3_ac_read_renorm\000"
 15285      61635F72 
 15285      6561645F 
 15285      72656E6F 
 15285      726D00
 15286              	.LASF119:
 15287 04a2 7265675F 		.ascii	"reg_c\000"
 15287      6300
 15288              	.LASF148:
 15289 04a8 65737469 		.ascii	"estimate_noise\000"
 15289      6D617465 
 15289      5F6E6F69 
 15289      736500
 15290              	.LASF125:
 15291 04b7 6C63335F 		.ascii	"lc3_put_symbol\000"
 15291      7075745F 
 15291      73796D62 
 15291      6F6C00
 15292              	.LASF158:
 15293 04c6 6E665F73 		.ascii	"nf_seed\000"
ARM GAS  C:\Users\rdn\AppData\Local\Temp\ccYcaPXH.s 			page 309


 15293      65656400 
 15294              	.LASF179:
 15295 04ce 6C63335F 		.ascii	"lc3_put_bits_generic\000"
 15295      7075745F 
 15295      62697473 
 15295      5F67656E 
 15295      65726963 
 15296              	.LASF152:
 15297 04e3 7075745F 		.ascii	"put_lsb\000"
 15297      6C736200 
 15298              	.LASF176:
 15299 04eb 726F756E 		.ascii	"roundf\000"
 15299      646600
 15300              	.LASF136:
 15301 04f2 675F696E 		.ascii	"g_incr\000"
 15301      637200
 15302              	.LASF47:
 15303 04f9 4C43335F 		.ascii	"LC3_BANDWIDTH_UB_HR\000"
 15303      42414E44 
 15303      57494454 
 15303      485F5542 
 15303      5F485200 
 15304              	.LASF59:
 15305 050d 63616368 		.ascii	"cache\000"
 15305      6500
 15306              	.LASF77:
 15307 0513 6C63335F 		.ascii	"lc3_spec_side\000"
 15307      73706563 
 15307      5F736964 
 15307      6500
 15308              	.LASF67:
 15309 0521 6C63335F 		.ascii	"lc3_bits\000"
 15309      62697473 
 15309      00
 15310              	.LASF140:
 15311 052a 6E626974 		.ascii	"nbits_gain\000"
 15311      735F6761 
 15311      696E00
 15312              	.LASF79:
 15313 0535 6C73625F 		.ascii	"lsb_mode\000"
 15313      6D6F6465 
 15313      00
 15314              	.LASF37:
 15315 053e 6C6F6E67 		.ascii	"long double\000"
 15315      20646F75 
 15315      626C6500 
 15316              	.LASF104:
 15317 054a 6765745F 		.ascii	"get_nbits_nq\000"
 15317      6E626974 
 15317      735F6E71 
 15317      00
 15318              	.LASF15:
 15319 0557 75696E74 		.ascii	"uint16_t\000"
 15319      31365F74 
 15319      00
 15320              	.LASF117:
 15321 0560 6B5F3175 		.ascii	"k_1u4\000"
ARM GAS  C:\Users\rdn\AppData\Local\Temp\ccYcaPXH.s 			page 310


 15321      3400
 15322              	.LASF120:
 15323 0566 655F6469 		.ascii	"e_diff\000"
 15323      666600
 15324              	.LASF92:
 15325 056d 7265736F 		.ascii	"resolve_modes\000"
 15325      6C76655F 
 15325      6D6F6465 
 15325      7300
 15326              	.LASF32:
 15327 057b 4C43335F 		.ascii	"LC3_NUM_SRATE\000"
 15327      4E554D5F 
 15327      53524154 
 15327      4500
 15328              	.LASF127:
 15329 0589 73796D62 		.ascii	"symbols\000"
 15329      6F6C7300 
 15330              	.LASF147:
 15331 0591 7075745F 		.ascii	"put_noise_factor\000"
 15331      6E6F6973 
 15331      655F6661 
 15331      63746F72 
 15331      00
 15332              	.LASF20:
 15333 05a2 4C43335F 		.ascii	"LC3_DT_7M5\000"
 15333      44545F37 
 15333      4D3500
 15334              	.LASF118:
 15335 05ad 785F6C69 		.ascii	"x_lim\000"
 15335      6D00
 15336              	.LASF4:
 15337 05b3 73686F72 		.ascii	"short int\000"
 15337      7420696E 
 15337      7400
 15338              	.LASF18:
 15339 05bd 4C43335F 		.ascii	"LC3_DT_2M5\000"
 15339      44545F32 
 15339      4D3500
 15340              	.LASF89:
 15341 05c8 69715F74 		.ascii	"iq_table\000"
 15341      61626C65 
 15341      00
 15342              	.LASF85:
 15343 05d1 675F6F66 		.ascii	"g_off\000"
 15343      6600
 15344              	.LASF9:
 15345 05d7 6C6F6E67 		.ascii	"long int\000"
 15345      20696E74 
 15345      00
 15346              	.LASF87:
 15347 05e0 756E7175 		.ascii	"unquantize_gain\000"
 15347      616E7469 
 15347      7A655F67 
 15347      61696E00 
 15348              	.LASF174:
 15349 05f0 6C63335F 		.ascii	"lc3_spectrum_models\000"
 15349      73706563 
ARM GAS  C:\Users\rdn\AppData\Local\Temp\ccYcaPXH.s 			page 311


 15349      7472756D 
 15349      5F6D6F64 
 15349      656C7300 
 15350              	.LASF192:
 15351 0604 474E5520 		.ascii	"GNU C11 5.4.1 20160609 (release) [ARM/embedded-5-br"
 15351      43313120 
 15351      352E342E 
 15351      31203230 
 15351      31363036 
 15352 0637 616E6368 		.ascii	"anch revision 237715] -mcpu=cortex-m4 -mfloat-abi=s"
 15352      20726576 
 15352      6973696F 
 15352      6E203233 
 15352      37373135 
 15353 066a 6F667466 		.ascii	"oftfp -mfpu=fpv4-sp-d16 -mthumb -g -Os -ffunction-s"
 15353      70202D6D 
 15353      6670753D 
 15353      66707634 
 15353      2D73702D 
 15354 069d 65637469 		.ascii	"ections -ffat-lto-objects\000"
 15354      6F6E7320 
 15354      2D666661 
 15354      742D6C74 
 15354      6F2D6F62 
 15355              	.LASF55:
 15356 06b7 6C63335F 		.ascii	"lc3_ac_model\000"
 15356      61635F6D 
 15356      6F64656C 
 15356      00
 15357              	.LASF155:
 15358 06c4 6C63335F 		.ascii	"lc3_spec_encode\000"
 15358      73706563 
 15358      5F656E63 
 15358      6F646500 
 15359              	.LASF190:
 15360 06d4 7472756E 		.ascii	"truncf\000"
 15360      636600
 15361              	.LASF177:
 15362 06db 666D6178 		.ascii	"fmaxf\000"
 15362      6600
 15363              	.LASF51:
 15364 06e1 4C43335F 		.ascii	"LC3_BITS_MODE_WRITE\000"
 15364      42495453 
 15364      5F4D4F44 
 15364      455F5752 
 15364      49544500 
 15365              	.LASF5:
 15366 06f5 5F5F7569 		.ascii	"__uint8_t\000"
 15366      6E74385F 
 15366      7400
 15367              	.LASF121:
 15368 06ff 7175616E 		.ascii	"quantize\000"
 15368      74697A65 
 15368      00
 15369              	.LASF102:
 15370 0708 6C75745F 		.ascii	"lut_coeff\000"
 15370      636F6566 
ARM GAS  C:\Users\rdn\AppData\Local\Temp\ccYcaPXH.s 			page 312


 15370      6600
 15371              	.LASF64:
 15372 0712 73746172 		.ascii	"start\000"
 15372      7400
 15373              	.LASF26:
 15374 0718 4C43335F 		.ascii	"LC3_SRATE_16K\000"
 15374      53524154 
 15374      455F3136 
 15374      4B00
 15375              	.LASF110:
 15376 0726 675F6D69 		.ascii	"g_min\000"
 15376      6E00
 15377              	.LASF91:
 15378 072c 78715F6D 		.ascii	"xq_min\000"
 15378      696E00
 15379              	.LASF21:
 15380 0733 4C43335F 		.ascii	"LC3_DT_10M\000"
 15380      44545F31 
 15380      304D00
 15381              	.LASF73:
 15382 073e 6E66696C 		.ascii	"nfilters\000"
 15382      74657273 
 15382      00
 15383              	.LASF74:
 15384 0747 6C70635F 		.ascii	"lpc_weighting\000"
 15384      77656967 
 15384      6874696E 
 15384      6700
 15385              	.LASF43:
 15386 0755 4C43335F 		.ascii	"LC3_BANDWIDTH_SSWB\000"
 15386      42414E44 
 15386      57494454 
 15386      485F5353 
 15386      574200
 15387              	.LASF34:
 15388 0768 73697A65 		.ascii	"sizetype\000"
 15388      74797065 
 15388      00
 15389              	.LASF82:
 15390 0771 6C63335F 		.ascii	"lc3_ne\000"
 15390      6E6500
 15391              	.LASF11:
 15392 0778 6C6F6E67 		.ascii	"long unsigned int\000"
 15392      20756E73 
 15392      69676E65 
 15392      6420696E 
 15392      7400
 15393              	.LASF132:
 15394 078a 61646A75 		.ascii	"adjust_gain\000"
 15394      73745F67 
 15394      61696E00 
 15395              	.LASF105:
 15396 0796 6C63335F 		.ascii	"lc3_exp2f\000"
 15396      65787032 
 15396      6600
 15397              	.LASF101:
 15398 07a0 6E5F656E 		.ascii	"n_end\000"
ARM GAS  C:\Users\rdn\AppData\Local\Temp\ccYcaPXH.s 			page 313


 15398      6400
 15399              	.LASF16:
 15400 07a6 696E7433 		.ascii	"int32_t\000"
 15400      325F7400 
 15401              	.LASF114:
 15402 07ae 785F6D61 		.ascii	"x_max\000"
 15402      7800
 15403              	.LASF24:
 15404 07b4 6C63335F 		.ascii	"lc3_srate\000"
 15404      73726174 
 15404      6500
 15405              	.LASF52:
 15406 07be 6C63335F 		.ascii	"lc3_spec_analysis\000"
 15406      73706563 
 15406      5F616E61 
 15406      6C797369 
 15406      7300
 15407              	.LASF3:
 15408 07d0 756E7369 		.ascii	"unsigned char\000"
 15408      676E6564 
 15408      20636861 
 15408      7200
 15409              	.LASF162:
 15410 07de 6765745F 		.ascii	"get_residual\000"
 15410      72657369 
 15410      6475616C 
 15410      00
 15411              	.LASF10:
 15412 07eb 5F5F7569 		.ascii	"__uint32_t\000"
 15412      6E743332 
 15412      5F7400
 15413              	.LASF88:
 15414 07f6 675F696E 		.ascii	"g_int\000"
 15414      7400
 15415              	.LASF90:
 15416 07fc 675F696E 		.ascii	"g_inv\000"
 15416      7600
 15417              	.LASF40:
 15418 0802 6C63335F 		.ascii	"lc3_bandwidth\000"
 15418      62616E64 
 15418      77696474 
 15418      6800
 15419              	.LASF150:
 15420 0810 62775F73 		.ascii	"bw_stop\000"
 15420      746F7000 
 15421              	.LASF50:
 15422 0818 4C43335F 		.ascii	"LC3_BITS_MODE_READ\000"
 15422      42495453 
 15422      5F4D4F44 
 15422      455F5245 
 15422      414400
 15423              	.LASF99:
 15424 082b 73746174 		.ascii	"state\000"
 15424      6500
 15425              	.LASF178:
 15426 0831 73717274 		.ascii	"sqrtf\000"
 15426      6600
ARM GAS  C:\Users\rdn\AppData\Local\Temp\ccYcaPXH.s 			page 314


 15427              	.LASF154:
 15428 0837 69746572 		.ascii	"iter\000"
 15428      00
 15429              	.LASF156:
 15430 083c 6E626974 		.ascii	"nbits_left\000"
 15430      735F6C65 
 15430      667400
 15431              	.LASF191:
 15432 0847 6C63335F 		.ascii	"lc3_get_bits_left\000"
 15432      6765745F 
 15432      62697473 
 15432      5F6C6566 
 15432      7400
 15433              	.LASF165:
 15434 0859 756E7175 		.ascii	"unquantize\000"
 15434      616E7469 
 15434      7A6500
 15435              	.LASF25:
 15436 0864 4C43335F 		.ascii	"LC3_SRATE_8K\000"
 15436      53524154 
 15436      455F384B 
 15436      00
 15437              	.LASF2:
 15438 0871 7369676E 		.ascii	"signed char\000"
 15438      65642063 
 15438      68617200 
 15439              	.LASF134:
 15440 087d 64656C74 		.ascii	"delta\000"
 15440      6100
 15441              	.LASF7:
 15442 0883 73686F72 		.ascii	"short unsigned int\000"
 15442      7420756E 
 15442      7369676E 
 15442      65642069 
 15442      6E7400
 15443              	.LASF153:
 15444 0896 7075745F 		.ascii	"put_residual\000"
 15444      72657369 
 15444      6475616C 
 15444      00
 15445              	.LASF184:
 15446 08a3 6D656D63 		.ascii	"memcpy\000"
 15446      707900
 15447              	.LASF45:
 15448 08aa 4C43335F 		.ascii	"LC3_BANDWIDTH_FB\000"
 15448      42414E44 
 15448      57494454 
 15448      485F4642 
 15448      00
 15449              	.LASF161:
 15450 08bb 6765745F 		.ascii	"get_lsb\000"
 15450      6C736200 
 15451              	.LASF48:
 15452 08c3 4C43335F 		.ascii	"LC3_NUM_BANDWIDTH\000"
 15452      4E554D5F 
 15452      42414E44 
 15452      57494454 
ARM GAS  C:\Users\rdn\AppData\Local\Temp\ccYcaPXH.s 			page 315


 15452      4800
 15453              	.LASF109:
 15454 08d5 72657365 		.ascii	"reset_off\000"
 15454      745F6F66 
 15454      6600
 15455              	.LASF130:
 15456 08df 6C63335F 		.ascii	"lc3_get_symbol\000"
 15456      6765745F 
 15456      73796D62 
 15456      6F6C00
 15457              	.LASF143:
 15458 08ee 6C63335F 		.ascii	"lc3_spec_analyze\000"
 15458      73706563 
 15458      5F616E61 
 15458      6C797A65 
 15458      00
 15459              	.LASF185:
 15460 08ff 6C63335F 		.ascii	"lc3_bwdet_get_nbits\000"
 15460      62776465 
 15460      745F6765 
 15460      745F6E62 
 15460      69747300 
 15461              	.LASF39:
 15462 0913 646F7562 		.ascii	"double\000"
 15462      6C6500
 15463              	.LASF31:
 15464 091a 4C43335F 		.ascii	"LC3_SRATE_96K_HR\000"
 15464      53524154 
 15464      455F3936 
 15464      4B5F4852 
 15464      00
 15465              	.LASF58:
 15466 092b 6C63335F 		.ascii	"lc3_bits_ac\000"
 15466      62697473 
 15466      5F616300 
 15467              	.LASF172:
 15468 0937 6C63335F 		.ascii	"lc3_frame_bytes_hr_lim\000"
 15468      6672616D 
 15468      655F6279 
 15468      7465735F 
 15468      68725F6C 
 15469              	.LASF138:
 15470 094e 73706563 		.ascii	"spec\000"
 15470      00
 15471              	.LASF94:
 15472 0953 636F6D70 		.ascii	"compute_nbits\000"
 15472      7574655F 
 15472      6E626974 
 15472      7300
 15473              	.LASF126:
 15474 0961 6D6F6465 		.ascii	"model\000"
 15474      6C00
 15475              	.LASF188:
 15476 0967 6C63335F 		.ascii	"lc3_tns_get_nbits\000"
 15476      746E735F 
 15476      6765745F 
 15476      6E626974 
ARM GAS  C:\Users\rdn\AppData\Local\Temp\ccYcaPXH.s 			page 316


 15476      7300
 15477              	.LASF65:
 15478 0979 705F6677 		.ascii	"p_fw\000"
 15478      00
 15479              		.ident	"GCC: (GNU Tools for ARM Embedded Processors) 5.4.1 20160609 (release) [ARM/embedded-5-bran
