ARM GAS  C:\Users\rdn\AppData\Local\Temp\ccYcaPXH.s 			page 1


   1              		.syntax unified
   2              		.cpu cortex-m4
   3              		.eabi_attribute 27, 1
   4              		.fpu fpv4-sp-d16
   5              		.eabi_attribute 20, 1
   6              		.eabi_attribute 21, 1
   7              		.eabi_attribute 23, 3
   8              		.eabi_attribute 24, 1
   9              		.eabi_attribute 25, 1
  10              		.eabi_attribute 26, 1
  11              		.eabi_attribute 30, 4
  12              		.eabi_attribute 34, 1
  13              		.eabi_attribute 18, 4
  14              		.thumb
  15              		.syntax unified
  16              		.file	"spec.c"
  17              		.text
  18              	.Ltext0:
  19              		.cfi_sections	.debug_frame
  20              		.section	.text.resolve_gain_offset,"ax",%progbits
  21              		.align	1
  22              		.thumb
  23              		.thumb_func
  24              		.type	resolve_gain_offset, %function
  25              	resolve_gain_offset:
  26              	.LFB20:
  27              		.file 1 "..\\..\\..\\liblc3\\src\\spec.c"
   1:..\..\..\liblc3\src/spec.c **** /******************************************************************************
   2:..\..\..\liblc3\src/spec.c ****  *
   3:..\..\..\liblc3\src/spec.c ****  *  Copyright 2022 Google LLC
   4:..\..\..\liblc3\src/spec.c ****  *
   5:..\..\..\liblc3\src/spec.c ****  *  Licensed under the Apache License, Version 2.0 (the "License");
   6:..\..\..\liblc3\src/spec.c ****  *  you may not use this file except in compliance with the License.
   7:..\..\..\liblc3\src/spec.c ****  *  You may obtain a copy of the License at:
   8:..\..\..\liblc3\src/spec.c ****  *
   9:..\..\..\liblc3\src/spec.c ****  *  http://www.apache.org/licenses/LICENSE-2.0
  10:..\..\..\liblc3\src/spec.c ****  *
  11:..\..\..\liblc3\src/spec.c ****  *  Unless required by applicable law or agreed to in writing, software
  12:..\..\..\liblc3\src/spec.c ****  *  distributed under the License is distributed on an "AS IS" BASIS,
  13:..\..\..\liblc3\src/spec.c ****  *  WITHOUT WARRANTIES OR CONDITIONS OF ANY KIND, either express or implied.
  14:..\..\..\liblc3\src/spec.c ****  *  See the License for the specific language governing permissions and
  15:..\..\..\liblc3\src/spec.c ****  *  limitations under the License.
  16:..\..\..\liblc3\src/spec.c ****  *
  17:..\..\..\liblc3\src/spec.c ****  ******************************************************************************/
  18:..\..\..\liblc3\src/spec.c **** 
  19:..\..\..\liblc3\src/spec.c **** #include "spec.h"
  20:..\..\..\liblc3\src/spec.c **** #include "bits.h"
  21:..\..\..\liblc3\src/spec.c **** #include "tables.h"
  22:..\..\..\liblc3\src/spec.c **** 
  23:..\..\..\liblc3\src/spec.c **** 
  24:..\..\..\liblc3\src/spec.c **** /* ----------------------------------------------------------------------------
  25:..\..\..\liblc3\src/spec.c ****  *  Global Gain / Quantization
  26:..\..\..\liblc3\src/spec.c ****  * -------------------------------------------------------------------------- */
  27:..\..\..\liblc3\src/spec.c **** 
  28:..\..\..\liblc3\src/spec.c **** /**
  29:..\..\..\liblc3\src/spec.c ****  * Resolve quantized gain index offset
  30:..\..\..\liblc3\src/spec.c ****  * sr, nbytes      Samplerate and size of the frame
ARM GAS  C:\Users\rdn\AppData\Local\Temp\ccYcaPXH.s 			page 2


  31:..\..\..\liblc3\src/spec.c ****  * return          Gain index offset
  32:..\..\..\liblc3\src/spec.c ****  */
  33:..\..\..\liblc3\src/spec.c **** static int resolve_gain_offset(enum lc3_srate sr, int nbytes)
  34:..\..\..\liblc3\src/spec.c **** {
  28              		.loc 1 34 0
  29              		.cfi_startproc
  30              		@ args = 0, pretend = 0, frame = 0
  31              		@ frame_needed = 0, uses_anonymous_args = 0
  32              		@ link register save eliminated.
  33              	.LVL0:
  35:..\..\..\liblc3\src/spec.c ****     int sr_ind = lc3_hr(sr) ? 4 + (sr - LC3_SRATE_48K_HR) : sr;
  34              		.loc 1 35 0
  35 0000 0428     		cmp	r0, #4
  36 0002 8CBF     		ite	hi
  37 0004 00F1FF33 		addhi	r3, r0, #-1
  38 0008 0346     		movls	r3, r0
  39              	.LVL1:
  36:..\..\..\liblc3\src/spec.c **** 
  37:..\..\..\liblc3\src/spec.c ****     int g_off = (nbytes * 8) / (10 * (1 + sr_ind));
  40              		.loc 1 37 0
  41 000a 0133     		adds	r3, r3, #1
  42              	.LVL2:
  38:..\..\..\liblc3\src/spec.c ****     return LC3_MIN(sr >= LC3_SRATE_96K_HR ? 181 : 255,
  43              		.loc 1 38 0
  44 000c 0A22     		movs	r2, #10
  45 000e 5A43     		muls	r2, r3, r2
  46 0010 03EB8303 		add	r3, r3, r3, lsl #2
  47              	.LVL3:
  48 0014 6933     		adds	r3, r3, #105
  49 0016 C900     		lsls	r1, r1, #3
  50              	.LVL4:
  51 0018 91FBF2F1 		sdiv	r1, r1, r2
  52              	.LVL5:
  53 001c 7329     		cmp	r1, #115
  54 001e D4BF     		ite	le
  55 0020 5B18     		addle	r3, r3, r1
  56 0022 7333     		addgt	r3, r3, #115
  57 0024 0528     		cmp	r0, #5
  58 0026 8CBF     		ite	hi
  59 0028 B520     		movhi	r0, #181
  60              	.LVL6:
  61 002a FF20     		movls	r0, #255
  39:..\..\..\liblc3\src/spec.c ****         105 + 5*(1 + sr_ind) + LC3_MIN(g_off, 115));
  40:..\..\..\liblc3\src/spec.c **** }
  62              		.loc 1 40 0
  63 002c 9842     		cmp	r0, r3
  64 002e A8BF     		it	ge
  65 0030 1846     		movge	r0, r3
  66 0032 7047     		bx	lr
  67              		.cfi_endproc
  68              	.LFE20:
  69              		.size	resolve_gain_offset, .-resolve_gain_offset
  70              		.section	.text.unquantize_gain,"ax",%progbits
  71              		.align	1
  72              		.thumb
  73              		.thumb_func
  74              		.type	unquantize_gain, %function
ARM GAS  C:\Users\rdn\AppData\Local\Temp\ccYcaPXH.s 			page 3


  75              	unquantize_gain:
  76              	.LFB21:
  41:..\..\..\liblc3\src/spec.c **** 
  42:..\..\..\liblc3\src/spec.c **** /**
  43:..\..\..\liblc3\src/spec.c ****  * Unquantize gain
  44:..\..\..\liblc3\src/spec.c ****  * g_int           Quantization gain value
  45:..\..\..\liblc3\src/spec.c ****  * return          Unquantized gain value
  46:..\..\..\liblc3\src/spec.c ****  */
  47:..\..\..\liblc3\src/spec.c **** static float unquantize_gain(int g_int)
  48:..\..\..\liblc3\src/spec.c **** {
  77              		.loc 1 48 0
  78              		.cfi_startproc
  79              		@ args = 0, pretend = 0, frame = 0
  80              		@ frame_needed = 0, uses_anonymous_args = 0
  81              		@ link register save eliminated.
  82              	.LVL7:
  49:..\..\..\liblc3\src/spec.c ****     /* Unquantization gain table :
  50:..\..\..\liblc3\src/spec.c ****      * G[i] = 10 ^ (i / 28) , i = [0..27] */
  51:..\..\..\liblc3\src/spec.c **** 
  52:..\..\..\liblc3\src/spec.c ****     static const float iq_table[] = {
  53:..\..\..\liblc3\src/spec.c ****         1.00000000e+00, 1.08571112e+00, 1.17876863e+00, 1.27980221e+00,
  54:..\..\..\liblc3\src/spec.c ****         1.38949549e+00, 1.50859071e+00, 1.63789371e+00, 1.77827941e+00,
  55:..\..\..\liblc3\src/spec.c ****         1.93069773e+00, 2.09617999e+00, 2.27584593e+00, 2.47091123e+00,
  56:..\..\..\liblc3\src/spec.c ****         2.68269580e+00, 2.91263265e+00, 3.16227766e+00, 3.43332002e+00,
  57:..\..\..\liblc3\src/spec.c ****         3.72759372e+00, 4.04708995e+00, 4.39397056e+00, 4.77058270e+00,
  58:..\..\..\liblc3\src/spec.c ****         5.17947468e+00, 5.62341325e+00, 6.10540230e+00, 6.62870316e+00,
  59:..\..\..\liblc3\src/spec.c ****         7.19685673e+00, 7.81370738e+00, 8.48342898e+00, 9.21055318e+00
  60:..\..\..\liblc3\src/spec.c ****     };
  61:..\..\..\liblc3\src/spec.c **** 
  62:..\..\..\liblc3\src/spec.c ****     float g = 1.f;
  63:..\..\..\liblc3\src/spec.c **** 
  64:..\..\..\liblc3\src/spec.c ****     for ( ; g_int <   0; g_int += 28, g *= 0.1f);
  83              		.loc 1 64 0
  84 0000 9FED0C7A 		vldr.32	s14, .L14
  62:..\..\..\liblc3\src/spec.c **** 
  85              		.loc 1 62 0
  86 0004 F7EE007A 		vmov.f32	s15, #1.0e+0
  87              	.LVL8:
  88              	.L7:
  89              		.loc 1 64 0 discriminator 1
  90 0008 0028     		cmp	r0, #0
  91 000a 03DA     		bge	.L12
  92              		.loc 1 64 0 is_stmt 0 discriminator 2
  93 000c 1C30     		adds	r0, r0, #28
  94              	.LVL9:
  95 000e 67EE877A 		vmul.f32	s15, s15, s14
  96              	.LVL10:
  97 0012 F9E7     		b	.L7
  98              	.L12:
  65:..\..\..\liblc3\src/spec.c ****     for ( ; g_int >= 28; g_int -= 28, g *= 10.f);
  99              		.loc 1 65 0 is_stmt 1 discriminator 1
 100 0014 B2EE047A 		vmov.f32	s14, #1.0e+1
 101              	.L9:
 102 0018 1B28     		cmp	r0, #27
 103 001a 03DD     		ble	.L13
 104              		.loc 1 65 0 is_stmt 0 discriminator 2
 105 001c 1C38     		subs	r0, r0, #28
ARM GAS  C:\Users\rdn\AppData\Local\Temp\ccYcaPXH.s 			page 4


 106              	.LVL11:
 107 001e 67EE877A 		vmul.f32	s15, s15, s14
 108              	.LVL12:
 109 0022 F9E7     		b	.L9
 110              	.L13:
  66:..\..\..\liblc3\src/spec.c **** 
  67:..\..\..\liblc3\src/spec.c ****     return g * iq_table[g_int];
 111              		.loc 1 67 0 is_stmt 1
 112 0024 044B     		ldr	r3, .L14+4
 113 0026 03EB8000 		add	r0, r3, r0, lsl #2
 114              	.LVL13:
 115 002a 90ED000A 		vldr.32	s0, [r0]
  68:..\..\..\liblc3\src/spec.c **** }
 116              		.loc 1 68 0
 117 002e 27EE800A 		vmul.f32	s0, s15, s0
 118 0032 7047     		bx	lr
 119              	.L15:
 120              		.align	2
 121              	.L14:
 122 0034 CDCCCC3D 		.word	1036831949
 123 0038 00000000 		.word	.LANCHOR0
 124              		.cfi_endproc
 125              	.LFE21:
 126              		.size	unquantize_gain, .-unquantize_gain
 127              		.section	.text.quantize,"ax",%progbits
 128              		.align	1
 129              		.thumb
 130              		.thumb_func
 131              		.type	quantize, %function
 132              	quantize:
 133              	.LFB24:
  69:..\..\..\liblc3\src/spec.c **** 
  70:..\..\..\liblc3\src/spec.c **** /**
  71:..\..\..\liblc3\src/spec.c ****  * Global Gain Estimation
  72:..\..\..\liblc3\src/spec.c ****  * dt, sr          Duration and samplerate of the frame
  73:..\..\..\liblc3\src/spec.c ****  * x               Spectral coefficients
  74:..\..\..\liblc3\src/spec.c ****  * nbytes          Size of the frame
  75:..\..\..\liblc3\src/spec.c ****  * nbits_budget    Number of bits available coding the spectrum
  76:..\..\..\liblc3\src/spec.c ****  * nbits_off       Offset on the available bits, temporarily smoothed
  77:..\..\..\liblc3\src/spec.c ****  * g_off           Gain index offset
  78:..\..\..\liblc3\src/spec.c ****  * reset_off       Return True when the nbits_off must be reset
  79:..\..\..\liblc3\src/spec.c ****  * g_min           Return lower bound of quantized gain value
  80:..\..\..\liblc3\src/spec.c ****  * return          The quantized gain value
  81:..\..\..\liblc3\src/spec.c ****  */
  82:..\..\..\liblc3\src/spec.c **** LC3_HOT static int estimate_gain(
  83:..\..\..\liblc3\src/spec.c ****     enum lc3_dt dt, enum lc3_srate sr, const float *x,
  84:..\..\..\liblc3\src/spec.c ****     int nbytes, int nbits_budget, float nbits_off, int g_off,
  85:..\..\..\liblc3\src/spec.c ****     bool *reset_off, int *g_min)
  86:..\..\..\liblc3\src/spec.c **** {
  87:..\..\..\liblc3\src/spec.c ****     int n4 = lc3_ne(dt, sr) / 4;
  88:..\..\..\liblc3\src/spec.c ****     union { float f; int32_t q16; } e[LC3_MAX_NE / 4];
  89:..\..\..\liblc3\src/spec.c **** 
  90:..\..\..\liblc3\src/spec.c ****     /* --- Signal adaptative noise floor --- */
  91:..\..\..\liblc3\src/spec.c **** 
  92:..\..\..\liblc3\src/spec.c ****     int reg_bits = 0;
  93:..\..\..\liblc3\src/spec.c ****     float low_bits = 0;
  94:..\..\..\liblc3\src/spec.c **** 
ARM GAS  C:\Users\rdn\AppData\Local\Temp\ccYcaPXH.s 			page 5


  95:..\..\..\liblc3\src/spec.c ****     if (lc3_hr(sr)) {
  96:..\..\..\liblc3\src/spec.c ****         int reg_c = (const int [LC3_NUM_DT][LC3_NUM_SRATE - LC3_SRATE_48K_HR]){
  97:..\..\..\liblc3\src/spec.c ****             [LC3_DT_2M5] = { -6, -6 },
  98:..\..\..\liblc3\src/spec.c ****             [LC3_DT_5M ] = {  0,  0 },
  99:..\..\..\liblc3\src/spec.c ****             [LC3_DT_10M] = {  2,  5 }
 100:..\..\..\liblc3\src/spec.c ****         }[dt][sr - LC3_SRATE_48K_HR];
 101:..\..\..\liblc3\src/spec.c **** 
 102:..\..\..\liblc3\src/spec.c ****         reg_bits = (8*nbytes * 4) / (125 * (1 + dt));
 103:..\..\..\liblc3\src/spec.c ****         reg_bits = LC3_CLIP(reg_bits + reg_c, 6, 23);
 104:..\..\..\liblc3\src/spec.c **** 
 105:..\..\..\liblc3\src/spec.c ****         float m0 = 1e-5f, m1 = 1e-5f, k = 0;
 106:..\..\..\liblc3\src/spec.c **** 
 107:..\..\..\liblc3\src/spec.c ****         for (int i = 0; i < n4; i++) {
 108:..\..\..\liblc3\src/spec.c ****             m0 += fabsf(x[4*i + 0]),  m1 += fabsf(x[4*i + 0]) * k++;
 109:..\..\..\liblc3\src/spec.c ****             m0 += fabsf(x[4*i + 1]),  m1 += fabsf(x[4*i + 1]) * k++;
 110:..\..\..\liblc3\src/spec.c ****             m0 += fabsf(x[4*i + 2]),  m1 += fabsf(x[4*i + 2]) * k++;
 111:..\..\..\liblc3\src/spec.c ****             m0 += fabsf(x[4*i + 3]),  m1 += fabsf(x[4*i + 3]) * k++;
 112:..\..\..\liblc3\src/spec.c ****         }
 113:..\..\..\liblc3\src/spec.c **** 
 114:..\..\..\liblc3\src/spec.c ****         int m = roundf((1.6f * m0) / ((1 + dt) * m1));
 115:..\..\..\liblc3\src/spec.c ****         low_bits = 8 - LC3_MIN(m, 8);
 116:..\..\..\liblc3\src/spec.c ****     }
 117:..\..\..\liblc3\src/spec.c **** 
 118:..\..\..\liblc3\src/spec.c ****     /* --- Energy (dB) by 4 MDCT blocks --- */
 119:..\..\..\liblc3\src/spec.c **** 
 120:..\..\..\liblc3\src/spec.c ****     float x2_max = 0;
 121:..\..\..\liblc3\src/spec.c **** 
 122:..\..\..\liblc3\src/spec.c ****     for (int i = 0; i < n4; i++) {
 123:..\..\..\liblc3\src/spec.c ****         float x0 = x[4*i + 0] * x[4*i + 0];
 124:..\..\..\liblc3\src/spec.c ****         float x1 = x[4*i + 1] * x[4*i + 1];
 125:..\..\..\liblc3\src/spec.c ****         float x2 = x[4*i + 2] * x[4*i + 2];
 126:..\..\..\liblc3\src/spec.c ****         float x3 = x[4*i + 3] * x[4*i + 3];
 127:..\..\..\liblc3\src/spec.c **** 
 128:..\..\..\liblc3\src/spec.c ****         x2_max = fmaxf(x2_max, x0);
 129:..\..\..\liblc3\src/spec.c ****         x2_max = fmaxf(x2_max, x1);
 130:..\..\..\liblc3\src/spec.c ****         x2_max = fmaxf(x2_max, x2);
 131:..\..\..\liblc3\src/spec.c ****         x2_max = fmaxf(x2_max, x3);
 132:..\..\..\liblc3\src/spec.c **** 
 133:..\..\..\liblc3\src/spec.c ****         e[i].f = x0 + x1 + x2 + x3;
 134:..\..\..\liblc3\src/spec.c ****     }
 135:..\..\..\liblc3\src/spec.c **** 
 136:..\..\..\liblc3\src/spec.c ****     float x_max = sqrtf(x2_max);
 137:..\..\..\liblc3\src/spec.c ****     float nf = lc3_hr(sr) ?
 138:..\..\..\liblc3\src/spec.c ****         lc3_ldexpf(x_max, -reg_bits) * lc3_exp2f(-low_bits) : 0;
 139:..\..\..\liblc3\src/spec.c **** 
 140:..\..\..\liblc3\src/spec.c ****     for (int i = 0; i < n4; i++)
 141:..\..\..\liblc3\src/spec.c ****         e[i].q16 = lc3_db_q16(fmaxf(e[i].f + nf, 1e-10f));
 142:..\..\..\liblc3\src/spec.c **** 
 143:..\..\..\liblc3\src/spec.c ****     /* --- Determine gain index --- */
 144:..\..\..\liblc3\src/spec.c **** 
 145:..\..\..\liblc3\src/spec.c ****     int nbits = nbits_budget + nbits_off + 0.5f;
 146:..\..\..\liblc3\src/spec.c ****     int g_int = 255 - g_off;
 147:..\..\..\liblc3\src/spec.c **** 
 148:..\..\..\liblc3\src/spec.c ****     const int k_20_28 = 20.f/28 * 0x1p16f + 0.5f;
 149:..\..\..\liblc3\src/spec.c ****     const int k_2u7 = 2.7f * 0x1p16f + 0.5f;
 150:..\..\..\liblc3\src/spec.c ****     const int k_1u4 = 1.4f * 0x1p16f + 0.5f;
 151:..\..\..\liblc3\src/spec.c **** 
ARM GAS  C:\Users\rdn\AppData\Local\Temp\ccYcaPXH.s 			page 6


 152:..\..\..\liblc3\src/spec.c ****     for (int i = 128, j, j0 = n4-1, j1 ; i > 0; i >>= 1) {
 153:..\..\..\liblc3\src/spec.c ****         int gn = (g_int - i) * k_20_28;
 154:..\..\..\liblc3\src/spec.c ****         int v = 0;
 155:..\..\..\liblc3\src/spec.c **** 
 156:..\..\..\liblc3\src/spec.c ****         for (j = j0; j >= 0 && e[j].q16 < gn; j--);
 157:..\..\..\liblc3\src/spec.c **** 
 158:..\..\..\liblc3\src/spec.c ****         for (j1 = j; j >= 0; j--) {
 159:..\..\..\liblc3\src/spec.c ****             int e_diff = e[j].q16 - gn;
 160:..\..\..\liblc3\src/spec.c **** 
 161:..\..\..\liblc3\src/spec.c ****             v += e_diff < 0 ? k_2u7 :
 162:..\..\..\liblc3\src/spec.c ****                  e_diff < 43 << 16 ?   e_diff + ( 7 << 16)
 163:..\..\..\liblc3\src/spec.c ****                                    : 2*e_diff - (36 << 16);
 164:..\..\..\liblc3\src/spec.c ****         }
 165:..\..\..\liblc3\src/spec.c **** 
 166:..\..\..\liblc3\src/spec.c ****         if (v > nbits * k_1u4)
 167:..\..\..\liblc3\src/spec.c ****             j0 = j1;
 168:..\..\..\liblc3\src/spec.c ****         else
 169:..\..\..\liblc3\src/spec.c ****             g_int = g_int - i;
 170:..\..\..\liblc3\src/spec.c ****     }
 171:..\..\..\liblc3\src/spec.c **** 
 172:..\..\..\liblc3\src/spec.c ****     /* --- Limit gain index --- */
 173:..\..\..\liblc3\src/spec.c **** 
 174:..\..\..\liblc3\src/spec.c ****     float x_lim = lc3_hr(sr) ? 0x7fffp8f : 0x7fffp0f;
 175:..\..\..\liblc3\src/spec.c **** 
 176:..\..\..\liblc3\src/spec.c ****     *g_min = 255 - g_off;
 177:..\..\..\liblc3\src/spec.c ****     for (int i = 128 ; i > 0; i >>= 1)
 178:..\..\..\liblc3\src/spec.c ****         if (x_lim * unquantize_gain(*g_min - i) > x_max)
 179:..\..\..\liblc3\src/spec.c ****             *g_min -= i;
 180:..\..\..\liblc3\src/spec.c **** 
 181:..\..\..\liblc3\src/spec.c ****     *reset_off = g_int < *g_min || x_max == 0;
 182:..\..\..\liblc3\src/spec.c ****     if (*reset_off)
 183:..\..\..\liblc3\src/spec.c ****         g_int = *g_min;
 184:..\..\..\liblc3\src/spec.c **** 
 185:..\..\..\liblc3\src/spec.c ****     return g_int;
 186:..\..\..\liblc3\src/spec.c **** }
 187:..\..\..\liblc3\src/spec.c **** 
 188:..\..\..\liblc3\src/spec.c **** /**
 189:..\..\..\liblc3\src/spec.c ****  * Global Gain Adjustment
 190:..\..\..\liblc3\src/spec.c ****  * dt, sr          Duration and samplerate of the frame
 191:..\..\..\liblc3\src/spec.c ****  * g_idx           The estimated quantized gain index
 192:..\..\..\liblc3\src/spec.c ****  * nbits           Computed number of bits coding the spectrum
 193:..\..\..\liblc3\src/spec.c ****  * nbits_budget    Number of bits available for coding the spectrum
 194:..\..\..\liblc3\src/spec.c ****  * g_idx_min       Minimum gain index value
 195:..\..\..\liblc3\src/spec.c ****  * return          Gain adjust value (-1 to 2)
 196:..\..\..\liblc3\src/spec.c ****  */
 197:..\..\..\liblc3\src/spec.c **** LC3_HOT static int adjust_gain(
 198:..\..\..\liblc3\src/spec.c ****     enum lc3_dt dt, enum lc3_srate sr,
 199:..\..\..\liblc3\src/spec.c ****     int g_idx, int nbits, int nbits_budget, int g_idx_min)
 200:..\..\..\liblc3\src/spec.c **** {
 201:..\..\..\liblc3\src/spec.c ****     /* --- Compute delta threshold --- */
 202:..\..\..\liblc3\src/spec.c **** 
 203:..\..\..\liblc3\src/spec.c ****     const int *t = (const int [LC3_NUM_SRATE][3]){
 204:..\..\..\liblc3\src/spec.c ****         {  80,  500,  850 }, { 230, 1025, 1700 }, { 380, 1550, 2550 },
 205:..\..\..\liblc3\src/spec.c ****         { 530, 2075, 3400 }, { 680, 2600, 4250 },
 206:..\..\..\liblc3\src/spec.c ****         { 680, 2600, 4250 }, { 830, 3125, 5100 }
 207:..\..\..\liblc3\src/spec.c ****     }[sr];
 208:..\..\..\liblc3\src/spec.c **** 
ARM GAS  C:\Users\rdn\AppData\Local\Temp\ccYcaPXH.s 			page 7


 209:..\..\..\liblc3\src/spec.c ****     int delta, den = 48;
 210:..\..\..\liblc3\src/spec.c **** 
 211:..\..\..\liblc3\src/spec.c ****     if (nbits < t[0]) {
 212:..\..\..\liblc3\src/spec.c ****         delta = 3*(nbits + 48);
 213:..\..\..\liblc3\src/spec.c **** 
 214:..\..\..\liblc3\src/spec.c ****     } else if (nbits < t[1]) {
 215:..\..\..\liblc3\src/spec.c ****         int n0 = 3*(t[0] + 48), range = t[1] - t[0];
 216:..\..\..\liblc3\src/spec.c ****         delta = n0 * range + (nbits - t[0]) * (t[1] - n0);
 217:..\..\..\liblc3\src/spec.c ****         den *= range;
 218:..\..\..\liblc3\src/spec.c **** 
 219:..\..\..\liblc3\src/spec.c ****     } else {
 220:..\..\..\liblc3\src/spec.c ****         delta = LC3_MIN(nbits, t[2]);
 221:..\..\..\liblc3\src/spec.c ****     }
 222:..\..\..\liblc3\src/spec.c **** 
 223:..\..\..\liblc3\src/spec.c ****     delta = (delta + den/2) / den;
 224:..\..\..\liblc3\src/spec.c **** 
 225:..\..\..\liblc3\src/spec.c ****     /* --- Adjust gain --- */
 226:..\..\..\liblc3\src/spec.c **** 
 227:..\..\..\liblc3\src/spec.c ****     if (lc3_hr(sr) && nbits > nbits_budget) {
 228:..\..\..\liblc3\src/spec.c ****         int factor = 1 + (dt <= LC3_DT_5M) +
 229:..\..\..\liblc3\src/spec.c ****             (dt <= LC3_DT_2M5) * (1 + (nbits >= 520));
 230:..\..\..\liblc3\src/spec.c **** 
 231:..\..\..\liblc3\src/spec.c ****         int g_incr = factor + (factor * (nbits - nbits_budget)) / delta;
 232:..\..\..\liblc3\src/spec.c ****         return LC3_MIN(g_idx + g_incr, 255) - g_idx;
 233:..\..\..\liblc3\src/spec.c ****     }
 234:..\..\..\liblc3\src/spec.c **** 
 235:..\..\..\liblc3\src/spec.c ****     if (!lc3_hr(sr) && nbits < nbits_budget - (delta + 2))
 236:..\..\..\liblc3\src/spec.c ****         return -(g_idx > g_idx_min);
 237:..\..\..\liblc3\src/spec.c **** 
 238:..\..\..\liblc3\src/spec.c ****     if (!lc3_hr(sr) && nbits > nbits_budget)
 239:..\..\..\liblc3\src/spec.c ****         return (g_idx < 255) + (g_idx < 254 && nbits >= nbits_budget + delta);
 240:..\..\..\liblc3\src/spec.c **** 
 241:..\..\..\liblc3\src/spec.c ****     return 0;
 242:..\..\..\liblc3\src/spec.c **** }
 243:..\..\..\liblc3\src/spec.c **** 
 244:..\..\..\liblc3\src/spec.c **** /**
 245:..\..\..\liblc3\src/spec.c ****  * Spectrum quantization
 246:..\..\..\liblc3\src/spec.c ****  * dt, sr          Duration and samplerate of the frame
 247:..\..\..\liblc3\src/spec.c ****  * g_int           Quantization gain value
 248:..\..\..\liblc3\src/spec.c ****  * x               Spectral coefficients, scaled as output
 249:..\..\..\liblc3\src/spec.c ****  * n               Return count of significants
 250:..\..\..\liblc3\src/spec.c ****  */
 251:..\..\..\liblc3\src/spec.c **** LC3_HOT static void quantize(
 252:..\..\..\liblc3\src/spec.c ****     enum lc3_dt dt, enum lc3_srate sr, int g_int, float *x, int *n)
 253:..\..\..\liblc3\src/spec.c **** {
 134              		.loc 1 253 0
 135              		.cfi_startproc
 136              		@ args = 4, pretend = 0, frame = 0
 137              		@ frame_needed = 0, uses_anonymous_args = 0
 138              	.LVL14:
 139 0000 70B5     		push	{r4, r5, r6, lr}
 140              		.cfi_def_cfa_offset 16
 141              		.cfi_offset 4, -16
 142              		.cfi_offset 5, -12
 143              		.cfi_offset 6, -8
 144              		.cfi_offset 14, -4
 145              		.loc 1 253 0
ARM GAS  C:\Users\rdn\AppData\Local\Temp\ccYcaPXH.s 			page 8


 146 0002 0646     		mov	r6, r0
 254:..\..\..\liblc3\src/spec.c ****     float g_inv = unquantize_gain(-g_int);
 147              		.loc 1 254 0
 148 0004 5042     		negs	r0, r2
 149              	.LVL15:
 253:..\..\..\liblc3\src/spec.c ****     float g_inv = unquantize_gain(-g_int);
 150              		.loc 1 253 0
 151 0006 1C46     		mov	r4, r3
 152              		.loc 1 254 0
 153 0008 FFF7FEFF 		bl	unquantize_gain
 154              	.LVL16:
 155              	.LBB78:
 156              	.LBB79:
 157              		.file 2 "..\\..\\..\\liblc3\\src\\tables.h"
   1:..\..\..\liblc3\src/tables.h **** /******************************************************************************
   2:..\..\..\liblc3\src/tables.h ****  *
   3:..\..\..\liblc3\src/tables.h ****  *  Copyright 2022 Google LLC
   4:..\..\..\liblc3\src/tables.h ****  *
   5:..\..\..\liblc3\src/tables.h ****  *  Licensed under the Apache License, Version 2.0 (the "License");
   6:..\..\..\liblc3\src/tables.h ****  *  you may not use this file except in compliance with the License.
   7:..\..\..\liblc3\src/tables.h ****  *  You may obtain a copy of the License at:
   8:..\..\..\liblc3\src/tables.h ****  *
   9:..\..\..\liblc3\src/tables.h ****  *  http://www.apache.org/licenses/LICENSE-2.0
  10:..\..\..\liblc3\src/tables.h ****  *
  11:..\..\..\liblc3\src/tables.h ****  *  Unless required by applicable law or agreed to in writing, software
  12:..\..\..\liblc3\src/tables.h ****  *  distributed under the License is distributed on an "AS IS" BASIS,
  13:..\..\..\liblc3\src/tables.h ****  *  WITHOUT WARRANTIES OR CONDITIONS OF ANY KIND, either express or implied.
  14:..\..\..\liblc3\src/tables.h ****  *  See the License for the specific language governing permissions and
  15:..\..\..\liblc3\src/tables.h ****  *  limitations under the License.
  16:..\..\..\liblc3\src/tables.h ****  *
  17:..\..\..\liblc3\src/tables.h ****  ******************************************************************************/
  18:..\..\..\liblc3\src/tables.h **** 
  19:..\..\..\liblc3\src/tables.h **** #ifndef __LC3_TABLES_H
  20:..\..\..\liblc3\src/tables.h **** #define __LC3_TABLES_H
  21:..\..\..\liblc3\src/tables.h **** 
  22:..\..\..\liblc3\src/tables.h **** #include "common.h"
  23:..\..\..\liblc3\src/tables.h **** #include "bits.h"
  24:..\..\..\liblc3\src/tables.h **** 
  25:..\..\..\liblc3\src/tables.h **** 
  26:..\..\..\liblc3\src/tables.h **** /**
  27:..\..\..\liblc3\src/tables.h ****  * Characteristics
  28:..\..\..\liblc3\src/tables.h ****  *
  29:..\..\..\liblc3\src/tables.h ****  *   ns   Number of temporal samples / frequency coefficients within a frame
  30:..\..\..\liblc3\src/tables.h ****  *
  31:..\..\..\liblc3\src/tables.h ****  *   ne   Number of encoded frequency coefficients
  32:..\..\..\liblc3\src/tables.h ****  *
  33:..\..\..\liblc3\src/tables.h ****  *   nd   Number of MDCT delayed samples, sum of half a frame and an ovelap
  34:..\..\..\liblc3\src/tables.h ****  *        of future by 1.25 ms (2.5ms, 5ms and 10ms frame durations),
  35:..\..\..\liblc3\src/tables.h ****  *        or 2 ms (7.5ms frame duration).
  36:..\..\..\liblc3\src/tables.h ****  *
  37:..\..\..\liblc3\src/tables.h ****  *   nh   Number of 18 ms samples of the history buffer, aligned on a frame
  38:..\..\..\liblc3\src/tables.h ****  *
  39:..\..\..\liblc3\src/tables.h ****  *   nt   Number of 1.25 ms previous samples
  40:..\..\..\liblc3\src/tables.h ****  */
  41:..\..\..\liblc3\src/tables.h **** 
  42:..\..\..\liblc3\src/tables.h **** extern const int lc3_ns_2m5[LC3_NUM_SRATE];
  43:..\..\..\liblc3\src/tables.h **** extern const int lc3_ne_2m5[LC3_NUM_SRATE];
ARM GAS  C:\Users\rdn\AppData\Local\Temp\ccYcaPXH.s 			page 9


  44:..\..\..\liblc3\src/tables.h **** extern const int lc3_ns_4m [LC3_NUM_SRATE];
  45:..\..\..\liblc3\src/tables.h **** 
  46:..\..\..\liblc3\src/tables.h **** static inline int lc3_ns(enum lc3_dt dt, enum lc3_srate sr) {
  47:..\..\..\liblc3\src/tables.h ****     return lc3_ns_2m5[sr] * (1 + dt);
  48:..\..\..\liblc3\src/tables.h **** }
  49:..\..\..\liblc3\src/tables.h **** 
  50:..\..\..\liblc3\src/tables.h **** static inline int lc3_ne(enum lc3_dt dt, enum lc3_srate sr) {
  51:..\..\..\liblc3\src/tables.h ****     return lc3_ne_2m5[sr] * (1 + dt);
 158              		.loc 2 51 0
 159 000c 1A4B     		ldr	r3, .L23
 160              	.LBE79:
 161              	.LBE78:
 253:..\..\..\liblc3\src/spec.c ****     float g_inv = unquantize_gain(-g_int);
 162              		.loc 1 253 0
 163 000e 049D     		ldr	r5, [sp, #16]
 164              	.LBB81:
 165              	.LBB80:
 166              		.loc 2 51 0
 167 0010 53F82100 		ldr	r0, [r3, r1, lsl #2]
 168 0014 0429     		cmp	r1, #4
 169 0016 06FB0000 		mla	r0, r6, r0, r0
 170              	.LVL17:
 171 001a F6EE046A 		vmov.f32	s13, #6.25e-1
 172 001e F6EE007A 		vmov.f32	s15, #5.0e-1
 173              	.LBE80:
 174              	.LBE81:
 255:..\..\..\liblc3\src/spec.c ****     int ne = lc3_ne(dt, sr);
 256:..\..\..\liblc3\src/spec.c **** 
 257:..\..\..\liblc3\src/spec.c ****     *n = ne;
 175              		.loc 1 257 0
 176 0022 2860     		str	r0, [r5]
 177              	.LVL18:
 178 0024 88BF     		it	hi
 179 0026 F0EE676A 		vmovhi.f32	s13, s15
 180 002a 231D     		adds	r3, r4, #4
 181              	.LBB82:
 258:..\..\..\liblc3\src/spec.c **** 
 259:..\..\..\liblc3\src/spec.c ****     for (int i = 0; i < ne; i += 2) {
 182              		.loc 1 259 0
 183 002c 0021     		movs	r1, #0
 184              	.LVL19:
 185              	.L17:
 186              		.loc 1 259 0 is_stmt 0 discriminator 1
 187 002e 8142     		cmp	r1, r0
 188 0030 21DA     		bge	.L22
 189              	.LVL20:
 190              	.LBB83:
 260:..\..\..\liblc3\src/spec.c ****         float xq_min = lc3_hr(sr) ? 0.5f : 10.f/16;
 261:..\..\..\liblc3\src/spec.c **** 
 262:..\..\..\liblc3\src/spec.c ****         x[i+0] *= g_inv;
 191              		.loc 1 262 0 is_stmt 1 discriminator 4
 192 0032 13ED017A 		vldr.32	s14, [r3, #-4]
 263:..\..\..\liblc3\src/spec.c ****         x[i+1] *= g_inv;
 193              		.loc 1 263 0 discriminator 4
 194 0036 D3ED007A 		vldr.32	s15, [r3]
 262:..\..\..\liblc3\src/spec.c ****         x[i+1] *= g_inv;
 195              		.loc 1 262 0 discriminator 4
ARM GAS  C:\Users\rdn\AppData\Local\Temp\ccYcaPXH.s 			page 10


 196 003a 20EE077A 		vmul.f32	s14, s0, s14
 197              		.loc 1 263 0 discriminator 4
 198 003e 60EE277A 		vmul.f32	s15, s0, s15
 262:..\..\..\liblc3\src/spec.c ****         x[i+1] *= g_inv;
 199              		.loc 1 262 0 discriminator 4
 200 0042 03ED017A 		vstr.32	s14, [r3, #-4]
 264:..\..\..\liblc3\src/spec.c **** 
 265:..\..\..\liblc3\src/spec.c ****         *n = fabsf(x[i+0]) >= xq_min ||
 266:..\..\..\liblc3\src/spec.c ****              fabsf(x[i+1]) >= xq_min   ? ne : *n - 2;
 201              		.loc 1 266 0 discriminator 4
 202 0046 B0EEC77A 		vabs.f32	s14, s14
 203 004a F4EEC76A 		vcmpe.f32	s13, s14
 204 004e F1EE10FA 		vmrs	APSR_nzcv, FPSCR
 263:..\..\..\liblc3\src/spec.c **** 
 205              		.loc 1 263 0 discriminator 4
 206 0052 C3ED007A 		vstr.32	s15, [r3]
 207              		.loc 1 266 0 discriminator 4
 208 0056 09D9     		bls	.L21
 265:..\..\..\liblc3\src/spec.c ****              fabsf(x[i+1]) >= xq_min   ? ne : *n - 2;
 209              		.loc 1 265 0 discriminator 1
 210 0058 F0EEE77A 		vabs.f32	s15, s15
 211 005c F4EEE76A 		vcmpe.f32	s13, s15
 212 0060 F1EE10FA 		vmrs	APSR_nzcv, FPSCR
 213 0064 02D9     		bls	.L21
 214              		.loc 1 266 0
 215 0066 2A68     		ldr	r2, [r5]
 216 0068 023A     		subs	r2, r2, #2
 217 006a 00E0     		b	.L18
 218              	.L21:
 219 006c 0246     		mov	r2, r0
 220              	.L18:
 265:..\..\..\liblc3\src/spec.c ****              fabsf(x[i+1]) >= xq_min   ? ne : *n - 2;
 221              		.loc 1 265 0 discriminator 2
 222 006e 2A60     		str	r2, [r5]
 223              	.LBE83:
 259:..\..\..\liblc3\src/spec.c ****         float xq_min = lc3_hr(sr) ? 0.5f : 10.f/16;
 224              		.loc 1 259 0 discriminator 2
 225 0070 0231     		adds	r1, r1, #2
 226              	.LVL21:
 227 0072 0833     		adds	r3, r3, #8
 228 0074 DBE7     		b	.L17
 229              	.LVL22:
 230              	.L22:
 231              	.LBE82:
 267:..\..\..\liblc3\src/spec.c ****     }
 268:..\..\..\liblc3\src/spec.c **** }
 232              		.loc 1 268 0
 233 0076 70BD     		pop	{r4, r5, r6, pc}
 234              	.LVL23:
 235              	.L24:
 236              		.align	2
 237              	.L23:
 238 0078 00000000 		.word	lc3_ne_2m5
 239              		.cfi_endproc
 240              	.LFE24:
 241              		.size	quantize, .-quantize
 242              		.section	.text.compute_nbits,"ax",%progbits
ARM GAS  C:\Users\rdn\AppData\Local\Temp\ccYcaPXH.s 			page 11


 243              		.align	1
 244              		.thumb
 245              		.thumb_func
 246              		.type	compute_nbits, %function
 247              	compute_nbits:
 248              	.LFB27:
 269:..\..\..\liblc3\src/spec.c **** 
 270:..\..\..\liblc3\src/spec.c **** /**
 271:..\..\..\liblc3\src/spec.c ****  * Spectrum quantization inverse
 272:..\..\..\liblc3\src/spec.c ****  * dt, sr          Duration and samplerate of the frame
 273:..\..\..\liblc3\src/spec.c ****  * g_int           Quantization gain value
 274:..\..\..\liblc3\src/spec.c ****  * x, nq           Spectral quantized, and count of significants
 275:..\..\..\liblc3\src/spec.c ****  * return          Unquantized gain value
 276:..\..\..\liblc3\src/spec.c ****  */
 277:..\..\..\liblc3\src/spec.c **** LC3_HOT static float unquantize(
 278:..\..\..\liblc3\src/spec.c ****     enum lc3_dt dt, enum lc3_srate sr,
 279:..\..\..\liblc3\src/spec.c ****     int g_int, float *x, int nq)
 280:..\..\..\liblc3\src/spec.c **** {
 281:..\..\..\liblc3\src/spec.c ****     float g = unquantize_gain(g_int);
 282:..\..\..\liblc3\src/spec.c ****     int i, ne = lc3_ne(dt, sr);
 283:..\..\..\liblc3\src/spec.c **** 
 284:..\..\..\liblc3\src/spec.c ****     for (i = 0; i < nq; i++)
 285:..\..\..\liblc3\src/spec.c ****         x[i] = x[i] * g;
 286:..\..\..\liblc3\src/spec.c **** 
 287:..\..\..\liblc3\src/spec.c ****     for ( ; i < ne; i++)
 288:..\..\..\liblc3\src/spec.c ****         x[i] = 0;
 289:..\..\..\liblc3\src/spec.c **** 
 290:..\..\..\liblc3\src/spec.c ****     return g;
 291:..\..\..\liblc3\src/spec.c **** }
 292:..\..\..\liblc3\src/spec.c **** 
 293:..\..\..\liblc3\src/spec.c **** 
 294:..\..\..\liblc3\src/spec.c **** /* ----------------------------------------------------------------------------
 295:..\..\..\liblc3\src/spec.c ****  *  Spectrum coding
 296:..\..\..\liblc3\src/spec.c ****  * -------------------------------------------------------------------------- */
 297:..\..\..\liblc3\src/spec.c **** 
 298:..\..\..\liblc3\src/spec.c **** /**
 299:..\..\..\liblc3\src/spec.c ****  * Resolve High-bitrate and LSB modes according size of the frame
 300:..\..\..\liblc3\src/spec.c ****  * sr, nbytes      Samplerate and size of the frame
 301:..\..\..\liblc3\src/spec.c ****  * p_lsb_mode      True when LSB mode allowed, when not NULL
 302:..\..\..\liblc3\src/spec.c ****  * return          True when High-Rate mode enabled
 303:..\..\..\liblc3\src/spec.c ****  */
 304:..\..\..\liblc3\src/spec.c **** static bool resolve_modes(enum lc3_srate sr, int nbytes, bool *p_lsb_mode)
 305:..\..\..\liblc3\src/spec.c **** {
 306:..\..\..\liblc3\src/spec.c ****     int sr_ind = lc3_hr(sr) ? 4 + (sr - LC3_SRATE_48K_HR) : sr;
 307:..\..\..\liblc3\src/spec.c **** 
 308:..\..\..\liblc3\src/spec.c ****     if (p_lsb_mode)
 309:..\..\..\liblc3\src/spec.c ****       *p_lsb_mode = (nbytes >= 20 * (3 + sr_ind)) && (sr < LC3_SRATE_96K_HR);
 310:..\..\..\liblc3\src/spec.c **** 
 311:..\..\..\liblc3\src/spec.c ****     return (nbytes > 20 * (1 + sr_ind)) && (sr < LC3_SRATE_96K_HR);
 312:..\..\..\liblc3\src/spec.c **** }
 313:..\..\..\liblc3\src/spec.c **** 
 314:..\..\..\liblc3\src/spec.c **** /**
 315:..\..\..\liblc3\src/spec.c ****  * Bit consumption
 316:..\..\..\liblc3\src/spec.c ****  * dt, sr, nbytes  Duration, samplerate and size of the frame
 317:..\..\..\liblc3\src/spec.c ****  * x               Spectral quantized coefficients
 318:..\..\..\liblc3\src/spec.c ****  * n               Count of significant coefficients, updated on truncation
 319:..\..\..\liblc3\src/spec.c ****  * nbits_budget    Truncate to stay in budget, when not zero
ARM GAS  C:\Users\rdn\AppData\Local\Temp\ccYcaPXH.s 			page 12


 320:..\..\..\liblc3\src/spec.c ****  * p_lsb_mode      Return True when LSB's are not AC coded, or NULL
 321:..\..\..\liblc3\src/spec.c ****  * return          The number of bits coding the spectrum
 322:..\..\..\liblc3\src/spec.c ****  */
 323:..\..\..\liblc3\src/spec.c **** LC3_HOT static int compute_nbits(
 324:..\..\..\liblc3\src/spec.c ****     enum lc3_dt dt, enum lc3_srate sr, int nbytes,
 325:..\..\..\liblc3\src/spec.c ****     const float *x, int *n, int nbits_budget, bool *p_lsb_mode)
 326:..\..\..\liblc3\src/spec.c **** {
 249              		.loc 1 326 0
 250              		.cfi_startproc
 251              		@ args = 12, pretend = 0, frame = 48
 252              		@ frame_needed = 0, uses_anonymous_args = 0
 253              	.LVL24:
 254 0000 2DE9F04F 		push	{r4, r5, r6, r7, r8, r9, r10, fp, lr}
 255              		.cfi_def_cfa_offset 36
 256              		.cfi_offset 4, -36
 257              		.cfi_offset 5, -32
 258              		.cfi_offset 6, -28
 259              		.cfi_offset 7, -24
 260              		.cfi_offset 8, -20
 261              		.cfi_offset 9, -16
 262              		.cfi_offset 10, -12
 263              		.cfi_offset 11, -8
 264              		.cfi_offset 14, -4
 265 0004 8DB0     		sub	sp, sp, #52
 266              		.cfi_def_cfa_offset 88
 267              	.LBB91:
 268              	.LBB92:
 306:..\..\..\liblc3\src/spec.c **** 
 269              		.loc 1 306 0
 270 0006 0429     		cmp	r1, #4
 271              	.LBE92:
 272              	.LBE91:
 273              		.loc 1 326 0
 274 0008 0B93     		str	r3, [sp, #44]
 275              	.LBB95:
 276              	.LBB93:
 306:..\..\..\liblc3\src/spec.c **** 
 277              		.loc 1 306 0
 278 000a 8CBF     		ite	hi
 279 000c 01F1FF33 		addhi	r3, r1, #-1
 280              	.LVL25:
 281 0010 0B46     		movls	r3, r1
 282              	.LVL26:
 309:..\..\..\liblc3\src/spec.c **** 
 283              		.loc 1 309 0
 284 0012 DC1C     		adds	r4, r3, #3
 285 0014 1423     		movs	r3, #20
 286              	.LVL27:
 287 0016 6343     		muls	r3, r4, r3
 288 0018 9A42     		cmp	r2, r3
 289              	.LBE93:
 290              	.LBE95:
 291              		.loc 1 326 0
 292 001a 179E     		ldr	r6, [sp, #92]
 293              	.LBB96:
 294              	.LBB94:
 309:..\..\..\liblc3\src/spec.c **** 
ARM GAS  C:\Users\rdn\AppData\Local\Temp\ccYcaPXH.s 			page 13


 295              		.loc 1 309 0
 296 001c 04DB     		blt	.L48
 297 001e 0529     		cmp	r1, #5
 298 0020 8CBF     		ite	hi
 299 0022 0025     		movhi	r5, #0
 300 0024 0125     		movls	r5, #1
 301 0026 00E0     		b	.L28
 302              	.L48:
 303 0028 0025     		movs	r5, #0
 304              	.L28:
 305              	.LVL28:
 311:..\..\..\liblc3\src/spec.c **** }
 306              		.loc 1 311 0
 307 002a 283B     		subs	r3, r3, #40
 308 002c 9A42     		cmp	r2, r3
 309 002e 04DD     		ble	.L49
 310 0030 0529     		cmp	r1, #5
 311 0032 8CBF     		ite	hi
 312 0034 0023     		movhi	r3, #0
 313 0036 0123     		movls	r3, #1
 314 0038 00E0     		b	.L29
 315              	.L49:
 316 003a 0023     		movs	r3, #0
 317              	.L29:
 318              	.LVL29:
 319              	.LBE94:
 320              	.LBE96:
 321              	.LBB97:
 322              	.LBB98:
 323              		.loc 2 51 0
 324 003c 784A     		ldr	r2, .L67
 325              	.LVL30:
 326 003e 52F82120 		ldr	r2, [r2, r1, lsl #2]
 327 0042 00FB0222 		mla	r2, r0, r2, r2
 328 0046 0992     		str	r2, [sp, #36]
 329              	.LVL31:
 330              	.LBE98:
 331              	.LBE97:
 327:..\..\..\liblc3\src/spec.c ****     bool lsb_mode, high_rate = resolve_modes(sr, nbytes, &lsb_mode);
 328:..\..\..\liblc3\src/spec.c ****     int ne = lc3_ne(dt, sr);
 329:..\..\..\liblc3\src/spec.c **** 
 330:..\..\..\liblc3\src/spec.c ****     /* --- Loop on quantized coefficients --- */
 331:..\..\..\liblc3\src/spec.c **** 
 332:..\..\..\liblc3\src/spec.c ****     int nbits = 0, nbits_lsb = 0;
 333:..\..\..\liblc3\src/spec.c ****     uint8_t state = 0;
 334:..\..\..\liblc3\src/spec.c **** 
 335:..\..\..\liblc3\src/spec.c ****     int nbits_end = 0;
 336:..\..\..\liblc3\src/spec.c ****     int n_end = 0;
 337:..\..\..\liblc3\src/spec.c **** 
 338:..\..\..\liblc3\src/spec.c ****     nbits_budget = nbits_budget ? nbits_budget * 2048 : INT_MAX;
 332              		.loc 1 338 0
 333 0048 0EB1     		cbz	r6, .L50
 334              		.loc 1 338 0 is_stmt 0 discriminator 1
 335 004a F602     		lsls	r6, r6, #11
 336 004c 01E0     		b	.L30
 337              	.L50:
 338              		.loc 1 338 0
ARM GAS  C:\Users\rdn\AppData\Local\Temp\ccYcaPXH.s 			page 14


 339 004e 6FF00046 		mvn	r6, #-2147483648
 340              	.L30:
 341              	.LVL32:
 342              	.LBB99:
 343              	.LBB100:
 339:..\..\..\liblc3\src/spec.c **** 
 340:..\..\..\liblc3\src/spec.c ****     for (int i = 0, h = 0; h < 2; h++) {
 341:..\..\..\liblc3\src/spec.c ****         const uint8_t (*lut_coeff)[4] = lc3_spectrum_lookup[high_rate][h];
 342:..\..\..\liblc3\src/spec.c **** 
 343:..\..\..\liblc3\src/spec.c ****         for ( ; i < LC3_MIN(*n, (ne + 2) >> (1 - h))
 344              		.loc 1 343 0 is_stmt 1 discriminator 4
 345 0052 169A     		ldr	r2, [sp, #88]
 346              	.LBE100:
 340:..\..\..\liblc3\src/spec.c ****         const uint8_t (*lut_coeff)[4] = lc3_spectrum_lookup[high_rate][h];
 347              		.loc 1 340 0 discriminator 4
 348 0054 0024     		movs	r4, #0
 349              	.LBB102:
 350              		.loc 1 343 0 discriminator 4
 351 0056 1268     		ldr	r2, [r2]
 352 0058 0692     		str	r2, [sp, #24]
 353 005a 0429     		cmp	r1, #4
 354 005c B5EE087A 		vmov.f32	s14, #3.75e-1
 355 0060 F6EE007A 		vmov.f32	s15, #5.0e-1
 356 0064 4FEA4303 		lsl	r3, r3, #1
 357 0068 88BF     		it	hi
 358 006a B0EE677A 		vmovhi.f32	s14, s15
 359 006e 0893     		str	r3, [sp, #32]
 360              	.LBE102:
 340:..\..\..\liblc3\src/spec.c ****         const uint8_t (*lut_coeff)[4] = lc3_spectrum_lookup[high_rate][h];
 361              		.loc 1 340 0 discriminator 4
 362 0070 A446     		mov	ip, r4
 363              	.LBE99:
 336:..\..\..\liblc3\src/spec.c **** 
 364              		.loc 1 336 0 discriminator 4
 365 0072 0494     		str	r4, [sp, #16]
 335:..\..\..\liblc3\src/spec.c ****     int n_end = 0;
 366              		.loc 1 335 0 discriminator 4
 367 0074 0194     		str	r4, [sp, #4]
 333:..\..\..\liblc3\src/spec.c **** 
 368              		.loc 1 333 0 discriminator 4
 369 0076 0294     		str	r4, [sp, #8]
 332:..\..\..\liblc3\src/spec.c ****     uint8_t state = 0;
 370              		.loc 1 332 0 discriminator 4
 371 0078 A346     		mov	fp, r4
 372 007a A646     		mov	lr, r4
 373              	.LVL33:
 374              	.L41:
 375 007c 089B     		ldr	r3, [sp, #32]
 376 007e E318     		adds	r3, r4, r3
 377 0080 9B02     		lsls	r3, r3, #10
 378 0082 0A93     		str	r3, [sp, #40]
 379              	.LVL34:
 380              	.LBB105:
 381              	.LBB103:
 382              		.loc 1 343 0
 383 0084 099B     		ldr	r3, [sp, #36]
 384              	.LVL35:
ARM GAS  C:\Users\rdn\AppData\Local\Temp\ccYcaPXH.s 			page 15


 385 0086 C4F10102 		rsb	r2, r4, #1
 386 008a 0233     		adds	r3, r3, #2
 387 008c 1341     		asrs	r3, r3, r2
 388 008e 069A     		ldr	r2, [sp, #24]
 389 0090 9342     		cmp	r3, r2
 390 0092 A8BF     		it	ge
 391 0094 1346     		movge	r3, r2
 392 0096 0793     		str	r3, [sp, #28]
 393 0098 0B9B     		ldr	r3, [sp, #44]
 394 009a 03EB8C08 		add	r8, r3, ip, lsl #2
 395              	.L31:
 396 009e 079B     		ldr	r3, [sp, #28]
 397 00a0 9C45     		cmp	ip, r3
 398 00a2 04DB     		blt	.L40
 399              	.L44:
 400              	.LBE103:
 340:..\..\..\liblc3\src/spec.c ****         const uint8_t (*lut_coeff)[4] = lc3_spectrum_lookup[high_rate][h];
 401              		.loc 1 340 0
 402 00a4 0134     		adds	r4, r4, #1
 403              	.LVL36:
 404 00a6 022C     		cmp	r4, #2
 405 00a8 00F09780 		beq	.L64
 406 00ac E6E7     		b	.L41
 407              	.L40:
 408              	.LBB104:
 344:..\..\..\liblc3\src/spec.c ****                 && nbits <= nbits_budget; i += 2) {
 409              		.loc 1 344 0
 410 00ae B645     		cmp	lr, r6
 411 00b0 F8DC     		bgt	.L44
 412              	.LVL37:
 413              	.LBB101:
 345:..\..\..\liblc3\src/spec.c **** 
 346:..\..\..\liblc3\src/spec.c ****             float xq_off = lc3_hr(sr) ? 0.5f : 6.f/16;
 347:..\..\..\liblc3\src/spec.c ****             uint32_t a = fabsf(x[i+0]) + xq_off;
 414              		.loc 1 347 0 discriminator 4
 415 00b2 D8ED007A 		vldr.32	s15, [r8]
 348:..\..\..\liblc3\src/spec.c ****             uint32_t b = fabsf(x[i+1]) + xq_off;
 349:..\..\..\liblc3\src/spec.c **** 
 350:..\..\..\liblc3\src/spec.c ****             const uint8_t *lut = lut_coeff[state];
 416              		.loc 1 350 0 discriminator 4
 417 00b6 BDF80870 		ldrh	r7, [sp, #8]
 347:..\..\..\liblc3\src/spec.c ****             uint32_t b = fabsf(x[i+1]) + xq_off;
 418              		.loc 1 347 0 discriminator 4
 419 00ba F0EEE77A 		vabs.f32	s15, s15
 420 00be 77EE877A 		vadd.f32	s15, s15, s14
 421              		.loc 1 350 0 discriminator 4
 422 00c2 0423     		movs	r3, #4
 347:..\..\..\liblc3\src/spec.c ****             uint32_t b = fabsf(x[i+1]) + xq_off;
 423              		.loc 1 347 0 discriminator 4
 424 00c4 FCEEE77A 		vcvt.u32.f32	s15, s15
 425              		.loc 1 350 0 discriminator 4
 426 00c8 1846     		mov	r0, r3	@ movhi
 347:..\..\..\liblc3\src/spec.c ****             uint32_t b = fabsf(x[i+1]) + xq_off;
 427              		.loc 1 347 0 discriminator 4
 428 00ca 17EE901A 		vmov	r1, s15	@ int
 429              	.LVL38:
 348:..\..\..\liblc3\src/spec.c ****             uint32_t b = fabsf(x[i+1]) + xq_off;
ARM GAS  C:\Users\rdn\AppData\Local\Temp\ccYcaPXH.s 			page 16


 430              		.loc 1 348 0 discriminator 4
 431 00ce D8ED017A 		vldr.32	s15, [r8, #4]
 432              		.loc 1 350 0 discriminator 4
 433 00d2 0A9B     		ldr	r3, [sp, #40]
 348:..\..\..\liblc3\src/spec.c ****             uint32_t b = fabsf(x[i+1]) + xq_off;
 434              		.loc 1 348 0 discriminator 4
 435 00d4 F0EEE77A 		vabs.f32	s15, s15
 436 00d8 77EE877A 		vadd.f32	s15, s15, s14
 437              		.loc 1 350 0 discriminator 4
 438 00dc 10FB073A 		smlabb	r10, r0, r7, r3
 348:..\..\..\liblc3\src/spec.c ****             uint32_t b = fabsf(x[i+1]) + xq_off;
 439              		.loc 1 348 0 discriminator 4
 440 00e0 FCEEE77A 		vcvt.u32.f32	s15, s15
 441              		.loc 1 350 0 discriminator 4
 442 00e4 4F4B     		ldr	r3, .L67+4
 348:..\..\..\liblc3\src/spec.c ****             uint32_t b = fabsf(x[i+1]) + xq_off;
 443              		.loc 1 348 0 discriminator 4
 444 00e6 17EE902A 		vmov	r2, s15	@ int
 445              	.LVL39:
 446              		.loc 1 350 0 discriminator 4
 447 00ea 5344     		add	r3, r10, r3
 351:..\..\..\liblc3\src/spec.c **** 
 352:..\..\..\liblc3\src/spec.c ****             /* --- Sign values --- */
 353:..\..\..\liblc3\src/spec.c **** 
 354:..\..\..\liblc3\src/spec.c ****             int s = (a != 0) + (b != 0);
 448              		.loc 1 354 0 discriminator 4
 449 00ec 12F10009 		adds	r9, r2, #0
 450 00f0 18BF     		it	ne
 451 00f2 4FF00109 		movne	r9, #1
 350:..\..\..\liblc3\src/spec.c **** 
 452              		.loc 1 350 0 discriminator 4
 453 00f6 0593     		str	r3, [sp, #20]
 454              	.LVL40:
 355:..\..\..\liblc3\src/spec.c ****             nbits += s * 2048;
 356:..\..\..\liblc3\src/spec.c **** 
 357:..\..\..\liblc3\src/spec.c ****             /* --- LSB values Reduce to 2*2 bits MSB values ---
 358:..\..\..\liblc3\src/spec.c ****              * Reduce to 2x2 bits MSB values. The LSB's pair are arithmetic
 359:..\..\..\liblc3\src/spec.c ****              * coded with an escape code followed by 1 bit for each values.
 360:..\..\..\liblc3\src/spec.c ****              * The LSB mode does not arthmetic code the first LSB,
 361:..\..\..\liblc3\src/spec.c ****              * add the sign of the LSB when one of pair was at value 1 */
 362:..\..\..\liblc3\src/spec.c **** 
 363:..\..\..\liblc3\src/spec.c ****             uint32_t m = (a | b) >> 2;
 455              		.loc 1 363 0 discriminator 4
 456 00f8 41EA0203 		orr	r3, r1, r2
 457              	.LVL41:
 354:..\..\..\liblc3\src/spec.c ****             nbits += s * 2048;
 458              		.loc 1 354 0 discriminator 4
 459 00fc 0029     		cmp	r1, #0
 460 00fe 18BF     		it	ne
 461 0100 09F10109 		addne	r9, r9, #1
 462              	.LVL42:
 364:..\..\..\liblc3\src/spec.c ****             unsigned k = 0;
 365:..\..\..\liblc3\src/spec.c **** 
 366:..\..\..\liblc3\src/spec.c ****             if (m) {
 463              		.loc 1 366 0 discriminator 4
 464 0104 9B08     		lsrs	r3, r3, #2
 355:..\..\..\liblc3\src/spec.c **** 
ARM GAS  C:\Users\rdn\AppData\Local\Temp\ccYcaPXH.s 			page 17


 465              		.loc 1 355 0 discriminator 4
 466 0106 0EEBC92E 		add	lr, lr, r9, lsl #11
 467              	.LVL43:
 468              		.loc 1 366 0 discriminator 4
 469 010a 39D0     		beq	.L51
 367:..\..\..\liblc3\src/spec.c **** 
 368:..\..\..\liblc3\src/spec.c ****                 if (lsb_mode) {
 470              		.loc 1 368 0
 471 010c ADB1     		cbz	r5, .L52
 472              	.LVL44:
 369:..\..\..\liblc3\src/spec.c ****                     nbits += lc3_spectrum_bits[lut[k++]][16] - 2*2048;
 473              		.loc 1 369 0
 474 010e 454F     		ldr	r7, .L67+4
 475 0110 4548     		ldr	r0, .L67+8
 476 0112 1AF80770 		ldrb	r7, [r10, r7]	@ zero_extendqisi2
 477 0116 4FF0220A 		mov	r10, #34
 478 011a 0AFB0707 		mla	r7, r10, r7, r0
 370:..\..\..\liblc3\src/spec.c ****                     nbits_lsb += 2 + (a == 1) + (b == 1);
 479              		.loc 1 370 0
 480 011e 0129     		cmp	r1, #1
 369:..\..\..\liblc3\src/spec.c ****                     nbits += lc3_spectrum_bits[lut[k++]][16] - 2*2048;
 481              		.loc 1 369 0
 482 0120 3F8C     		ldrh	r7, [r7, #32]
 483 0122 A7F58057 		sub	r7, r7, #4096
 484 0126 BE44     		add	lr, lr, r7
 485              	.LVL45:
 486              		.loc 1 370 0
 487 0128 0CBF     		ite	eq
 488 012a 0327     		moveq	r7, #3
 489 012c 0227     		movne	r7, #2
 490 012e 012A     		cmp	r2, #1
 491 0130 08BF     		it	eq
 492 0132 0137     		addeq	r7, r7, #1
 493 0134 BB44     		add	fp, fp, r7
 494              	.LVL46:
 369:..\..\..\liblc3\src/spec.c ****                     nbits += lc3_spectrum_bits[lut[k++]][16] - 2*2048;
 495              		.loc 1 369 0
 496 0136 0127     		movs	r7, #1
 497 0138 00E0     		b	.L33
 498              	.LVL47:
 499              	.L52:
 364:..\..\..\liblc3\src/spec.c **** 
 500              		.loc 1 364 0
 501 013a 2F46     		mov	r7, r5
 502              	.LVL48:
 503              	.L33:
 371:..\..\..\liblc3\src/spec.c ****                 }
 372:..\..\..\liblc3\src/spec.c **** 
 373:..\..\..\liblc3\src/spec.c ****                 for (m >>= lsb_mode; m; m >>= 1, k++)
 504              		.loc 1 373 0
 505 013c EB40     		lsrs	r3, r3, r5
 506 013e 0393     		str	r3, [sp, #12]
 507              	.LVL49:
 508              	.L35:
 509              		.loc 1 373 0 is_stmt 0 discriminator 1
 510 0140 039B     		ldr	r3, [sp, #12]
 511 0142 9BB1     		cbz	r3, .L66
ARM GAS  C:\Users\rdn\AppData\Local\Temp\ccYcaPXH.s 			page 18


 374:..\..\..\liblc3\src/spec.c ****                     nbits += lc3_spectrum_bits[lut[LC3_MIN(k, 3)]][16];
 512              		.loc 1 374 0 is_stmt 1 discriminator 3
 513 0144 032F     		cmp	r7, #3
 514 0146 BA46     		mov	r10, r7
 515 0148 0598     		ldr	r0, [sp, #20]
 516 014a 28BF     		it	cs
 517 014c 4FF0030A 		movcs	r10, #3
 518 0150 2223     		movs	r3, #34
 519 0152 10F80AA0 		ldrb	r10, [r0, r10]	@ zero_extendqisi2
 520 0156 3448     		ldr	r0, .L67+8
 521 0158 03FB0A0A 		mla	r10, r3, r10, r0
 373:..\..\..\liblc3\src/spec.c ****                     nbits += lc3_spectrum_bits[lut[LC3_MIN(k, 3)]][16];
 522              		.loc 1 373 0 discriminator 3
 523 015c 039B     		ldr	r3, [sp, #12]
 524              		.loc 1 374 0 discriminator 3
 525 015e BAF820A0 		ldrh	r10, [r10, #32]
 373:..\..\..\liblc3\src/spec.c ****                     nbits += lc3_spectrum_bits[lut[LC3_MIN(k, 3)]][16];
 526              		.loc 1 373 0 discriminator 3
 527 0162 5B08     		lsrs	r3, r3, #1
 528              		.loc 1 374 0 discriminator 3
 529 0164 D644     		add	lr, lr, r10
 530              	.LVL50:
 373:..\..\..\liblc3\src/spec.c ****                     nbits += lc3_spectrum_bits[lut[LC3_MIN(k, 3)]][16];
 531              		.loc 1 373 0 discriminator 3
 532 0166 0393     		str	r3, [sp, #12]
 533              	.LVL51:
 534 0168 0137     		adds	r7, r7, #1
 535              	.LVL52:
 536 016a E9E7     		b	.L35
 537              	.L66:
 375:..\..\..\liblc3\src/spec.c **** 
 376:..\..\..\liblc3\src/spec.c ****                 nbits += k * 2*2048;
 377:..\..\..\liblc3\src/spec.c ****                 a >>= k;
 378:..\..\..\liblc3\src/spec.c ****                 b >>= k;
 379:..\..\..\liblc3\src/spec.c **** 
 380:..\..\..\liblc3\src/spec.c ****                 k = LC3_MIN(k, 3);
 538              		.loc 1 380 0
 539 016c 032F     		cmp	r7, #3
 376:..\..\..\liblc3\src/spec.c ****                 a >>= k;
 540              		.loc 1 376 0
 541 016e 0EEB073E 		add	lr, lr, r7, lsl #12
 542              	.LVL53:
 377:..\..\..\liblc3\src/spec.c ****                 b >>= k;
 543              		.loc 1 377 0
 544 0172 21FA07F1 		lsr	r1, r1, r7
 545              	.LVL54:
 378:..\..\..\liblc3\src/spec.c **** 
 546              		.loc 1 378 0
 547 0176 22FA07F2 		lsr	r2, r2, r7
 548              	.LVL55:
 549              		.loc 1 380 0
 550 017a 28BF     		it	cs
 551 017c 0327     		movcs	r7, #3
 552              	.LVL56:
 553 017e 00E0     		b	.L32
 554              	.LVL57:
 555              	.L51:
ARM GAS  C:\Users\rdn\AppData\Local\Temp\ccYcaPXH.s 			page 19


 364:..\..\..\liblc3\src/spec.c **** 
 556              		.loc 1 364 0
 557 0180 1F46     		mov	r7, r3
 558              	.LVL58:
 559              	.L32:
 381:..\..\..\liblc3\src/spec.c ****             }
 382:..\..\..\liblc3\src/spec.c **** 
 383:..\..\..\liblc3\src/spec.c ****             /* --- MSB values --- */
 384:..\..\..\liblc3\src/spec.c **** 
 385:..\..\..\liblc3\src/spec.c ****             nbits += lc3_spectrum_bits[lut[k]][a + 4*b];
 560              		.loc 1 385 0
 561 0182 059B     		ldr	r3, [sp, #20]
 562 0184 2848     		ldr	r0, .L67+8
 563 0186 DB5D     		ldrb	r3, [r3, r7]	@ zero_extendqisi2
 564 0188 01EB820A 		add	r10, r1, r2, lsl #2
 565 018c 03EB0313 		add	r3, r3, r3, lsl #4
 566 0190 5344     		add	r3, r3, r10
 567 0192 30F81330 		ldrh	r3, [r0, r3, lsl #1]
 568 0196 9E44     		add	lr, lr, r3
 569              	.LVL59:
 386:..\..\..\liblc3\src/spec.c **** 
 387:..\..\..\liblc3\src/spec.c ****             /* --- Update state --- */
 388:..\..\..\liblc3\src/spec.c **** 
 389:..\..\..\liblc3\src/spec.c ****             if (s && nbits <= nbits_budget) {
 570              		.loc 1 389 0
 571 0198 B9F1000F 		cmp	r9, #0
 572 019c 06D0     		beq	.L37
 573              		.loc 1 389 0 is_stmt 0 discriminator 1
 574 019e 7645     		cmp	r6, lr
 575 01a0 A2BF     		ittt	ge
 576 01a2 0CF10203 		addge	r3, ip, #2
 577 01a6 0493     		strge	r3, [sp, #16]
 578              	.LVL60:
 579 01a8 CDF804E0 		strge	lr, [sp, #4]
 580              	.LVL61:
 581              	.L37:
 390:..\..\..\liblc3\src/spec.c ****                 n_end = i + 2;
 391:..\..\..\liblc3\src/spec.c ****                 nbits_end = nbits;
 392:..\..\..\liblc3\src/spec.c ****             }
 393:..\..\..\liblc3\src/spec.c **** 
 394:..\..\..\liblc3\src/spec.c ****             state = (state << 4) + (k > 1 ? 12 + k : 1 + (a + b) * (k + 1));
 582              		.loc 1 394 0 is_stmt 1
 583 01ac 012F     		cmp	r7, #1
 584 01ae 029B     		ldr	r3, [sp, #8]
 585 01b0 9EBF     		ittt	ls
 586 01b2 0137     		addls	r7, r7, #1
 587              	.LVL62:
 588 01b4 5218     		addls	r2, r2, r1
 589              	.LVL63:
 590 01b6 12FB07F7 		smulbbls	r7, r2, r7
 591 01ba 4FEA0319 		lsl	r9, r3, #4
 592              	.LVL64:
 593 01be 8CBF     		ite	hi
 594 01c0 0C37     		addhi	r7, r7, #12
 595 01c2 0137     		addls	r7, r7, #1
 596 01c4 5FFA89F9 		uxtb	r9, r9
 597 01c8 FFB2     		uxtb	r7, r7
ARM GAS  C:\Users\rdn\AppData\Local\Temp\ccYcaPXH.s 			page 20


 598 01ca 4F44     		add	r7, r7, r9
 599 01cc FBB2     		uxtb	r3, r7
 600 01ce 0293     		str	r3, [sp, #8]
 601              	.LVL65:
 602              	.LBE101:
 344:..\..\..\liblc3\src/spec.c **** 
 603              		.loc 1 344 0
 604 01d0 0CF1020C 		add	ip, ip, #2
 605              	.LVL66:
 606 01d4 08F10808 		add	r8, r8, #8
 607              	.LVL67:
 608 01d8 61E7     		b	.L31
 609              	.LVL68:
 610              	.L64:
 611              	.LBE104:
 612              	.LBE105:
 395:..\..\..\liblc3\src/spec.c ****         }
 396:..\..\..\liblc3\src/spec.c ****     }
 397:..\..\..\liblc3\src/spec.c **** 
 398:..\..\..\liblc3\src/spec.c ****     /* --- Return --- */
 399:..\..\..\liblc3\src/spec.c **** 
 400:..\..\..\liblc3\src/spec.c ****     *n = n_end;
 613              		.loc 1 400 0
 614 01da 169B     		ldr	r3, [sp, #88]
 615 01dc 1A46     		mov	r2, r3
 616 01de 049B     		ldr	r3, [sp, #16]
 617 01e0 1360     		str	r3, [r2]
 401:..\..\..\liblc3\src/spec.c **** 
 402:..\..\..\liblc3\src/spec.c ****     if (p_lsb_mode)
 618              		.loc 1 402 0
 619 01e2 189B     		ldr	r3, [sp, #96]
 620 01e4 4BB1     		cbz	r3, .L45
 403:..\..\..\liblc3\src/spec.c ****         *p_lsb_mode = lsb_mode &&
 621              		.loc 1 403 0
 622 01e6 35B1     		cbz	r5, .L46
 623              		.loc 1 403 0 is_stmt 0 discriminator 1
 624 01e8 019B     		ldr	r3, [sp, #4]
 625 01ea 03EBCB25 		add	r5, r3, fp, lsl #11
 626              	.LVL69:
 627 01ee AE42     		cmp	r6, r5
 628 01f0 ACBF     		ite	ge
 629 01f2 0025     		movge	r5, #0
 630 01f4 0125     		movlt	r5, #1
 631              	.L46:
 632              		.loc 1 403 0 discriminator 6
 633 01f6 189B     		ldr	r3, [sp, #96]
 634 01f8 1D70     		strb	r5, [r3]
 635              	.L45:
 404:..\..\..\liblc3\src/spec.c ****             nbits_end + nbits_lsb * 2048 > nbits_budget;
 405:..\..\..\liblc3\src/spec.c **** 
 406:..\..\..\liblc3\src/spec.c ****     if (nbits_budget >= INT_MAX)
 636              		.loc 1 406 0 is_stmt 1
 637 01fa 6FF00043 		mvn	r3, #-2147483648
 638 01fe 9E42     		cmp	r6, r3
 407:..\..\..\liblc3\src/spec.c ****         nbits_end += nbits_lsb * 2048;
 639              		.loc 1 407 0
 640 0200 02BF     		ittt	eq
ARM GAS  C:\Users\rdn\AppData\Local\Temp\ccYcaPXH.s 			page 21


 641 0202 019B     		ldreq	r3, [sp, #4]
 642 0204 03EBCB23 		addeq	r3, r3, fp, lsl #11
 643 0208 0193     		streq	r3, [sp, #4]
 644              	.LVL70:
 408:..\..\..\liblc3\src/spec.c **** 
 409:..\..\..\liblc3\src/spec.c ****     return (nbits_end + 2047) / 2048;
 645              		.loc 1 409 0
 646 020a 019B     		ldr	r3, [sp, #4]
 647 020c 03F2FF70 		addw	r0, r3, #2047
 410:..\..\..\liblc3\src/spec.c **** }
 648              		.loc 1 410 0
 649 0210 4FF40063 		mov	r3, #2048
 650 0214 90FBF3F0 		sdiv	r0, r0, r3
 651 0218 0DB0     		add	sp, sp, #52
 652              		.cfi_def_cfa_offset 36
 653              		@ sp needed
 654 021a BDE8F08F 		pop	{r4, r5, r6, r7, r8, r9, r10, fp, pc}
 655              	.LVL71:
 656              	.L68:
 657 021e 00BF     		.align	2
 658              	.L67:
 659 0220 00000000 		.word	lc3_ne_2m5
 660 0224 00000000 		.word	lc3_spectrum_lookup
 661 0228 00000000 		.word	lc3_spectrum_bits
 662              		.cfi_endproc
 663              	.LFE27:
 664              		.size	compute_nbits, .-compute_nbits
 665              		.section	.text.get_nbits_nq,"ax",%progbits
 666              		.align	1
 667              		.thumb
 668              		.thumb_func
 669              		.type	get_nbits_nq, %function
 670              	get_nbits_nq:
 671              	.LFB38:
 411:..\..\..\liblc3\src/spec.c **** 
 412:..\..\..\liblc3\src/spec.c **** /**
 413:..\..\..\liblc3\src/spec.c ****  * Put quantized spectrum
 414:..\..\..\liblc3\src/spec.c ****  * bits            Bitstream context
 415:..\..\..\liblc3\src/spec.c ****  * dt, sr, nbytes  Duration, samplerate and size of the frame
 416:..\..\..\liblc3\src/spec.c ****  * x               Spectral quantized coefficients
 417:..\..\..\liblc3\src/spec.c ****  * nq, lsb_mode    Count of significants, and LSB discard indication
 418:..\..\..\liblc3\src/spec.c ****  */
 419:..\..\..\liblc3\src/spec.c **** LC3_HOT static void put_quantized(lc3_bits_t *bits,
 420:..\..\..\liblc3\src/spec.c ****     enum lc3_dt dt, enum lc3_srate sr, int nbytes,
 421:..\..\..\liblc3\src/spec.c ****     const float *x, int nq, bool lsb_mode)
 422:..\..\..\liblc3\src/spec.c **** {
 423:..\..\..\liblc3\src/spec.c ****     bool high_rate = resolve_modes(sr, nbytes, NULL);
 424:..\..\..\liblc3\src/spec.c ****     int ne = lc3_ne(dt, sr);
 425:..\..\..\liblc3\src/spec.c **** 
 426:..\..\..\liblc3\src/spec.c ****     /* --- Loop on quantized coefficients --- */
 427:..\..\..\liblc3\src/spec.c **** 
 428:..\..\..\liblc3\src/spec.c ****     uint8_t state = 0;
 429:..\..\..\liblc3\src/spec.c **** 
 430:..\..\..\liblc3\src/spec.c ****     for (int i = 0, h = 0; h < 2; h++) {
 431:..\..\..\liblc3\src/spec.c ****         const uint8_t (*lut_coeff)[4] = lc3_spectrum_lookup[high_rate][h];
 432:..\..\..\liblc3\src/spec.c **** 
 433:..\..\..\liblc3\src/spec.c ****         for ( ; i < LC3_MIN(nq, (ne + 2) >> (1 - h)); i += 2) {
ARM GAS  C:\Users\rdn\AppData\Local\Temp\ccYcaPXH.s 			page 22


 434:..\..\..\liblc3\src/spec.c **** 
 435:..\..\..\liblc3\src/spec.c ****             float xq_off = lc3_hr(sr) ? 0.5f : 6.f/16;
 436:..\..\..\liblc3\src/spec.c ****             uint32_t a = fabsf(x[i+0]) + xq_off;
 437:..\..\..\liblc3\src/spec.c ****             uint32_t b = fabsf(x[i+1]) + xq_off;
 438:..\..\..\liblc3\src/spec.c **** 
 439:..\..\..\liblc3\src/spec.c ****             const uint8_t *lut = lut_coeff[state];
 440:..\..\..\liblc3\src/spec.c **** 
 441:..\..\..\liblc3\src/spec.c ****             /* --- LSB values Reduce to 2*2 bits MSB values ---
 442:..\..\..\liblc3\src/spec.c ****              * Reduce to 2x2 bits MSB values. The LSB's pair are arithmetic
 443:..\..\..\liblc3\src/spec.c ****              * coded with an escape code and 1 bits for each values.
 444:..\..\..\liblc3\src/spec.c ****              * The LSB mode discard the first LSB (at this step) */
 445:..\..\..\liblc3\src/spec.c **** 
 446:..\..\..\liblc3\src/spec.c ****             uint32_t m = (a | b) >> 2;
 447:..\..\..\liblc3\src/spec.c ****             unsigned k = 0, shr = 0;
 448:..\..\..\liblc3\src/spec.c **** 
 449:..\..\..\liblc3\src/spec.c ****             if (m) {
 450:..\..\..\liblc3\src/spec.c **** 
 451:..\..\..\liblc3\src/spec.c ****                 if (lsb_mode)
 452:..\..\..\liblc3\src/spec.c ****                     lc3_put_symbol(bits,
 453:..\..\..\liblc3\src/spec.c ****                         lc3_spectrum_models + lut[k++], 16);
 454:..\..\..\liblc3\src/spec.c **** 
 455:..\..\..\liblc3\src/spec.c ****                 for (m >>= lsb_mode; m; m >>= 1, k++) {
 456:..\..\..\liblc3\src/spec.c ****                     lc3_put_bit(bits, (a >> k) & 1);
 457:..\..\..\liblc3\src/spec.c ****                     lc3_put_bit(bits, (b >> k) & 1);
 458:..\..\..\liblc3\src/spec.c ****                     lc3_put_symbol(bits,
 459:..\..\..\liblc3\src/spec.c ****                         lc3_spectrum_models + lut[LC3_MIN(k, 3)], 16);
 460:..\..\..\liblc3\src/spec.c ****                 }
 461:..\..\..\liblc3\src/spec.c **** 
 462:..\..\..\liblc3\src/spec.c ****                 a >>= lsb_mode;
 463:..\..\..\liblc3\src/spec.c ****                 b >>= lsb_mode;
 464:..\..\..\liblc3\src/spec.c **** 
 465:..\..\..\liblc3\src/spec.c ****                 shr = k - lsb_mode;
 466:..\..\..\liblc3\src/spec.c ****                 k = LC3_MIN(k, 3);
 467:..\..\..\liblc3\src/spec.c ****             }
 468:..\..\..\liblc3\src/spec.c **** 
 469:..\..\..\liblc3\src/spec.c ****             /* --- Sign values --- */
 470:..\..\..\liblc3\src/spec.c **** 
 471:..\..\..\liblc3\src/spec.c ****             if (a) lc3_put_bit(bits, x[i+0] < 0);
 472:..\..\..\liblc3\src/spec.c ****             if (b) lc3_put_bit(bits, x[i+1] < 0);
 473:..\..\..\liblc3\src/spec.c **** 
 474:..\..\..\liblc3\src/spec.c ****             /* --- MSB values --- */
 475:..\..\..\liblc3\src/spec.c **** 
 476:..\..\..\liblc3\src/spec.c ****             a >>= shr;
 477:..\..\..\liblc3\src/spec.c ****             b >>= shr;
 478:..\..\..\liblc3\src/spec.c **** 
 479:..\..\..\liblc3\src/spec.c ****             lc3_put_symbol(bits, lc3_spectrum_models + lut[k], a + 4*b);
 480:..\..\..\liblc3\src/spec.c **** 
 481:..\..\..\liblc3\src/spec.c ****             /* --- Update state --- */
 482:..\..\..\liblc3\src/spec.c **** 
 483:..\..\..\liblc3\src/spec.c ****             state = (state << 4) + (k > 1 ? 12 + k : 1 + (a + b) * (k + 1));
 484:..\..\..\liblc3\src/spec.c ****         }
 485:..\..\..\liblc3\src/spec.c ****     }
 486:..\..\..\liblc3\src/spec.c **** }
 487:..\..\..\liblc3\src/spec.c **** 
 488:..\..\..\liblc3\src/spec.c **** /**
 489:..\..\..\liblc3\src/spec.c ****  * Get quantized spectrum
 490:..\..\..\liblc3\src/spec.c ****  * bits            Bitstream context
ARM GAS  C:\Users\rdn\AppData\Local\Temp\ccYcaPXH.s 			page 23


 491:..\..\..\liblc3\src/spec.c ****  * dt, sr, nbytes  Duration, samplerate and size of the frame
 492:..\..\..\liblc3\src/spec.c ****  * nq, lsb_mode    Count of significants, and LSB discard indication
 493:..\..\..\liblc3\src/spec.c ****  * x               Return `nq` spectral quantized coefficients
 494:..\..\..\liblc3\src/spec.c ****  * nf_seed         Return the noise factor seed associated
 495:..\..\..\liblc3\src/spec.c ****  * return          0: Ok  -1: Invalid bitstream data
 496:..\..\..\liblc3\src/spec.c ****  */
 497:..\..\..\liblc3\src/spec.c **** LC3_HOT static int get_quantized(lc3_bits_t *bits,
 498:..\..\..\liblc3\src/spec.c ****     enum lc3_dt dt, enum lc3_srate sr, int nbytes,
 499:..\..\..\liblc3\src/spec.c ****     int nq, bool lsb_mode, float *x, uint16_t *nf_seed)
 500:..\..\..\liblc3\src/spec.c **** {
 501:..\..\..\liblc3\src/spec.c ****     bool high_rate = resolve_modes(sr, nbytes, NULL);
 502:..\..\..\liblc3\src/spec.c ****     int ne = lc3_ne(dt, sr);
 503:..\..\..\liblc3\src/spec.c **** 
 504:..\..\..\liblc3\src/spec.c ****     *nf_seed = 0;
 505:..\..\..\liblc3\src/spec.c **** 
 506:..\..\..\liblc3\src/spec.c ****     /* --- Loop on quantized coefficients --- */
 507:..\..\..\liblc3\src/spec.c **** 
 508:..\..\..\liblc3\src/spec.c ****     uint8_t state = 0;
 509:..\..\..\liblc3\src/spec.c **** 
 510:..\..\..\liblc3\src/spec.c ****     for (int i = 0, h = 0; h < 2; h++) {
 511:..\..\..\liblc3\src/spec.c ****         const uint8_t (*lut_coeff)[4] = lc3_spectrum_lookup[high_rate][h];
 512:..\..\..\liblc3\src/spec.c **** 
 513:..\..\..\liblc3\src/spec.c ****         for ( ; i < LC3_MIN(nq, (ne + 2) >> (1 - h)); i += 2) {
 514:..\..\..\liblc3\src/spec.c **** 
 515:..\..\..\liblc3\src/spec.c ****             const uint8_t *lut = lut_coeff[state];
 516:..\..\..\liblc3\src/spec.c ****             int max_shl = lc3_hr(sr) ? 22 : 14;
 517:..\..\..\liblc3\src/spec.c **** 
 518:..\..\..\liblc3\src/spec.c ****             /* --- LSB values ---
 519:..\..\..\liblc3\src/spec.c ****              * Until the symbol read indicates the escape value 16,
 520:..\..\..\liblc3\src/spec.c ****              * read an LSB bit for each values.
 521:..\..\..\liblc3\src/spec.c ****              * The LSB mode discard the first LSB (at this step) */
 522:..\..\..\liblc3\src/spec.c **** 
 523:..\..\..\liblc3\src/spec.c ****             int u = 0, v = 0;
 524:..\..\..\liblc3\src/spec.c ****             int k = 0, shl = 0;
 525:..\..\..\liblc3\src/spec.c **** 
 526:..\..\..\liblc3\src/spec.c ****             unsigned s = lc3_get_symbol(bits, lc3_spectrum_models + lut[k]);
 527:..\..\..\liblc3\src/spec.c **** 
 528:..\..\..\liblc3\src/spec.c ****             if (lsb_mode && s >= 16) {
 529:..\..\..\liblc3\src/spec.c ****                 s = lc3_get_symbol(bits, lc3_spectrum_models + lut[++k]);
 530:..\..\..\liblc3\src/spec.c ****                 shl++;
 531:..\..\..\liblc3\src/spec.c ****             }
 532:..\..\..\liblc3\src/spec.c **** 
 533:..\..\..\liblc3\src/spec.c ****             for ( ; s >= 16 && shl < max_shl; shl++) {
 534:..\..\..\liblc3\src/spec.c ****                 u |= lc3_get_bit(bits) << shl;
 535:..\..\..\liblc3\src/spec.c ****                 v |= lc3_get_bit(bits) << shl;
 536:..\..\..\liblc3\src/spec.c **** 
 537:..\..\..\liblc3\src/spec.c ****                 k += (k < 3);
 538:..\..\..\liblc3\src/spec.c ****                 s  = lc3_get_symbol(bits, lc3_spectrum_models + lut[k]);
 539:..\..\..\liblc3\src/spec.c ****             }
 540:..\..\..\liblc3\src/spec.c **** 
 541:..\..\..\liblc3\src/spec.c ****             if (s >= 16)
 542:..\..\..\liblc3\src/spec.c ****                 return -1;
 543:..\..\..\liblc3\src/spec.c **** 
 544:..\..\..\liblc3\src/spec.c ****             /* --- MSB & sign values --- */
 545:..\..\..\liblc3\src/spec.c **** 
 546:..\..\..\liblc3\src/spec.c ****             int a = s % 4;
 547:..\..\..\liblc3\src/spec.c ****             int b = s / 4;
ARM GAS  C:\Users\rdn\AppData\Local\Temp\ccYcaPXH.s 			page 24


 548:..\..\..\liblc3\src/spec.c **** 
 549:..\..\..\liblc3\src/spec.c ****             u |= a << shl;
 550:..\..\..\liblc3\src/spec.c ****             v |= b << shl;
 551:..\..\..\liblc3\src/spec.c **** 
 552:..\..\..\liblc3\src/spec.c ****             x[i+0] = u && lc3_get_bit(bits) ? -u : u;
 553:..\..\..\liblc3\src/spec.c ****             x[i+1] = v && lc3_get_bit(bits) ? -v : v;
 554:..\..\..\liblc3\src/spec.c **** 
 555:..\..\..\liblc3\src/spec.c ****             *nf_seed = (*nf_seed + (u & 0x7fff) * (i  )
 556:..\..\..\liblc3\src/spec.c ****                                  + (v & 0x7fff) * (i+1)) & 0xffff;
 557:..\..\..\liblc3\src/spec.c **** 
 558:..\..\..\liblc3\src/spec.c ****             /* --- Update state --- */
 559:..\..\..\liblc3\src/spec.c **** 
 560:..\..\..\liblc3\src/spec.c ****             state = (state << 4) + (k > 1 ? 12 + k : 1 + (a + b) * (k + 1));
 561:..\..\..\liblc3\src/spec.c ****         }
 562:..\..\..\liblc3\src/spec.c ****     }
 563:..\..\..\liblc3\src/spec.c **** 
 564:..\..\..\liblc3\src/spec.c ****     return 0;
 565:..\..\..\liblc3\src/spec.c **** }
 566:..\..\..\liblc3\src/spec.c **** 
 567:..\..\..\liblc3\src/spec.c **** /**
 568:..\..\..\liblc3\src/spec.c ****  * Put residual bits of quantization
 569:..\..\..\liblc3\src/spec.c ****  * bits            Bitstream context
 570:..\..\..\liblc3\src/spec.c ****  * nbits           Maximum number of bits to output
 571:..\..\..\liblc3\src/spec.c ****  * hrmode          High-Resolution mode
 572:..\..\..\liblc3\src/spec.c ****  * x, n            Spectral quantized, and count of significants
 573:..\..\..\liblc3\src/spec.c ****  */
 574:..\..\..\liblc3\src/spec.c **** LC3_HOT static void put_residual(lc3_bits_t *bits,
 575:..\..\..\liblc3\src/spec.c ****     int nbits, bool hrmode, float *x, int n)
 576:..\..\..\liblc3\src/spec.c **** {
 577:..\..\..\liblc3\src/spec.c ****     float xq_lim = hrmode ? 0.5f : 10.f/16;
 578:..\..\..\liblc3\src/spec.c ****     float xq_off = xq_lim / 2;
 579:..\..\..\liblc3\src/spec.c **** 
 580:..\..\..\liblc3\src/spec.c ****     for (int iter = 0; iter < (hrmode ? 20 : 1) && nbits > 0; iter++) {
 581:..\..\..\liblc3\src/spec.c ****         for (int i = 0; i < n && nbits > 0; i++) {
 582:..\..\..\liblc3\src/spec.c **** 
 583:..\..\..\liblc3\src/spec.c ****             float xr = fabsf(x[i]);
 584:..\..\..\liblc3\src/spec.c ****             if (xr < xq_lim)
 585:..\..\..\liblc3\src/spec.c ****                 continue;
 586:..\..\..\liblc3\src/spec.c **** 
 587:..\..\..\liblc3\src/spec.c ****             bool b = (xr - truncf(xr) < xq_lim) ^ (x[i] < 0);
 588:..\..\..\liblc3\src/spec.c ****             lc3_put_bit(bits, b);
 589:..\..\..\liblc3\src/spec.c ****             nbits--;
 590:..\..\..\liblc3\src/spec.c **** 
 591:..\..\..\liblc3\src/spec.c ****             x[i] += b ? -xq_off : xq_off;
 592:..\..\..\liblc3\src/spec.c ****         }
 593:..\..\..\liblc3\src/spec.c **** 
 594:..\..\..\liblc3\src/spec.c ****         xq_off *= xq_lim;
 595:..\..\..\liblc3\src/spec.c ****     }
 596:..\..\..\liblc3\src/spec.c **** }
 597:..\..\..\liblc3\src/spec.c **** 
 598:..\..\..\liblc3\src/spec.c **** /**
 599:..\..\..\liblc3\src/spec.c ****  * Get residual bits of quantization
 600:..\..\..\liblc3\src/spec.c ****  * bits            Bitstream context
 601:..\..\..\liblc3\src/spec.c ****  * nbits           Maximum number of bits to output
 602:..\..\..\liblc3\src/spec.c ****  * hrmode          High-Resolution mode
 603:..\..\..\liblc3\src/spec.c ****  * x, nq           Spectral quantized, and count of significants
 604:..\..\..\liblc3\src/spec.c ****  */
ARM GAS  C:\Users\rdn\AppData\Local\Temp\ccYcaPXH.s 			page 25


 605:..\..\..\liblc3\src/spec.c **** LC3_HOT static void get_residual(lc3_bits_t *bits,
 606:..\..\..\liblc3\src/spec.c ****     int nbits, bool hrmode, float *x, int n)
 607:..\..\..\liblc3\src/spec.c **** {
 608:..\..\..\liblc3\src/spec.c ****     float xq_off_1 = hrmode ? 0.25f : 5.f/16;
 609:..\..\..\liblc3\src/spec.c ****     float xq_off_2 = hrmode ? 0.25f : 3.f/16;
 610:..\..\..\liblc3\src/spec.c **** 
 611:..\..\..\liblc3\src/spec.c ****     for (int iter = 0; iter < (hrmode ? 20 : 1) && nbits > 0; iter++) {
 612:..\..\..\liblc3\src/spec.c ****         for (int i = 0; i < n && nbits > 0; i++) {
 613:..\..\..\liblc3\src/spec.c **** 
 614:..\..\..\liblc3\src/spec.c ****             if (x[i] == 0)
 615:..\..\..\liblc3\src/spec.c ****               continue;
 616:..\..\..\liblc3\src/spec.c **** 
 617:..\..\..\liblc3\src/spec.c ****             if (lc3_get_bit(bits) == 0)
 618:..\..\..\liblc3\src/spec.c ****                 x[i] -= x[i] < 0 ? xq_off_1 : xq_off_2;
 619:..\..\..\liblc3\src/spec.c ****             else
 620:..\..\..\liblc3\src/spec.c ****                 x[i] += x[i] > 0 ? xq_off_1 : xq_off_2;
 621:..\..\..\liblc3\src/spec.c **** 
 622:..\..\..\liblc3\src/spec.c ****             nbits--;
 623:..\..\..\liblc3\src/spec.c ****         }
 624:..\..\..\liblc3\src/spec.c **** 
 625:..\..\..\liblc3\src/spec.c ****         xq_off_1 *= 0.5f;
 626:..\..\..\liblc3\src/spec.c ****         xq_off_2 *= 0.5f;
 627:..\..\..\liblc3\src/spec.c ****     }
 628:..\..\..\liblc3\src/spec.c **** }
 629:..\..\..\liblc3\src/spec.c **** 
 630:..\..\..\liblc3\src/spec.c **** /**
 631:..\..\..\liblc3\src/spec.c ****  * Put LSB values of quantized spectrum values
 632:..\..\..\liblc3\src/spec.c ****  * bits            Bitstream context
 633:..\..\..\liblc3\src/spec.c ****  * nbits           Maximum number of bits to output
 634:..\..\..\liblc3\src/spec.c ****  * hrmode          High-Resolution mode
 635:..\..\..\liblc3\src/spec.c ****  * x, n            Spectral quantized, and count of significants
 636:..\..\..\liblc3\src/spec.c ****  */
 637:..\..\..\liblc3\src/spec.c **** LC3_HOT static void put_lsb(lc3_bits_t *bits,
 638:..\..\..\liblc3\src/spec.c ****     int nbits, bool hrmode, const float *x, int n)
 639:..\..\..\liblc3\src/spec.c **** {
 640:..\..\..\liblc3\src/spec.c ****     for (int i = 0; i < n && nbits > 0; i += 2) {
 641:..\..\..\liblc3\src/spec.c **** 
 642:..\..\..\liblc3\src/spec.c ****         float xq_off = hrmode ? 0.5f : 6.f/16;
 643:..\..\..\liblc3\src/spec.c ****         uint32_t a = fabsf(x[i+0]) + xq_off;
 644:..\..\..\liblc3\src/spec.c ****         uint32_t b = fabsf(x[i+1]) + xq_off;
 645:..\..\..\liblc3\src/spec.c **** 
 646:..\..\..\liblc3\src/spec.c ****         if ((a | b) >> 2 == 0)
 647:..\..\..\liblc3\src/spec.c ****             continue;
 648:..\..\..\liblc3\src/spec.c **** 
 649:..\..\..\liblc3\src/spec.c ****         if (nbits-- > 0)
 650:..\..\..\liblc3\src/spec.c ****             lc3_put_bit(bits, a & 1);
 651:..\..\..\liblc3\src/spec.c **** 
 652:..\..\..\liblc3\src/spec.c ****         if (a == 1 && nbits-- > 0)
 653:..\..\..\liblc3\src/spec.c ****             lc3_put_bit(bits, x[i+0] < 0);
 654:..\..\..\liblc3\src/spec.c **** 
 655:..\..\..\liblc3\src/spec.c ****         if (nbits-- > 0)
 656:..\..\..\liblc3\src/spec.c ****             lc3_put_bit(bits, b & 1);
 657:..\..\..\liblc3\src/spec.c **** 
 658:..\..\..\liblc3\src/spec.c ****         if (b == 1 && nbits-- > 0)
 659:..\..\..\liblc3\src/spec.c ****             lc3_put_bit(bits, x[i+1] < 0);
 660:..\..\..\liblc3\src/spec.c ****     }
 661:..\..\..\liblc3\src/spec.c **** }
ARM GAS  C:\Users\rdn\AppData\Local\Temp\ccYcaPXH.s 			page 26


 662:..\..\..\liblc3\src/spec.c **** 
 663:..\..\..\liblc3\src/spec.c **** /**
 664:..\..\..\liblc3\src/spec.c ****  * Get LSB values of quantized spectrum values
 665:..\..\..\liblc3\src/spec.c ****  * bits            Bitstream context
 666:..\..\..\liblc3\src/spec.c ****  * nbits           Maximum number of bits to output
 667:..\..\..\liblc3\src/spec.c ****  * x, nq           Spectral quantized, and count of significants
 668:..\..\..\liblc3\src/spec.c ****  * nf_seed         Update the noise factor seed according
 669:..\..\..\liblc3\src/spec.c ****  */
 670:..\..\..\liblc3\src/spec.c **** LC3_HOT static void get_lsb(lc3_bits_t *bits,
 671:..\..\..\liblc3\src/spec.c ****     int nbits, float *x, int nq, uint16_t *nf_seed)
 672:..\..\..\liblc3\src/spec.c **** {
 673:..\..\..\liblc3\src/spec.c ****     for (int i = 0; i < nq && nbits > 0; i += 2) {
 674:..\..\..\liblc3\src/spec.c **** 
 675:..\..\..\liblc3\src/spec.c ****         float a = fabsf(x[i]), b = fabsf(x[i+1]);
 676:..\..\..\liblc3\src/spec.c **** 
 677:..\..\..\liblc3\src/spec.c ****         if (fmaxf(a, b) < 4)
 678:..\..\..\liblc3\src/spec.c ****             continue;
 679:..\..\..\liblc3\src/spec.c **** 
 680:..\..\..\liblc3\src/spec.c ****         if (nbits-- > 0 && lc3_get_bit(bits)) {
 681:..\..\..\liblc3\src/spec.c ****             if (a) {
 682:..\..\..\liblc3\src/spec.c ****                 x[i] += x[i] < 0 ? -1 : 1;
 683:..\..\..\liblc3\src/spec.c ****                 *nf_seed = (*nf_seed + i) & 0xffff;
 684:..\..\..\liblc3\src/spec.c ****             } else if (nbits-- > 0) {
 685:..\..\..\liblc3\src/spec.c ****                 x[i] = lc3_get_bit(bits) ? -1 : 1;
 686:..\..\..\liblc3\src/spec.c ****                 *nf_seed = (*nf_seed + i) & 0xffff;
 687:..\..\..\liblc3\src/spec.c ****             }
 688:..\..\..\liblc3\src/spec.c ****         }
 689:..\..\..\liblc3\src/spec.c **** 
 690:..\..\..\liblc3\src/spec.c ****         if (nbits-- > 0 && lc3_get_bit(bits)) {
 691:..\..\..\liblc3\src/spec.c ****             if (b) {
 692:..\..\..\liblc3\src/spec.c ****                 x[i+1] += x[i+1] < 0 ? -1 : 1;
 693:..\..\..\liblc3\src/spec.c ****                 *nf_seed = (*nf_seed + i+1) & 0xffff;
 694:..\..\..\liblc3\src/spec.c ****             } else if (nbits-- > 0) {
 695:..\..\..\liblc3\src/spec.c ****                 x[i+1] = lc3_get_bit(bits) ? -1 : 1;
 696:..\..\..\liblc3\src/spec.c ****                 *nf_seed = (*nf_seed + i+1) & 0xffff;
 697:..\..\..\liblc3\src/spec.c ****             }
 698:..\..\..\liblc3\src/spec.c ****         }
 699:..\..\..\liblc3\src/spec.c ****     }
 700:..\..\..\liblc3\src/spec.c **** }
 701:..\..\..\liblc3\src/spec.c **** 
 702:..\..\..\liblc3\src/spec.c **** 
 703:..\..\..\liblc3\src/spec.c **** /* ----------------------------------------------------------------------------
 704:..\..\..\liblc3\src/spec.c ****  *  Noise coding
 705:..\..\..\liblc3\src/spec.c ****  * -------------------------------------------------------------------------- */
 706:..\..\..\liblc3\src/spec.c **** 
 707:..\..\..\liblc3\src/spec.c **** /**
 708:..\..\..\liblc3\src/spec.c ****  * Estimate noise level
 709:..\..\..\liblc3\src/spec.c ****  * dt, bw          Duration and bandwidth of the frame
 710:..\..\..\liblc3\src/spec.c ****  * hrmode          High-Resolution mode
 711:..\..\..\liblc3\src/spec.c ****  * x, n            Spectral quantized, and count of significants
 712:..\..\..\liblc3\src/spec.c ****  * return          Noise factor (0 to 7)
 713:..\..\..\liblc3\src/spec.c ****  */
 714:..\..\..\liblc3\src/spec.c **** LC3_HOT static int estimate_noise(
 715:..\..\..\liblc3\src/spec.c ****     enum lc3_dt dt, enum lc3_bandwidth bw, bool hrmode, const float *x, int n)
 716:..\..\..\liblc3\src/spec.c **** {
 717:..\..\..\liblc3\src/spec.c ****     int bw_stop = lc3_ne(dt, (enum lc3_srate)LC3_MIN(bw, LC3_BANDWIDTH_FB));
 718:..\..\..\liblc3\src/spec.c ****     int w = 1 + (dt >= LC3_DT_7M5) + (dt>= LC3_DT_10M);
ARM GAS  C:\Users\rdn\AppData\Local\Temp\ccYcaPXH.s 			page 27


 719:..\..\..\liblc3\src/spec.c **** 
 720:..\..\..\liblc3\src/spec.c ****     float xq_lim = hrmode ? 0.5f : 10.f/16;
 721:..\..\..\liblc3\src/spec.c ****     float sum = 0;
 722:..\..\..\liblc3\src/spec.c ****     int i, ns = 0, z = 0;
 723:..\..\..\liblc3\src/spec.c **** 
 724:..\..\..\liblc3\src/spec.c ****     for (i = 6 * (1 + dt) - w; i < LC3_MIN(n, bw_stop); i++) {
 725:..\..\..\liblc3\src/spec.c ****         z = fabsf(x[i]) < xq_lim ? z + 1 : 0;
 726:..\..\..\liblc3\src/spec.c ****         if (z > 2*w)
 727:..\..\..\liblc3\src/spec.c ****             sum += fabsf(x[i - w]), ns++;
 728:..\..\..\liblc3\src/spec.c ****     }
 729:..\..\..\liblc3\src/spec.c **** 
 730:..\..\..\liblc3\src/spec.c ****     for ( ; i < bw_stop + w; i++)
 731:..\..\..\liblc3\src/spec.c ****         if (++z > 2*w)
 732:..\..\..\liblc3\src/spec.c ****             sum += fabsf(x[i - w]), ns++;
 733:..\..\..\liblc3\src/spec.c **** 
 734:..\..\..\liblc3\src/spec.c ****     int nf = ns ? 8 - (int)((16 * sum) / ns + 0.5f) : 8;
 735:..\..\..\liblc3\src/spec.c **** 
 736:..\..\..\liblc3\src/spec.c ****     return LC3_CLIP(nf, 0, 7);
 737:..\..\..\liblc3\src/spec.c **** }
 738:..\..\..\liblc3\src/spec.c **** 
 739:..\..\..\liblc3\src/spec.c **** /**
 740:..\..\..\liblc3\src/spec.c ****  * Noise filling
 741:..\..\..\liblc3\src/spec.c ****  * dt, bw          Duration and bandwidth of the frame
 742:..\..\..\liblc3\src/spec.c ****  * nf, nf_seed     The noise factor and pseudo-random seed
 743:..\..\..\liblc3\src/spec.c ****  * g               Quantization gain
 744:..\..\..\liblc3\src/spec.c ****  * x, nq           Spectral quantized, and count of significants
 745:..\..\..\liblc3\src/spec.c ****  */
 746:..\..\..\liblc3\src/spec.c **** LC3_HOT static void fill_noise(enum lc3_dt dt, enum lc3_bandwidth bw,
 747:..\..\..\liblc3\src/spec.c ****     int nf, uint16_t nf_seed, float g, float *x, int nq)
 748:..\..\..\liblc3\src/spec.c **** {
 749:..\..\..\liblc3\src/spec.c ****     int bw_stop = lc3_ne(dt, (enum lc3_srate)LC3_MIN(bw, LC3_BANDWIDTH_FB));
 750:..\..\..\liblc3\src/spec.c ****     int w = 1 + (dt >= LC3_DT_7M5) + (dt>= LC3_DT_10M);
 751:..\..\..\liblc3\src/spec.c **** 
 752:..\..\..\liblc3\src/spec.c ****     float s = g * (float)(8 - nf) / 16;
 753:..\..\..\liblc3\src/spec.c ****     int i, z = 0;
 754:..\..\..\liblc3\src/spec.c **** 
 755:..\..\..\liblc3\src/spec.c ****     for (i = 6 * (1 + dt) - w; i < LC3_MIN(nq, bw_stop); i++) {
 756:..\..\..\liblc3\src/spec.c ****         z = x[i] ? 0 : z + 1;
 757:..\..\..\liblc3\src/spec.c ****         if (z > 2*w) {
 758:..\..\..\liblc3\src/spec.c ****             nf_seed = (13849 + nf_seed*31821) & 0xffff;
 759:..\..\..\liblc3\src/spec.c ****             x[i - w] = nf_seed & 0x8000 ? -s : s;
 760:..\..\..\liblc3\src/spec.c ****         }
 761:..\..\..\liblc3\src/spec.c ****     }
 762:..\..\..\liblc3\src/spec.c **** 
 763:..\..\..\liblc3\src/spec.c ****     for ( ; i < bw_stop + w; i++)
 764:..\..\..\liblc3\src/spec.c ****         if (++z > 2*w) {
 765:..\..\..\liblc3\src/spec.c ****             nf_seed = (13849 + nf_seed*31821) & 0xffff;
 766:..\..\..\liblc3\src/spec.c ****             x[i - w] = nf_seed & 0x8000 ? -s : s;
 767:..\..\..\liblc3\src/spec.c ****         }
 768:..\..\..\liblc3\src/spec.c **** }
 769:..\..\..\liblc3\src/spec.c **** 
 770:..\..\..\liblc3\src/spec.c **** /**
 771:..\..\..\liblc3\src/spec.c ****  * Put noise factor
 772:..\..\..\liblc3\src/spec.c ****  * bits            Bitstream context
 773:..\..\..\liblc3\src/spec.c ****  * nf              Noise factor (0 to 7)
 774:..\..\..\liblc3\src/spec.c ****  */
 775:..\..\..\liblc3\src/spec.c **** static void put_noise_factor(lc3_bits_t *bits, int nf)
ARM GAS  C:\Users\rdn\AppData\Local\Temp\ccYcaPXH.s 			page 28


 776:..\..\..\liblc3\src/spec.c **** {
 777:..\..\..\liblc3\src/spec.c ****     lc3_put_bits(bits, nf, 3);
 778:..\..\..\liblc3\src/spec.c **** }
 779:..\..\..\liblc3\src/spec.c **** 
 780:..\..\..\liblc3\src/spec.c **** /**
 781:..\..\..\liblc3\src/spec.c ****  * Get noise factor
 782:..\..\..\liblc3\src/spec.c ****  * bits            Bitstream context
 783:..\..\..\liblc3\src/spec.c ****  * return          Noise factor (0 to 7)
 784:..\..\..\liblc3\src/spec.c ****  */
 785:..\..\..\liblc3\src/spec.c **** static int get_noise_factor(lc3_bits_t *bits)
 786:..\..\..\liblc3\src/spec.c **** {
 787:..\..\..\liblc3\src/spec.c ****     return lc3_get_bits(bits, 3);
 788:..\..\..\liblc3\src/spec.c **** }
 789:..\..\..\liblc3\src/spec.c **** 
 790:..\..\..\liblc3\src/spec.c **** 
 791:..\..\..\liblc3\src/spec.c **** /* ----------------------------------------------------------------------------
 792:..\..\..\liblc3\src/spec.c ****  *  Encoding
 793:..\..\..\liblc3\src/spec.c ****  * -------------------------------------------------------------------------- */
 794:..\..\..\liblc3\src/spec.c **** 
 795:..\..\..\liblc3\src/spec.c **** /**
 796:..\..\..\liblc3\src/spec.c ****  * Bit consumption of the number of coded coefficients
 797:..\..\..\liblc3\src/spec.c ****  * dt, sr, nbytes  Duration, samplerate and size of the frame
 798:..\..\..\liblc3\src/spec.c ****  * return          Bit consumpution of the number of coded coefficients
 799:..\..\..\liblc3\src/spec.c ****  */
 800:..\..\..\liblc3\src/spec.c **** static int get_nbits_nq(enum lc3_dt dt, enum lc3_srate sr)
 801:..\..\..\liblc3\src/spec.c **** {
 672              		.loc 1 801 0
 673              		.cfi_startproc
 674              		@ args = 0, pretend = 0, frame = 0
 675              		@ frame_needed = 0, uses_anonymous_args = 0
 676              		@ link register save eliminated.
 677              	.LVL72:
 678              	.LBB106:
 679              	.LBB107:
 680              		.loc 2 51 0
 681 0000 0C4B     		ldr	r3, .L72
 682 0002 53F82130 		ldr	r3, [r3, r1, lsl #2]
 683 0006 00FB0330 		mla	r0, r0, r3, r3
 684              	.LVL73:
 685              	.LBE107:
 686              	.LBE106:
 802:..\..\..\liblc3\src/spec.c ****     int ne = lc3_ne(dt, sr);
 803:..\..\..\liblc3\src/spec.c ****     return 4 + (ne > 32) + (ne > 64) + (ne > 128) + (ne > 256) + (ne > 512);
 687              		.loc 1 803 0
 688 000a 2028     		cmp	r0, #32
 689 000c CCBF     		ite	gt
 690 000e 0523     		movgt	r3, #5
 691 0010 0423     		movle	r3, #4
 692 0012 4028     		cmp	r0, #64
 693 0014 C8BF     		it	gt
 694 0016 0133     		addgt	r3, r3, #1
 695 0018 8028     		cmp	r0, #128
 696 001a C8BF     		it	gt
 697 001c 0133     		addgt	r3, r3, #1
 698 001e B0F5807F 		cmp	r0, #256
 699 0022 C8BF     		it	gt
 700 0024 0133     		addgt	r3, r3, #1
ARM GAS  C:\Users\rdn\AppData\Local\Temp\ccYcaPXH.s 			page 29


 804:..\..\..\liblc3\src/spec.c **** }
 701              		.loc 1 804 0
 702 0026 B0F5007F 		cmp	r0, #512
 703 002a D4BF     		ite	le
 704 002c 1846     		movle	r0, r3
 705 002e 581C     		addgt	r0, r3, #1
 706 0030 7047     		bx	lr
 707              	.L73:
 708 0032 00BF     		.align	2
 709              	.L72:
 710 0034 00000000 		.word	lc3_ne_2m5
 711              		.cfi_endproc
 712              	.LFE38:
 713              		.size	get_nbits_nq, .-get_nbits_nq
 714              		.section	.text.estimate_gain,"ax",%progbits
 715              		.align	1
 716              		.thumb
 717              		.thumb_func
 718              		.type	estimate_gain, %function
 719              	estimate_gain:
 720              	.LFB22:
  86:..\..\..\liblc3\src/spec.c ****     int n4 = lc3_ne(dt, sr) / 4;
 721              		.loc 1 86 0
 722              		.cfi_startproc
 723              		@ args = 16, pretend = 0, frame = 1008
 724              		@ frame_needed = 0, uses_anonymous_args = 0
 725              	.LVL74:
 726 0000 2DE9F04F 		push	{r4, r5, r6, r7, r8, r9, r10, fp, lr}
 727              		.cfi_def_cfa_offset 36
 728              		.cfi_offset 4, -36
 729              		.cfi_offset 5, -32
 730              		.cfi_offset 6, -28
 731              		.cfi_offset 7, -24
 732              		.cfi_offset 8, -20
 733              		.cfi_offset 9, -16
 734              		.cfi_offset 10, -12
 735              		.cfi_offset 11, -8
 736              		.cfi_offset 14, -4
 737 0004 2DED068B 		vpush.64	{d8, d9, d10}
 738              		.cfi_def_cfa_offset 60
 739              		.cfi_offset 80, -60
 740              		.cfi_offset 81, -56
 741              		.cfi_offset 82, -52
 742              		.cfi_offset 83, -48
 743              		.cfi_offset 84, -44
 744              		.cfi_offset 85, -40
 745 0008 9846     		mov	r8, r3
 746              	.LBB125:
 747              	.LBB126:
 748              		.loc 2 51 0
 749 000a E04B     		ldr	r3, .L119
 750              	.LVL75:
 751              	.LBE126:
 752              	.LBE125:
  86:..\..\..\liblc3\src/spec.c ****     int n4 = lc3_ne(dt, sr) / 4;
 753              		.loc 1 86 0
 754 000c ADF57D7D 		sub	sp, sp, #1012
ARM GAS  C:\Users\rdn\AppData\Local\Temp\ccYcaPXH.s 			page 30


 755              		.cfi_def_cfa_offset 1072
  87:..\..\..\liblc3\src/spec.c ****     union { float f; int32_t q16; } e[LC3_MAX_NE / 4];
 756              		.loc 1 87 0
 757 0010 53F82130 		ldr	r3, [r3, r1, lsl #2]
  86:..\..\..\liblc3\src/spec.c ****     int n4 = lc3_ne(dt, sr) / 4;
 758              		.loc 1 86 0
 759 0014 DDF83C64 		ldr	r6, [sp, #1084]
 760              	.LBB128:
 761              	.LBB127:
 762              		.loc 2 51 0
 763 0018 00F10109 		add	r9, r0, #1
 764              	.LVL76:
 765              	.LBE127:
 766              	.LBE128:
  95:..\..\..\liblc3\src/spec.c ****         int reg_c = (const int [LC3_NUM_DT][LC3_NUM_SRATE - LC3_SRATE_48K_HR]){
 767              		.loc 1 95 0
 768 001c 0429     		cmp	r1, #4
  87:..\..\..\liblc3\src/spec.c ****     union { float f; int32_t q16; } e[LC3_MAX_NE / 4];
 769              		.loc 1 87 0
 770 001e 03FB09F3 		mul	r3, r3, r9
 771 0022 4FF00407 		mov	r7, #4
  86:..\..\..\liblc3\src/spec.c ****     int n4 = lc3_ne(dt, sr) / 4;
 772              		.loc 1 86 0
 773 0026 8346     		mov	fp, r0
 774 0028 0D46     		mov	r5, r1
 775 002a 1446     		mov	r4, r2
 776 002c B0EE409A 		vmov.f32	s18, s0
  87:..\..\..\liblc3\src/spec.c ****     union { float f; int32_t q16; } e[LC3_MAX_NE / 4];
 777              		.loc 1 87 0
 778 0030 93FBF7F7 		sdiv	r7, r3, r7
 779              	.LVL77:
  95:..\..\..\liblc3\src/spec.c ****         int reg_c = (const int [LC3_NUM_DT][LC3_NUM_SRATE - LC3_SRATE_48K_HR]){
 780              		.loc 1 95 0
 781 0034 40F28380 		bls	.L99
 782              	.LBB129:
  96:..\..\..\liblc3\src/spec.c ****             [LC3_DT_2M5] = { -6, -6 },
 783              		.loc 1 96 0
 784 0038 0DF1100A 		add	r10, sp, #16
 785 003c 2022     		movs	r2, #32
 786              	.LVL78:
 787 003e 0021     		movs	r1, #0
 788              	.LVL79:
 789 0040 5046     		mov	r0, r10
 790              	.LVL80:
 791 0042 FFF7FEFF 		bl	memset
 792              	.LVL81:
 793 0046 6FF00503 		mvn	r3, #5
 794 004a CAF80030 		str	r3, [r10]
 795 004e CAF80430 		str	r3, [r10, #4]
 796 0052 0223     		movs	r3, #2
 797 0054 CAF81830 		str	r3, [r10, #24]
 798 0058 0523     		movs	r3, #5
 799 005a CAF81C30 		str	r3, [r10, #28]
 800              	.LVL82:
 103:..\..\..\liblc3\src/spec.c **** 
 801              		.loc 1 103 0
 802 005e 08FA03F8 		lsl	r8, r8, r3
ARM GAS  C:\Users\rdn\AppData\Local\Temp\ccYcaPXH.s 			page 31


 803              	.LVL83:
 804 0062 7D23     		movs	r3, #125
 805 0064 03FB09F3 		mul	r3, r3, r9
 806 0068 98FBF3F8 		sdiv	r8, r8, r3
 807              	.LVL84:
  96:..\..\..\liblc3\src/spec.c ****             [LC3_DT_2M5] = { -6, -6 },
 808              		.loc 1 96 0
 809 006c 6B1F     		subs	r3, r5, #5
 810 006e 03EB4B0B 		add	fp, r3, fp, lsl #1
 811              	.LVL85:
 103:..\..\..\liblc3\src/spec.c **** 
 812              		.loc 1 103 0
 813 0072 5AF82B30 		ldr	r3, [r10, fp, lsl #2]
 814 0076 9844     		add	r8, r8, r3
 815              	.LVL86:
 816 0078 B8F1160F 		cmp	r8, #22
 817 007c 05DC     		bgt	.L100
 103:..\..\..\liblc3\src/spec.c **** 
 818              		.loc 1 103 0 is_stmt 0 discriminator 1
 819 007e B8F1060F 		cmp	r8, #6
 820 0082 B8BF     		it	lt
 821 0084 4FF00608 		movlt	r8, #6
 822 0088 01E0     		b	.L76
 823              	.L100:
 103:..\..\..\liblc3\src/spec.c **** 
 824              		.loc 1 103 0
 825 008a 4FF01708 		mov	r8, #23
 826              	.L76:
 827              	.LVL87:
 105:..\..\..\liblc3\src/spec.c **** 
 828              		.loc 1 105 0 is_stmt 1 discriminator 4
 829 008e 9FEDC07A 		vldr.32	s14, .L119+4
 830 0092 DFEDC05A 		vldr.32	s11, .L119+8
 831 0096 2346     		mov	r3, r4
 832              	.LBB130:
 107:..\..\..\liblc3\src/spec.c ****             m0 += fabsf(x[4*i + 0]),  m1 += fabsf(x[4*i + 0]) * k++;
 833              		.loc 1 107 0 discriminator 4
 834 0098 0022     		movs	r2, #0
 835              	.LBE130:
 105:..\..\..\liblc3\src/spec.c **** 
 836              		.loc 1 105 0 discriminator 4
 837 009a F0EE477A 		vmov.f32	s15, s14
 838              	.LBB131:
 108:..\..\..\liblc3\src/spec.c ****             m0 += fabsf(x[4*i + 1]),  m1 += fabsf(x[4*i + 1]) * k++;
 839              		.loc 1 108 0 discriminator 4
 840 009e F7EE006A 		vmov.f32	s13, #1.0e+0
 841              	.LVL88:
 842              	.L77:
 107:..\..\..\liblc3\src/spec.c ****             m0 += fabsf(x[4*i + 0]),  m1 += fabsf(x[4*i + 0]) * k++;
 843              		.loc 1 107 0 discriminator 1
 844 00a2 BA42     		cmp	r2, r7
 845 00a4 03F11003 		add	r3, r3, #16
 846 00a8 29DA     		bge	.L115
 108:..\..\..\liblc3\src/spec.c ****             m0 += fabsf(x[4*i + 1]),  m1 += fabsf(x[4*i + 1]) * k++;
 847              		.loc 1 108 0 discriminator 3
 848 00aa 13ED046A 		vldr.32	s12, [r3, #-16]
 849 00ae B0EEC66A 		vabs.f32	s12, s12
ARM GAS  C:\Users\rdn\AppData\Local\Temp\ccYcaPXH.s 			page 32


 850 00b2 A5EE867A 		vfma.f32	s14, s11, s12
 851              	.LVL89:
 107:..\..\..\liblc3\src/spec.c ****             m0 += fabsf(x[4*i + 0]),  m1 += fabsf(x[4*i + 0]) * k++;
 852              		.loc 1 107 0 discriminator 3
 853 00b6 0132     		adds	r2, r2, #1
 854              	.LVL90:
 108:..\..\..\liblc3\src/spec.c ****             m0 += fabsf(x[4*i + 1]),  m1 += fabsf(x[4*i + 1]) * k++;
 855              		.loc 1 108 0 discriminator 3
 856 00b8 77EE867A 		vadd.f32	s15, s15, s12
 857              	.LVL91:
 109:..\..\..\liblc3\src/spec.c ****             m0 += fabsf(x[4*i + 2]),  m1 += fabsf(x[4*i + 2]) * k++;
 858              		.loc 1 109 0 discriminator 3
 859 00bc 13ED036A 		vldr.32	s12, [r3, #-12]
 108:..\..\..\liblc3\src/spec.c ****             m0 += fabsf(x[4*i + 1]),  m1 += fabsf(x[4*i + 1]) * k++;
 860              		.loc 1 108 0 discriminator 3
 861 00c0 35EEA65A 		vadd.f32	s10, s11, s13
 862              	.LVL92:
 109:..\..\..\liblc3\src/spec.c ****             m0 += fabsf(x[4*i + 2]),  m1 += fabsf(x[4*i + 2]) * k++;
 863              		.loc 1 109 0 discriminator 3
 864 00c4 B0EEC66A 		vabs.f32	s12, s12
 865 00c8 A5EE067A 		vfma.f32	s14, s10, s12
 866              	.LVL93:
 867 00cc 77EE867A 		vadd.f32	s15, s15, s12
 868              	.LVL94:
 110:..\..\..\liblc3\src/spec.c ****             m0 += fabsf(x[4*i + 3]),  m1 += fabsf(x[4*i + 3]) * k++;
 869              		.loc 1 110 0 discriminator 3
 870 00d0 13ED026A 		vldr.32	s12, [r3, #-8]
 109:..\..\..\liblc3\src/spec.c ****             m0 += fabsf(x[4*i + 2]),  m1 += fabsf(x[4*i + 2]) * k++;
 871              		.loc 1 109 0 discriminator 3
 872 00d4 75EE265A 		vadd.f32	s11, s10, s13
 873              	.LVL95:
 110:..\..\..\liblc3\src/spec.c ****             m0 += fabsf(x[4*i + 3]),  m1 += fabsf(x[4*i + 3]) * k++;
 874              		.loc 1 110 0 discriminator 3
 875 00d8 B0EEC66A 		vabs.f32	s12, s12
 876 00dc A5EE867A 		vfma.f32	s14, s11, s12
 877              	.LVL96:
 878 00e0 77EE867A 		vadd.f32	s15, s15, s12
 879              	.LVL97:
 111:..\..\..\liblc3\src/spec.c ****         }
 880              		.loc 1 111 0 discriminator 3
 881 00e4 13ED016A 		vldr.32	s12, [r3, #-4]
 110:..\..\..\liblc3\src/spec.c ****             m0 += fabsf(x[4*i + 3]),  m1 += fabsf(x[4*i + 3]) * k++;
 882              		.loc 1 110 0 discriminator 3
 883 00e8 35EEA65A 		vadd.f32	s10, s11, s13
 884              	.LVL98:
 111:..\..\..\liblc3\src/spec.c ****         }
 885              		.loc 1 111 0 discriminator 3
 886 00ec B0EEC66A 		vabs.f32	s12, s12
 887 00f0 77EE867A 		vadd.f32	s15, s15, s12
 888              	.LVL99:
 889 00f4 75EE265A 		vadd.f32	s11, s10, s13
 890              	.LVL100:
 891 00f8 A5EE067A 		vfma.f32	s14, s10, s12
 892              	.LVL101:
 893 00fc D1E7     		b	.L77
 894              	.L115:
 895              	.LBE131:
ARM GAS  C:\Users\rdn\AppData\Local\Temp\ccYcaPXH.s 			page 33


 114:..\..\..\liblc3\src/spec.c ****         low_bits = 8 - LC3_MIN(m, 8);
 896              		.loc 1 114 0
 897 00fe DFEDA66A 		vldr.32	s13, .L119+12
 898 0102 67EEA67A 		vmul.f32	s15, s15, s13
 899              	.LVL102:
 900 0106 06EE909A 		vmov	s13, r9	@ int
 901 010a F8EEE66A 		vcvt.f32.s32	s13, s13
 902 010e 26EE877A 		vmul.f32	s14, s13, s14
 903              	.LVL103:
 904 0112 C7EE876A 		vdiv.f32	s13, s15, s14
 905 0116 16EE900A 		vmov	r0, s13
 906 011a FFF7FEFF 		bl	roundf
 907              	.LVL104:
 115:..\..\..\liblc3\src/spec.c ****     }
 908              		.loc 1 115 0
 909 011e 07EE900A 		vmov	s15, r0
 910 0122 FDEEE77A 		vcvt.s32.f32	s15, s15
 911 0126 17EE900A 		vmov	r0, s15	@ int
 912              	.LVL105:
 913 012a 0828     		cmp	r0, #8
 914 012c A8BF     		it	ge
 915 012e 0820     		movge	r0, #8
 916 0130 C0F10800 		rsb	r0, r0, #8
 917 0134 07EE900A 		vmov	s15, r0	@ int
 918 0138 B8EEE78A 		vcvt.f32.s32	s16, s15
 919              	.LVL106:
 920 013c 03E0     		b	.L75
 921              	.LVL107:
 922              	.L99:
 923              	.LBE129:
  93:..\..\..\liblc3\src/spec.c **** 
 924              		.loc 1 93 0
 925 013e 9FED958A 		vldr.32	s16, .L119+8
  92:..\..\..\liblc3\src/spec.c ****     float low_bits = 0;
 926              		.loc 1 92 0
 927 0142 4FF00008 		mov	r8, #0
 928              	.LVL108:
 929              	.L75:
 930 0146 0DF1300A 		add	r10, sp, #48
 931              	.LBB132:
 122:..\..\..\liblc3\src/spec.c ****         float x0 = x[4*i + 0] * x[4*i + 0];
 932              		.loc 1 122 0
 933 014a 4FF00009 		mov	r9, #0
 934              	.LBE132:
 120:..\..\..\liblc3\src/spec.c **** 
 935              		.loc 1 120 0
 936 014e 0020     		movs	r0, #0
 937              	.LVL109:
 938              	.L79:
 939              	.LBB135:
 122:..\..\..\liblc3\src/spec.c ****         float x0 = x[4*i + 0] * x[4*i + 0];
 940              		.loc 1 122 0 discriminator 1
 941 0150 B945     		cmp	r9, r7
 942 0152 04F11004 		add	r4, r4, #16
 943 0156 2ADA     		bge	.L116
 944              	.LBB133:
 123:..\..\..\liblc3\src/spec.c ****         float x1 = x[4*i + 1] * x[4*i + 1];
ARM GAS  C:\Users\rdn\AppData\Local\Temp\ccYcaPXH.s 			page 34


 945              		.loc 1 123 0 discriminator 3
 946 0158 54ED048A 		vldr.32	s17, [r4, #-16]
 124:..\..\..\liblc3\src/spec.c ****         float x2 = x[4*i + 2] * x[4*i + 2];
 947              		.loc 1 124 0 discriminator 3
 948 015c 54ED037A 		vldr.32	s15, [r4, #-12]
 125:..\..\..\liblc3\src/spec.c ****         float x3 = x[4*i + 3] * x[4*i + 3];
 949              		.loc 1 125 0 discriminator 3
 950 0160 14ED02AA 		vldr.32	s20, [r4, #-8]
 126:..\..\..\liblc3\src/spec.c **** 
 951              		.loc 1 126 0 discriminator 3
 952 0164 54ED019A 		vldr.32	s19, [r4, #-4]
 123:..\..\..\liblc3\src/spec.c ****         float x1 = x[4*i + 1] * x[4*i + 1];
 953              		.loc 1 123 0 discriminator 3
 954 0168 68EEA88A 		vmul.f32	s17, s17, s17
 955              	.LVL110:
 124:..\..\..\liblc3\src/spec.c ****         float x2 = x[4*i + 2] * x[4*i + 2];
 956              		.loc 1 124 0 discriminator 3
 957 016c 67EEA7AA 		vmul.f32	s21, s15, s15
 958              	.LVL111:
 128:..\..\..\liblc3\src/spec.c ****         x2_max = fmaxf(x2_max, x1);
 959              		.loc 1 128 0 discriminator 3
 960 0170 18EE901A 		vmov	r1, s17
 125:..\..\..\liblc3\src/spec.c ****         float x3 = x[4*i + 3] * x[4*i + 3];
 961              		.loc 1 125 0 discriminator 3
 962 0174 2AEE0AAA 		vmul.f32	s20, s20, s20
 963              	.LVL112:
 128:..\..\..\liblc3\src/spec.c ****         x2_max = fmaxf(x2_max, x1);
 964              		.loc 1 128 0 discriminator 3
 965 0178 FFF7FEFF 		bl	fmaxf
 966              	.LVL113:
 126:..\..\..\liblc3\src/spec.c **** 
 967              		.loc 1 126 0 discriminator 3
 968 017c 69EEA99A 		vmul.f32	s19, s19, s19
 969              	.LVL114:
 129:..\..\..\liblc3\src/spec.c ****         x2_max = fmaxf(x2_max, x2);
 970              		.loc 1 129 0 discriminator 3
 971 0180 1AEE901A 		vmov	r1, s21
 972 0184 FFF7FEFF 		bl	fmaxf
 973              	.LVL115:
 130:..\..\..\liblc3\src/spec.c ****         x2_max = fmaxf(x2_max, x3);
 974              		.loc 1 130 0 discriminator 3
 975 0188 1AEE101A 		vmov	r1, s20
 976 018c FFF7FEFF 		bl	fmaxf
 977              	.LVL116:
 131:..\..\..\liblc3\src/spec.c **** 
 978              		.loc 1 131 0 discriminator 3
 979 0190 19EE901A 		vmov	r1, s19
 980 0194 FFF7FEFF 		bl	fmaxf
 981              	.LVL117:
 133:..\..\..\liblc3\src/spec.c ****     }
 982              		.loc 1 133 0 discriminator 3
 983 0198 78EEAA7A 		vadd.f32	s15, s17, s21
 984              	.LBE133:
 122:..\..\..\liblc3\src/spec.c ****         float x0 = x[4*i + 0] * x[4*i + 0];
 985              		.loc 1 122 0 discriminator 3
 986 019c 09F10109 		add	r9, r9, #1
 987              	.LVL118:
ARM GAS  C:\Users\rdn\AppData\Local\Temp\ccYcaPXH.s 			page 35


 988              	.LBB134:
 133:..\..\..\liblc3\src/spec.c ****     }
 989              		.loc 1 133 0 discriminator 3
 990 01a0 77EE8A8A 		vadd.f32	s17, s15, s20
 991              	.LVL119:
 992 01a4 78EEA98A 		vadd.f32	s17, s17, s19
 993 01a8 EAEC018A 		vstmia.32	r10!, {s17}
 994 01ac D0E7     		b	.L79
 995              	.LVL120:
 996              	.L116:
 997              	.LBE134:
 998              	.LBE135:
 136:..\..\..\liblc3\src/spec.c ****     float nf = lc3_hr(sr) ?
 999              		.loc 1 136 0
 1000 01ae FFF7FEFF 		bl	sqrtf
 1001              	.LVL121:
 138:..\..\..\liblc3\src/spec.c **** 
 1002              		.loc 1 138 0
 1003 01b2 042D     		cmp	r5, #4
 136:..\..\..\liblc3\src/spec.c ****     float nf = lc3_hr(sr) ?
 1004              		.loc 1 136 0
 1005 01b4 08EE900A 		vmov	s17, r0
 1006              	.LVL122:
 138:..\..\..\liblc3\src/spec.c **** 
 1007              		.loc 1 138 0
 1008 01b8 3FD9     		bls	.L101
 1009              	.LVL123:
 1010              	.LBB136:
 1011              	.LBB137:
 1012              		.file 3 "..\\..\\..\\liblc3\\src\\fastmath.h"
   1:..\..\..\liblc3\src/fastmath.h **** /******************************************************************************
   2:..\..\..\liblc3\src/fastmath.h ****  *
   3:..\..\..\liblc3\src/fastmath.h ****  *  Copyright 2022 Google LLC
   4:..\..\..\liblc3\src/fastmath.h ****  *
   5:..\..\..\liblc3\src/fastmath.h ****  *  Licensed under the Apache License, Version 2.0 (the "License");
   6:..\..\..\liblc3\src/fastmath.h ****  *  you may not use this file except in compliance with the License.
   7:..\..\..\liblc3\src/fastmath.h ****  *  You may obtain a copy of the License at:
   8:..\..\..\liblc3\src/fastmath.h ****  *
   9:..\..\..\liblc3\src/fastmath.h ****  *  http://www.apache.org/licenses/LICENSE-2.0
  10:..\..\..\liblc3\src/fastmath.h ****  *
  11:..\..\..\liblc3\src/fastmath.h ****  *  Unless required by applicable law or agreed to in writing, software
  12:..\..\..\liblc3\src/fastmath.h ****  *  distributed under the License is distributed on an "AS IS" BASIS,
  13:..\..\..\liblc3\src/fastmath.h ****  *  WITHOUT WARRANTIES OR CONDITIONS OF ANY KIND, either express or implied.
  14:..\..\..\liblc3\src/fastmath.h ****  *  See the License for the specific language governing permissions and
  15:..\..\..\liblc3\src/fastmath.h ****  *  limitations under the License.
  16:..\..\..\liblc3\src/fastmath.h ****  *
  17:..\..\..\liblc3\src/fastmath.h ****  ******************************************************************************/
  18:..\..\..\liblc3\src/fastmath.h **** 
  19:..\..\..\liblc3\src/fastmath.h **** #ifndef __LC3_FASTMATH_H
  20:..\..\..\liblc3\src/fastmath.h **** #define __LC3_FASTMATH_H
  21:..\..\..\liblc3\src/fastmath.h **** 
  22:..\..\..\liblc3\src/fastmath.h **** #include <stdint.h>
  23:..\..\..\liblc3\src/fastmath.h **** #include <math.h>
  24:..\..\..\liblc3\src/fastmath.h **** 
  25:..\..\..\liblc3\src/fastmath.h **** 
  26:..\..\..\liblc3\src/fastmath.h **** /**
  27:..\..\..\liblc3\src/fastmath.h ****  * IEEE 754 Floating point representation
ARM GAS  C:\Users\rdn\AppData\Local\Temp\ccYcaPXH.s 			page 36


  28:..\..\..\liblc3\src/fastmath.h ****  */
  29:..\..\..\liblc3\src/fastmath.h **** 
  30:..\..\..\liblc3\src/fastmath.h **** #define LC3_IEEE754_SIGN_SHL   (31)
  31:..\..\..\liblc3\src/fastmath.h **** #define LC3_IEEE754_SIGN_MASK  (1 << LC3_IEEE754_SIGN_SHL)
  32:..\..\..\liblc3\src/fastmath.h **** 
  33:..\..\..\liblc3\src/fastmath.h **** #define LC3_IEEE754_EXP_SHL    (23)
  34:..\..\..\liblc3\src/fastmath.h **** #define LC3_IEEE754_EXP_MASK   (0xff << LC3_IEEE754_EXP_SHL)
  35:..\..\..\liblc3\src/fastmath.h **** #define LC3_IEEE754_EXP_BIAS   (127)
  36:..\..\..\liblc3\src/fastmath.h **** 
  37:..\..\..\liblc3\src/fastmath.h **** 
  38:..\..\..\liblc3\src/fastmath.h **** /**
  39:..\..\..\liblc3\src/fastmath.h ****  * Fast multiply floating-point number by integral power of 2
  40:..\..\..\liblc3\src/fastmath.h ****  * x               Operand, finite number
  41:..\..\..\liblc3\src/fastmath.h ****  * exp             Exponent such that 2^x is finite
  42:..\..\..\liblc3\src/fastmath.h ****  * return          2^exp
  43:..\..\..\liblc3\src/fastmath.h ****  */
  44:..\..\..\liblc3\src/fastmath.h **** static inline float lc3_ldexpf(float _x, int exp) {
  45:..\..\..\liblc3\src/fastmath.h ****     union { float f; int32_t s; } x = { .f = _x };
  46:..\..\..\liblc3\src/fastmath.h **** 
  47:..\..\..\liblc3\src/fastmath.h ****     if (x.s & LC3_IEEE754_EXP_MASK)
  48:..\..\..\liblc3\src/fastmath.h ****         x.s += exp << LC3_IEEE754_EXP_SHL;
  49:..\..\..\liblc3\src/fastmath.h **** 
  50:..\..\..\liblc3\src/fastmath.h ****     return x.f;
  51:..\..\..\liblc3\src/fastmath.h **** }
  52:..\..\..\liblc3\src/fastmath.h **** 
  53:..\..\..\liblc3\src/fastmath.h **** /**
  54:..\..\..\liblc3\src/fastmath.h ****  * Fast convert floating-point number to fractional and integral components
  55:..\..\..\liblc3\src/fastmath.h ****  * x               Operand, finite number
  56:..\..\..\liblc3\src/fastmath.h ****  * exp             Return the exponent part
  57:..\..\..\liblc3\src/fastmath.h ****  * return          The normalized fraction in [0.5:1[
  58:..\..\..\liblc3\src/fastmath.h ****  */
  59:..\..\..\liblc3\src/fastmath.h **** static inline float lc3_frexpf(float _x, int *exp) {
  60:..\..\..\liblc3\src/fastmath.h ****     union { float f; uint32_t u; } x = { .f = _x };
  61:..\..\..\liblc3\src/fastmath.h **** 
  62:..\..\..\liblc3\src/fastmath.h ****     int e = (x.u & LC3_IEEE754_EXP_MASK) >> LC3_IEEE754_EXP_SHL;
  63:..\..\..\liblc3\src/fastmath.h ****     *exp = e - (LC3_IEEE754_EXP_BIAS - 1);
  64:..\..\..\liblc3\src/fastmath.h **** 
  65:..\..\..\liblc3\src/fastmath.h ****     x.u = (x.u & ~LC3_IEEE754_EXP_MASK) |
  66:..\..\..\liblc3\src/fastmath.h ****         ((LC3_IEEE754_EXP_BIAS - 1) << LC3_IEEE754_EXP_SHL);
  67:..\..\..\liblc3\src/fastmath.h **** 
  68:..\..\..\liblc3\src/fastmath.h ****     return x.f;
  69:..\..\..\liblc3\src/fastmath.h **** }
  70:..\..\..\liblc3\src/fastmath.h **** 
  71:..\..\..\liblc3\src/fastmath.h **** /**
  72:..\..\..\liblc3\src/fastmath.h ****  * Fast 2^n approximation
  73:..\..\..\liblc3\src/fastmath.h ****  * x               Operand, range -100 to 100
  74:..\..\..\liblc3\src/fastmath.h ****  * return          2^x approximation (max relative error ~ 4e-7)
  75:..\..\..\liblc3\src/fastmath.h ****  */
  76:..\..\..\liblc3\src/fastmath.h **** static inline float lc3_exp2f(float x)
  77:..\..\..\liblc3\src/fastmath.h **** {
  78:..\..\..\liblc3\src/fastmath.h ****     /* --- 2^(i/8) for i from 0 to 7 --- */
  79:..\..\..\liblc3\src/fastmath.h **** 
  80:..\..\..\liblc3\src/fastmath.h ****     static const float e[] = {
  81:..\..\..\liblc3\src/fastmath.h ****         1.00000000e+00, 1.09050773e+00, 1.18920712e+00, 1.29683955e+00,
  82:..\..\..\liblc3\src/fastmath.h ****         1.41421356e+00, 1.54221083e+00, 1.68179283e+00, 1.83400809e+00 };
  83:..\..\..\liblc3\src/fastmath.h **** 
  84:..\..\..\liblc3\src/fastmath.h ****     /* --- Polynomial approx in range 0 to 1/8 --- */
ARM GAS  C:\Users\rdn\AppData\Local\Temp\ccYcaPXH.s 			page 37


  85:..\..\..\liblc3\src/fastmath.h **** 
  86:..\..\..\liblc3\src/fastmath.h ****     static const float p[] = {
  87:..\..\..\liblc3\src/fastmath.h ****         1.00448128e-02, 5.54563260e-02, 2.40228756e-01, 6.93147140e-01 };
  88:..\..\..\liblc3\src/fastmath.h **** 
  89:..\..\..\liblc3\src/fastmath.h ****     /* --- Split the operand ---
  90:..\..\..\liblc3\src/fastmath.h ****      *
  91:..\..\..\liblc3\src/fastmath.h ****      * Such as x = k/8 + y, with k an integer, and |y| < 0.5/8
  92:..\..\..\liblc3\src/fastmath.h ****      *
  93:..\..\..\liblc3\src/fastmath.h ****      * Note that `fast-math` compiler option leads to rounding error,
  94:..\..\..\liblc3\src/fastmath.h ****      * disable optimisation with `volatile`. */
  95:..\..\..\liblc3\src/fastmath.h **** 
  96:..\..\..\liblc3\src/fastmath.h ****     volatile union { float f; int32_t s; } v;
  97:..\..\..\liblc3\src/fastmath.h **** 
  98:..\..\..\liblc3\src/fastmath.h ****     v.f = x + 0x1.8p20f;
 1013              		.loc 3 98 0 discriminator 1
 1014 01ba DFED786A 		vldr.32	s13, .L119+16
  99:..\..\..\liblc3\src/fastmath.h ****     int k = v.s;
 100:..\..\..\liblc3\src/fastmath.h ****     x -= v.f - 0x1.8p20f;
 101:..\..\..\liblc3\src/fastmath.h **** 
 102:..\..\..\liblc3\src/fastmath.h ****     /* --- Compute 2^x, with |x| < 1 ---
 103:..\..\..\liblc3\src/fastmath.h ****      * Perform polynomial approximation in range -0.5/8 to 0.5/8,
 104:..\..\..\liblc3\src/fastmath.h ****      * and muplity by precomputed value of 2^(i/8), i in [0:7] */
 105:..\..\..\liblc3\src/fastmath.h **** 
 106:..\..\..\liblc3\src/fastmath.h ****     union { float f; int32_t s; } y;
 107:..\..\..\liblc3\src/fastmath.h **** 
 108:..\..\..\liblc3\src/fastmath.h ****     y.f = (      p[0]) * x;
 109:..\..\..\liblc3\src/fastmath.h ****     y.f = (y.f + p[1]) * x;
 110:..\..\..\liblc3\src/fastmath.h ****     y.f = (y.f + p[2]) * x;
 111:..\..\..\liblc3\src/fastmath.h ****     y.f = (y.f + p[3]) * x;
 112:..\..\..\liblc3\src/fastmath.h ****     y.f = (y.f +  1.f) * e[k & 7];
 113:..\..\..\liblc3\src/fastmath.h **** 
 114:..\..\..\liblc3\src/fastmath.h ****     /* --- Add the exponent --- */
 115:..\..\..\liblc3\src/fastmath.h **** 
 116:..\..\..\liblc3\src/fastmath.h ****     y.s += (k >> 3) << LC3_IEEE754_EXP_SHL;
 1015              		.loc 3 116 0 discriminator 1
 1016 01be 9FED786A 		vldr.32	s12, .L119+20
 112:..\..\..\liblc3\src/fastmath.h **** 
 1017              		.loc 3 112 0 discriminator 1
 1018 01c2 784A     		ldr	r2, .L119+24
  98:..\..\..\liblc3\src/fastmath.h ****     int k = v.s;
 1019              		.loc 3 98 0 discriminator 1
 1020 01c4 76EEC87A 		vsub.f32	s15, s13, s16
 1021              	.LBE137:
 1022              	.LBE136:
 1023              	.LBB141:
 1024              	.LBB142:
  47:..\..\..\liblc3\src/fastmath.h ****         x.s += exp << LC3_IEEE754_EXP_SHL;
 1025              		.loc 3 47 0 discriminator 1
 1026 01c8 10F0FF4F 		tst	r0, #2139095040
 1027 01cc 0346     		mov	r3, r0
 1028              	.LBE142:
 1029              	.LBE141:
 1030              	.LBB145:
 1031              	.LBB138:
  98:..\..\..\liblc3\src/fastmath.h ****     int k = v.s;
 1032              		.loc 3 98 0 discriminator 1
 1033 01ce CDED037A 		vstr.32	s15, [sp, #12]
ARM GAS  C:\Users\rdn\AppData\Local\Temp\ccYcaPXH.s 			page 38


 1034              	.LBE138:
 1035              	.LBE145:
 1036              	.LBB146:
 1037              	.LBB143:
  48:..\..\..\liblc3\src/fastmath.h **** 
 1038              		.loc 3 48 0 discriminator 1
 1039 01d2 1CBF     		itt	ne
 1040 01d4 A0EBC853 		subne	r3, r0, r8, lsl #23
 1041 01d8 07EE103A 		vmovne	s14, r3	@ int
 1042              	.LVL124:
 1043              	.LBE143:
 1044              	.LBE146:
 1045              	.LBB147:
 1046              	.LBB139:
  99:..\..\..\liblc3\src/fastmath.h ****     x -= v.f - 0x1.8p20f;
 1047              		.loc 3 99 0 discriminator 1
 1048 01dc 039B     		ldr	r3, [sp, #12]
 100:..\..\..\liblc3\src/fastmath.h **** 
 1049              		.loc 3 100 0 discriminator 1
 1050 01de DDED037A 		vldr.32	s15, [sp, #12]
 1051 01e2 77EEE67A 		vsub.f32	s15, s15, s13
 1052 01e6 B1EE488A 		vneg.f32	s16, s16
 1053              	.LVL125:
 1054 01ea 78EE677A 		vsub.f32	s15, s16, s15
 1055              		.loc 3 116 0 discriminator 1
 1056 01ee DFED6E6A 		vldr.32	s13, .L119+28
 1057 01f2 E7EE866A 		vfma.f32	s13, s15, s12
 112:..\..\..\liblc3\src/fastmath.h **** 
 1058              		.loc 3 112 0 discriminator 1
 1059 01f6 03F00701 		and	r1, r3, #7
 1060 01fa 02EB8102 		add	r2, r2, r1, lsl #2
 1061              		.loc 3 116 0 discriminator 1
 1062 01fe 9FED6B6A 		vldr.32	s12, .L119+32
 1063 0202 A7EEA66A 		vfma.f32	s12, s15, s13
 1064 0206 4FEAE303 		asr	r3, r3, #3
 1065 020a DFED696A 		vldr.32	s13, .L119+36
 1066 020e E7EE866A 		vfma.f32	s13, s15, s12
 1067 0212 B7EE008A 		vmov.f32	s16, #1.0e+0
 1068 0216 A7EEA68A 		vfma.f32	s16, s15, s13
 1069 021a D2ED1C7A 		vldr.32	s15, [r2, #112]
 1070 021e 28EE278A 		vmul.f32	s16, s16, s15
 1071              	.LBE139:
 1072              	.LBE147:
 1073              	.LBB148:
 1074              	.LBB144:
  45:..\..\..\liblc3\src/fastmath.h **** 
 1075              		.loc 3 45 0 discriminator 1
 1076 0222 08BF     		it	eq
 1077 0224 B0EE687A 		vmoveq.f32	s14, s17
 1078              	.LVL126:
 1079              	.LBE144:
 1080              	.LBE148:
 1081              	.LBB149:
 1082              	.LBB140:
 1083              		.loc 3 116 0 discriminator 1
 1084 0228 18EE102A 		vmov	r2, s16	@ int
 1085 022c 02EBC353 		add	r3, r2, r3, lsl #23
ARM GAS  C:\Users\rdn\AppData\Local\Temp\ccYcaPXH.s 			page 39


 1086 0230 08EE103A 		vmov	s16, r3	@ int
 1087              	.LBE140:
 1088              	.LBE149:
 138:..\..\..\liblc3\src/spec.c **** 
 1089              		.loc 1 138 0 discriminator 1
 1090 0234 27EE088A 		vmul.f32	s16, s14, s16
 1091 0238 01E0     		b	.L81
 1092              	.LVL127:
 1093              	.L101:
 138:..\..\..\liblc3\src/spec.c **** 
 1094              		.loc 1 138 0 is_stmt 0
 1095 023a 9FED568A 		vldr.32	s16, .L119+8
 1096              	.LVL128:
 1097              	.L81:
 1098              	.LBB150:
 1099              	.LBB151:
 1100              	.LBB152:
 117:..\..\..\liblc3\src/fastmath.h **** 
 118:..\..\..\liblc3\src/fastmath.h ****     return y.f;
 119:..\..\..\liblc3\src/fastmath.h **** }
 120:..\..\..\liblc3\src/fastmath.h **** 
 121:..\..\..\liblc3\src/fastmath.h **** /**
 122:..\..\..\liblc3\src/fastmath.h ****  * Fast log2(x) approximation
 123:..\..\..\liblc3\src/fastmath.h ****  * x               Operand, greater than 0
 124:..\..\..\liblc3\src/fastmath.h ****  * return          log2(x) approximation (max absolute error ~ 1e-4)
 125:..\..\..\liblc3\src/fastmath.h ****  */
 126:..\..\..\liblc3\src/fastmath.h **** static inline float lc3_log2f(float x)
 127:..\..\..\liblc3\src/fastmath.h **** {
 128:..\..\..\liblc3\src/fastmath.h ****     float y;
 129:..\..\..\liblc3\src/fastmath.h ****     int e;
 130:..\..\..\liblc3\src/fastmath.h **** 
 131:..\..\..\liblc3\src/fastmath.h ****     /* --- Polynomial approx in range 0.5 to 1 --- */
 132:..\..\..\liblc3\src/fastmath.h **** 
 133:..\..\..\liblc3\src/fastmath.h ****     static const float c[] = {
 134:..\..\..\liblc3\src/fastmath.h ****         -1.29479677, 5.11769018, -8.42295281, 8.10557963, -3.50567360 };
 135:..\..\..\liblc3\src/fastmath.h **** 
 136:..\..\..\liblc3\src/fastmath.h ****     x = lc3_frexpf(x, &e);
 137:..\..\..\liblc3\src/fastmath.h **** 
 138:..\..\..\liblc3\src/fastmath.h ****     y = (    c[0]) * x;
 139:..\..\..\liblc3\src/fastmath.h ****     y = (y + c[1]) * x;
 140:..\..\..\liblc3\src/fastmath.h ****     y = (y + c[2]) * x;
 141:..\..\..\liblc3\src/fastmath.h ****     y = (y + c[3]) * x;
 142:..\..\..\liblc3\src/fastmath.h ****     y = (y + c[4]);
 143:..\..\..\liblc3\src/fastmath.h **** 
 144:..\..\..\liblc3\src/fastmath.h ****     /* --- Add log2f(2^e) and return --- */
 145:..\..\..\liblc3\src/fastmath.h **** 
 146:..\..\..\liblc3\src/fastmath.h ****     return e + y;
 147:..\..\..\liblc3\src/fastmath.h **** }
 148:..\..\..\liblc3\src/fastmath.h **** 
 149:..\..\..\liblc3\src/fastmath.h **** /**
 150:..\..\..\liblc3\src/fastmath.h ****  * Fast log10(x) approximation
 151:..\..\..\liblc3\src/fastmath.h ****  * x               Operand, greater than 0
 152:..\..\..\liblc3\src/fastmath.h ****  * return          log10(x) approximation (max absolute error ~ 1e-4)
 153:..\..\..\liblc3\src/fastmath.h ****  */
 154:..\..\..\liblc3\src/fastmath.h **** static inline float lc3_log10f(float x)
 155:..\..\..\liblc3\src/fastmath.h **** {
 156:..\..\..\liblc3\src/fastmath.h ****     return log10f(2) * lc3_log2f(x);
ARM GAS  C:\Users\rdn\AppData\Local\Temp\ccYcaPXH.s 			page 40


 157:..\..\..\liblc3\src/fastmath.h **** }
 158:..\..\..\liblc3\src/fastmath.h **** 
 159:..\..\..\liblc3\src/fastmath.h **** /**
 160:..\..\..\liblc3\src/fastmath.h ****  * Fast `10 * log10(x)` (or dB) approximation in fixed Q16
 161:..\..\..\liblc3\src/fastmath.h ****  * x               Operand, in range 2^-63 to 2^63 (1e-19 to 1e19)
 162:..\..\..\liblc3\src/fastmath.h ****  * return          10 * log10(x) in fixed Q16 (-190 to 192 dB)
 163:..\..\..\liblc3\src/fastmath.h ****  *
 164:..\..\..\liblc3\src/fastmath.h ****  * - The 0 value is accepted and return the minimum value ~ -191dB
 165:..\..\..\liblc3\src/fastmath.h ****  * - This function assumed that float 32 bits is coded IEEE 754
 166:..\..\..\liblc3\src/fastmath.h ****  */
 167:..\..\..\liblc3\src/fastmath.h **** static inline int32_t lc3_db_q16(float x)
 168:..\..\..\liblc3\src/fastmath.h **** {
 169:..\..\..\liblc3\src/fastmath.h ****     /* --- Table in Q15 --- */
 170:..\..\..\liblc3\src/fastmath.h **** 
 171:..\..\..\liblc3\src/fastmath.h ****     static const uint16_t t[][2] = {
 172:..\..\..\liblc3\src/fastmath.h **** 
 173:..\..\..\liblc3\src/fastmath.h ****         /* [n][0] = 10 * log10(2) * log2(1 + n/32), with n = [0..15]     */
 174:..\..\..\liblc3\src/fastmath.h ****         /* [n][1] = [n+1][0] - [n][0] (while defining [16][0])           */
 175:..\..\..\liblc3\src/fastmath.h **** 
 176:..\..\..\liblc3\src/fastmath.h ****         {     0, 4379 }, {  4379, 4248 }, {  8627, 4125 }, { 12753, 4009 },
 177:..\..\..\liblc3\src/fastmath.h ****         { 16762, 3899 }, { 20661, 3795 }, { 24456, 3697 }, { 28153, 3603 },
 178:..\..\..\liblc3\src/fastmath.h ****         { 31755, 3514 }, { 35269, 3429 }, { 38699, 3349 }, { 42047, 3272 },
 179:..\..\..\liblc3\src/fastmath.h ****         { 45319, 3198 }, { 48517, 3128 }, { 51645, 3061 }, { 54705, 2996 },
 180:..\..\..\liblc3\src/fastmath.h **** 
 181:..\..\..\liblc3\src/fastmath.h ****         /* [n][0] = 10 * log10(2) * log2(1 + n/32) - 10 * log10(2) / 2,  */
 182:..\..\..\liblc3\src/fastmath.h ****         /*     with n = [16..31]                                         */
 183:..\..\..\liblc3\src/fastmath.h ****         /* [n][1] = [n+1][0] - [n][0] (while defining [32][0])           */
 184:..\..\..\liblc3\src/fastmath.h **** 
 185:..\..\..\liblc3\src/fastmath.h ****         {  8381, 2934 }, { 11315, 2875 }, { 14190, 2818 }, { 17008, 2763 },
 186:..\..\..\liblc3\src/fastmath.h ****         { 19772, 2711 }, { 22482, 2660 }, { 25142, 2611 }, { 27754, 2564 },
 187:..\..\..\liblc3\src/fastmath.h ****         { 30318, 2519 }, { 32837, 2475 }, { 35312, 2433 }, { 37744, 2392 },
 188:..\..\..\liblc3\src/fastmath.h ****         { 40136, 2352 }, { 42489, 2314 }, { 44803, 2277 }, { 47080, 2241 },
 189:..\..\..\liblc3\src/fastmath.h **** 
 190:..\..\..\liblc3\src/fastmath.h ****     };
 191:..\..\..\liblc3\src/fastmath.h **** 
 192:..\..\..\liblc3\src/fastmath.h ****     /* --- Approximation ---
 193:..\..\..\liblc3\src/fastmath.h ****      *
 194:..\..\..\liblc3\src/fastmath.h ****      *   10 * log10(x^2) = 10 * log10(2) * log2(x^2)
 195:..\..\..\liblc3\src/fastmath.h ****      *
 196:..\..\..\liblc3\src/fastmath.h ****      *   And log2(x^2) = 2 * log2( (1 + m) * 2^e )
 197:..\..\..\liblc3\src/fastmath.h ****      *                 = 2 * (e + log2(1 + m)) , with m in range [0..1]
 198:..\..\..\liblc3\src/fastmath.h ****      *
 199:..\..\..\liblc3\src/fastmath.h ****      * Split the float values in :
 200:..\..\..\liblc3\src/fastmath.h ****      *   e2  Double value of the exponent (2 * e + k)
 201:..\..\..\liblc3\src/fastmath.h ****      *   hi  High 5 bits of mantissa, for precalculated result `t[hi][0]`
 202:..\..\..\liblc3\src/fastmath.h ****      *   lo  Low 16 bits of mantissa, for linear interpolation `t[hi][1]`
 203:..\..\..\liblc3\src/fastmath.h ****      *
 204:..\..\..\liblc3\src/fastmath.h ****      * Two cases, from the range of the mantissa :
 205:..\..\..\liblc3\src/fastmath.h ****      *   0 to 0.5   `k = 0`, use 1st part of the table
 206:..\..\..\liblc3\src/fastmath.h ****      *   0.5 to 1   `k = 1`, use 2nd part of the table  */
 207:..\..\..\liblc3\src/fastmath.h **** 
 208:..\..\..\liblc3\src/fastmath.h ****     union { float f; uint32_t u; } x2 = { .f = x*x };
 209:..\..\..\liblc3\src/fastmath.h **** 
 210:..\..\..\liblc3\src/fastmath.h ****     int e2 = (int)(x2.u >> 22) - 2*127;
 211:..\..\..\liblc3\src/fastmath.h ****     int hi = (x2.u >> 18) & 0x1f;
 212:..\..\..\liblc3\src/fastmath.h ****     int lo = (x2.u >>  2) & 0xffff;
 213:..\..\..\liblc3\src/fastmath.h **** 
ARM GAS  C:\Users\rdn\AppData\Local\Temp\ccYcaPXH.s 			page 41


 214:..\..\..\liblc3\src/fastmath.h ****     return e2 * 49321 + t[hi][0] + ((t[hi][1] * lo) >> 16);
 1101              		.loc 3 214 0 is_stmt 1
 1102 023e DFF864A1 		ldr	r10, .L119+24
 1103 0242 0DF12C08 		add	r8, sp, #44
 1104              	.LVL129:
 1105              	.LBE152:
 1106              	.LBE151:
 140:..\..\..\liblc3\src/spec.c ****         e[i].q16 = lc3_db_q16(fmaxf(e[i].f + nf, 1e-10f));
 1107              		.loc 1 140 0
 1108 0246 0024     		movs	r4, #0
 141:..\..\..\liblc3\src/spec.c **** 
 1109              		.loc 1 141 0
 1110 0248 4CF2A909 		movw	r9, #49321
 1111              	.LVL130:
 1112              	.L83:
 140:..\..\..\liblc3\src/spec.c ****         e[i].q16 = lc3_db_q16(fmaxf(e[i].f + nf, 1e-10f));
 1113              		.loc 1 140 0 discriminator 1
 1114 024c BC42     		cmp	r4, r7
 1115 024e 23DA     		bge	.L117
 141:..\..\..\liblc3\src/spec.c **** 
 1116              		.loc 1 141 0 discriminator 3
 1117 0250 D8ED017A 		vldr.32	s15, [r8, #4]
 1118 0254 5749     		ldr	r1, .L119+40
 1119 0256 78EE277A 		vadd.f32	s15, s16, s15
 140:..\..\..\liblc3\src/spec.c ****         e[i].q16 = lc3_db_q16(fmaxf(e[i].f + nf, 1e-10f));
 1120              		.loc 1 140 0 discriminator 3
 1121 025a 0134     		adds	r4, r4, #1
 1122              	.LVL131:
 141:..\..\..\liblc3\src/spec.c **** 
 1123              		.loc 1 141 0 discriminator 3
 1124 025c 17EE900A 		vmov	r0, s15
 1125 0260 FFF7FEFF 		bl	fmaxf
 1126              	.LVL132:
 1127              	.LBB154:
 1128              	.LBB153:
 210:..\..\..\liblc3\src/fastmath.h ****     int hi = (x2.u >> 18) & 0x1f;
 1129              		.loc 3 210 0 discriminator 3
 1130 0264 07EE900A 		vmov	s15, r0
 1131 0268 67EEA77A 		vmul.f32	s15, s15, s15
 1132              	.LVL133:
 1133 026c 17EE900A 		vmov	r0, s15
 1134              	.LVL134:
 211:..\..\..\liblc3\src/fastmath.h ****     int lo = (x2.u >>  2) & 0xffff;
 1135              		.loc 3 211 0 discriminator 3
 1136 0270 C0F38442 		ubfx	r2, r0, #18, #5
 1137              	.LVL135:
 1138              		.loc 3 214 0 discriminator 3
 1139 0274 0AEB8202 		add	r2, r10, r2, lsl #2
 1140              	.LBE153:
 1141              	.LBE154:
 141:..\..\..\liblc3\src/spec.c **** 
 1142              		.loc 1 141 0 discriminator 3
 1143 0278 830D     		lsrs	r3, r0, #22
 1144 027a B2F89010 		ldrh	r1, [r2, #144]
 1145 027e B2F89220 		ldrh	r2, [r2, #146]
 1146 0282 FE3B     		subs	r3, r3, #254
 1147 0284 C0F38F00 		ubfx	r0, r0, #2, #16
ARM GAS  C:\Users\rdn\AppData\Local\Temp\ccYcaPXH.s 			page 42


 1148 0288 09FB0313 		mla	r3, r9, r3, r1
 1149 028c 5043     		muls	r0, r2, r0
 1150 028e 03EB2040 		add	r0, r3, r0, asr #16
 1151 0292 48F8040F 		str	r0, [r8, #4]!
 1152 0296 D9E7     		b	.L83
 1153              	.L117:
 1154              	.LVL136:
 1155 0298 DDF83024 		ldr	r2, [sp, #1072]
 1156              	.LBE150:
 146:..\..\..\liblc3\src/spec.c **** 
 1157              		.loc 1 146 0
 1158 029c DDF83404 		ldr	r0, [sp, #1076]
 1159 02a0 07EE902A 		vmov	s15, r2	@ int
 1160 02a4 F8EEE77A 		vcvt.f32.s32	s15, s15
 1161 02a8 434A     		ldr	r2, .L119+44
 1162 02aa 37EE899A 		vadd.f32	s18, s15, s18
 1163              	.LVL137:
 1164 02ae F6EE007A 		vmov.f32	s15, #5.0e-1
 1165 02b2 39EE279A 		vadd.f32	s18, s18, s15
 1166 02b6 C0F1FF00 		rsb	r0, r0, #255
 1167              	.LVL138:
 1168 02ba BDEEC99A 		vcvt.s32.f32	s18, s18
 1169              	.LBB155:
 152:..\..\..\liblc3\src/spec.c ****         int gn = (g_int - i) * k_20_28;
 1170              		.loc 1 152 0
 1171 02be 7B1E     		subs	r3, r7, #1
 1172 02c0 19EE101A 		vmov	r1, s18	@ int
 1173 02c4 5143     		muls	r1, r2, r1
 1174 02c6 0093     		str	r3, [sp]
 1175              	.LVL139:
 1176 02c8 0191     		str	r1, [sp, #4]
 1177              	.LBE155:
 146:..\..\..\liblc3\src/spec.c **** 
 1178              		.loc 1 146 0
 1179 02ca 0446     		mov	r4, r0
 1180              	.LVL140:
 1181              	.LBB161:
 1182              	.LBB156:
 166:..\..\..\liblc3\src/spec.c ****             j0 = j1;
 1183              		.loc 1 166 0
 1184 02cc 4FF0080E 		mov	lr, #8
 1185              	.LBE156:
 152:..\..\..\liblc3\src/spec.c ****         int gn = (g_int - i) * k_20_28;
 1186              		.loc 1 152 0
 1187 02d0 4FF0800C 		mov	ip, #128
 1188              	.LBB159:
 156:..\..\..\liblc3\src/spec.c **** 
 1189              		.loc 1 156 0
 1190 02d4 0DF1300A 		add	r10, sp, #48
 1191              	.LVL141:
 1192              	.L92:
 153:..\..\..\liblc3\src/spec.c ****         int v = 0;
 1193              		.loc 1 153 0
 1194 02d8 CCEB0409 		rsb	r9, ip, r4
 1195 02dc 4BF2DB63 		movw	r3, #46811
 156:..\..\..\liblc3\src/spec.c **** 
 1196              		.loc 1 156 0
ARM GAS  C:\Users\rdn\AppData\Local\Temp\ccYcaPXH.s 			page 43


 1197 02e0 0099     		ldr	r1, [sp]
 153:..\..\..\liblc3\src/spec.c ****         int v = 0;
 1198              		.loc 1 153 0
 1199 02e2 03FB09F8 		mul	r8, r3, r9
 1200              	.LVL142:
 1201              	.L85:
 156:..\..\..\liblc3\src/spec.c **** 
 1202              		.loc 1 156 0 discriminator 1
 1203 02e6 0029     		cmp	r1, #0
 1204 02e8 1BDB     		blt	.L103
 156:..\..\..\liblc3\src/spec.c **** 
 1205              		.loc 1 156 0 is_stmt 0 discriminator 3
 1206 02ea 5AF82120 		ldr	r2, [r10, r1, lsl #2]
 1207 02ee 9045     		cmp	r8, r2
 1208 02f0 01DD     		ble	.L118
 156:..\..\..\liblc3\src/spec.c **** 
 1209              		.loc 1 156 0 discriminator 4
 1210 02f2 0139     		subs	r1, r1, #1
 1211              	.LVL143:
 1212 02f4 F7E7     		b	.L85
 1213              	.L118:
 1214 02f6 8B46     		mov	fp, r1
 1215 02f8 0027     		movs	r7, #0
 1216              	.LVL144:
 1217              	.L90:
 1218              	.LBB157:
 159:..\..\..\liblc3\src/spec.c **** 
 1219              		.loc 1 159 0 is_stmt 1
 1220 02fa 5AF82B20 		ldr	r2, [r10, fp, lsl #2]
 1221              	.LVL145:
 161:..\..\..\liblc3\src/spec.c ****                  e_diff < 43 << 16 ?   e_diff + ( 7 << 16)
 1222              		.loc 1 161 0
 1223 02fe B2EB0802 		subs	r2, r2, r8
 1224              	.LVL146:
 1225 0302 08D4     		bmi	.L104
 161:..\..\..\liblc3\src/spec.c ****                  e_diff < 43 << 16 ?   e_diff + ( 7 << 16)
 1226              		.loc 1 161 0 is_stmt 0 discriminator 1
 1227 0304 2D4B     		ldr	r3, .L119+48
 1228 0306 9A42     		cmp	r2, r3
 1229 0308 CABF     		itet	gt
 1230 030a A2F59012 		subgt	r2, r2, #1179648
 1231              	.LVL147:
 1232 030e 02F5E022 		addle	r2, r2, #458752
 1233 0312 5200     		lslgt	r2, r2, #1
 1234 0314 00E0     		b	.L88
 1235              	.LVL148:
 1236              	.L104:
 161:..\..\..\liblc3\src/spec.c ****                  e_diff < 43 << 16 ?   e_diff + ( 7 << 16)
 1237              		.loc 1 161 0
 1238 0316 2A4A     		ldr	r2, .L119+52
 1239              	.LVL149:
 1240              	.L88:
 1241              	.LBE157:
 158:..\..\..\liblc3\src/spec.c ****             int e_diff = e[j].q16 - gn;
 1242              		.loc 1 158 0 is_stmt 1 discriminator 8
 1243 0318 1BF1FF3B 		adds	fp, fp, #-1
 1244              	.LVL150:
ARM GAS  C:\Users\rdn\AppData\Local\Temp\ccYcaPXH.s 			page 44


 1245              	.LBB158:
 161:..\..\..\liblc3\src/spec.c ****                  e_diff < 43 << 16 ?   e_diff + ( 7 << 16)
 1246              		.loc 1 161 0 discriminator 8
 1247 031c 1744     		add	r7, r7, r2
 1248              	.LVL151:
 1249              	.LBE158:
 158:..\..\..\liblc3\src/spec.c ****             int e_diff = e[j].q16 - gn;
 1250              		.loc 1 158 0 discriminator 8
 1251 031e ECD2     		bcs	.L90
 1252 0320 00E0     		b	.L86
 1253              	.LVL152:
 1254              	.L103:
 1255 0322 0027     		movs	r7, #0
 1256              	.LVL153:
 1257              	.L86:
 169:..\..\..\liblc3\src/spec.c ****     }
 1258              		.loc 1 169 0
 1259 0324 019B     		ldr	r3, [sp, #4]
 1260 0326 BB42     		cmp	r3, r7
 1261 0328 A8BF     		it	ge
 1262 032a 4C46     		movge	r4, r9
 1263              	.LVL154:
 1264 032c 009B     		ldr	r3, [sp]
 1265 032e B8BF     		it	lt
 1266 0330 0B46     		movlt	r3, r1
 1267              	.LBE159:
 152:..\..\..\liblc3\src/spec.c ****         int gn = (g_int - i) * k_20_28;
 1268              		.loc 1 152 0
 1269 0332 BEF1010E 		subs	lr, lr, #1
 1270              	.LBB160:
 169:..\..\..\liblc3\src/spec.c ****     }
 1271              		.loc 1 169 0
 1272 0336 0093     		str	r3, [sp]
 1273              	.LVL155:
 1274              	.LBE160:
 152:..\..\..\liblc3\src/spec.c ****         int gn = (g_int - i) * k_20_28;
 1275              		.loc 1 152 0
 1276 0338 4FEA6C0C 		asr	ip, ip, #1
 1277              	.LVL156:
 1278 033c CCD1     		bne	.L92
 1279              	.LBE161:
 174:..\..\..\liblc3\src/spec.c **** 
 1280              		.loc 1 174 0
 1281 033e DFED216A 		vldr.32	s13, .L119+56
 1282 0342 DFED217A 		vldr.32	s15, .L119+60
 176:..\..\..\liblc3\src/spec.c ****     for (int i = 128 ; i > 0; i >>= 1)
 1283              		.loc 1 176 0
 1284 0346 3060     		str	r0, [r6]
 174:..\..\..\liblc3\src/spec.c **** 
 1285              		.loc 1 174 0
 1286 0348 042D     		cmp	r5, #4
 1287 034a 88BF     		it	hi
 1288 034c F0EE676A 		vmovhi.f32	s13, s15
 1289              	.LVL157:
 176:..\..\..\liblc3\src/spec.c ****     for (int i = 128 ; i > 0; i >>= 1)
 1290              		.loc 1 176 0
 1291 0350 0821     		movs	r1, #8
ARM GAS  C:\Users\rdn\AppData\Local\Temp\ccYcaPXH.s 			page 45


 1292              	.LBB162:
 177:..\..\..\liblc3\src/spec.c ****         if (x_lim * unquantize_gain(*g_min - i) > x_max)
 1293              		.loc 1 177 0
 1294 0352 8025     		movs	r5, #128
 1295              	.LVL158:
 1296              	.L96:
 178:..\..\..\liblc3\src/spec.c ****             *g_min -= i;
 1297              		.loc 1 178 0
 1298 0354 3268     		ldr	r2, [r6]
 1299 0356 521B     		subs	r2, r2, r5
 1300 0358 1046     		mov	r0, r2
 1301 035a FFF7FEFF 		bl	unquantize_gain
 1302              	.LVL159:
 1303 035e 26EE800A 		vmul.f32	s0, s13, s0
 177:..\..\..\liblc3\src/spec.c ****         if (x_lim * unquantize_gain(*g_min - i) > x_max)
 1304              		.loc 1 177 0
 1305 0362 6D10     		asrs	r5, r5, #1
 1306              	.LVL160:
 178:..\..\..\liblc3\src/spec.c ****             *g_min -= i;
 1307              		.loc 1 178 0
 1308 0364 F4EEC08A 		vcmpe.f32	s17, s0
 1309 0368 F1EE10FA 		vmrs	APSR_nzcv, FPSCR
 179:..\..\..\liblc3\src/spec.c **** 
 1310              		.loc 1 179 0
 1311 036c 48BF     		it	mi
 1312 036e 3260     		strmi	r2, [r6]
 177:..\..\..\liblc3\src/spec.c ****         if (x_lim * unquantize_gain(*g_min - i) > x_max)
 1313              		.loc 1 177 0
 1314 0370 0139     		subs	r1, r1, #1
 1315 0372 EFD1     		bne	.L96
 1316              	.LBE162:
 181:..\..\..\liblc3\src/spec.c ****     if (*reset_off)
 1317              		.loc 1 181 0
 1318 0374 3068     		ldr	r0, [r6]
 1319 0376 8442     		cmp	r4, r0
 1320 0378 28DB     		blt	.L107
 181:..\..\..\liblc3\src/spec.c ****     if (*reset_off)
 1321              		.loc 1 181 0 is_stmt 0 discriminator 2
 1322 037a F5EE408A 		vcmp.f32	s17, #0
 1323 037e F1EE10FA 		vmrs	APSR_nzcv, FPSCR
 1324 0382 0CBF     		ite	eq
 1325 0384 0123     		moveq	r3, #1
 1326 0386 0023     		movne	r3, #0
 1327 0388 21E0     		b	.L97
 1328              	.L120:
 1329 038a 00BF     		.align	2
 1330              	.L119:
 1331 038c 00000000 		.word	lc3_ne_2m5
 1332 0390 ACC52737 		.word	925353388
 1333 0394 00000000 		.word	0
 1334 0398 CDCCCC3F 		.word	1070386381
 1335 039c 0000C049 		.word	1237319680
 1336 03a0 0093243C 		.word	1009029888
 1337 03a4 00000000 		.word	.LANCHOR0
 1338 03a8 2C26633D 		.word	1029908012
 1339 03ac 87FE753E 		.word	1047920263
 1340 03b0 1772313F 		.word	1060205079
ARM GAS  C:\Users\rdn\AppData\Local\Temp\ccYcaPXH.s 			page 46


 1341 03b4 FFE6DB2E 		.word	786163455
 1342 03b8 66660100 		.word	91750
 1343 03bc FFFF2A00 		.word	2818047
 1344 03c0 33B30200 		.word	176947
 1345 03c4 00FEFF46 		.word	1191181824
 1346 03c8 00FEFF4A 		.word	1258290688
 1347              	.L107:
 181:..\..\..\liblc3\src/spec.c ****     if (*reset_off)
 1348              		.loc 1 181 0
 1349 03cc 0123     		movs	r3, #1
 1350              	.L97:
 1351              	.LVL161:
 181:..\..\..\liblc3\src/spec.c ****     if (*reset_off)
 1352              		.loc 1 181 0 discriminator 6
 1353 03ce DDF83824 		ldr	r2, [sp, #1080]
 186:..\..\..\liblc3\src/spec.c **** 
 1354              		.loc 1 186 0 is_stmt 1 discriminator 6
 1355 03d2 002B     		cmp	r3, #0
 1356 03d4 08BF     		it	eq
 1357 03d6 2046     		moveq	r0, r4
 1358              	.LVL162:
 181:..\..\..\liblc3\src/spec.c ****     if (*reset_off)
 1359              		.loc 1 181 0 discriminator 6
 1360 03d8 1370     		strb	r3, [r2]
 186:..\..\..\liblc3\src/spec.c **** 
 1361              		.loc 1 186 0 discriminator 6
 1362 03da 0DF57D7D 		add	sp, sp, #1012
 1363              		.cfi_def_cfa_offset 60
 1364              	.LVL163:
 1365              		@ sp needed
 1366 03de BDEC068B 		vldm	sp!, {d8-d10}
 1367              		.cfi_restore 84
 1368              		.cfi_restore 85
 1369              		.cfi_restore 82
 1370              		.cfi_restore 83
 1371              		.cfi_restore 80
 1372              		.cfi_restore 81
 1373              		.cfi_def_cfa_offset 36
 1374              	.LVL164:
 1375 03e2 BDE8F08F 		pop	{r4, r5, r6, r7, r8, r9, r10, fp, pc}
 1376              		.cfi_endproc
 1377              	.LFE22:
 1378              		.size	estimate_gain, .-estimate_gain
 1379 03e6 00BF     		.section	.text.lc3_put_bits,"ax",%progbits
 1380              		.align	1
 1381              		.thumb
 1382              		.thumb_func
 1383              		.type	lc3_put_bits, %function
 1384              	lc3_put_bits:
 1385              	.LFB8:
 1386              		.file 4 "..\\..\\..\\liblc3\\src\\bits.h"
   1:..\..\..\liblc3\src/bits.h **** /******************************************************************************
   2:..\..\..\liblc3\src/bits.h ****  *
   3:..\..\..\liblc3\src/bits.h ****  *  Copyright 2022 Google LLC
   4:..\..\..\liblc3\src/bits.h ****  *
   5:..\..\..\liblc3\src/bits.h ****  *  Licensed under the Apache License, Version 2.0 (the "License");
   6:..\..\..\liblc3\src/bits.h ****  *  you may not use this file except in compliance with the License.
ARM GAS  C:\Users\rdn\AppData\Local\Temp\ccYcaPXH.s 			page 47


   7:..\..\..\liblc3\src/bits.h ****  *  You may obtain a copy of the License at:
   8:..\..\..\liblc3\src/bits.h ****  *
   9:..\..\..\liblc3\src/bits.h ****  *  http://www.apache.org/licenses/LICENSE-2.0
  10:..\..\..\liblc3\src/bits.h ****  *
  11:..\..\..\liblc3\src/bits.h ****  *  Unless required by applicable law or agreed to in writing, software
  12:..\..\..\liblc3\src/bits.h ****  *  distributed under the License is distributed on an "AS IS" BASIS,
  13:..\..\..\liblc3\src/bits.h ****  *  WITHOUT WARRANTIES OR CONDITIONS OF ANY KIND, either express or implied.
  14:..\..\..\liblc3\src/bits.h ****  *  See the License for the specific language governing permissions and
  15:..\..\..\liblc3\src/bits.h ****  *  limitations under the License.
  16:..\..\..\liblc3\src/bits.h ****  *
  17:..\..\..\liblc3\src/bits.h ****  ******************************************************************************/
  18:..\..\..\liblc3\src/bits.h **** 
  19:..\..\..\liblc3\src/bits.h **** /**
  20:..\..\..\liblc3\src/bits.h ****  * The bitstream is written by the 2 ends of the buffer :
  21:..\..\..\liblc3\src/bits.h ****  *
  22:..\..\..\liblc3\src/bits.h ****  * - Arthmetic coder put bits while increasing memory addresses
  23:..\..\..\liblc3\src/bits.h ****  *   in the buffer (forward)
  24:..\..\..\liblc3\src/bits.h ****  *
  25:..\..\..\liblc3\src/bits.h ****  * - Plain bits are puts starting the end of the buffer, with memeory
  26:..\..\..\liblc3\src/bits.h ****  *   addresses decreasing (backward)
  27:..\..\..\liblc3\src/bits.h ****  *
  28:..\..\..\liblc3\src/bits.h ****  *       .---------------------------------------------------.
  29:..\..\..\liblc3\src/bits.h ****  *       | > > > > > > > > > > :         : < < < < < < < < < |
  30:..\..\..\liblc3\src/bits.h ****  *       '---------------------------------------------------'
  31:..\..\..\liblc3\src/bits.h ****  *       |---------------------> - - - - - - - - - - - - - ->|
  32:..\..\..\liblc3\src/bits.h ****  *                              |< - - - <-------------------|
  33:..\..\..\liblc3\src/bits.h ****  *          Arithmetic coding                  Plain bits
  34:..\..\..\liblc3\src/bits.h ****  *          `lc3_put_symbol()`               `lc3_put_bits()`
  35:..\..\..\liblc3\src/bits.h ****  *
  36:..\..\..\liblc3\src/bits.h ****  * - The forward writing is protected against buffer overflow, it cannot
  37:..\..\..\liblc3\src/bits.h ****  *   write after the buffer, but can overwrite plain bits previously
  38:..\..\..\liblc3\src/bits.h ****  *   written in the buffer.
  39:..\..\..\liblc3\src/bits.h ****  *
  40:..\..\..\liblc3\src/bits.h ****  * - The backward writing is protected against overwrite of the arithmetic
  41:..\..\..\liblc3\src/bits.h ****  *   coder bitstream. In such way, the backward bitstream is always limited
  42:..\..\..\liblc3\src/bits.h ****  *   by the aritmetic coder bitstream, and can be overwritten by him.
  43:..\..\..\liblc3\src/bits.h ****  *
  44:..\..\..\liblc3\src/bits.h ****  *       .---------------------------------------------------.
  45:..\..\..\liblc3\src/bits.h ****  *       | > > > > > > > > > > :         : < < < < < < < < < |
  46:..\..\..\liblc3\src/bits.h ****  *       '---------------------------------------------------'
  47:..\..\..\liblc3\src/bits.h ****  *       |---------------------> - - - - - - - - - - - - - ->|
  48:..\..\..\liblc3\src/bits.h ****  *       |< - - - - - - - - - - -  - - - <-------------------|
  49:..\..\..\liblc3\src/bits.h ****  *          Arithmetic coding                  Plain bits
  50:..\..\..\liblc3\src/bits.h ****  *          `lc3_get_symbol()`               `lc3_get_bits()`
  51:..\..\..\liblc3\src/bits.h ****  *
  52:..\..\..\liblc3\src/bits.h ****  * - Reading is limited to read of the complementary end of the buffer.
  53:..\..\..\liblc3\src/bits.h ****  *
  54:..\..\..\liblc3\src/bits.h ****  * - The procedure `lc3_check_bits()` returns indication that read has been
  55:..\..\..\liblc3\src/bits.h ****  *   made crossing the other bit plane.
  56:..\..\..\liblc3\src/bits.h ****  *
  57:..\..\..\liblc3\src/bits.h ****  */
  58:..\..\..\liblc3\src/bits.h **** 
  59:..\..\..\liblc3\src/bits.h **** #ifndef __LC3_BITS_H
  60:..\..\..\liblc3\src/bits.h **** #define __LC3_BITS_H
  61:..\..\..\liblc3\src/bits.h **** 
  62:..\..\..\liblc3\src/bits.h **** #include "common.h"
  63:..\..\..\liblc3\src/bits.h **** 
ARM GAS  C:\Users\rdn\AppData\Local\Temp\ccYcaPXH.s 			page 48


  64:..\..\..\liblc3\src/bits.h **** 
  65:..\..\..\liblc3\src/bits.h **** /**
  66:..\..\..\liblc3\src/bits.h ****  * Bitstream mode
  67:..\..\..\liblc3\src/bits.h ****  */
  68:..\..\..\liblc3\src/bits.h **** 
  69:..\..\..\liblc3\src/bits.h **** enum lc3_bits_mode {
  70:..\..\..\liblc3\src/bits.h ****     LC3_BITS_MODE_READ,
  71:..\..\..\liblc3\src/bits.h ****     LC3_BITS_MODE_WRITE,
  72:..\..\..\liblc3\src/bits.h **** };
  73:..\..\..\liblc3\src/bits.h **** 
  74:..\..\..\liblc3\src/bits.h **** /**
  75:..\..\..\liblc3\src/bits.h ****  * Arithmetic coder symbol interval
  76:..\..\..\liblc3\src/bits.h ****  * The model split the interval in 17 symbols
  77:..\..\..\liblc3\src/bits.h ****  */
  78:..\..\..\liblc3\src/bits.h **** 
  79:..\..\..\liblc3\src/bits.h **** struct lc3_ac_symbol {
  80:..\..\..\liblc3\src/bits.h ****     uint16_t low   : 16;
  81:..\..\..\liblc3\src/bits.h ****     uint16_t range : 16;
  82:..\..\..\liblc3\src/bits.h **** };
  83:..\..\..\liblc3\src/bits.h **** 
  84:..\..\..\liblc3\src/bits.h **** struct lc3_ac_model {
  85:..\..\..\liblc3\src/bits.h ****     struct lc3_ac_symbol s[17];
  86:..\..\..\liblc3\src/bits.h **** };
  87:..\..\..\liblc3\src/bits.h **** 
  88:..\..\..\liblc3\src/bits.h **** /**
  89:..\..\..\liblc3\src/bits.h ****  * Bitstream context
  90:..\..\..\liblc3\src/bits.h ****  */
  91:..\..\..\liblc3\src/bits.h **** 
  92:..\..\..\liblc3\src/bits.h **** #define LC3_ACCU_BITS (int)(8 * sizeof(unsigned))
  93:..\..\..\liblc3\src/bits.h **** 
  94:..\..\..\liblc3\src/bits.h **** struct lc3_bits_accu {
  95:..\..\..\liblc3\src/bits.h ****     unsigned v;
  96:..\..\..\liblc3\src/bits.h ****     int n, nover;
  97:..\..\..\liblc3\src/bits.h **** };
  98:..\..\..\liblc3\src/bits.h **** 
  99:..\..\..\liblc3\src/bits.h **** #define LC3_AC_BITS (int)(24)
 100:..\..\..\liblc3\src/bits.h **** 
 101:..\..\..\liblc3\src/bits.h **** struct lc3_bits_ac {
 102:..\..\..\liblc3\src/bits.h ****     unsigned low, range;
 103:..\..\..\liblc3\src/bits.h ****     int cache, carry, carry_count;
 104:..\..\..\liblc3\src/bits.h ****     bool error;
 105:..\..\..\liblc3\src/bits.h **** };
 106:..\..\..\liblc3\src/bits.h **** 
 107:..\..\..\liblc3\src/bits.h **** struct lc3_bits_buffer {
 108:..\..\..\liblc3\src/bits.h ****     const uint8_t *start, *end;
 109:..\..\..\liblc3\src/bits.h ****     uint8_t *p_fw, *p_bw;
 110:..\..\..\liblc3\src/bits.h **** };
 111:..\..\..\liblc3\src/bits.h **** 
 112:..\..\..\liblc3\src/bits.h **** typedef struct lc3_bits {
 113:..\..\..\liblc3\src/bits.h ****     enum lc3_bits_mode mode;
 114:..\..\..\liblc3\src/bits.h ****     struct lc3_bits_ac ac;
 115:..\..\..\liblc3\src/bits.h ****     struct lc3_bits_accu accu;
 116:..\..\..\liblc3\src/bits.h ****     struct lc3_bits_buffer buffer;
 117:..\..\..\liblc3\src/bits.h **** } lc3_bits_t;
 118:..\..\..\liblc3\src/bits.h **** 
 119:..\..\..\liblc3\src/bits.h **** 
 120:..\..\..\liblc3\src/bits.h **** /**
ARM GAS  C:\Users\rdn\AppData\Local\Temp\ccYcaPXH.s 			page 49


 121:..\..\..\liblc3\src/bits.h ****  * Setup bitstream reading/writing
 122:..\..\..\liblc3\src/bits.h ****  * bits            Bitstream context
 123:..\..\..\liblc3\src/bits.h ****  * mode            Either READ or WRITE mode
 124:..\..\..\liblc3\src/bits.h ****  * buffer, len     Output buffer and length (in bytes)
 125:..\..\..\liblc3\src/bits.h ****  */
 126:..\..\..\liblc3\src/bits.h **** void lc3_setup_bits(lc3_bits_t *bits,
 127:..\..\..\liblc3\src/bits.h ****     enum lc3_bits_mode mode, void *buffer, int len);
 128:..\..\..\liblc3\src/bits.h **** 
 129:..\..\..\liblc3\src/bits.h **** /**
 130:..\..\..\liblc3\src/bits.h ****  * Return number of bits left in the bitstream
 131:..\..\..\liblc3\src/bits.h ****  * bits            Bitstream context
 132:..\..\..\liblc3\src/bits.h ****  * return          Number of bits left
 133:..\..\..\liblc3\src/bits.h ****  */
 134:..\..\..\liblc3\src/bits.h **** int lc3_get_bits_left(const lc3_bits_t *bits);
 135:..\..\..\liblc3\src/bits.h **** 
 136:..\..\..\liblc3\src/bits.h **** /**
 137:..\..\..\liblc3\src/bits.h ****  * Check if error occured on bitstream reading/writing
 138:..\..\..\liblc3\src/bits.h ****  * bits            Bitstream context
 139:..\..\..\liblc3\src/bits.h ****  * return          0: Ok  -1: Bitstream overflow or AC reading error
 140:..\..\..\liblc3\src/bits.h ****  */
 141:..\..\..\liblc3\src/bits.h **** int lc3_check_bits(const lc3_bits_t *bits);
 142:..\..\..\liblc3\src/bits.h **** 
 143:..\..\..\liblc3\src/bits.h **** /**
 144:..\..\..\liblc3\src/bits.h ****  * Put a bit
 145:..\..\..\liblc3\src/bits.h ****  * bits            Bitstream context
 146:..\..\..\liblc3\src/bits.h ****  * v               Bit value, 0 or 1
 147:..\..\..\liblc3\src/bits.h ****  */
 148:..\..\..\liblc3\src/bits.h **** static inline void lc3_put_bit(lc3_bits_t *bits, int v);
 149:..\..\..\liblc3\src/bits.h **** 
 150:..\..\..\liblc3\src/bits.h **** /**
 151:..\..\..\liblc3\src/bits.h ****  * Put from 1 to 32 bits
 152:..\..\..\liblc3\src/bits.h ****  * bits            Bitstream context
 153:..\..\..\liblc3\src/bits.h ****  * v, n            Value, in range 0 to 2^n - 1, and bits count (1 to 32)
 154:..\..\..\liblc3\src/bits.h ****  */
 155:..\..\..\liblc3\src/bits.h **** static inline void lc3_put_bits(lc3_bits_t *bits, unsigned v, int n);
 156:..\..\..\liblc3\src/bits.h **** 
 157:..\..\..\liblc3\src/bits.h **** /**
 158:..\..\..\liblc3\src/bits.h ****  * Put arithmetic coder symbol
 159:..\..\..\liblc3\src/bits.h ****  * bits            Bitstream context
 160:..\..\..\liblc3\src/bits.h ****  * model, s        Model distribution and symbol value
 161:..\..\..\liblc3\src/bits.h ****  */
 162:..\..\..\liblc3\src/bits.h **** static inline void lc3_put_symbol(lc3_bits_t *bits,
 163:..\..\..\liblc3\src/bits.h ****     const struct lc3_ac_model *model, unsigned s);
 164:..\..\..\liblc3\src/bits.h **** 
 165:..\..\..\liblc3\src/bits.h **** /**
 166:..\..\..\liblc3\src/bits.h ****  * Flush and terminate bitstream writing
 167:..\..\..\liblc3\src/bits.h ****  * bits            Bitstream context
 168:..\..\..\liblc3\src/bits.h ****  */
 169:..\..\..\liblc3\src/bits.h **** void lc3_flush_bits(lc3_bits_t *bits);
 170:..\..\..\liblc3\src/bits.h **** 
 171:..\..\..\liblc3\src/bits.h **** /**
 172:..\..\..\liblc3\src/bits.h ****  * Get a bit
 173:..\..\..\liblc3\src/bits.h ****  * bits            Bitstream context
 174:..\..\..\liblc3\src/bits.h ****  */
 175:..\..\..\liblc3\src/bits.h **** static inline int lc3_get_bit(lc3_bits_t *bits);
 176:..\..\..\liblc3\src/bits.h **** 
 177:..\..\..\liblc3\src/bits.h **** /**
ARM GAS  C:\Users\rdn\AppData\Local\Temp\ccYcaPXH.s 			page 50


 178:..\..\..\liblc3\src/bits.h ****  * Get from 1 to 32 bits
 179:..\..\..\liblc3\src/bits.h ****  * bits            Bitstream context
 180:..\..\..\liblc3\src/bits.h ****  * n               Number of bits to read (1 to 32)
 181:..\..\..\liblc3\src/bits.h ****  * return          The value read
 182:..\..\..\liblc3\src/bits.h ****  */
 183:..\..\..\liblc3\src/bits.h **** static inline unsigned lc3_get_bits(lc3_bits_t *bits,  int n);
 184:..\..\..\liblc3\src/bits.h **** 
 185:..\..\..\liblc3\src/bits.h **** /**
 186:..\..\..\liblc3\src/bits.h ****  * Get arithmetic coder symbol
 187:..\..\..\liblc3\src/bits.h ****  * bits            Bitstream context
 188:..\..\..\liblc3\src/bits.h ****  * model           Model distribution
 189:..\..\..\liblc3\src/bits.h ****  * return          The value read
 190:..\..\..\liblc3\src/bits.h ****  */
 191:..\..\..\liblc3\src/bits.h **** static inline unsigned lc3_get_symbol(lc3_bits_t *bits,
 192:..\..\..\liblc3\src/bits.h ****     const struct lc3_ac_model *model);
 193:..\..\..\liblc3\src/bits.h **** 
 194:..\..\..\liblc3\src/bits.h **** 
 195:..\..\..\liblc3\src/bits.h **** 
 196:..\..\..\liblc3\src/bits.h **** /* ----------------------------------------------------------------------------
 197:..\..\..\liblc3\src/bits.h ****  *  Inline implementations
 198:..\..\..\liblc3\src/bits.h ****  * -------------------------------------------------------------------------- */
 199:..\..\..\liblc3\src/bits.h **** 
 200:..\..\..\liblc3\src/bits.h **** void lc3_put_bits_generic(lc3_bits_t *bits, unsigned v, int n);
 201:..\..\..\liblc3\src/bits.h **** unsigned lc3_get_bits_generic(struct lc3_bits *bits, int n);
 202:..\..\..\liblc3\src/bits.h **** 
 203:..\..\..\liblc3\src/bits.h **** void lc3_ac_read_renorm(lc3_bits_t *bits);
 204:..\..\..\liblc3\src/bits.h **** void lc3_ac_write_renorm(lc3_bits_t *bits);
 205:..\..\..\liblc3\src/bits.h **** 
 206:..\..\..\liblc3\src/bits.h **** 
 207:..\..\..\liblc3\src/bits.h **** /**
 208:..\..\..\liblc3\src/bits.h ****  * Put a bit
 209:..\..\..\liblc3\src/bits.h ****  */
 210:..\..\..\liblc3\src/bits.h **** LC3_HOT static inline void lc3_put_bit(lc3_bits_t *bits, int v)
 211:..\..\..\liblc3\src/bits.h **** {
 212:..\..\..\liblc3\src/bits.h ****     lc3_put_bits(bits, v, 1);
 213:..\..\..\liblc3\src/bits.h **** }
 214:..\..\..\liblc3\src/bits.h **** 
 215:..\..\..\liblc3\src/bits.h **** /**
 216:..\..\..\liblc3\src/bits.h ****  * Put from 1 to 32 bits
 217:..\..\..\liblc3\src/bits.h ****  */
 218:..\..\..\liblc3\src/bits.h **** LC3_HOT static inline void lc3_put_bits(
 219:..\..\..\liblc3\src/bits.h ****     struct lc3_bits *bits, unsigned v, int n)
 220:..\..\..\liblc3\src/bits.h **** {
 1387              		.loc 4 220 0
 1388              		.cfi_startproc
 1389              		@ args = 0, pretend = 0, frame = 0
 1390              		@ frame_needed = 0, uses_anonymous_args = 0
 1391              		@ link register save eliminated.
 1392              	.LVL165:
 1393 0000 70B4     		push	{r4, r5, r6}
 1394              		.cfi_def_cfa_offset 12
 1395              		.cfi_offset 4, -12
 1396              		.cfi_offset 5, -8
 1397              		.cfi_offset 6, -4
 221:..\..\..\liblc3\src/bits.h ****     struct lc3_bits_accu *accu = &bits->accu;
 222:..\..\..\liblc3\src/bits.h **** 
 223:..\..\..\liblc3\src/bits.h ****     if (accu->n + n <= LC3_ACCU_BITS) {
ARM GAS  C:\Users\rdn\AppData\Local\Temp\ccYcaPXH.s 			page 51


 1398              		.loc 4 223 0
 1399 0002 066A     		ldr	r6, [r0, #32]
 1400 0004 B518     		adds	r5, r6, r2
 1401 0006 202D     		cmp	r5, #32
 220:..\..\..\liblc3\src/bits.h ****     struct lc3_bits_accu *accu = &bits->accu;
 1402              		.loc 4 220 0
 1403 0008 0B46     		mov	r3, r1
 1404              		.loc 4 223 0
 1405 000a 06DC     		bgt	.L122
 224:..\..\..\liblc3\src/bits.h ****         accu->v |= v << accu->n;
 1406              		.loc 4 224 0
 1407 000c C269     		ldr	r2, [r0, #28]
 1408              	.LVL166:
 225:..\..\..\liblc3\src/bits.h ****         accu->n += n;
 1409              		.loc 4 225 0
 1410 000e 0562     		str	r5, [r0, #32]
 224:..\..\..\liblc3\src/bits.h ****         accu->v |= v << accu->n;
 1411              		.loc 4 224 0
 1412 0010 B340     		lsls	r3, r3, r6
 1413 0012 1343     		orrs	r3, r3, r2
 1414 0014 C361     		str	r3, [r0, #28]
 226:..\..\..\liblc3\src/bits.h ****     } else {
 227:..\..\..\liblc3\src/bits.h ****         lc3_put_bits_generic(bits, v, n);
 228:..\..\..\liblc3\src/bits.h ****     }
 229:..\..\..\liblc3\src/bits.h **** }
 1415              		.loc 4 229 0
 1416 0016 70BC     		pop	{r4, r5, r6}
 1417              		.cfi_remember_state
 1418              		.cfi_restore 6
 1419              		.cfi_restore 5
 1420              		.cfi_restore 4
 1421              		.cfi_def_cfa_offset 0
 1422 0018 7047     		bx	lr
 1423              	.LVL167:
 1424              	.L122:
 1425              		.cfi_restore_state
 1426 001a 70BC     		pop	{r4, r5, r6}
 1427              		.cfi_restore 6
 1428              		.cfi_restore 5
 1429              		.cfi_restore 4
 1430              		.cfi_def_cfa_offset 0
 227:..\..\..\liblc3\src/bits.h ****     }
 1431              		.loc 4 227 0
 1432 001c FFF7FEBF 		b	lc3_put_bits_generic
 1433              	.LVL168:
 1434              		.cfi_endproc
 1435              	.LFE8:
 1436              		.size	lc3_put_bits, .-lc3_put_bits
 1437              		.section	.text.lc3_put_bit,"ax",%progbits
 1438              		.align	1
 1439              		.thumb
 1440              		.thumb_func
 1441              		.type	lc3_put_bit, %function
 1442              	lc3_put_bit:
 1443              	.LFB7:
 211:..\..\..\liblc3\src/bits.h ****     lc3_put_bits(bits, v, 1);
 1444              		.loc 4 211 0
ARM GAS  C:\Users\rdn\AppData\Local\Temp\ccYcaPXH.s 			page 52


 1445              		.cfi_startproc
 1446              		@ args = 0, pretend = 0, frame = 0
 1447              		@ frame_needed = 0, uses_anonymous_args = 0
 1448              		@ link register save eliminated.
 1449              	.LVL169:
 212:..\..\..\liblc3\src/bits.h **** }
 1450              		.loc 4 212 0
 1451 0000 0122     		movs	r2, #1
 1452 0002 FFF7FEBF 		b	lc3_put_bits
 1453              	.LVL170:
 1454              		.cfi_endproc
 1455              	.LFE7:
 1456              		.size	lc3_put_bit, .-lc3_put_bit
 1457              		.section	.text.lc3_put_symbol,"ax",%progbits
 1458              		.align	1
 1459              		.thumb
 1460              		.thumb_func
 1461              		.type	lc3_put_symbol, %function
 1462              	lc3_put_symbol:
 1463              	.LFB11:
 230:..\..\..\liblc3\src/bits.h **** 
 231:..\..\..\liblc3\src/bits.h **** /**
 232:..\..\..\liblc3\src/bits.h ****  * Get a bit
 233:..\..\..\liblc3\src/bits.h ****  */
 234:..\..\..\liblc3\src/bits.h **** LC3_HOT static inline int lc3_get_bit(lc3_bits_t *bits)
 235:..\..\..\liblc3\src/bits.h **** {
 236:..\..\..\liblc3\src/bits.h ****     return lc3_get_bits(bits, 1);
 237:..\..\..\liblc3\src/bits.h **** }
 238:..\..\..\liblc3\src/bits.h **** 
 239:..\..\..\liblc3\src/bits.h **** /**
 240:..\..\..\liblc3\src/bits.h ****  * Get from 1 to 32 bits
 241:..\..\..\liblc3\src/bits.h ****  */
 242:..\..\..\liblc3\src/bits.h **** LC3_HOT static inline unsigned lc3_get_bits(struct lc3_bits *bits, int n)
 243:..\..\..\liblc3\src/bits.h **** {
 244:..\..\..\liblc3\src/bits.h ****     struct lc3_bits_accu *accu = &bits->accu;
 245:..\..\..\liblc3\src/bits.h **** 
 246:..\..\..\liblc3\src/bits.h ****     if (accu->n + n <= LC3_ACCU_BITS) {
 247:..\..\..\liblc3\src/bits.h ****         int v = (accu->v >> accu->n) & ((1u << n) - 1);
 248:..\..\..\liblc3\src/bits.h ****         return (accu->n += n), v;
 249:..\..\..\liblc3\src/bits.h ****     }
 250:..\..\..\liblc3\src/bits.h ****     else {
 251:..\..\..\liblc3\src/bits.h ****         return lc3_get_bits_generic(bits, n);
 252:..\..\..\liblc3\src/bits.h ****     }
 253:..\..\..\liblc3\src/bits.h **** }
 254:..\..\..\liblc3\src/bits.h **** 
 255:..\..\..\liblc3\src/bits.h **** /**
 256:..\..\..\liblc3\src/bits.h ****  * Put arithmetic coder symbol
 257:..\..\..\liblc3\src/bits.h ****  */
 258:..\..\..\liblc3\src/bits.h **** LC3_HOT static inline void lc3_put_symbol(
 259:..\..\..\liblc3\src/bits.h ****     struct lc3_bits *bits, const struct lc3_ac_model *model, unsigned s)
 260:..\..\..\liblc3\src/bits.h **** {
 1464              		.loc 4 260 0
 1465              		.cfi_startproc
 1466              		@ args = 0, pretend = 0, frame = 0
 1467              		@ frame_needed = 0, uses_anonymous_args = 0
 1468              		@ link register save eliminated.
 1469              	.LVL171:
ARM GAS  C:\Users\rdn\AppData\Local\Temp\ccYcaPXH.s 			page 53


 261:..\..\..\liblc3\src/bits.h ****     const struct lc3_ac_symbol *symbols = model->s;
 262:..\..\..\liblc3\src/bits.h ****     struct lc3_bits_ac *ac = &bits->ac;
 263:..\..\..\liblc3\src/bits.h ****     unsigned range = ac->range >> 10;
 1470              		.loc 4 263 0
 1471 0000 8368     		ldr	r3, [r0, #8]
 260:..\..\..\liblc3\src/bits.h ****     const struct lc3_ac_symbol *symbols = model->s;
 1472              		.loc 4 260 0
 1473 0002 30B4     		push	{r4, r5}
 1474              		.cfi_def_cfa_offset 8
 1475              		.cfi_offset 4, -8
 1476              		.cfi_offset 5, -4
 264:..\..\..\liblc3\src/bits.h **** 
 265:..\..\..\liblc3\src/bits.h ****     ac->low += range * symbols[s].low;
 1477              		.loc 4 265 0
 1478 0004 01EB8205 		add	r5, r1, r2, lsl #2
 1479 0008 31F82220 		ldrh	r2, [r1, r2, lsl #2]
 1480              	.LVL172:
 1481 000c 4168     		ldr	r1, [r0, #4]
 1482              	.LVL173:
 263:..\..\..\liblc3\src/bits.h **** 
 1483              		.loc 4 263 0
 1484 000e 9B0A     		lsrs	r3, r3, #10
 1485              	.LVL174:
 1486              		.loc 4 265 0
 1487 0010 03FB0212 		mla	r2, r3, r2, r1
 266:..\..\..\liblc3\src/bits.h ****     ac->range = range * symbols[s].range;
 1488              		.loc 4 266 0
 1489 0014 6988     		ldrh	r1, [r5, #2]
 1490 0016 4B43     		muls	r3, r1, r3
 1491              	.LVL175:
 267:..\..\..\liblc3\src/bits.h **** 
 268:..\..\..\liblc3\src/bits.h ****     ac->carry |= ac->low >> 24;
 1492              		.loc 4 268 0
 1493 0018 0169     		ldr	r1, [r0, #16]
 266:..\..\..\liblc3\src/bits.h ****     ac->range = range * symbols[s].range;
 1494              		.loc 4 266 0
 1495 001a 8360     		str	r3, [r0, #8]
 1496              	.LVL176:
 1497              		.loc 4 268 0
 1498 001c 41EA1261 		orr	r1, r1, r2, lsr #24
 269:..\..\..\liblc3\src/bits.h ****     ac->low &= 0xffffff;
 270:..\..\..\liblc3\src/bits.h **** 
 271:..\..\..\liblc3\src/bits.h ****     if (ac->range < 0x10000)
 1499              		.loc 4 271 0
 1500 0020 B3F5803F 		cmp	r3, #65536
 269:..\..\..\liblc3\src/bits.h ****     ac->low &= 0xffffff;
 1501              		.loc 4 269 0
 1502 0024 22F07F42 		bic	r2, r2, #-16777216
 268:..\..\..\liblc3\src/bits.h ****     ac->low &= 0xffffff;
 1503              		.loc 4 268 0
 1504 0028 0161     		str	r1, [r0, #16]
 269:..\..\..\liblc3\src/bits.h ****     ac->low &= 0xffffff;
 1505              		.loc 4 269 0
 1506 002a 4260     		str	r2, [r0, #4]
 1507              		.loc 4 271 0
 1508 002c 02D2     		bcs	.L126
 272:..\..\..\liblc3\src/bits.h ****         lc3_ac_write_renorm(bits);
ARM GAS  C:\Users\rdn\AppData\Local\Temp\ccYcaPXH.s 			page 54


 273:..\..\..\liblc3\src/bits.h **** }
 1509              		.loc 4 273 0
 1510 002e 30BC     		pop	{r4, r5}
 1511              		.cfi_remember_state
 1512              		.cfi_restore 5
 1513              		.cfi_restore 4
 1514              		.cfi_def_cfa_offset 0
 272:..\..\..\liblc3\src/bits.h ****         lc3_ac_write_renorm(bits);
 1515              		.loc 4 272 0
 1516 0030 FFF7FEBF 		b	lc3_ac_write_renorm
 1517              	.LVL177:
 1518              	.L126:
 1519              		.cfi_restore_state
 1520              		.loc 4 273 0
 1521 0034 30BC     		pop	{r4, r5}
 1522              		.cfi_restore 5
 1523              		.cfi_restore 4
 1524              		.cfi_def_cfa_offset 0
 1525 0036 7047     		bx	lr
 1526              		.cfi_endproc
 1527              	.LFE11:
 1528              		.size	lc3_put_symbol, .-lc3_put_symbol
 1529              		.section	.text.lc3_get_bits,"ax",%progbits
 1530              		.align	1
 1531              		.thumb
 1532              		.thumb_func
 1533              		.type	lc3_get_bits, %function
 1534              	lc3_get_bits:
 1535              	.LFB10:
 243:..\..\..\liblc3\src/bits.h ****     struct lc3_bits_accu *accu = &bits->accu;
 1536              		.loc 4 243 0
 1537              		.cfi_startproc
 1538              		@ args = 0, pretend = 0, frame = 0
 1539              		@ frame_needed = 0, uses_anonymous_args = 0
 1540              		@ link register save eliminated.
 1541              	.LVL178:
 1542 0000 30B4     		push	{r4, r5}
 1543              		.cfi_def_cfa_offset 8
 1544              		.cfi_offset 4, -8
 1545              		.cfi_offset 5, -4
 246:..\..\..\liblc3\src/bits.h ****         int v = (accu->v >> accu->n) & ((1u << n) - 1);
 1546              		.loc 4 246 0
 1547 0002 056A     		ldr	r5, [r0, #32]
 1548 0004 6A18     		adds	r2, r5, r1
 1549 0006 202A     		cmp	r2, #32
 243:..\..\..\liblc3\src/bits.h ****     struct lc3_bits_accu *accu = &bits->accu;
 1550              		.loc 4 243 0
 1551 0008 0346     		mov	r3, r0
 1552 000a 0C46     		mov	r4, r1
 246:..\..\..\liblc3\src/bits.h ****         int v = (accu->v >> accu->n) & ((1u << n) - 1);
 1553              		.loc 4 246 0
 1554 000c 02DD     		ble	.L132
 253:..\..\..\liblc3\src/bits.h **** 
 1555              		.loc 4 253 0
 1556 000e 30BC     		pop	{r4, r5}
 1557              		.cfi_remember_state
 1558              		.cfi_restore 5
ARM GAS  C:\Users\rdn\AppData\Local\Temp\ccYcaPXH.s 			page 55


 1559              		.cfi_restore 4
 1560              		.cfi_def_cfa_offset 0
 251:..\..\..\liblc3\src/bits.h ****     }
 1561              		.loc 4 251 0
 1562 0010 FFF7FEBF 		b	lc3_get_bits_generic
 1563              	.LVL179:
 1564              	.L132:
 1565              		.cfi_restore_state
 1566              	.LBB163:
 247:..\..\..\liblc3\src/bits.h ****         return (accu->n += n), v;
 1567              		.loc 4 247 0
 1568 0014 C069     		ldr	r0, [r0, #28]
 1569              	.LVL180:
 248:..\..\..\liblc3\src/bits.h ****     }
 1570              		.loc 4 248 0
 1571 0016 1A62     		str	r2, [r3, #32]
 247:..\..\..\liblc3\src/bits.h ****         return (accu->n += n), v;
 1572              		.loc 4 247 0
 1573 0018 0121     		movs	r1, #1
 1574              	.LVL181:
 1575 001a A140     		lsls	r1, r1, r4
 1576 001c E840     		lsrs	r0, r0, r5
 1577 001e 0139     		subs	r1, r1, #1
 1578 0020 0840     		ands	r0, r0, r1
 1579              	.LVL182:
 1580              	.LBE163:
 253:..\..\..\liblc3\src/bits.h **** 
 1581              		.loc 4 253 0
 1582 0022 30BC     		pop	{r4, r5}
 1583              		.cfi_restore 5
 1584              		.cfi_restore 4
 1585              		.cfi_def_cfa_offset 0
 1586              	.LVL183:
 1587 0024 7047     		bx	lr
 1588              		.cfi_endproc
 1589              	.LFE10:
 1590              		.size	lc3_get_bits, .-lc3_get_bits
 1591              		.section	.text.lc3_get_bit,"ax",%progbits
 1592              		.align	1
 1593              		.thumb
 1594              		.thumb_func
 1595              		.type	lc3_get_bit, %function
 1596              	lc3_get_bit:
 1597              	.LFB9:
 235:..\..\..\liblc3\src/bits.h ****     return lc3_get_bits(bits, 1);
 1598              		.loc 4 235 0
 1599              		.cfi_startproc
 1600              		@ args = 0, pretend = 0, frame = 0
 1601              		@ frame_needed = 0, uses_anonymous_args = 0
 1602              		@ link register save eliminated.
 1603              	.LVL184:
 236:..\..\..\liblc3\src/bits.h **** }
 1604              		.loc 4 236 0
 1605 0000 0121     		movs	r1, #1
 1606 0002 FFF7FEBF 		b	lc3_get_bits
 1607              	.LVL185:
 1608              		.cfi_endproc
ARM GAS  C:\Users\rdn\AppData\Local\Temp\ccYcaPXH.s 			page 56


 1609              	.LFE9:
 1610              		.size	lc3_get_bit, .-lc3_get_bit
 1611              		.section	.text.lc3_get_symbol,"ax",%progbits
 1612              		.align	1
 1613              		.thumb
 1614              		.thumb_func
 1615              		.type	lc3_get_symbol, %function
 1616              	lc3_get_symbol:
 1617              	.LFB12:
 274:..\..\..\liblc3\src/bits.h **** 
 275:..\..\..\liblc3\src/bits.h **** /**
 276:..\..\..\liblc3\src/bits.h ****  * Get arithmetic coder symbol
 277:..\..\..\liblc3\src/bits.h ****  */
 278:..\..\..\liblc3\src/bits.h **** LC3_HOT static inline unsigned lc3_get_symbol(
 279:..\..\..\liblc3\src/bits.h ****     lc3_bits_t *bits, const struct lc3_ac_model *model)
 280:..\..\..\liblc3\src/bits.h **** {
 1618              		.loc 4 280 0
 1619              		.cfi_startproc
 1620              		@ args = 0, pretend = 0, frame = 0
 1621              		@ frame_needed = 0, uses_anonymous_args = 0
 1622              	.LVL186:
 1623 0000 70B5     		push	{r4, r5, r6, lr}
 1624              		.cfi_def_cfa_offset 16
 1625              		.cfi_offset 4, -16
 1626              		.cfi_offset 5, -12
 1627              		.cfi_offset 6, -8
 1628              		.cfi_offset 14, -4
 281:..\..\..\liblc3\src/bits.h ****     const struct lc3_ac_symbol *symbols = model->s;
 282:..\..\..\liblc3\src/bits.h ****     struct lc3_bits_ac *ac = &bits->ac;
 283:..\..\..\liblc3\src/bits.h **** 
 284:..\..\..\liblc3\src/bits.h ****     unsigned range = (ac->range >> 10) & 0xffff;
 1629              		.loc 4 284 0
 1630 0002 8568     		ldr	r5, [r0, #8]
 1631 0004 4368     		ldr	r3, [r0, #4]
 1632 0006 C5F38F25 		ubfx	r5, r5, #10, #16
 1633              	.LVL187:
 1634 000a B3EB852F 		cmp	r3, r5, lsl #10
 1635 000e 037E     		ldrb	r3, [r0, #24]	@ zero_extendqisi2
 1636 0010 28BF     		it	cs
 1637 0012 43F00103 		orrcs	r3, r3, #1
 285:..\..\..\liblc3\src/bits.h **** 
 286:..\..\..\liblc3\src/bits.h ****     ac->error |= (ac->low >= (range << 10));
 1638              		.loc 4 286 0
 1639 0016 0376     		strb	r3, [r0, #24]
 287:..\..\..\liblc3\src/bits.h ****     if (ac->error)
 1640              		.loc 4 287 0
 1641 0018 0BB1     		cbz	r3, .L135
 288:..\..\..\liblc3\src/bits.h ****         ac->low = 0;
 1642              		.loc 4 288 0
 1643 001a 0023     		movs	r3, #0
 1644 001c 4360     		str	r3, [r0, #4]
 1645              	.L135:
 1646              	.LVL188:
 289:..\..\..\liblc3\src/bits.h **** 
 290:..\..\..\liblc3\src/bits.h ****     int s = 16;
 291:..\..\..\liblc3\src/bits.h **** 
 292:..\..\..\liblc3\src/bits.h ****     if (ac->low < range * symbols[s].low) {
ARM GAS  C:\Users\rdn\AppData\Local\Temp\ccYcaPXH.s 			page 57


 1647              		.loc 4 292 0
 1648 001e B1F84030 		ldrh	r3, [r1, #64]
 1649 0022 4668     		ldr	r6, [r0, #4]
 1650 0024 6B43     		muls	r3, r5, r3
 1651 0026 9E42     		cmp	r6, r3
 1652 0028 1FD2     		bcs	.L141
 1653              	.LVL189:
 293:..\..\..\liblc3\src/bits.h ****         s >>= 1;
 294:..\..\..\liblc3\src/bits.h ****         s -= ac->low < range * symbols[s].low ? 4 : -4;
 1654              		.loc 4 294 0
 1655 002a 0B8C     		ldrh	r3, [r1, #32]
 1656 002c 6B43     		muls	r3, r5, r3
 1657 002e 9E42     		cmp	r6, r3
 1658 0030 34BF     		ite	cc
 1659 0032 0423     		movcc	r3, #4
 1660 0034 0C23     		movcs	r3, #12
 1661              	.LVL190:
 295:..\..\..\liblc3\src/bits.h ****         s -= ac->low < range * symbols[s].low ? 2 : -2;
 1662              		.loc 4 295 0
 1663 0036 31F82320 		ldrh	r2, [r1, r3, lsl #2]
 1664 003a 6A43     		muls	r2, r5, r2
 1665 003c 9642     		cmp	r6, r2
 1666 003e 34BF     		ite	cc
 1667 0040 0222     		movcc	r2, #2
 1668 0042 6FF00102 		mvncs	r2, #1
 1669 0046 9A1A     		subs	r2, r3, r2
 1670              	.LVL191:
 296:..\..\..\liblc3\src/bits.h ****         s -= ac->low < range * symbols[s].low ? 1 : -1;
 1671              		.loc 4 296 0
 1672 0048 31F82240 		ldrh	r4, [r1, r2, lsl #2]
 1673 004c 6C43     		muls	r4, r5, r4
 1674 004e A642     		cmp	r6, r4
 1675 0050 34BF     		ite	cc
 1676 0052 0124     		movcc	r4, #1
 1677 0054 4FF0FF34 		movcs	r4, #-1
 1678 0058 131B     		subs	r3, r2, r4
 1679              	.LVL192:
 297:..\..\..\liblc3\src/bits.h ****         s -= ac->low < range * symbols[s].low;
 1680              		.loc 4 297 0
 1681 005a 31F82340 		ldrh	r4, [r1, r3, lsl #2]
 1682 005e 6C43     		muls	r4, r5, r4
 1683 0060 A642     		cmp	r6, r4
 1684 0062 2CBF     		ite	cs
 1685 0064 1C46     		movcs	r4, r3
 1686 0066 5C1E     		subcc	r4, r3, #1
 1687              	.LVL193:
 1688 0068 00E0     		b	.L136
 1689              	.LVL194:
 1690              	.L141:
 290:..\..\..\liblc3\src/bits.h **** 
 1691              		.loc 4 290 0
 1692 006a 1024     		movs	r4, #16
 1693              	.LVL195:
 1694              	.L136:
 298:..\..\..\liblc3\src/bits.h ****     }
 299:..\..\..\liblc3\src/bits.h **** 
 300:..\..\..\liblc3\src/bits.h ****     ac->low -= range * symbols[s].low;
ARM GAS  C:\Users\rdn\AppData\Local\Temp\ccYcaPXH.s 			page 58


 1695              		.loc 4 300 0
 1696 006c 31F82430 		ldrh	r3, [r1, r4, lsl #2]
 1697 0070 01EB8402 		add	r2, r1, r4, lsl #2
 1698 0074 05FB1366 		mls	r6, r5, r3, r6
 301:..\..\..\liblc3\src/bits.h ****     ac->range = range * symbols[s].range;
 1699              		.loc 4 301 0
 1700 0078 5388     		ldrh	r3, [r2, #2]
 300:..\..\..\liblc3\src/bits.h ****     ac->range = range * symbols[s].range;
 1701              		.loc 4 300 0
 1702 007a 4660     		str	r6, [r0, #4]
 1703              		.loc 4 301 0
 1704 007c 5D43     		muls	r5, r3, r5
 1705              	.LVL196:
 302:..\..\..\liblc3\src/bits.h **** 
 303:..\..\..\liblc3\src/bits.h ****     if (ac->range < 0x10000)
 1706              		.loc 4 303 0
 1707 007e B5F5803F 		cmp	r5, #65536
 301:..\..\..\liblc3\src/bits.h **** 
 1708              		.loc 4 301 0
 1709 0082 8560     		str	r5, [r0, #8]
 1710              	.LVL197:
 1711              		.loc 4 303 0
 1712 0084 01D2     		bcs	.L140
 304:..\..\..\liblc3\src/bits.h ****         lc3_ac_read_renorm(bits);
 1713              		.loc 4 304 0
 1714 0086 FFF7FEFF 		bl	lc3_ac_read_renorm
 1715              	.LVL198:
 1716              	.L140:
 305:..\..\..\liblc3\src/bits.h **** 
 306:..\..\..\liblc3\src/bits.h ****     return s;
 307:..\..\..\liblc3\src/bits.h **** }
 1717              		.loc 4 307 0
 1718 008a 2046     		mov	r0, r4
 1719 008c 70BD     		pop	{r4, r5, r6, pc}
 1720              		.cfi_endproc
 1721              	.LFE12:
 1722              		.size	lc3_get_symbol, .-lc3_get_symbol
 1723              		.section	.text.lc3_spec_analyze,"ax",%progbits
 1724              		.align	1
 1725              		.global	lc3_spec_analyze
 1726              		.thumb
 1727              		.thumb_func
 1728              		.type	lc3_spec_analyze, %function
 1729              	lc3_spec_analyze:
 1730              	.LFB40:
 805:..\..\..\liblc3\src/spec.c **** 
 806:..\..\..\liblc3\src/spec.c **** /**
 807:..\..\..\liblc3\src/spec.c ****  * Bit consumption of the arithmetic coder
 808:..\..\..\liblc3\src/spec.c ****  * dt, sr, nbytes  Duration, samplerate and size of the frame
 809:..\..\..\liblc3\src/spec.c ****  * return          Bit consumption of bitstream data
 810:..\..\..\liblc3\src/spec.c ****  */
 811:..\..\..\liblc3\src/spec.c **** static int get_nbits_ac(enum lc3_dt dt, enum lc3_srate sr, int nbytes)
 812:..\..\..\liblc3\src/spec.c **** {
 813:..\..\..\liblc3\src/spec.c ****     return get_nbits_nq(dt, sr) +
 814:..\..\..\liblc3\src/spec.c ****         3 + lc3_hr(sr) + LC3_MIN((nbytes-1) / 160, 2);
 815:..\..\..\liblc3\src/spec.c **** }
 816:..\..\..\liblc3\src/spec.c **** 
ARM GAS  C:\Users\rdn\AppData\Local\Temp\ccYcaPXH.s 			page 59


 817:..\..\..\liblc3\src/spec.c **** /**
 818:..\..\..\liblc3\src/spec.c ****  * Spectrum analysis
 819:..\..\..\liblc3\src/spec.c ****  */
 820:..\..\..\liblc3\src/spec.c **** void lc3_spec_analyze(
 821:..\..\..\liblc3\src/spec.c ****     enum lc3_dt dt, enum lc3_srate sr, int nbytes,
 822:..\..\..\liblc3\src/spec.c ****     bool pitch, const lc3_tns_data_t *tns,
 823:..\..\..\liblc3\src/spec.c ****     struct lc3_spec_analysis *spec,
 824:..\..\..\liblc3\src/spec.c ****     float *x, struct lc3_spec_side *side)
 825:..\..\..\liblc3\src/spec.c **** {
 1731              		.loc 1 825 0
 1732              		.cfi_startproc
 1733              		@ args = 16, pretend = 0, frame = 112
 1734              		@ frame_needed = 0, uses_anonymous_args = 0
 1735              	.LVL199:
 1736 0000 2DE9F04F 		push	{r4, r5, r6, r7, r8, r9, r10, fp, lr}
 1737              		.cfi_def_cfa_offset 36
 1738              		.cfi_offset 4, -36
 1739              		.cfi_offset 5, -32
 1740              		.cfi_offset 6, -28
 1741              		.cfi_offset 7, -24
 1742              		.cfi_offset 8, -20
 1743              		.cfi_offset 9, -16
 1744              		.cfi_offset 10, -12
 1745              		.cfi_offset 11, -8
 1746              		.cfi_offset 14, -4
 1747 0004 2DED028B 		vpush.64	{d8}
 1748              		.cfi_def_cfa_offset 44
 1749              		.cfi_offset 80, -44
 1750              		.cfi_offset 81, -40
 1751 0008 A1B0     		sub	sp, sp, #132
 1752              		.cfi_def_cfa_offset 176
 1753              		.loc 1 825 0
 1754 000a 9846     		mov	r8, r3
 1755 000c 0D46     		mov	r5, r1
 1756 000e 1746     		mov	r7, r2
 826:..\..\..\liblc3\src/spec.c ****     bool reset_off;
 827:..\..\..\liblc3\src/spec.c **** 
 828:..\..\..\liblc3\src/spec.c ****     /* --- Bit budget --- */
 829:..\..\..\liblc3\src/spec.c **** 
 830:..\..\..\liblc3\src/spec.c ****     const int nbits_gain = 8;
 831:..\..\..\liblc3\src/spec.c ****     const int nbits_nf = 3;
 832:..\..\..\liblc3\src/spec.c **** 
 833:..\..\..\liblc3\src/spec.c ****     int nbits_budget = 8*nbytes - get_nbits_ac(dt, sr, nbytes) -
 1757              		.loc 1 833 0
 1758 0010 4FEAC209 		lsl	r9, r2, #3
 825:..\..\..\liblc3\src/spec.c ****     bool reset_off;
 1759              		.loc 1 825 0
 1760 0014 0646     		mov	r6, r0
 1761              	.LVL200:
 1762              	.LBB172:
 1763              	.LBB173:
 813:..\..\..\liblc3\src/spec.c ****         3 + lc3_hr(sr) + LC3_MIN((nbytes-1) / 160, 2);
 1764              		.loc 1 813 0
 1765 0016 FFF7FEFF 		bl	get_nbits_nq
 1766              	.LVL201:
 814:..\..\..\liblc3\src/spec.c **** }
 1767              		.loc 1 814 0
ARM GAS  C:\Users\rdn\AppData\Local\Temp\ccYcaPXH.s 			page 60


 1768 001a 0330     		adds	r0, r0, #3
 1769 001c 0429     		cmp	r1, #4
 1770 001e 94BF     		ite	ls
 1771 0020 0446     		movls	r4, r0
 1772 0022 441C     		addhi	r4, r0, #1
 1773 0024 B2F5A07F 		cmp	r2, #320
 1774 0028 D4BF     		ite	le
 1775 002a A023     		movle	r3, #160
 1776 002c 0223     		movgt	r3, #2
 1777              	.LVL202:
 1778              	.LBE173:
 1779              	.LBE172:
 834:..\..\..\liblc3\src/spec.c ****         lc3_bwdet_get_nbits(sr) - lc3_ltpf_get_nbits(pitch) -
 1780              		.loc 1 834 0
 1781 002e 2846     		mov	r0, r5
 1782              	.LBB176:
 1783              	.LBB174:
 814:..\..\..\liblc3\src/spec.c **** }
 1784              		.loc 1 814 0
 1785 0030 D8BF     		it	le
 1786 0032 02F1FF31 		addle	r1, r2, #-1
 1787              	.LBE174:
 1788              	.LBE176:
 825:..\..\..\liblc3\src/spec.c ****     bool reset_off;
 1789              		.loc 1 825 0
 1790 0036 DDF8B4B0 		ldr	fp, [sp, #180]
 1791              	.LBB177:
 1792              	.LBB175:
 814:..\..\..\liblc3\src/spec.c **** }
 1793              		.loc 1 814 0
 1794 003a D8BF     		it	le
 1795 003c 91FBF3F3 		sdivle	r3, r1, r3
 1796              	.LBE175:
 1797              	.LBE177:
 833:..\..\..\liblc3\src/spec.c ****         lc3_bwdet_get_nbits(sr) - lc3_ltpf_get_nbits(pitch) -
 1798              		.loc 1 833 0
 1799 0040 1C44     		add	r4, r4, r3
 1800              		.loc 1 834 0
 1801 0042 FFF7FEFF 		bl	lc3_bwdet_get_nbits
 1802              	.LVL203:
 833:..\..\..\liblc3\src/spec.c ****         lc3_bwdet_get_nbits(sr) - lc3_ltpf_get_nbits(pitch) -
 1803              		.loc 1 833 0
 1804 0046 C4EB0904 		rsb	r4, r4, r9
 1805 004a 241A     		subs	r4, r4, r0
 1806              		.loc 1 834 0
 1807 004c 4046     		mov	r0, r8
 1808 004e FFF7FEFF 		bl	lc3_ltpf_get_nbits
 1809              	.LVL204:
 1810 0052 241A     		subs	r4, r4, r0
 835:..\..\..\liblc3\src/spec.c ****         lc3_sns_get_nbits() - lc3_tns_get_nbits(tns) - nbits_gain - nbits_nf;
 1811              		.loc 1 835 0
 1812 0054 FFF7FEFF 		bl	lc3_sns_get_nbits
 1813              	.LVL205:
 834:..\..\..\liblc3\src/spec.c ****         lc3_sns_get_nbits() - lc3_tns_get_nbits(tns) - nbits_gain - nbits_nf;
 1814              		.loc 1 834 0
 1815 0058 241A     		subs	r4, r4, r0
 1816              		.loc 1 835 0
ARM GAS  C:\Users\rdn\AppData\Local\Temp\ccYcaPXH.s 			page 61


 1817 005a 2C98     		ldr	r0, [sp, #176]
 836:..\..\..\liblc3\src/spec.c **** 
 837:..\..\..\liblc3\src/spec.c ****     /* --- Global gain --- */
 838:..\..\..\liblc3\src/spec.c **** 
 839:..\..\..\liblc3\src/spec.c ****     float nbits_off = spec->nbits_off + spec->nbits_spare;
 840:..\..\..\liblc3\src/spec.c ****     nbits_off = fminf(fmaxf(nbits_off, -40), 40);
 841:..\..\..\liblc3\src/spec.c ****     nbits_off = 0.8f * spec->nbits_off + 0.2f * nbits_off;
 1818              		.loc 1 841 0
 1819 005c 9FED7D8A 		vldr.32	s16, .L174
 835:..\..\..\liblc3\src/spec.c **** 
 1820              		.loc 1 835 0
 1821 0060 FFF7FEFF 		bl	lc3_tns_get_nbits
 1822              	.LVL206:
 840:..\..\..\liblc3\src/spec.c ****     nbits_off = 0.8f * spec->nbits_off + 0.2f * nbits_off;
 1823              		.loc 1 840 0
 1824 0064 DBED017A 		vldr.32	s15, [fp, #4]	@ int
 839:..\..\..\liblc3\src/spec.c ****     nbits_off = fminf(fmaxf(nbits_off, -40), 40);
 1825              		.loc 1 839 0
 1826 0068 DBED008A 		vldr.32	s17, [fp]
 840:..\..\..\liblc3\src/spec.c ****     nbits_off = 0.8f * spec->nbits_off + 0.2f * nbits_off;
 1827              		.loc 1 840 0
 1828 006c 7A49     		ldr	r1, .L174+4
 1829 006e F8EEE77A 		vcvt.f32.s32	s15, s15
 833:..\..\..\liblc3\src/spec.c ****         lc3_bwdet_get_nbits(sr) - lc3_ltpf_get_nbits(pitch) -
 1830              		.loc 1 833 0
 1831 0072 201A     		subs	r0, r4, r0
 840:..\..\..\liblc3\src/spec.c ****     nbits_off = 0.8f * spec->nbits_off + 0.2f * nbits_off;
 1832              		.loc 1 840 0
 1833 0074 77EEA87A 		vadd.f32	s15, s15, s17
 833:..\..\..\liblc3\src/spec.c ****         lc3_bwdet_get_nbits(sr) - lc3_ltpf_get_nbits(pitch) -
 1834              		.loc 1 833 0
 1835 0078 A0F10B04 		sub	r4, r0, #11
 1836              	.LVL207:
 840:..\..\..\liblc3\src/spec.c ****     nbits_off = 0.8f * spec->nbits_off + 0.2f * nbits_off;
 1837              		.loc 1 840 0
 1838 007c 17EE900A 		vmov	r0, s15
 1839 0080 FFF7FEFF 		bl	fmaxf
 1840              	.LVL208:
 1841 0084 7549     		ldr	r1, .L174+8
 1842 0086 FFF7FEFF 		bl	fminf
 1843              	.LVL209:
 1844              		.loc 1 841 0
 1845 008a 07EE900A 		vmov	s15, r0
 1846 008e 27EE888A 		vmul.f32	s16, s15, s16
 1847 0092 DFED737A 		vldr.32	s15, .L174+12
 842:..\..\..\liblc3\src/spec.c **** 
 843:..\..\..\liblc3\src/spec.c ****     int g_off = resolve_gain_offset(sr, nbytes);
 1848              		.loc 1 843 0
 1849 0096 3946     		mov	r1, r7
 1850 0098 2846     		mov	r0, r5
 1851              	.LVL210:
 841:..\..\..\liblc3\src/spec.c **** 
 1852              		.loc 1 841 0
 1853 009a A8EEA78A 		vfma.f32	s16, s17, s15
 1854              	.LVL211:
 1855              		.loc 1 843 0
 1856 009e FFF7FEFF 		bl	resolve_gain_offset
ARM GAS  C:\Users\rdn\AppData\Local\Temp\ccYcaPXH.s 			page 62


 1857              	.LVL212:
 844:..\..\..\liblc3\src/spec.c **** 
 845:..\..\..\liblc3\src/spec.c ****     int g_min, g_int = estimate_gain(dt, sr,
 1858              		.loc 1 845 0
 1859 00a2 0AAB     		add	r3, sp, #40
 843:..\..\..\liblc3\src/spec.c **** 
 1860              		.loc 1 843 0
 1861 00a4 8046     		mov	r8, r0
 1862              	.LVL213:
 1863              		.loc 1 845 0
 1864 00a6 0393     		str	r3, [sp, #12]
 1865 00a8 0DF12703 		add	r3, sp, #39
 1866 00ac B0EE480A 		vmov.f32	s0, s16
 1867 00b0 0293     		str	r3, [sp, #8]
 1868 00b2 2E9A     		ldr	r2, [sp, #184]
 1869 00b4 3B46     		mov	r3, r7
 1870 00b6 2946     		mov	r1, r5
 1871 00b8 8DE81001 		stmia	sp, {r4, r8}
 1872 00bc 3046     		mov	r0, r6
 1873              	.LVL214:
 1874 00be FFF7FEFF 		bl	estimate_gain
 1875              	.LVL215:
 846:..\..\..\liblc3\src/spec.c ****         x, nbytes, nbits_budget, nbits_off, g_off, &reset_off, &g_min);
 847:..\..\..\liblc3\src/spec.c **** 
 848:..\..\..\liblc3\src/spec.c ****     /* --- Quantization --- */
 849:..\..\..\liblc3\src/spec.c **** 
 850:..\..\..\liblc3\src/spec.c ****     quantize(dt, sr, g_int, x, &side->nq);
 1876              		.loc 1 850 0
 1877 00c2 2F9B     		ldr	r3, [sp, #188]
 845:..\..\..\liblc3\src/spec.c ****         x, nbytes, nbits_budget, nbits_off, g_off, &reset_off, &g_min);
 1878              		.loc 1 845 0
 1879 00c4 0590     		str	r0, [sp, #20]
 1880              	.LVL216:
 1881              		.loc 1 850 0
 1882 00c6 03F1040A 		add	r10, r3, #4
 851:..\..\..\liblc3\src/spec.c **** 
 852:..\..\..\liblc3\src/spec.c ****     int nbits = compute_nbits(dt, sr, nbytes, x, &side->nq, 0, NULL);
 1883              		.loc 1 852 0
 1884 00ca 4FF00009 		mov	r9, #0
 850:..\..\..\liblc3\src/spec.c **** 
 1885              		.loc 1 850 0
 1886 00ce 0246     		mov	r2, r0
 1887 00d0 2E9B     		ldr	r3, [sp, #184]
 1888 00d2 CDF800A0 		str	r10, [sp]
 1889 00d6 2946     		mov	r1, r5
 1890 00d8 3046     		mov	r0, r6
 1891              	.LVL217:
 1892 00da FFF7FEFF 		bl	quantize
 1893              	.LVL218:
 1894              		.loc 1 852 0
 1895 00de CDF80890 		str	r9, [sp, #8]
 1896 00e2 CDF80490 		str	r9, [sp, #4]
 1897 00e6 2E9B     		ldr	r3, [sp, #184]
 1898 00e8 CDF800A0 		str	r10, [sp]
 1899 00ec 3A46     		mov	r2, r7
 1900 00ee 2946     		mov	r1, r5
 1901 00f0 3046     		mov	r0, r6
ARM GAS  C:\Users\rdn\AppData\Local\Temp\ccYcaPXH.s 			page 63


 1902 00f2 FFF7FEFF 		bl	compute_nbits
 1903              	.LVL219:
 853:..\..\..\liblc3\src/spec.c **** 
 854:..\..\..\liblc3\src/spec.c ****     spec->nbits_off = reset_off ? 0 : nbits_off;
 1904              		.loc 1 854 0
 1905 00f6 9DF82720 		ldrb	r2, [sp, #39]	@ zero_extendqisi2
 1906 00fa DFED5A7A 		vldr.32	s15, .L174+16
 855:..\..\..\liblc3\src/spec.c ****     spec->nbits_spare = reset_off ? 0 : nbits_budget - nbits;
 856:..\..\..\liblc3\src/spec.c **** 
 857:..\..\..\liblc3\src/spec.c ****     /* --- Adjust gain and requantize --- */
 858:..\..\..\liblc3\src/spec.c **** 
 859:..\..\..\liblc3\src/spec.c ****     int g_adj = adjust_gain(dt, sr,
 1907              		.loc 1 859 0
 1908 00fe 059B     		ldr	r3, [sp, #20]
 1909 0100 0790     		str	r0, [sp, #28]
 854:..\..\..\liblc3\src/spec.c ****     spec->nbits_spare = reset_off ? 0 : nbits_budget - nbits;
 1910              		.loc 1 854 0
 1911 0102 4A45     		cmp	r2, r9
 855:..\..\..\liblc3\src/spec.c ****     spec->nbits_spare = reset_off ? 0 : nbits_budget - nbits;
 1912              		.loc 1 855 0
 1913 0104 0CBF     		ite	eq
 1914 0106 221A     		subeq	r2, r4, r0
 1915 0108 4A46     		movne	r2, r9
 854:..\..\..\liblc3\src/spec.c ****     spec->nbits_spare = reset_off ? 0 : nbits_budget - nbits;
 1916              		.loc 1 854 0
 1917 010a 18BF     		it	ne
 1918 010c B0EE678A 		vmovne.f32	s16, s15
 1919              	.LVL220:
 855:..\..\..\liblc3\src/spec.c ****     spec->nbits_spare = reset_off ? 0 : nbits_budget - nbits;
 1920              		.loc 1 855 0
 1921 0110 CBF80420 		str	r2, [fp, #4]
 854:..\..\..\liblc3\src/spec.c ****     spec->nbits_spare = reset_off ? 0 : nbits_budget - nbits;
 1922              		.loc 1 854 0
 1923 0114 8BED008A 		vstr.32	s16, [fp]
 1924              	.LBB178:
 1925              	.LBB179:
 203:..\..\..\liblc3\src/spec.c ****         {  80,  500,  850 }, { 230, 1025, 1700 }, { 380, 1550, 2550 },
 1926              		.loc 1 203 0
 1927 0118 0DF12C0B 		add	fp, sp, #44
 1928 011c 5422     		movs	r2, #84
 1929 011e 5249     		ldr	r1, .L174+20
 1930              	.LBE179:
 1931              	.LBE178:
 1932              		.loc 1 859 0
 1933 0120 08EB0309 		add	r9, r8, r3
 1934              	.LBB185:
 1935              	.LBB182:
 203:..\..\..\liblc3\src/spec.c ****         {  80,  500,  850 }, { 230, 1025, 1700 }, { 380, 1550, 2550 },
 1936              		.loc 1 203 0
 1937 0124 5846     		mov	r0, fp
 1938              	.LVL221:
 1939              	.LBE182:
 1940              	.LBE185:
 1941              		.loc 1 859 0
 1942 0126 0A9B     		ldr	r3, [sp, #40]
 1943 0128 0693     		str	r3, [sp, #24]
 1944              	.LVL222:
ARM GAS  C:\Users\rdn\AppData\Local\Temp\ccYcaPXH.s 			page 64


 1945              	.LBB186:
 1946              	.LBB183:
 203:..\..\..\liblc3\src/spec.c ****         {  80,  500,  850 }, { 230, 1025, 1700 }, { 380, 1550, 2550 },
 1947              		.loc 1 203 0
 1948 012a FFF7FEFF 		bl	memcpy
 1949              	.LVL223:
 1950 012e 0C22     		movs	r2, #12
 1951 0130 6A43     		muls	r2, r5, r2
 211:..\..\..\liblc3\src/spec.c ****         delta = 3*(nbits + 48);
 1952              		.loc 1 211 0
 1953 0132 079B     		ldr	r3, [sp, #28]
 1954 0134 5BF80210 		ldr	r1, [fp, r2]
 1955 0138 8B42     		cmp	r3, r1
 203:..\..\..\liblc3\src/spec.c ****         {  80,  500,  850 }, { 230, 1025, 1700 }, { 380, 1550, 2550 },
 1956              		.loc 1 203 0
 1957 013a 0BEB020E 		add	lr, fp, r2
 1958              	.LVL224:
 211:..\..\..\liblc3\src/spec.c ****         delta = 3*(nbits + 48);
 1959              		.loc 1 211 0
 1960 013e 04DA     		bge	.L152
 212:..\..\..\liblc3\src/spec.c **** 
 1961              		.loc 1 212 0
 1962 0140 03F13001 		add	r1, r3, #48
 1963 0144 01EB4101 		add	r1, r1, r1, lsl #1
 1964              	.LVL225:
 1965 0148 1AE0     		b	.L173
 1966              	.LVL226:
 1967              	.L152:
 214:..\..\..\liblc3\src/spec.c ****         int n0 = 3*(t[0] + 48), range = t[1] - t[0];
 1968              		.loc 1 214 0
 1969 014a DEF80400 		ldr	r0, [lr, #4]
 1970 014e 8342     		cmp	r3, r0
 1971 0150 11DA     		bge	.L154
 1972              	.LBB180:
 215:..\..\..\liblc3\src/spec.c ****         delta = n0 * range + (nbits - t[0]) * (t[1] - n0);
 1973              		.loc 1 215 0
 1974 0152 01F1300C 		add	ip, r1, #48
 1975 0156 C1EB000E 		rsb	lr, r1, r0
 1976              	.LVL227:
 1977 015a 0CEB4C0C 		add	ip, ip, ip, lsl #1
 1978              	.LVL228:
 216:..\..\..\liblc3\src/spec.c ****         den *= range;
 1979              		.loc 1 216 0
 1980 015e C1EB030B 		rsb	fp, r1, r3
 1981              	.LVL229:
 1982 0162 CCEB0000 		rsb	r0, ip, r0
 1983 0166 0EFB0CF1 		mul	r1, lr, ip
 217:..\..\..\liblc3\src/spec.c **** 
 1984              		.loc 1 217 0
 1985 016a 3022     		movs	r2, #48
 1986              	.LVL230:
 216:..\..\..\liblc3\src/spec.c ****         den *= range;
 1987              		.loc 1 216 0
 1988 016c 00FB0B11 		mla	r1, r0, fp, r1
 1989              	.LVL231:
 217:..\..\..\liblc3\src/spec.c **** 
 1990              		.loc 1 217 0
ARM GAS  C:\Users\rdn\AppData\Local\Temp\ccYcaPXH.s 			page 65


 1991 0170 02FB0EF0 		mul	r0, r2, lr
 1992              	.LVL232:
 1993 0174 05E0     		b	.L153
 1994              	.LVL233:
 1995              	.L154:
 1996              	.LBE180:
 220:..\..\..\liblc3\src/spec.c ****     }
 1997              		.loc 1 220 0
 1998 0176 DEF80810 		ldr	r1, [lr, #8]
 1999 017a 9942     		cmp	r1, r3
 2000 017c A8BF     		it	ge
 2001 017e 1946     		movge	r1, r3
 2002              	.L173:
 2003              	.LVL234:
 209:..\..\..\liblc3\src/spec.c **** 
 2004              		.loc 1 209 0
 2005 0180 3020     		movs	r0, #48
 2006              	.LVL235:
 2007              	.L153:
 227:..\..\..\liblc3\src/spec.c ****         int factor = 1 + (dt <= LC3_DT_5M) +
 2008              		.loc 1 227 0
 2009 0182 042D     		cmp	r5, #4
 223:..\..\..\liblc3\src/spec.c **** 
 2010              		.loc 1 223 0
 2011 0184 4FF00202 		mov	r2, #2
 2012 0188 90FBF2F2 		sdiv	r2, r0, r2
 2013 018c 0A44     		add	r2, r2, r1
 2014 018e 92FBF0F2 		sdiv	r2, r2, r0
 2015              	.LVL236:
 227:..\..\..\liblc3\src/spec.c ****         int factor = 1 + (dt <= LC3_DT_5M) +
 2016              		.loc 1 227 0
 2017 0192 1CD9     		bls	.L155
 2018 0194 9C42     		cmp	r4, r3
 2019 0196 46DA     		bge	.L168
 2020              	.LBB181:
 228:..\..\..\liblc3\src/spec.c ****             (dt <= LC3_DT_2M5) * (1 + (nbits >= 520));
 2021              		.loc 1 228 0
 2022 0198 022E     		cmp	r6, #2
 2023 019a 34BF     		ite	cc
 2024 019c 0220     		movcc	r0, #2
 2025              	.LVL237:
 2026 019e 0120     		movcs	r0, #1
 229:..\..\..\liblc3\src/spec.c **** 
 2027              		.loc 1 229 0
 2028 01a0 B3F5027F 		cmp	r3, #520
 2029 01a4 ACBF     		ite	ge
 2030 01a6 0221     		movge	r1, #2
 2031 01a8 0121     		movlt	r1, #1
 228:..\..\..\liblc3\src/spec.c ****             (dt <= LC3_DT_2M5) * (1 + (nbits >= 520));
 2032              		.loc 1 228 0
 2033 01aa 002E     		cmp	r6, #0
 2034 01ac 18BF     		it	ne
 2035 01ae 0021     		movne	r1, #0
 2036 01b0 0144     		add	r1, r1, r0
 2037              	.LVL238:
 232:..\..\..\liblc3\src/spec.c ****     }
 2038              		.loc 1 232 0
ARM GAS  C:\Users\rdn\AppData\Local\Temp\ccYcaPXH.s 			page 66


 2039 01b2 1B1B     		subs	r3, r3, r4
 2040              	.LVL239:
 2041 01b4 4B43     		muls	r3, r1, r3
 2042 01b6 93FBF2F3 		sdiv	r3, r3, r2
 2043 01ba 1944     		add	r1, r1, r3
 2044              	.LVL240:
 2045 01bc 01EB0903 		add	r3, r1, r9
 2046 01c0 FF2B     		cmp	r3, #255
 2047 01c2 D4BF     		ite	le
 2048 01c4 C9EB0309 		rsble	r9, r9, r3
 2049 01c8 C9F1FF09 		rsbgt	r9, r9, #255
 2050              	.LVL241:
 2051 01cc 1FE0     		b	.L159
 2052              	.LVL242:
 2053              	.L155:
 2054              	.LBE181:
 235:..\..\..\liblc3\src/spec.c ****         return -(g_idx > g_idx_min);
 2055              		.loc 1 235 0
 2056 01ce 911C     		adds	r1, r2, #2
 2057 01d0 611A     		subs	r1, r4, r1
 2058 01d2 8B42     		cmp	r3, r1
 2059 01d4 08DA     		bge	.L160
 236:..\..\..\liblc3\src/spec.c **** 
 2060              		.loc 1 236 0
 2061 01d6 069B     		ldr	r3, [sp, #24]
 2062 01d8 4344     		add	r3, r3, r8
 2063 01da 9945     		cmp	r9, r3
 2064 01dc 4FF0FF39 		mov	r9, #-1
 2065              	.LVL243:
 2066 01e0 D8BF     		it	le
 2067 01e2 4FF00009 		movle	r9, #0
 2068 01e6 12E0     		b	.L159
 2069              	.LVL244:
 2070              	.L160:
 238:..\..\..\liblc3\src/spec.c ****         return (g_idx < 255) + (g_idx < 254 && nbits >= nbits_budget + delta);
 2071              		.loc 1 238 0
 2072 01e8 9C42     		cmp	r4, r3
 2073 01ea 1CDA     		bge	.L168
 239:..\..\..\liblc3\src/spec.c **** 
 2074              		.loc 1 239 0
 2075 01ec B9F1FE0F 		cmp	r9, #254
 2076 01f0 CCBF     		ite	gt
 2077 01f2 0021     		movgt	r1, #0
 2078 01f4 0121     		movle	r1, #1
 2079 01f6 B9F1FD0F 		cmp	r9, #253
 2080 01fa 05DC     		bgt	.L169
 2081 01fc 2244     		add	r2, r2, r4
 2082              	.LVL245:
 2083 01fe 9342     		cmp	r3, r2
 2084 0200 B4BF     		ite	lt
 2085 0202 0023     		movlt	r3, #0
 2086 0204 0123     		movge	r3, #1
 2087 0206 00E0     		b	.L161
 2088              	.LVL246:
 2089              	.L169:
 2090 0208 0023     		movs	r3, #0
 2091              	.LVL247:
ARM GAS  C:\Users\rdn\AppData\Local\Temp\ccYcaPXH.s 			page 67


 2092              	.L161:
 2093 020a 01EB0309 		add	r9, r1, r3
 2094              	.LVL248:
 2095              	.L159:
 2096              	.LBE183:
 2097              	.LBE186:
 860:..\..\..\liblc3\src/spec.c ****         g_off + g_int, nbits, nbits_budget, g_off + g_min);
 861:..\..\..\liblc3\src/spec.c **** 
 862:..\..\..\liblc3\src/spec.c ****     if (g_adj)
 2098              		.loc 1 862 0
 2099 020e B9F1000F 		cmp	r9, #0
 2100 0212 0AD0     		beq	.L156
 863:..\..\..\liblc3\src/spec.c ****         quantize(dt, sr, g_adj, x, &side->nq);
 2101              		.loc 1 863 0
 2102 0214 CDF800A0 		str	r10, [sp]
 2103 0218 2E9B     		ldr	r3, [sp, #184]
 2104 021a 4A46     		mov	r2, r9
 2105 021c 2946     		mov	r1, r5
 2106 021e 3046     		mov	r0, r6
 2107 0220 FFF7FEFF 		bl	quantize
 2108              	.LVL249:
 2109 0224 01E0     		b	.L156
 2110              	.LVL250:
 2111              	.L168:
 2112              	.LBB187:
 2113              	.LBB184:
 238:..\..\..\liblc3\src/spec.c ****         return (g_idx < 255) + (g_idx < 254 && nbits >= nbits_budget + delta);
 2114              		.loc 1 238 0
 2115 0226 4FF00009 		mov	r9, #0
 2116              	.LVL251:
 2117              	.L156:
 2118              	.LBE184:
 2119              	.LBE187:
 864:..\..\..\liblc3\src/spec.c **** 
 865:..\..\..\liblc3\src/spec.c ****     side->g_idx = g_int + g_adj + g_off;
 2120              		.loc 1 865 0
 2121 022a 059B     		ldr	r3, [sp, #20]
 2122 022c 2F9A     		ldr	r2, [sp, #188]
 2123 022e 4B44     		add	r3, r3, r9
 2124 0230 4344     		add	r3, r3, r8
 2125 0232 42F8083B 		str	r3, [r2], #8
 866:..\..\..\liblc3\src/spec.c ****     nbits = compute_nbits(dt, sr, nbytes,
 2126              		.loc 1 866 0
 2127 0236 2946     		mov	r1, r5
 2128 0238 0292     		str	r2, [sp, #8]
 2129 023a 0194     		str	r4, [sp, #4]
 2130 023c CDF800A0 		str	r10, [sp]
 2131 0240 2E9B     		ldr	r3, [sp, #184]
 2132 0242 3A46     		mov	r2, r7
 2133 0244 3046     		mov	r0, r6
 2134 0246 FFF7FEFF 		bl	compute_nbits
 2135              	.LVL252:
 867:..\..\..\liblc3\src/spec.c ****         x, &side->nq, nbits_budget, &side->lsb_mode);
 868:..\..\..\liblc3\src/spec.c **** }
 2136              		.loc 1 868 0
 2137 024a 21B0     		add	sp, sp, #132
 2138              		.cfi_def_cfa_offset 44
ARM GAS  C:\Users\rdn\AppData\Local\Temp\ccYcaPXH.s 			page 68


 2139              		@ sp needed
 2140 024c BDEC028B 		vldm	sp!, {d8}
 2141              		.cfi_restore 80
 2142              		.cfi_restore 81
 2143              		.cfi_def_cfa_offset 36
 2144 0250 BDE8F08F 		pop	{r4, r5, r6, r7, r8, r9, r10, fp, pc}
 2145              	.LVL253:
 2146              	.L175:
 2147              		.align	2
 2148              	.L174:
 2149 0254 CDCC4C3E 		.word	1045220557
 2150 0258 000020C2 		.word	-1038090240
 2151 025c 00002042 		.word	1109393408
 2152 0260 CDCC4C3F 		.word	1061997773
 2153 0264 00000000 		.word	0
 2154 0268 10010000 		.word	.LANCHOR0+272
 2155              		.cfi_endproc
 2156              	.LFE40:
 2157              		.size	lc3_spec_analyze, .-lc3_spec_analyze
 2158              		.section	.text.lc3_spec_put_side,"ax",%progbits
 2159              		.align	1
 2160              		.global	lc3_spec_put_side
 2161              		.thumb
 2162              		.thumb_func
 2163              		.type	lc3_spec_put_side, %function
 2164              	lc3_spec_put_side:
 2165              	.LFB41:
 869:..\..\..\liblc3\src/spec.c **** 
 870:..\..\..\liblc3\src/spec.c **** /**
 871:..\..\..\liblc3\src/spec.c ****  * Put spectral quantization side data
 872:..\..\..\liblc3\src/spec.c ****  */
 873:..\..\..\liblc3\src/spec.c **** void lc3_spec_put_side(lc3_bits_t *bits,
 874:..\..\..\liblc3\src/spec.c ****     enum lc3_dt dt, enum lc3_srate sr,
 875:..\..\..\liblc3\src/spec.c ****     const struct lc3_spec_side *side)
 876:..\..\..\liblc3\src/spec.c **** {
 2166              		.loc 1 876 0
 2167              		.cfi_startproc
 2168              		@ args = 0, pretend = 0, frame = 0
 2169              		@ frame_needed = 0, uses_anonymous_args = 0
 2170              	.LVL254:
 2171 0000 38B5     		push	{r3, r4, r5, lr}
 2172              		.cfi_def_cfa_offset 16
 2173              		.cfi_offset 3, -16
 2174              		.cfi_offset 4, -12
 2175              		.cfi_offset 5, -8
 2176              		.cfi_offset 14, -4
 2177              		.loc 1 876 0
 2178 0002 1D46     		mov	r5, r3
 2179 0004 0446     		mov	r4, r0
 2180 0006 0846     		mov	r0, r1
 2181              	.LVL255:
 877:..\..\..\liblc3\src/spec.c ****     int nbits_nq = get_nbits_nq(dt, sr);
 2182              		.loc 1 877 0
 2183 0008 1146     		mov	r1, r2
 2184              	.LVL256:
 2185 000a FFF7FEFF 		bl	get_nbits_nq
 2186              	.LVL257:
ARM GAS  C:\Users\rdn\AppData\Local\Temp\ccYcaPXH.s 			page 69


 878:..\..\..\liblc3\src/spec.c **** 
 879:..\..\..\liblc3\src/spec.c ****     lc3_put_bits(bits, LC3_MAX(side->nq >> 1, 1) - 1, nbits_nq);
 2187              		.loc 1 879 0
 2188 000e 6968     		ldr	r1, [r5, #4]
 2189 0010 4910     		asrs	r1, r1, #1
 2190 0012 0129     		cmp	r1, #1
 2191 0014 B8BF     		it	lt
 2192 0016 0121     		movlt	r1, #1
 2193 0018 0246     		mov	r2, r0
 2194 001a 0139     		subs	r1, r1, #1
 2195 001c 2046     		mov	r0, r4
 2196              	.LVL258:
 2197 001e FFF7FEFF 		bl	lc3_put_bits
 2198              	.LVL259:
 880:..\..\..\liblc3\src/spec.c ****     lc3_put_bits(bits, side->lsb_mode, 1);
 2199              		.loc 1 880 0
 2200 0022 297A     		ldrb	r1, [r5, #8]	@ zero_extendqisi2
 2201 0024 2046     		mov	r0, r4
 2202 0026 0122     		movs	r2, #1
 2203 0028 FFF7FEFF 		bl	lc3_put_bits
 2204              	.LVL260:
 881:..\..\..\liblc3\src/spec.c ****     lc3_put_bits(bits, side->g_idx, 8);
 2205              		.loc 1 881 0
 2206 002c 2968     		ldr	r1, [r5]
 2207 002e 2046     		mov	r0, r4
 2208 0030 0822     		movs	r2, #8
 882:..\..\..\liblc3\src/spec.c **** }
 2209              		.loc 1 882 0
 2210 0032 BDE83840 		pop	{r3, r4, r5, lr}
 2211              		.cfi_restore 14
 2212              		.cfi_restore 5
 2213              		.cfi_restore 4
 2214              		.cfi_restore 3
 2215              		.cfi_def_cfa_offset 0
 2216              	.LVL261:
 881:..\..\..\liblc3\src/spec.c ****     lc3_put_bits(bits, side->g_idx, 8);
 2217              		.loc 1 881 0
 2218 0036 FFF7FEBF 		b	lc3_put_bits
 2219              	.LVL262:
 2220              		.cfi_endproc
 2221              	.LFE41:
 2222              		.size	lc3_spec_put_side, .-lc3_spec_put_side
 2223              		.section	.text.lc3_spec_encode,"ax",%progbits
 2224              		.align	1
 2225              		.global	lc3_spec_encode
 2226              		.thumb
 2227              		.thumb_func
 2228              		.type	lc3_spec_encode, %function
 2229              	lc3_spec_encode:
 2230              	.LFB42:
 883:..\..\..\liblc3\src/spec.c **** 
 884:..\..\..\liblc3\src/spec.c **** /**
 885:..\..\..\liblc3\src/spec.c ****  * Encode spectral coefficients
 886:..\..\..\liblc3\src/spec.c ****  */
 887:..\..\..\liblc3\src/spec.c **** void lc3_spec_encode(lc3_bits_t *bits,
 888:..\..\..\liblc3\src/spec.c ****     enum lc3_dt dt, enum lc3_srate sr, enum lc3_bandwidth bw,
 889:..\..\..\liblc3\src/spec.c ****     int nbytes, const lc3_spec_side_t *side, float *x)
ARM GAS  C:\Users\rdn\AppData\Local\Temp\ccYcaPXH.s 			page 70


 890:..\..\..\liblc3\src/spec.c **** {
 2231              		.loc 1 890 0
 2232              		.cfi_startproc
 2233              		@ args = 12, pretend = 0, frame = 40
 2234              		@ frame_needed = 0, uses_anonymous_args = 0
 2235              	.LVL263:
 2236 0000 2DE9F04F 		push	{r4, r5, r6, r7, r8, r9, r10, fp, lr}
 2237              		.cfi_def_cfa_offset 36
 2238              		.cfi_offset 4, -36
 2239              		.cfi_offset 5, -32
 2240              		.cfi_offset 6, -28
 2241              		.cfi_offset 7, -24
 2242              		.cfi_offset 8, -20
 2243              		.cfi_offset 9, -16
 2244              		.cfi_offset 10, -12
 2245              		.cfi_offset 11, -8
 2246              		.cfi_offset 14, -4
 2247 0004 2DED068B 		vpush.64	{d8, d9, d10}
 2248              		.cfi_def_cfa_offset 60
 2249              		.cfi_offset 80, -60
 2250              		.cfi_offset 81, -56
 2251              		.cfi_offset 82, -52
 2252              		.cfi_offset 83, -48
 2253              		.cfi_offset 84, -44
 2254              		.cfi_offset 85, -40
 2255 0008 8BB0     		sub	sp, sp, #44
 2256              		.cfi_def_cfa_offset 104
 2257              	.LBB214:
 2258              	.LBB215:
 2259              	.LBB216:
 2260              	.LBB217:
 2261              		.loc 2 51 0
 2262 000a 042B     		cmp	r3, #4
 2263              	.LBE217:
 2264              	.LBE216:
 2265              	.LBE215:
 2266              	.LBE214:
 2267              		.loc 1 890 0
 2268 000c 9246     		mov	r10, r2
 2269 000e 1B9A     		ldr	r2, [sp, #108]
 2270              	.LVL264:
 2271              	.LBB229:
 2272              	.LBB226:
 2273              	.LBB222:
 2274              	.LBB218:
 2275              		.loc 2 51 0
 2276 0010 B44D     		ldr	r5, .L252
 2277              	.LBE218:
 2278              	.LBE222:
 2279              	.LBE226:
 2280              	.LBE229:
 891:..\..\..\liblc3\src/spec.c ****     bool lsb_mode = side->lsb_mode;
 2281              		.loc 1 891 0
 2282 0012 92F80880 		ldrb	r8, [r2, #8]	@ zero_extendqisi2
 892:..\..\..\liblc3\src/spec.c ****     int nq = side->nq;
 2283              		.loc 1 892 0
 2284 0016 5268     		ldr	r2, [r2, #4]
ARM GAS  C:\Users\rdn\AppData\Local\Temp\ccYcaPXH.s 			page 71


 2285 0018 0292     		str	r2, [sp, #8]
 2286              	.LBB230:
 2287              	.LBB227:
 2288              	.LBB223:
 2289              	.LBB219:
 2290              		.loc 2 51 0
 2291 001a 28BF     		it	cs
 2292 001c 0423     		movcs	r3, #4
 2293              	.LVL265:
 2294              	.LBE219:
 2295              	.LBE223:
 718:..\..\..\liblc3\src/spec.c **** 
 2296              		.loc 1 718 0
 2297 001e 0129     		cmp	r1, #1
 2298              	.LBB224:
 2299              	.LBB220:
 2300              		.loc 2 51 0
 2301 0020 55F82360 		ldr	r6, [r5, r3, lsl #2]
 2302 0024 0095     		str	r5, [sp]
 2303 0026 01F10104 		add	r4, r1, #1
 2304              	.LBE220:
 2305              	.LBE224:
 718:..\..\..\liblc3\src/spec.c **** 
 2306              		.loc 1 718 0
 2307 002a 8CBF     		ite	hi
 2308 002c 0223     		movhi	r3, #2
 2309 002e 0123     		movls	r3, #1
 724:..\..\..\liblc3\src/spec.c ****         z = fabsf(x[i]) < xq_lim ? z + 1 : 0;
 2310              		.loc 1 724 0
 2311 0030 029D     		ldr	r5, [sp, #8]
 2312 0032 1C9A     		ldr	r2, [sp, #112]
 718:..\..\..\liblc3\src/spec.c **** 
 2313              		.loc 1 718 0
 2314 0034 0229     		cmp	r1, #2
 2315 0036 94BF     		ite	ls
 2316 0038 1946     		movls	r1, r3
 2317 003a 591C     		addhi	r1, r3, #1
 2318              	.LVL266:
 2319              	.LBB225:
 2320              	.LBB221:
 2321              		.loc 2 51 0
 2322 003c 6643     		muls	r6, r4, r6
 2323              	.LBE221:
 2324              	.LBE225:
 720:..\..\..\liblc3\src/spec.c ****     float sum = 0;
 2325              		.loc 1 720 0
 2326 003e BAF1040F 		cmp	r10, #4
 2327 0042 F6EE007A 		vmov.f32	s15, #5.0e-1
 2328 0046 B6EE047A 		vmov.f32	s14, #6.25e-1
 724:..\..\..\liblc3\src/spec.c ****         z = fabsf(x[i]) < xq_lim ? z + 1 : 0;
 2329              		.loc 1 724 0
 2330 004a 4FF00603 		mov	r3, #6
 720:..\..\..\liblc3\src/spec.c ****     float sum = 0;
 2331              		.loc 1 720 0
 2332 004e 88BF     		it	hi
 2333 0050 B0EE677A 		vmovhi.f32	s14, s15
 724:..\..\..\liblc3\src/spec.c ****         z = fabsf(x[i]) < xq_lim ? z + 1 : 0;
ARM GAS  C:\Users\rdn\AppData\Local\Temp\ccYcaPXH.s 			page 72


 2334              		.loc 1 724 0
 2335 0054 6343     		muls	r3, r4, r3
 2336 0056 B542     		cmp	r5, r6
 2337              	.LBE227:
 2338              	.LBE230:
 890:..\..\..\liblc3\src/spec.c ****     bool lsb_mode = side->lsb_mode;
 2339              		.loc 1 890 0
 2340 0058 0746     		mov	r7, r0
 2341              	.LVL267:
 2342              	.LBB231:
 2343              	.LBB228:
 724:..\..\..\liblc3\src/spec.c ****         z = fabsf(x[i]) < xq_lim ? z + 1 : 0;
 2344              		.loc 1 724 0
 2345 005a A3EB0103 		sub	r3, r3, r1
 2346              	.LVL268:
 722:..\..\..\liblc3\src/spec.c **** 
 2347              		.loc 1 722 0
 2348 005e 4FF00000 		mov	r0, #0
 2349              	.LVL269:
 724:..\..\..\liblc3\src/spec.c ****         z = fabsf(x[i]) < xq_lim ? z + 1 : 0;
 2350              		.loc 1 724 0
 2351 0062 A8BF     		it	ge
 2352 0064 3546     		movge	r5, r6
 2353              	.LVL270:
 721:..\..\..\liblc3\src/spec.c ****     int i, ns = 0, z = 0;
 2354              		.loc 1 721 0
 2355 0066 DFEDA07A 		vldr.32	s15, .L252+4
 2356 006a 02EB8309 		add	r9, r2, r3, lsl #2
 2357 006e 4FEA410C 		lsl	ip, r1, #1
 722:..\..\..\liblc3\src/spec.c **** 
 2358              		.loc 1 722 0
 2359 0072 0246     		mov	r2, r0
 2360              	.LVL271:
 724:..\..\..\liblc3\src/spec.c ****         z = fabsf(x[i]) < xq_lim ? z + 1 : 0;
 2361              		.loc 1 724 0
 2362 0074 AB46     		mov	fp, r5
 2363              	.LVL272:
 2364              	.L180:
 2365 0076 5B45     		cmp	r3, fp
 2366 0078 1BDA     		bge	.L248
 725:..\..\..\liblc3\src/spec.c ****         if (z > 2*w)
 2367              		.loc 1 725 0
 2368 007a F9EC016A 		vldmia.32	r9!, {s13}
 2369 007e F0EEE66A 		vabs.f32	s13, s13
 2370 0082 F4EEC76A 		vcmpe.f32	s13, s14
 2371 0086 F1EE10FA 		vmrs	APSR_nzcv, FPSCR
 2372 008a 0FD5     		bpl	.L247
 2373 008c 0130     		adds	r0, r0, #1
 2374              	.LVL273:
 726:..\..\..\liblc3\src/spec.c ****             sum += fabsf(x[i - w]), ns++;
 2375              		.loc 1 726 0
 2376 008e 6045     		cmp	r0, ip
 2377 0090 0DDD     		ble	.L181
 727:..\..\..\liblc3\src/spec.c ****     }
 2378              		.loc 1 727 0
 2379 0092 1C9D     		ldr	r5, [sp, #112]
 2380 0094 C1EB030E 		rsb	lr, r1, r3
ARM GAS  C:\Users\rdn\AppData\Local\Temp\ccYcaPXH.s 			page 73


 2381 0098 05EB8E0E 		add	lr, r5, lr, lsl #2
 2382 009c DEED006A 		vldr.32	s13, [lr]
 2383 00a0 F0EEE66A 		vabs.f32	s13, s13
 2384 00a4 77EEA67A 		vadd.f32	s15, s15, s13
 2385              	.LVL274:
 2386 00a8 0132     		adds	r2, r2, #1
 2387              	.LVL275:
 2388 00aa 00E0     		b	.L181
 2389              	.L247:
 725:..\..\..\liblc3\src/spec.c ****         if (z > 2*w)
 2390              		.loc 1 725 0
 2391 00ac 0020     		movs	r0, #0
 2392              	.LVL276:
 2393              	.L181:
 724:..\..\..\liblc3\src/spec.c ****         z = fabsf(x[i]) < xq_lim ? z + 1 : 0;
 2394              		.loc 1 724 0
 2395 00ae 0133     		adds	r3, r3, #1
 2396              	.LVL277:
 2397 00b0 E1E7     		b	.L180
 2398              	.LVL278:
 2399              	.L248:
 730:..\..\..\liblc3\src/spec.c ****         if (++z > 2*w)
 2400              		.loc 1 730 0
 2401 00b2 0E44     		add	r6, r6, r1
 2402              	.LVL279:
 2403              	.L184:
 2404 00b4 B342     		cmp	r3, r6
 2405 00b6 10DA     		bge	.L249
 731:..\..\..\liblc3\src/spec.c ****             sum += fabsf(x[i - w]), ns++;
 2406              		.loc 1 731 0
 2407 00b8 0130     		adds	r0, r0, #1
 2408              	.LVL280:
 2409 00ba 8445     		cmp	ip, r0
 2410 00bc 0BDA     		bge	.L185
 732:..\..\..\liblc3\src/spec.c **** 
 2411              		.loc 1 732 0
 2412 00be 1C9D     		ldr	r5, [sp, #112]
 2413 00c0 C1EB030E 		rsb	lr, r1, r3
 2414 00c4 05EB8E0E 		add	lr, r5, lr, lsl #2
 2415 00c8 9EED007A 		vldr.32	s14, [lr]
 2416 00cc B0EEC77A 		vabs.f32	s14, s14
 2417 00d0 77EE877A 		vadd.f32	s15, s15, s14
 2418              	.LVL281:
 2419 00d4 0132     		adds	r2, r2, #1
 2420              	.LVL282:
 2421              	.L185:
 730:..\..\..\liblc3\src/spec.c ****         if (++z > 2*w)
 2422              		.loc 1 730 0
 2423 00d6 0133     		adds	r3, r3, #1
 2424              	.LVL283:
 2425 00d8 ECE7     		b	.L184
 2426              	.L249:
 2427 00da B6EE008A 		vmov.f32	s16, #5.0e-1
 2428              	.LVL284:
 734:..\..\..\liblc3\src/spec.c **** 
 2429              		.loc 1 734 0
 2430 00de B2B1     		cbz	r2, .L222
ARM GAS  C:\Users\rdn\AppData\Local\Temp\ccYcaPXH.s 			page 74


 2431 00e0 F3EE006A 		vmov.f32	s13, #1.6e+1
 2432 00e4 67EEA66A 		vmul.f32	s13, s15, s13
 2433 00e8 07EE902A 		vmov	s15, r2	@ int
 2434              	.LVL285:
 2435 00ec B8EEE77A 		vcvt.f32.s32	s14, s15
 2436 00f0 C6EE877A 		vdiv.f32	s15, s13, s14
 2437 00f4 77EE887A 		vadd.f32	s15, s15, s16
 2438 00f8 FDEEE77A 		vcvt.s32.f32	s15, s15
 2439 00fc 17EE901A 		vmov	r1, s15	@ int
 2440              	.LVL286:
 2441 0100 C1F10801 		rsb	r1, r1, #8
 2442              	.LVL287:
 736:..\..\..\liblc3\src/spec.c **** }
 2443              		.loc 1 736 0
 2444 0104 0629     		cmp	r1, #6
 2445 0106 02DC     		bgt	.L222
 2446 0108 21EAE171 		bic	r1, r1, r1, asr #31
 2447              	.LVL288:
 2448 010c 00E0     		b	.L187
 2449              	.LVL289:
 2450              	.L222:
 2451 010e 0721     		movs	r1, #7
 2452              	.L187:
 2453              	.LVL290:
 2454              	.LBE228:
 2455              	.LBE231:
 2456              	.LBB232:
 2457              	.LBB233:
 777:..\..\..\liblc3\src/spec.c **** }
 2458              		.loc 1 777 0
 2459 0110 0322     		movs	r2, #3
 2460 0112 3846     		mov	r0, r7
 2461 0114 FFF7FEFF 		bl	lc3_put_bits
 2462              	.LVL291:
 2463              	.LBE233:
 2464              	.LBE232:
 2465              	.LBB234:
 2466              	.LBB235:
 2467              	.LBB236:
 2468              	.LBB237:
 306:..\..\..\liblc3\src/spec.c **** 
 2469              		.loc 1 306 0
 2470 0118 BAF1040F 		cmp	r10, #4
 2471 011c 8CBF     		ite	hi
 2472 011e 0AF1FF32 		addhi	r2, r10, #-1
 2473 0122 5246     		movls	r2, r10
 2474              	.LVL292:
 311:..\..\..\liblc3\src/spec.c **** }
 2475              		.loc 1 311 0
 2476 0124 1423     		movs	r3, #20
 2477 0126 02FB0333 		mla	r3, r2, r3, r3
 2478 012a 1A9A     		ldr	r2, [sp, #104]
 2479              	.LVL293:
 2480 012c 9A42     		cmp	r2, r3
 2481 012e 05DD     		ble	.L223
 2482 0130 BAF1050F 		cmp	r10, #5
 2483 0134 8CBF     		ite	hi
ARM GAS  C:\Users\rdn\AppData\Local\Temp\ccYcaPXH.s 			page 75


 2484 0136 0023     		movhi	r3, #0
 2485 0138 0123     		movls	r3, #1
 2486 013a 00E0     		b	.L190
 2487              	.L223:
 2488 013c 0023     		movs	r3, #0
 2489              	.L190:
 2490              	.LVL294:
 2491              	.LBE237:
 2492              	.LBE236:
 2493              	.LBB238:
 2494              	.LBB239:
 2495              		.loc 2 51 0
 2496 013e 009A     		ldr	r2, [sp]
 2497 0140 52F82A20 		ldr	r2, [r2, r10, lsl #2]
 2498 0144 BAF1040F 		cmp	r10, #4
 2499 0148 02FB04F2 		mul	r2, r2, r4
 2500 014c F5EE088A 		vmov.f32	s17, #3.75e-1
 2501 0150 4FEA4303 		lsl	r3, r3, #1
 2502 0154 0592     		str	r2, [sp, #20]
 2503              	.LVL295:
 2504 0156 88BF     		it	hi
 2505 0158 F0EE488A 		vmovhi.f32	s17, s16
 2506 015c 18F10002 		adds	r2, r8, #0
 2507 0160 18BF     		it	ne
 2508 0162 0122     		movne	r2, #1
 2509 0164 0693     		str	r3, [sp, #24]
 2510              	.LBE239:
 2511              	.LBE238:
 2512              	.LBB240:
 430:..\..\..\liblc3\src/spec.c ****         const uint8_t (*lut_coeff)[4] = lc3_spectrum_lookup[high_rate][h];
 2513              		.loc 1 430 0
 2514 0166 0023     		movs	r3, #0
 2515 0168 0892     		str	r2, [sp, #32]
 2516 016a 0093     		str	r3, [sp]
 2517              	.LBE240:
 428:..\..\..\liblc3\src/spec.c **** 
 2518              		.loc 1 428 0
 2519 016c 0393     		str	r3, [sp, #12]
 2520              	.LBB243:
 430:..\..\..\liblc3\src/spec.c ****         const uint8_t (*lut_coeff)[4] = lc3_spectrum_lookup[high_rate][h];
 2521              		.loc 1 430 0
 2522 016e 0193     		str	r3, [sp, #4]
 2523              	.LVL296:
 2524              	.L201:
 2525 0170 069A     		ldr	r2, [sp, #24]
 2526 0172 019B     		ldr	r3, [sp, #4]
 2527 0174 1344     		add	r3, r3, r2
 2528 0176 9B02     		lsls	r3, r3, #10
 2529 0178 0993     		str	r3, [sp, #36]
 2530              	.LVL297:
 2531              	.LBB241:
 433:..\..\..\liblc3\src/spec.c **** 
 2532              		.loc 1 433 0
 2533 017a 019A     		ldr	r2, [sp, #4]
 2534 017c 059B     		ldr	r3, [sp, #20]
 2535              	.LVL298:
 2536 017e C2F10102 		rsb	r2, r2, #1
ARM GAS  C:\Users\rdn\AppData\Local\Temp\ccYcaPXH.s 			page 76


 2537 0182 0233     		adds	r3, r3, #2
 2538 0184 1341     		asrs	r3, r3, r2
 2539 0186 029A     		ldr	r2, [sp, #8]
 2540 0188 9342     		cmp	r3, r2
 2541 018a A8BF     		it	ge
 2542 018c 1346     		movge	r3, r2
 2543 018e 0793     		str	r3, [sp, #28]
 2544 0190 009A     		ldr	r2, [sp]
 2545 0192 1C9B     		ldr	r3, [sp, #112]
 2546 0194 03EB820B 		add	fp, r3, r2, lsl #2
 2547              	.L191:
 2548 0198 009B     		ldr	r3, [sp]
 2549 019a 079A     		ldr	r2, [sp, #28]
 2550 019c 9342     		cmp	r3, r2
 2551 019e 80F2A980 		bge	.L250
 2552              	.LVL299:
 2553              	.LBB242:
 436:..\..\..\liblc3\src/spec.c ****             uint32_t b = fabsf(x[i+1]) + xq_off;
 2554              		.loc 1 436 0
 2555 01a2 DBED007A 		vldr.32	s15, [fp]
 439:..\..\..\liblc3\src/spec.c **** 
 2556              		.loc 1 439 0
 2557 01a6 099B     		ldr	r3, [sp, #36]
 2558 01a8 039A     		ldr	r2, [sp, #12]
 436:..\..\..\liblc3\src/spec.c ****             uint32_t b = fabsf(x[i+1]) + xq_off;
 2559              		.loc 1 436 0
 2560 01aa F0EEE77A 		vabs.f32	s15, s15
 2561 01ae 77EEA87A 		vadd.f32	s15, s15, s17
 439:..\..\..\liblc3\src/spec.c **** 
 2562              		.loc 1 439 0
 2563 01b2 03EB8202 		add	r2, r3, r2, lsl #2
 436:..\..\..\liblc3\src/spec.c ****             uint32_t b = fabsf(x[i+1]) + xq_off;
 2564              		.loc 1 436 0
 2565 01b6 FCEEE77A 		vcvt.u32.f32	s15, s15
 439:..\..\..\liblc3\src/spec.c **** 
 2566              		.loc 1 439 0
 2567 01ba 4C4B     		ldr	r3, .L252+8
 436:..\..\..\liblc3\src/spec.c ****             uint32_t b = fabsf(x[i+1]) + xq_off;
 2568              		.loc 1 436 0
 2569 01bc 17EE906A 		vmov	r6, s15	@ int
 2570              	.LVL300:
 437:..\..\..\liblc3\src/spec.c **** 
 2571              		.loc 1 437 0
 2572 01c0 DBED017A 		vldr.32	s15, [fp, #4]
 2573 01c4 F0EEE77A 		vabs.f32	s15, s15
 2574 01c8 77EEA87A 		vadd.f32	s15, s15, s17
 439:..\..\..\liblc3\src/spec.c **** 
 2575              		.loc 1 439 0
 2576 01cc D318     		adds	r3, r2, r3
 437:..\..\..\liblc3\src/spec.c **** 
 2577              		.loc 1 437 0
 2578 01ce FCEEE77A 		vcvt.u32.f32	s15, s15
 439:..\..\..\liblc3\src/spec.c **** 
 2579              		.loc 1 439 0
 2580 01d2 0493     		str	r3, [sp, #16]
 437:..\..\..\liblc3\src/spec.c **** 
 2581              		.loc 1 437 0
ARM GAS  C:\Users\rdn\AppData\Local\Temp\ccYcaPXH.s 			page 77


 2582 01d4 17EE909A 		vmov	r9, s15	@ int
 2583              	.LVL301:
 446:..\..\..\liblc3\src/spec.c ****             unsigned k = 0, shr = 0;
 2584              		.loc 1 446 0
 2585 01d8 46EA0905 		orr	r5, r6, r9
 2586              	.LVL302:
 449:..\..\..\liblc3\src/spec.c **** 
 2587              		.loc 1 449 0
 2588 01dc AD08     		lsrs	r5, r5, #2
 2589              	.LVL303:
 2590 01de 3BD0     		beq	.L224
 451:..\..\..\liblc3\src/spec.c ****                     lc3_put_symbol(bits,
 2591              		.loc 1 451 0
 2592 01e0 B8F1000F 		cmp	r8, #0
 2593 01e4 0AD0     		beq	.L193
 2594              	.LVL304:
 452:..\..\..\liblc3\src/spec.c ****                         lc3_spectrum_models + lut[k++], 16);
 2595              		.loc 1 452 0
 2596 01e6 414B     		ldr	r3, .L252+8
 2597              	.LVL305:
 2598 01e8 995C     		ldrb	r1, [r3, r2]	@ zero_extendqisi2
 2599 01ea 414B     		ldr	r3, .L252+12
 2600 01ec 01EB0111 		add	r1, r1, r1, lsl #4
 2601 01f0 1022     		movs	r2, #16
 2602 01f2 03EB8101 		add	r1, r3, r1, lsl #2
 2603 01f6 3846     		mov	r0, r7
 2604 01f8 FFF7FEFF 		bl	lc3_put_symbol
 2605              	.LVL306:
 2606              	.L193:
 455:..\..\..\liblc3\src/spec.c ****                     lc3_put_bit(bits, (a >> k) & 1);
 2607              		.loc 1 455 0
 2608 01fc 089C     		ldr	r4, [sp, #32]
 2609 01fe 25FA08F5 		lsr	r5, r5, r8
 2610              	.LVL307:
 2611              	.L194:
 2612 0202 FDB1     		cbz	r5, .L251
 456:..\..\..\liblc3\src/spec.c ****                     lc3_put_bit(bits, (b >> k) & 1);
 2613              		.loc 1 456 0
 2614 0204 26FA04F1 		lsr	r1, r6, r4
 2615 0208 01F00101 		and	r1, r1, #1
 2616 020c 3846     		mov	r0, r7
 2617 020e FFF7FEFF 		bl	lc3_put_bit
 2618              	.LVL308:
 457:..\..\..\liblc3\src/spec.c ****                     lc3_put_symbol(bits,
 2619              		.loc 1 457 0
 2620 0212 29FA04F1 		lsr	r1, r9, r4
 2621 0216 01F00101 		and	r1, r1, #1
 2622 021a 3846     		mov	r0, r7
 2623 021c FFF7FEFF 		bl	lc3_put_bit
 2624              	.LVL309:
 459:..\..\..\liblc3\src/spec.c ****                 }
 2625              		.loc 1 459 0
 2626 0220 032C     		cmp	r4, #3
 2627 0222 2246     		mov	r2, r4
 458:..\..\..\liblc3\src/spec.c ****                         lc3_spectrum_models + lut[LC3_MIN(k, 3)], 16);
 2628              		.loc 1 458 0
 2629 0224 049B     		ldr	r3, [sp, #16]
ARM GAS  C:\Users\rdn\AppData\Local\Temp\ccYcaPXH.s 			page 78


 459:..\..\..\liblc3\src/spec.c ****                 }
 2630              		.loc 1 459 0
 2631 0226 28BF     		it	cs
 2632 0228 0322     		movcs	r2, #3
 458:..\..\..\liblc3\src/spec.c ****                         lc3_spectrum_models + lut[LC3_MIN(k, 3)], 16);
 2633              		.loc 1 458 0
 2634 022a 3846     		mov	r0, r7
 2635 022c 995C     		ldrb	r1, [r3, r2]	@ zero_extendqisi2
 2636 022e 304B     		ldr	r3, .L252+12
 2637 0230 01EB0111 		add	r1, r1, r1, lsl #4
 2638 0234 1022     		movs	r2, #16
 2639 0236 03EB8101 		add	r1, r3, r1, lsl #2
 2640 023a FFF7FEFF 		bl	lc3_put_symbol
 2641              	.LVL310:
 455:..\..\..\liblc3\src/spec.c ****                     lc3_put_bit(bits, (a >> k) & 1);
 2642              		.loc 1 455 0
 2643 023e 6D08     		lsrs	r5, r5, #1
 2644              	.LVL311:
 2645 0240 0134     		adds	r4, r4, #1
 2646              	.LVL312:
 2647 0242 DEE7     		b	.L194
 2648              	.L251:
 466:..\..\..\liblc3\src/spec.c ****             }
 2649              		.loc 1 466 0
 2650 0244 032C     		cmp	r4, #3
 465:..\..\..\liblc3\src/spec.c ****                 k = LC3_MIN(k, 3);
 2651              		.loc 1 465 0
 2652 0246 C8EB0405 		rsb	r5, r8, r4
 2653              	.LVL313:
 462:..\..\..\liblc3\src/spec.c ****                 b >>= lsb_mode;
 2654              		.loc 1 462 0
 2655 024a 26FA08F6 		lsr	r6, r6, r8
 2656              	.LVL314:
 463:..\..\..\liblc3\src/spec.c **** 
 2657              		.loc 1 463 0
 2658 024e 29FA08F9 		lsr	r9, r9, r8
 2659              	.LVL315:
 466:..\..\..\liblc3\src/spec.c ****             }
 2660              		.loc 1 466 0
 2661 0252 28BF     		it	cs
 2662 0254 0324     		movcs	r4, #3
 2663              	.LVL316:
 2664 0256 00E0     		b	.L192
 2665              	.LVL317:
 2666              	.L224:
 447:..\..\..\liblc3\src/spec.c **** 
 2667              		.loc 1 447 0
 2668 0258 2C46     		mov	r4, r5
 2669              	.LVL318:
 2670              	.L192:
 471:..\..\..\liblc3\src/spec.c ****             if (b) lc3_put_bit(bits, x[i+1] < 0);
 2671              		.loc 1 471 0
 2672 025a 5EB1     		cbz	r6, .L196
 2673 025c DBED007A 		vldr.32	s15, [fp]
 2674 0260 F5EEC07A 		vcmpe.f32	s15, #0
 2675 0264 F1EE10FA 		vmrs	APSR_nzcv, FPSCR
 2676 0268 4CBF     		ite	mi
ARM GAS  C:\Users\rdn\AppData\Local\Temp\ccYcaPXH.s 			page 79


 2677 026a 0121     		movmi	r1, #1
 2678 026c 0021     		movpl	r1, #0
 2679 026e 3846     		mov	r0, r7
 2680 0270 FFF7FEFF 		bl	lc3_put_bit
 2681              	.LVL319:
 2682              	.L196:
 472:..\..\..\liblc3\src/spec.c **** 
 2683              		.loc 1 472 0
 2684 0274 B9F1000F 		cmp	r9, #0
 2685 0278 0BD0     		beq	.L197
 2686 027a DBED017A 		vldr.32	s15, [fp, #4]
 2687 027e F5EEC07A 		vcmpe.f32	s15, #0
 2688 0282 F1EE10FA 		vmrs	APSR_nzcv, FPSCR
 2689 0286 4CBF     		ite	mi
 2690 0288 0121     		movmi	r1, #1
 2691 028a 0021     		movpl	r1, #0
 2692 028c 3846     		mov	r0, r7
 2693 028e FFF7FEFF 		bl	lc3_put_bit
 2694              	.LVL320:
 2695              	.L197:
 479:..\..\..\liblc3\src/spec.c **** 
 2696              		.loc 1 479 0
 2697 0292 049B     		ldr	r3, [sp, #16]
 2698 0294 195D     		ldrb	r1, [r3, r4]	@ zero_extendqisi2
 2699 0296 164B     		ldr	r3, .L252+12
 476:..\..\..\liblc3\src/spec.c ****             b >>= shr;
 2700              		.loc 1 476 0
 2701 0298 EE40     		lsrs	r6, r6, r5
 2702              	.LVL321:
 477:..\..\..\liblc3\src/spec.c **** 
 2703              		.loc 1 477 0
 2704 029a 29FA05F9 		lsr	r9, r9, r5
 2705              	.LVL322:
 479:..\..\..\liblc3\src/spec.c **** 
 2706              		.loc 1 479 0
 2707 029e 01EB0111 		add	r1, r1, r1, lsl #4
 2708 02a2 06EB8902 		add	r2, r6, r9, lsl #2
 2709 02a6 03EB8101 		add	r1, r3, r1, lsl #2
 2710 02aa 3846     		mov	r0, r7
 2711 02ac FFF7FEFF 		bl	lc3_put_symbol
 2712              	.LVL323:
 483:..\..\..\liblc3\src/spec.c ****         }
 2713              		.loc 1 483 0
 2714 02b0 012C     		cmp	r4, #1
 2715 02b2 039B     		ldr	r3, [sp, #12]
 2716 02b4 9EBF     		ittt	ls
 2717 02b6 4E44     		addls	r6, r6, r9
 2718              	.LVL324:
 2719 02b8 621C     		addls	r2, r4, #1
 2720 02ba 16FB02F6 		smulbbls	r6, r6, r2
 2721 02be 4FEA0311 		lsl	r1, r3, #4
 2722 02c2 8CBF     		ite	hi
 2723 02c4 0C34     		addhi	r4, r4, #12
 2724              	.LVL325:
 2725 02c6 0136     		addls	r6, r6, #1
 2726 02c8 C9B2     		uxtb	r1, r1
 2727 02ca 8CBF     		ite	hi
ARM GAS  C:\Users\rdn\AppData\Local\Temp\ccYcaPXH.s 			page 80


 2728 02cc E4B2     		uxtbhi	r4, r4
 2729 02ce F4B2     		uxtbls	r4, r6
 2730 02d0 0C44     		add	r4, r4, r1
 2731 02d2 E3B2     		uxtb	r3, r4
 2732 02d4 0393     		str	r3, [sp, #12]
 2733              	.LVL326:
 2734              	.LBE242:
 433:..\..\..\liblc3\src/spec.c **** 
 2735              		.loc 1 433 0
 2736 02d6 009B     		ldr	r3, [sp]
 2737 02d8 0233     		adds	r3, r3, #2
 2738 02da 0093     		str	r3, [sp]
 2739              	.LVL327:
 2740 02dc 0BF1080B 		add	fp, fp, #8
 2741 02e0 5AE7     		b	.L191
 2742              	.L253:
 2743 02e2 00BF     		.align	2
 2744              	.L252:
 2745 02e4 00000000 		.word	lc3_ne_2m5
 2746 02e8 00000000 		.word	0
 2747 02ec 00000000 		.word	lc3_spectrum_lookup
 2748 02f0 00000000 		.word	lc3_spectrum_models
 2749              	.LVL328:
 2750              	.L250:
 2751              	.LBE241:
 430:..\..\..\liblc3\src/spec.c ****         const uint8_t (*lut_coeff)[4] = lc3_spectrum_lookup[high_rate][h];
 2752              		.loc 1 430 0
 2753 02f4 019B     		ldr	r3, [sp, #4]
 2754              	.LVL329:
 2755 02f6 0133     		adds	r3, r3, #1
 2756 02f8 022B     		cmp	r3, #2
 2757 02fa 0193     		str	r3, [sp, #4]
 2758              	.LVL330:
 2759 02fc 7FF438AF 		bne	.L201
 2760              	.LVL331:
 2761              	.LBE243:
 2762              	.LBE235:
 2763              	.LBE234:
 893:..\..\..\liblc3\src/spec.c **** 
 894:..\..\..\liblc3\src/spec.c ****     put_noise_factor(bits, estimate_noise(dt, bw, lc3_hr(sr), x, nq));
 895:..\..\..\liblc3\src/spec.c **** 
 896:..\..\..\liblc3\src/spec.c ****     put_quantized(bits, dt, sr, nbytes, x, nq, lsb_mode);
 897:..\..\..\liblc3\src/spec.c **** 
 898:..\..\..\liblc3\src/spec.c ****     int nbits_left = lc3_get_bits_left(bits);
 2764              		.loc 1 898 0
 2765 0300 3846     		mov	r0, r7
 2766 0302 FFF7FEFF 		bl	lc3_get_bits_left
 2767              	.LVL332:
 2768 0306 0446     		mov	r4, r0
 2769              	.LVL333:
 899:..\..\..\liblc3\src/spec.c **** 
 900:..\..\..\liblc3\src/spec.c ****     if (lsb_mode)
 2770              		.loc 1 900 0
 2771 0308 B8F1000F 		cmp	r8, #0
 2772 030c 5FD0     		beq	.L202
 2773 030e DDF87080 		ldr	r8, [sp, #112]
 2774              	.LVL334:
ARM GAS  C:\Users\rdn\AppData\Local\Temp\ccYcaPXH.s 			page 81


 2775 0312 4FF00009 		mov	r9, #0
 2776              	.LVL335:
 2777              	.L203:
 2778              	.LBB244:
 2779              	.LBB245:
 640:..\..\..\liblc3\src/spec.c **** 
 2780              		.loc 1 640 0
 2781 0316 029B     		ldr	r3, [sp, #8]
 2782 0318 4B45     		cmp	r3, r9
 2783 031a 40F3AF80 		ble	.L177
 2784 031e 002C     		cmp	r4, #0
 2785 0320 40F3AC80 		ble	.L177
 2786              	.LVL336:
 2787              	.LBB246:
 643:..\..\..\liblc3\src/spec.c ****         uint32_t b = fabsf(x[i+1]) + xq_off;
 2788              		.loc 1 643 0
 2789 0324 D8ED007A 		vldr.32	s15, [r8]
 2790 0328 F0EEE77A 		vabs.f32	s15, s15
 2791 032c 77EEA87A 		vadd.f32	s15, s15, s17
 2792 0330 FCEEE77A 		vcvt.u32.f32	s15, s15
 2793 0334 17EE906A 		vmov	r6, s15	@ int
 2794              	.LVL337:
 644:..\..\..\liblc3\src/spec.c **** 
 2795              		.loc 1 644 0
 2796 0338 D8ED017A 		vldr.32	s15, [r8, #4]
 2797 033c F0EEE77A 		vabs.f32	s15, s15
 2798 0340 77EEA87A 		vadd.f32	s15, s15, s17
 2799 0344 FCEEE77A 		vcvt.u32.f32	s15, s15
 2800 0348 17EE905A 		vmov	r5, s15	@ int
 2801              	.LVL338:
 646:..\..\..\liblc3\src/spec.c ****             continue;
 2802              		.loc 1 646 0
 2803 034c 46EA0503 		orr	r3, r6, r5
 2804 0350 9B08     		lsrs	r3, r3, #2
 2805 0352 37D0     		beq	.L204
 650:..\..\..\liblc3\src/spec.c **** 
 2806              		.loc 1 650 0
 2807 0354 06F00101 		and	r1, r6, #1
 2808 0358 3846     		mov	r0, r7
 2809 035a FFF7FEFF 		bl	lc3_put_bit
 2810              	.LVL339:
 652:..\..\..\liblc3\src/spec.c ****             lc3_put_bit(bits, x[i+0] < 0);
 2811              		.loc 1 652 0
 2812 035e 012E     		cmp	r6, #1
 649:..\..\..\liblc3\src/spec.c ****             lc3_put_bit(bits, a & 1);
 2813              		.loc 1 649 0
 2814 0360 04F1FF3A 		add	r10, r4, #-1
 2815              	.LVL340:
 652:..\..\..\liblc3\src/spec.c ****             lc3_put_bit(bits, x[i+0] < 0);
 2816              		.loc 1 652 0
 2817 0364 10D1     		bne	.L225
 2818 0366 023C     		subs	r4, r4, #2
 2819              	.LVL341:
 2820 0368 BAF1000F 		cmp	r10, #0
 2821 036c 0DD0     		beq	.L205
 653:..\..\..\liblc3\src/spec.c **** 
 2822              		.loc 1 653 0
ARM GAS  C:\Users\rdn\AppData\Local\Temp\ccYcaPXH.s 			page 82


 2823 036e D8ED007A 		vldr.32	s15, [r8]
 2824 0372 F5EEC07A 		vcmpe.f32	s15, #0
 2825 0376 F1EE10FA 		vmrs	APSR_nzcv, FPSCR
 2826 037a 4CBF     		ite	mi
 2827 037c 0121     		movmi	r1, #1
 2828 037e 0021     		movpl	r1, #0
 2829 0380 3846     		mov	r0, r7
 2830 0382 FFF7FEFF 		bl	lc3_put_bit
 2831              	.LVL342:
 2832 0386 00E0     		b	.L205
 2833              	.LVL343:
 2834              	.L225:
 649:..\..\..\liblc3\src/spec.c ****             lc3_put_bit(bits, a & 1);
 2835              		.loc 1 649 0
 2836 0388 5446     		mov	r4, r10
 2837              	.LVL344:
 2838              	.L205:
 655:..\..\..\liblc3\src/spec.c ****             lc3_put_bit(bits, b & 1);
 2839              		.loc 1 655 0
 2840 038a 002C     		cmp	r4, #0
 2841 038c 04F1FF36 		add	r6, r4, #-1
 2842              	.LVL345:
 2843 0390 04DD     		ble	.L206
 656:..\..\..\liblc3\src/spec.c **** 
 2844              		.loc 1 656 0
 2845 0392 05F00101 		and	r1, r5, #1
 2846 0396 3846     		mov	r0, r7
 2847 0398 FFF7FEFF 		bl	lc3_put_bit
 2848              	.LVL346:
 2849              	.L206:
 658:..\..\..\liblc3\src/spec.c ****             lc3_put_bit(bits, x[i+1] < 0);
 2850              		.loc 1 658 0
 2851 039c 012D     		cmp	r5, #1
 2852 039e 10D1     		bne	.L226
 2853 03a0 002E     		cmp	r6, #0
 2854 03a2 A4F10204 		sub	r4, r4, #2
 2855              	.LVL347:
 2856 03a6 0DDD     		ble	.L204
 659:..\..\..\liblc3\src/spec.c ****     }
 2857              		.loc 1 659 0
 2858 03a8 D8ED017A 		vldr.32	s15, [r8, #4]
 2859 03ac F5EEC07A 		vcmpe.f32	s15, #0
 2860 03b0 F1EE10FA 		vmrs	APSR_nzcv, FPSCR
 2861 03b4 4CBF     		ite	mi
 2862 03b6 0121     		movmi	r1, #1
 2863 03b8 0021     		movpl	r1, #0
 2864 03ba 3846     		mov	r0, r7
 2865 03bc FFF7FEFF 		bl	lc3_put_bit
 2866              	.LVL348:
 2867 03c0 00E0     		b	.L204
 2868              	.LVL349:
 2869              	.L226:
 655:..\..\..\liblc3\src/spec.c ****             lc3_put_bit(bits, b & 1);
 2870              		.loc 1 655 0
 2871 03c2 3446     		mov	r4, r6
 2872              	.LVL350:
 2873              	.L204:
ARM GAS  C:\Users\rdn\AppData\Local\Temp\ccYcaPXH.s 			page 83


 2874              	.LBE246:
 640:..\..\..\liblc3\src/spec.c **** 
 2875              		.loc 1 640 0
 2876 03c4 09F10209 		add	r9, r9, #2
 2877              	.LVL351:
 2878 03c8 08F10808 		add	r8, r8, #8
 2879 03cc A3E7     		b	.L203
 2880              	.LVL352:
 2881              	.L202:
 2882              	.LBE245:
 2883              	.LBE244:
 2884              	.LBB247:
 2885              	.LBB248:
 577:..\..\..\liblc3\src/spec.c ****     float xq_off = xq_lim / 2;
 2886              		.loc 1 577 0
 2887 03ce BAF1040F 		cmp	r10, #4
 2888 03d2 F6EE048A 		vmov.f32	s17, #6.25e-1
 2889 03d6 F6EE007A 		vmov.f32	s15, #5.0e-1
 2890 03da 88BF     		it	hi
 2891 03dc F0EE678A 		vmovhi.f32	s17, s15
 2892              	.LVL353:
 578:..\..\..\liblc3\src/spec.c **** 
 2893              		.loc 1 578 0
 2894 03e0 28EE888A 		vmul.f32	s16, s17, s16
 2895              	.LVL354:
 2896 03e4 8CBF     		ite	hi
 2897 03e6 4FF0140A 		movhi	r10, #20
 2898              	.LVL355:
 2899 03ea 4FF0010A 		movls	r10, #1
 2900              	.LVL356:
 2901              	.L211:
 2902              	.LBB249:
 580:..\..\..\liblc3\src/spec.c ****         for (int i = 0; i < n && nbits > 0; i++) {
 2903              		.loc 1 580 0
 2904 03ee 002C     		cmp	r4, #0
 2905 03f0 44DD     		ble	.L177
 2906 03f2 1C9D     		ldr	r5, [sp, #112]
 2907 03f4 4FF00009 		mov	r9, #0
 2908              	.LBB250:
 2909              	.LBB251:
 591:..\..\..\liblc3\src/spec.c ****         }
 2910              		.loc 1 591 0
 2911 03f8 B1EE48AA 		vneg.f32	s20, s16
 2912              	.L217:
 2913              	.LVL357:
 2914              	.LBE251:
 581:..\..\..\liblc3\src/spec.c **** 
 2915              		.loc 1 581 0
 2916 03fc 029B     		ldr	r3, [sp, #8]
 2917 03fe 4B45     		cmp	r3, r9
 2918 0400 06DC     		bgt	.L214
 2919              	.L216:
 2920              	.LBE250:
 580:..\..\..\liblc3\src/spec.c ****         for (int i = 0; i < n && nbits > 0; i++) {
 2921              		.loc 1 580 0
 2922 0402 08F10108 		add	r8, r8, #1
 2923              	.LVL358:
ARM GAS  C:\Users\rdn\AppData\Local\Temp\ccYcaPXH.s 			page 84


 2924 0406 D045     		cmp	r8, r10
 594:..\..\..\liblc3\src/spec.c ****     }
 2925              		.loc 1 594 0
 2926 0408 28EE288A 		vmul.f32	s16, s16, s17
 2927              	.LVL359:
 580:..\..\..\liblc3\src/spec.c ****         for (int i = 0; i < n && nbits > 0; i++) {
 2928              		.loc 1 580 0
 2929 040c EFD1     		bne	.L211
 2930 040e 35E0     		b	.L177
 2931              	.L214:
 2932              	.LBB253:
 581:..\..\..\liblc3\src/spec.c **** 
 2933              		.loc 1 581 0
 2934 0410 002C     		cmp	r4, #0
 2935 0412 F6DD     		ble	.L216
 2936              	.LBB252:
 583:..\..\..\liblc3\src/spec.c ****             if (xr < xq_lim)
 2937              		.loc 1 583 0
 2938 0414 F5EC019A 		vldmia.32	r5!, {s19}
 2939 0418 B0EEE99A 		vabs.f32	s18, s19
 2940              	.LVL360:
 584:..\..\..\liblc3\src/spec.c ****                 continue;
 2941              		.loc 1 584 0
 2942 041c F4EEC98A 		vcmpe.f32	s17, s18
 2943 0420 F1EE10FA 		vmrs	APSR_nzcv, FPSCR
 2944 0424 27DC     		bgt	.L212
 587:..\..\..\liblc3\src/spec.c ****             lc3_put_bit(bits, b);
 2945              		.loc 1 587 0
 2946 0426 19EE100A 		vmov	r0, s18
 2947 042a FFF7FEFF 		bl	truncf
 2948              	.LVL361:
 2949 042e 07EE900A 		vmov	s15, r0
 2950 0432 39EE679A 		vsub.f32	s18, s18, s15
 2951              	.LVL362:
 588:..\..\..\liblc3\src/spec.c ****             nbits--;
 2952              		.loc 1 588 0
 2953 0436 3846     		mov	r0, r7
 2954 0438 F4EEC98A 		vcmpe.f32	s17, s18
 2955 043c F1EE10FA 		vmrs	APSR_nzcv, FPSCR
 2956 0440 F5EEC09A 		vcmpe.f32	s19, #0
 2957 0444 CCBF     		ite	gt
 2958 0446 0126     		movgt	r6, #1
 2959 0448 0026     		movle	r6, #0
 2960 044a F1EE10FA 		vmrs	APSR_nzcv, FPSCR
 2961 044e 4CBF     		ite	mi
 2962 0450 0123     		movmi	r3, #1
 2963 0452 0023     		movpl	r3, #0
 2964 0454 5E40     		eors	r6, r6, r3
 2965              	.LVL363:
 2966 0456 3146     		mov	r1, r6
 2967 0458 FFF7FEFF 		bl	lc3_put_bit
 2968              	.LVL364:
 591:..\..\..\liblc3\src/spec.c ****         }
 2969              		.loc 1 591 0
 2970 045c 55ED017A 		vldr.32	s15, [r5, #-4]
 2971 0460 002E     		cmp	r6, #0
 2972 0462 14BF     		ite	ne
ARM GAS  C:\Users\rdn\AppData\Local\Temp\ccYcaPXH.s 			page 85


 2973 0464 B0EE4A7A 		vmovne.f32	s14, s20
 2974 0468 B0EE487A 		vmoveq.f32	s14, s16
 2975 046c 77EE877A 		vadd.f32	s15, s15, s14
 589:..\..\..\liblc3\src/spec.c **** 
 2976              		.loc 1 589 0
 2977 0470 013C     		subs	r4, r4, #1
 2978              	.LVL365:
 591:..\..\..\liblc3\src/spec.c ****         }
 2979              		.loc 1 591 0
 2980 0472 45ED017A 		vstr.32	s15, [r5, #-4]
 2981              	.LVL366:
 2982              	.L212:
 2983              	.LBE252:
 581:..\..\..\liblc3\src/spec.c **** 
 2984              		.loc 1 581 0
 2985 0476 09F10109 		add	r9, r9, #1
 2986              	.LVL367:
 2987 047a BFE7     		b	.L217
 2988              	.LVL368:
 2989              	.L177:
 2990              	.LBE253:
 2991              	.LBE249:
 2992              	.LBE248:
 2993              	.LBE247:
 901:..\..\..\liblc3\src/spec.c ****         put_lsb(bits, nbits_left, lc3_hr(sr), x, nq);
 902:..\..\..\liblc3\src/spec.c ****     else
 903:..\..\..\liblc3\src/spec.c ****         put_residual(bits, nbits_left, lc3_hr(sr), x, nq);
 904:..\..\..\liblc3\src/spec.c **** }
 2994              		.loc 1 904 0
 2995 047c 0BB0     		add	sp, sp, #44
 2996              		.cfi_def_cfa_offset 60
 2997              		@ sp needed
 2998 047e BDEC068B 		vldm	sp!, {d8-d10}
 2999              		.cfi_restore 84
 3000              		.cfi_restore 85
 3001              		.cfi_restore 82
 3002              		.cfi_restore 83
 3003              		.cfi_restore 80
 3004              		.cfi_restore 81
 3005              		.cfi_def_cfa_offset 36
 3006 0482 BDE8F08F 		pop	{r4, r5, r6, r7, r8, r9, r10, fp, pc}
 3007              		.cfi_endproc
 3008              	.LFE42:
 3009              		.size	lc3_spec_encode, .-lc3_spec_encode
 3010 0486 00BF     		.section	.text.lc3_spec_get_side,"ax",%progbits
 3011              		.align	1
 3012              		.global	lc3_spec_get_side
 3013              		.thumb
 3014              		.thumb_func
 3015              		.type	lc3_spec_get_side, %function
 3016              	lc3_spec_get_side:
 3017              	.LFB43:
 905:..\..\..\liblc3\src/spec.c **** 
 906:..\..\..\liblc3\src/spec.c **** 
 907:..\..\..\liblc3\src/spec.c **** /* ----------------------------------------------------------------------------
 908:..\..\..\liblc3\src/spec.c ****  *  Decoding
 909:..\..\..\liblc3\src/spec.c ****  * -------------------------------------------------------------------------- */
ARM GAS  C:\Users\rdn\AppData\Local\Temp\ccYcaPXH.s 			page 86


 910:..\..\..\liblc3\src/spec.c **** 
 911:..\..\..\liblc3\src/spec.c **** /**
 912:..\..\..\liblc3\src/spec.c ****  * Get spectral quantization side data
 913:..\..\..\liblc3\src/spec.c ****  */
 914:..\..\..\liblc3\src/spec.c **** int lc3_spec_get_side(lc3_bits_t *bits,
 915:..\..\..\liblc3\src/spec.c ****     enum lc3_dt dt, enum lc3_srate sr, struct lc3_spec_side *side)
 916:..\..\..\liblc3\src/spec.c **** {
 3018              		.loc 1 916 0
 3019              		.cfi_startproc
 3020              		@ args = 0, pretend = 0, frame = 0
 3021              		@ frame_needed = 0, uses_anonymous_args = 0
 3022              	.LVL369:
 3023 0000 F8B5     		push	{r3, r4, r5, r6, r7, lr}
 3024              		.cfi_def_cfa_offset 24
 3025              		.cfi_offset 3, -24
 3026              		.cfi_offset 4, -20
 3027              		.cfi_offset 5, -16
 3028              		.cfi_offset 6, -12
 3029              		.cfi_offset 7, -8
 3030              		.cfi_offset 14, -4
 3031              		.loc 1 916 0
 3032 0002 0F46     		mov	r7, r1
 3033 0004 0646     		mov	r6, r0
 917:..\..\..\liblc3\src/spec.c ****     int nbits_nq = get_nbits_nq(dt, sr);
 3034              		.loc 1 917 0
 3035 0006 1146     		mov	r1, r2
 3036              	.LVL370:
 3037 0008 3846     		mov	r0, r7
 3038              	.LVL371:
 916:..\..\..\liblc3\src/spec.c ****     int nbits_nq = get_nbits_nq(dt, sr);
 3039              		.loc 1 916 0
 3040 000a 1C46     		mov	r4, r3
 3041              		.loc 1 917 0
 3042 000c FFF7FEFF 		bl	get_nbits_nq
 3043              	.LVL372:
 3044              	.LBB254:
 3045              	.LBB255:
 3046              		.loc 2 51 0
 3047 0010 0F4B     		ldr	r3, .L257
 3048              	.LBE255:
 3049              	.LBE254:
 918:..\..\..\liblc3\src/spec.c ****     int ne = lc3_ne(dt, sr);
 919:..\..\..\liblc3\src/spec.c **** 
 920:..\..\..\liblc3\src/spec.c ****     side->nq = (lc3_get_bits(bits, nbits_nq) + 1) << 1;
 3050              		.loc 1 920 0
 3051 0012 0146     		mov	r1, r0
 3052 0014 3046     		mov	r0, r6
 3053              	.LVL373:
 3054              	.LBB258:
 3055              	.LBB256:
 3056              		.loc 2 51 0
 3057 0016 53F82250 		ldr	r5, [r3, r2, lsl #2]
 3058              	.LBE256:
 3059              	.LBE258:
 3060              		.loc 1 920 0
 3061 001a FFF7FEFF 		bl	lc3_get_bits
 3062              	.LVL374:
ARM GAS  C:\Users\rdn\AppData\Local\Temp\ccYcaPXH.s 			page 87


 3063 001e 0130     		adds	r0, r0, #1
 3064 0020 4000     		lsls	r0, r0, #1
 3065 0022 6060     		str	r0, [r4, #4]
 921:..\..\..\liblc3\src/spec.c ****     side->lsb_mode = lc3_get_bit(bits);
 3066              		.loc 1 921 0
 3067 0024 3046     		mov	r0, r6
 3068 0026 FFF7FEFF 		bl	lc3_get_bit
 3069              	.LVL375:
 3070 002a 0030     		adds	r0, r0, #0
 3071 002c 18BF     		it	ne
 3072 002e 0120     		movne	r0, #1
 3073 0030 2072     		strb	r0, [r4, #8]
 922:..\..\..\liblc3\src/spec.c ****     side->g_idx = lc3_get_bits(bits, 8);
 3074              		.loc 1 922 0
 3075 0032 0821     		movs	r1, #8
 3076 0034 3046     		mov	r0, r6
 3077 0036 FFF7FEFF 		bl	lc3_get_bits
 3078              	.LVL376:
 923:..\..\..\liblc3\src/spec.c **** 
 924:..\..\..\liblc3\src/spec.c ****     return side->nq > ne ? (side->nq = ne), -1 : 0;
 3079              		.loc 1 924 0
 3080 003a 6368     		ldr	r3, [r4, #4]
 922:..\..\..\liblc3\src/spec.c ****     side->g_idx = lc3_get_bits(bits, 8);
 3081              		.loc 1 922 0
 3082 003c 2060     		str	r0, [r4]
 3083              	.LBB259:
 3084              	.LBB257:
 3085              		.loc 2 51 0
 3086 003e 07FB0555 		mla	r5, r7, r5, r5
 3087              	.LVL377:
 3088              	.LBE257:
 3089              	.LBE259:
 3090              		.loc 1 924 0
 3091 0042 AB42     		cmp	r3, r5
 3092 0044 C6BF     		itte	gt
 3093 0046 4FF0FF30 		movgt	r0, #-1
 3094 004a 6560     		strgt	r5, [r4, #4]
 3095 004c 0020     		movle	r0, #0
 925:..\..\..\liblc3\src/spec.c **** }
 3096              		.loc 1 925 0
 3097 004e F8BD     		pop	{r3, r4, r5, r6, r7, pc}
 3098              	.LVL378:
 3099              	.L258:
 3100              		.align	2
 3101              	.L257:
 3102 0050 00000000 		.word	lc3_ne_2m5
 3103              		.cfi_endproc
 3104              	.LFE43:
 3105              		.size	lc3_spec_get_side, .-lc3_spec_get_side
 3106              		.section	.text.lc3_spec_decode,"ax",%progbits
 3107              		.align	1
 3108              		.global	lc3_spec_decode
 3109              		.thumb
 3110              		.thumb_func
 3111              		.type	lc3_spec_decode, %function
 3112              	lc3_spec_decode:
 3113              	.LFB44:
ARM GAS  C:\Users\rdn\AppData\Local\Temp\ccYcaPXH.s 			page 88


 926:..\..\..\liblc3\src/spec.c **** 
 927:..\..\..\liblc3\src/spec.c **** /**
 928:..\..\..\liblc3\src/spec.c ****  * Decode spectral coefficients
 929:..\..\..\liblc3\src/spec.c ****  */
 930:..\..\..\liblc3\src/spec.c **** int lc3_spec_decode(lc3_bits_t *bits,
 931:..\..\..\liblc3\src/spec.c ****     enum lc3_dt dt, enum lc3_srate sr, enum lc3_bandwidth bw,
 932:..\..\..\liblc3\src/spec.c ****     int nbytes, const lc3_spec_side_t *side, float *x)
 933:..\..\..\liblc3\src/spec.c **** {
 3114              		.loc 1 933 0
 3115              		.cfi_startproc
 3116              		@ args = 12, pretend = 0, frame = 64
 3117              		@ frame_needed = 0, uses_anonymous_args = 0
 3118              	.LVL379:
 3119 0000 2DE9F04F 		push	{r4, r5, r6, r7, r8, r9, r10, fp, lr}
 3120              		.cfi_def_cfa_offset 36
 3121              		.cfi_offset 4, -36
 3122              		.cfi_offset 5, -32
 3123              		.cfi_offset 6, -28
 3124              		.cfi_offset 7, -24
 3125              		.cfi_offset 8, -20
 3126              		.cfi_offset 9, -16
 3127              		.cfi_offset 10, -12
 3128              		.cfi_offset 11, -8
 3129              		.cfi_offset 14, -4
 3130 0004 2DED048B 		vpush.64	{d8, d9}
 3131              		.cfi_def_cfa_offset 52
 3132              		.cfi_offset 80, -52
 3133              		.cfi_offset 81, -48
 3134              		.cfi_offset 82, -44
 3135              		.cfi_offset 83, -40
 3136 0008 91B0     		sub	sp, sp, #68
 3137              		.cfi_def_cfa_offset 120
 3138              		.loc 1 933 0
 3139 000a 9346     		mov	fp, r2
 3140 000c 0F93     		str	r3, [sp, #60]
 934:..\..\..\liblc3\src/spec.c ****     bool lsb_mode = side->lsb_mode;
 3141              		.loc 1 934 0
 3142 000e 1F9B     		ldr	r3, [sp, #124]
 3143              	.LVL380:
 933:..\..\..\liblc3\src/spec.c ****     bool lsb_mode = side->lsb_mode;
 3144              		.loc 1 933 0
 3145 0010 0691     		str	r1, [sp, #24]
 3146              		.loc 1 934 0
 3147 0012 1B7A     		ldrb	r3, [r3, #8]	@ zero_extendqisi2
 3148 0014 0593     		str	r3, [sp, #20]
 3149              	.LVL381:
 935:..\..\..\liblc3\src/spec.c ****     int nq = side->nq;
 3150              		.loc 1 935 0
 3151 0016 1F9B     		ldr	r3, [sp, #124]
 933:..\..\..\liblc3\src/spec.c ****     bool lsb_mode = side->lsb_mode;
 3152              		.loc 1 933 0
 3153 0018 DDF880A0 		ldr	r10, [sp, #128]
 3154              		.loc 1 935 0
 3155 001c 5B68     		ldr	r3, [r3, #4]
 3156 001e 0093     		str	r3, [sp]
 3157              	.LVL382:
 3158              	.LBB289:
ARM GAS  C:\Users\rdn\AppData\Local\Temp\ccYcaPXH.s 			page 89


 3159              	.LBB290:
 787:..\..\..\liblc3\src/spec.c **** }
 3160              		.loc 1 787 0
 3161 0020 0321     		movs	r1, #3
 3162              	.LVL383:
 3163              	.LBE290:
 3164              	.LBE289:
 933:..\..\..\liblc3\src/spec.c ****     bool lsb_mode = side->lsb_mode;
 3165              		.loc 1 933 0
 3166 0022 0646     		mov	r6, r0
 3167              	.LVL384:
 3168              	.LBB293:
 3169              	.LBB291:
 787:..\..\..\liblc3\src/spec.c **** }
 3170              		.loc 1 787 0
 3171 0024 FFF7FEFF 		bl	lc3_get_bits
 3172              	.LVL385:
 3173              	.LBE291:
 3174              	.LBE293:
 3175              	.LBB294:
 3176              	.LBB295:
 3177              	.LBB296:
 3178              	.LBB297:
 306:..\..\..\liblc3\src/spec.c **** 
 3179              		.loc 1 306 0
 3180 0028 BBF1040F 		cmp	fp, #4
 3181 002c 8CBF     		ite	hi
 3182 002e 0BF1FF32 		addhi	r2, fp, #-1
 3183 0032 5A46     		movls	r2, fp
 311:..\..\..\liblc3\src/spec.c **** }
 3184              		.loc 1 311 0
 3185 0034 1423     		movs	r3, #20
 3186 0036 02FB0333 		mla	r3, r2, r3, r3
 3187 003a 1E9A     		ldr	r2, [sp, #120]
 3188              	.LBE297:
 3189              	.LBE296:
 3190              	.LBE295:
 3191              	.LBE294:
 3192              	.LBB314:
 3193              	.LBB292:
 787:..\..\..\liblc3\src/spec.c **** }
 3194              		.loc 1 787 0
 3195 003c 0790     		str	r0, [sp, #28]
 3196              	.LVL386:
 3197              	.LBE292:
 3198              	.LBE314:
 3199              	.LBB315:
 3200              	.LBB312:
 3201              	.LBB299:
 3202              	.LBB298:
 311:..\..\..\liblc3\src/spec.c **** }
 3203              		.loc 1 311 0
 3204 003e 9A42     		cmp	r2, r3
 3205 0040 05DD     		ble	.L316
 3206 0042 BBF1050F 		cmp	fp, #5
 3207 0046 8CBF     		ite	hi
 3208 0048 0023     		movhi	r3, #0
ARM GAS  C:\Users\rdn\AppData\Local\Temp\ccYcaPXH.s 			page 90


 3209 004a 0123     		movls	r3, #1
 3210 004c 00E0     		b	.L262
 3211              	.L316:
 3212 004e 0023     		movs	r3, #0
 3213              	.L262:
 3214              	.LVL387:
 3215              	.LBE298:
 3216              	.LBE299:
 3217              	.LBB300:
 3218              	.LBB301:
 3219              		.loc 2 51 0
 3220 0050 069A     		ldr	r2, [sp, #24]
 3221              	.LVL388:
 3222 0052 0132     		adds	r2, r2, #1
 3223 0054 0392     		str	r2, [sp, #12]
 3224 0056 C54A     		ldr	r2, .L359
 3225 0058 0399     		ldr	r1, [sp, #12]
 3226 005a 52F82B20 		ldr	r2, [r2, fp, lsl #2]
 3227 005e BBF1040F 		cmp	fp, #4
 3228 0062 02FB01F2 		mul	r2, r2, r1
 3229              	.LBE301:
 3230              	.LBE300:
 504:..\..\..\liblc3\src/spec.c **** 
 3231              		.loc 1 504 0
 3232 0066 4FF00004 		mov	r4, #0
 3233              	.LBB303:
 3234              	.LBB302:
 3235              		.loc 2 51 0
 3236 006a 0A92     		str	r2, [sp, #40]
 3237              	.LVL389:
 3238 006c 4FEA4303 		lsl	r3, r3, #1
 3239 0070 8CBF     		ite	hi
 3240 0072 1622     		movhi	r2, #22
 3241 0074 0E22     		movls	r2, #14
 3242 0076 0B92     		str	r2, [sp, #44]
 3243 0078 0C93     		str	r3, [sp, #48]
 3244              	.LBE302:
 3245              	.LBE303:
 3246              	.LBB304:
 510:..\..\..\liblc3\src/spec.c ****         const uint8_t (*lut_coeff)[4] = lc3_spectrum_lookup[high_rate][h];
 3247              		.loc 1 510 0
 3248 007a 0194     		str	r4, [sp, #4]
 3249              	.LBE304:
 508:..\..\..\liblc3\src/spec.c **** 
 3250              		.loc 1 508 0
 3251 007c A146     		mov	r9, r4
 3252              	.LBB310:
 510:..\..\..\liblc3\src/spec.c ****         const uint8_t (*lut_coeff)[4] = lc3_spectrum_lookup[high_rate][h];
 3253              		.loc 1 510 0
 3254 007e 0294     		str	r4, [sp, #8]
 3255              	.LVL390:
 3256              	.L276:
 3257 0080 0C9A     		ldr	r2, [sp, #48]
 3258 0082 029B     		ldr	r3, [sp, #8]
 3259 0084 1344     		add	r3, r3, r2
 3260 0086 9B02     		lsls	r3, r3, #10
 3261 0088 0E93     		str	r3, [sp, #56]
ARM GAS  C:\Users\rdn\AppData\Local\Temp\ccYcaPXH.s 			page 91


 3262              	.LVL391:
 3263              	.LBB305:
 513:..\..\..\liblc3\src/spec.c **** 
 3264              		.loc 1 513 0
 3265 008a 029A     		ldr	r2, [sp, #8]
 3266 008c 0A9B     		ldr	r3, [sp, #40]
 3267              	.LVL392:
 3268 008e C2F10102 		rsb	r2, r2, #1
 3269 0092 0233     		adds	r3, r3, #2
 3270 0094 1341     		asrs	r3, r3, r2
 3271 0096 009A     		ldr	r2, [sp]
 3272 0098 9342     		cmp	r3, r2
 3273 009a A8BF     		it	ge
 3274 009c 1346     		movge	r3, r2
 3275 009e 0D93     		str	r3, [sp, #52]
 3276 00a0 019B     		ldr	r3, [sp, #4]
 3277 00a2 0AEB8303 		add	r3, r10, r3, lsl #2
 3278              	.L352:
 3279 00a6 0493     		str	r3, [sp, #16]
 3280 00a8 0D9A     		ldr	r2, [sp, #52]
 3281 00aa 019B     		ldr	r3, [sp, #4]
 3282 00ac 9342     		cmp	r3, r2
 3283 00ae 4FDA     		bge	.L354
 3284              	.LBB306:
 515:..\..\..\liblc3\src/spec.c ****             int max_shl = lc3_hr(sr) ? 22 : 14;
 3285              		.loc 1 515 0
 3286 00b0 0E9B     		ldr	r3, [sp, #56]
 3287 00b2 AF4A     		ldr	r2, .L359+4
 3288 00b4 03EB8903 		add	r3, r3, r9, lsl #2
 3289 00b8 9A18     		adds	r2, r3, r2
 3290 00ba 0892     		str	r2, [sp, #32]
 3291              	.LVL393:
 526:..\..\..\liblc3\src/spec.c **** 
 3292              		.loc 1 526 0
 3293 00bc AC4A     		ldr	r2, .L359+4
 3294              	.LVL394:
 3295 00be D15C     		ldrb	r1, [r2, r3]	@ zero_extendqisi2
 3296 00c0 AC4B     		ldr	r3, .L359+8
 3297 00c2 01EB0111 		add	r1, r1, r1, lsl #4
 3298 00c6 03EB8101 		add	r1, r3, r1, lsl #2
 3299 00ca 3046     		mov	r0, r6
 3300 00cc FFF7FEFF 		bl	lc3_get_symbol
 3301              	.LVL395:
 528:..\..\..\liblc3\src/spec.c ****                 s = lc3_get_symbol(bits, lc3_spectrum_models + lut[++k]);
 3302              		.loc 1 528 0
 3303 00d0 059B     		ldr	r3, [sp, #20]
 3304 00d2 7BB1     		cbz	r3, .L317
 3305 00d4 0F28     		cmp	r0, #15
 3306 00d6 40F2DA81 		bls	.L318
 3307              	.LVL396:
 529:..\..\..\liblc3\src/spec.c ****                 shl++;
 3308              		.loc 1 529 0
 3309 00da 089B     		ldr	r3, [sp, #32]
 3310 00dc 5978     		ldrb	r1, [r3, #1]	@ zero_extendqisi2
 3311 00de A54B     		ldr	r3, .L359+8
 3312 00e0 01EB0111 		add	r1, r1, r1, lsl #4
 3313 00e4 03EB8101 		add	r1, r3, r1, lsl #2
ARM GAS  C:\Users\rdn\AppData\Local\Temp\ccYcaPXH.s 			page 92


 3314 00e8 3046     		mov	r0, r6
 3315              	.LVL397:
 3316 00ea FFF7FEFF 		bl	lc3_get_symbol
 3317              	.LVL398:
 3318 00ee 4FF00108 		mov	r8, #1
 3319 00f2 01E0     		b	.L264
 3320              	.LVL399:
 3321              	.L317:
 524:..\..\..\liblc3\src/spec.c **** 
 3322              		.loc 1 524 0
 3323 00f4 DDF81480 		ldr	r8, [sp, #20]
 3324              	.LVL400:
 3325              	.L264:
 529:..\..\..\liblc3\src/spec.c ****                 shl++;
 3326              		.loc 1 529 0
 3327 00f8 0027     		movs	r7, #0
 3328 00fa 4546     		mov	r5, r8
 3329 00fc 3B46     		mov	r3, r7
 3330              	.LVL401:
 3331              	.L266:
 533:..\..\..\liblc3\src/spec.c ****                 u |= lc3_get_bit(bits) << shl;
 3332              		.loc 1 533 0
 3333 00fe 0F28     		cmp	r0, #15
 3334 0100 40F2C981 		bls	.L265
 3335 0104 0B9A     		ldr	r2, [sp, #44]
 3336 0106 9045     		cmp	r8, r2
 3337 0108 1FDA     		bge	.L355
 534:..\..\..\liblc3\src/spec.c ****                 v |= lc3_get_bit(bits) << shl;
 3338              		.loc 1 534 0
 3339 010a 3046     		mov	r0, r6
 3340              	.LVL402:
