ARM GAS  C:\Users\rdn\AppData\Local\Temp\ccYH9vOY.s 			page 1


   1              		.syntax unified
   2              		.cpu cortex-m4
   3              		.eabi_attribute 27, 1
   4              		.fpu fpv4-sp-d16
   5              		.eabi_attribute 20, 1
   6              		.eabi_attribute 21, 1
   7              		.eabi_attribute 23, 3
   8              		.eabi_attribute 24, 1
   9              		.eabi_attribute 25, 1
  10              		.eabi_attribute 26, 1
  11              		.eabi_attribute 30, 4
  12              		.eabi_attribute 34, 1
  13              		.eabi_attribute 18, 4
  14              		.thumb
  15              		.syntax unified
  16              		.file	"tns.c"
  17              		.text
  18              	.Ltext0:
  19              		.cfi_sections	.debug_frame
  20              		.section	.text.unquantize_rc,"ax",%progbits
  21              		.align	1
  22              		.thumb
  23              		.thumb_func
  24              		.type	unquantize_rc, %function
  25              	unquantize_rc:
  26              	.LFB26:
  27              		.file 1 "..\\..\\..\\liblc3\\src\\tns.c"
   1:..\..\..\liblc3\src/tns.c **** /******************************************************************************
   2:..\..\..\liblc3\src/tns.c ****  *
   3:..\..\..\liblc3\src/tns.c ****  *  Copyright 2022 Google LLC
   4:..\..\..\liblc3\src/tns.c ****  *
   5:..\..\..\liblc3\src/tns.c ****  *  Licensed under the Apache License, Version 2.0 (the "License");
   6:..\..\..\liblc3\src/tns.c ****  *  you may not use this file except in compliance with the License.
   7:..\..\..\liblc3\src/tns.c ****  *  You may obtain a copy of the License at:
   8:..\..\..\liblc3\src/tns.c ****  *
   9:..\..\..\liblc3\src/tns.c ****  *  http://www.apache.org/licenses/LICENSE-2.0
  10:..\..\..\liblc3\src/tns.c ****  *
  11:..\..\..\liblc3\src/tns.c ****  *  Unless required by applicable law or agreed to in writing, software
  12:..\..\..\liblc3\src/tns.c ****  *  distributed under the License is distributed on an "AS IS" BASIS,
  13:..\..\..\liblc3\src/tns.c ****  *  WITHOUT WARRANTIES OR CONDITIONS OF ANY KIND, either express or implied.
  14:..\..\..\liblc3\src/tns.c ****  *  See the License for the specific language governing permissions and
  15:..\..\..\liblc3\src/tns.c ****  *  limitations under the License.
  16:..\..\..\liblc3\src/tns.c ****  *
  17:..\..\..\liblc3\src/tns.c ****  ******************************************************************************/
  18:..\..\..\liblc3\src/tns.c **** 
  19:..\..\..\liblc3\src/tns.c **** #include "tns.h"
  20:..\..\..\liblc3\src/tns.c **** #include "tables.h"
  21:..\..\..\liblc3\src/tns.c **** 
  22:..\..\..\liblc3\src/tns.c **** 
  23:..\..\..\liblc3\src/tns.c **** /* ----------------------------------------------------------------------------
  24:..\..\..\liblc3\src/tns.c ****  *  Filter Coefficients
  25:..\..\..\liblc3\src/tns.c ****  * -------------------------------------------------------------------------- */
  26:..\..\..\liblc3\src/tns.c **** 
  27:..\..\..\liblc3\src/tns.c **** /**
  28:..\..\..\liblc3\src/tns.c ****  * Resolve LPC Weighting indication according bitrate
  29:..\..\..\liblc3\src/tns.c ****  * dt, nbytes      Duration and size of the frame
  30:..\..\..\liblc3\src/tns.c ****  * return          True when LPC Weighting enabled
ARM GAS  C:\Users\rdn\AppData\Local\Temp\ccYH9vOY.s 			page 2


  31:..\..\..\liblc3\src/tns.c ****  */
  32:..\..\..\liblc3\src/tns.c **** static bool resolve_lpc_weighting(enum lc3_dt dt, int nbytes)
  33:..\..\..\liblc3\src/tns.c **** {
  34:..\..\..\liblc3\src/tns.c ****     return nbytes * 8 < 120 * (int)(1 + dt);
  35:..\..\..\liblc3\src/tns.c **** }
  36:..\..\..\liblc3\src/tns.c **** 
  37:..\..\..\liblc3\src/tns.c **** /**
  38:..\..\..\liblc3\src/tns.c ****  * Return dot product of 2 vectors
  39:..\..\..\liblc3\src/tns.c ****  * a, b, n         The 2 vectors of size `n`
  40:..\..\..\liblc3\src/tns.c ****  * return          sum( a[i] * b[i] ), i = [0..n-1]
  41:..\..\..\liblc3\src/tns.c ****  */
  42:..\..\..\liblc3\src/tns.c **** LC3_HOT static inline float dot(const float *a, const float *b, int n)
  43:..\..\..\liblc3\src/tns.c **** {
  44:..\..\..\liblc3\src/tns.c ****     float v = 0;
  45:..\..\..\liblc3\src/tns.c **** 
  46:..\..\..\liblc3\src/tns.c ****     while (n--)
  47:..\..\..\liblc3\src/tns.c ****         v += *(a++) * *(b++);
  48:..\..\..\liblc3\src/tns.c **** 
  49:..\..\..\liblc3\src/tns.c ****     return v;
  50:..\..\..\liblc3\src/tns.c **** }
  51:..\..\..\liblc3\src/tns.c **** 
  52:..\..\..\liblc3\src/tns.c **** /**
  53:..\..\..\liblc3\src/tns.c ****  * LPC Coefficients
  54:..\..\..\liblc3\src/tns.c ****  * dt, bw          Duration and bandwidth of the frame
  55:..\..\..\liblc3\src/tns.c ****  * maxorder        Maximum order of filter
  56:..\..\..\liblc3\src/tns.c ****  * x               Spectral coefficients
  57:..\..\..\liblc3\src/tns.c ****  * gain, a         Output the prediction gains and LPC coefficients
  58:..\..\..\liblc3\src/tns.c ****  */
  59:..\..\..\liblc3\src/tns.c **** LC3_HOT static void compute_lpc_coeffs(
  60:..\..\..\liblc3\src/tns.c ****     enum lc3_dt dt, enum lc3_bandwidth bw, int maxorder,
  61:..\..\..\liblc3\src/tns.c ****     const float *x, float *gain, float (*a)[9])
  62:..\..\..\liblc3\src/tns.c **** {
  63:..\..\..\liblc3\src/tns.c **** 
  64:..\..\..\liblc3\src/tns.c **** #if LC3_PLUS
  65:..\..\..\liblc3\src/tns.c **** 
  66:..\..\..\liblc3\src/tns.c ****     static const int sub_2m5_nb[]   = {  3,  10,  20 };
  67:..\..\..\liblc3\src/tns.c ****     static const int sub_2m5_wb[]   = {  3,  20,  40 };
  68:..\..\..\liblc3\src/tns.c ****     static const int sub_2m5_sswb[] = {  3,  30,  60 };
  69:..\..\..\liblc3\src/tns.c ****     static const int sub_2m5_swb[]  = {  3,  40,  80 };
  70:..\..\..\liblc3\src/tns.c ****     static const int sub_2m5_fb[]   = {  3,  51, 100 };
  71:..\..\..\liblc3\src/tns.c **** 
  72:..\..\..\liblc3\src/tns.c ****     static const int sub_5m_nb[]    = {  6,  23,  40 };
  73:..\..\..\liblc3\src/tns.c ****     static const int sub_5m_wb[]    = {  6,  43,  80 };
  74:..\..\..\liblc3\src/tns.c ****     static const int sub_5m_sswb[]  = {  6,  63, 120 };
  75:..\..\..\liblc3\src/tns.c ****     static const int sub_5m_swb[]   = {  6,  43,  80, 120, 160 };
  76:..\..\..\liblc3\src/tns.c ****     static const int sub_5m_fb[]    = {  6,  53, 100, 150, 200 };
  77:..\..\..\liblc3\src/tns.c **** 
  78:..\..\..\liblc3\src/tns.c **** #endif /* LC3_PLUS */
  79:..\..\..\liblc3\src/tns.c **** 
  80:..\..\..\liblc3\src/tns.c ****     static const int sub_7m5_nb[]   = {  9,  26,  43,  60 };
  81:..\..\..\liblc3\src/tns.c ****     static const int sub_7m5_wb[]   = {  9,  46,  83, 120 };
  82:..\..\..\liblc3\src/tns.c ****     static const int sub_7m5_sswb[] = {  9,  66, 123, 180 };
  83:..\..\..\liblc3\src/tns.c ****     static const int sub_7m5_swb[]  = {  9,  46,  82, 120, 159, 200, 240 };
  84:..\..\..\liblc3\src/tns.c ****     static const int sub_7m5_fb[]   = {  9,  56, 103, 150, 200, 250, 300 };
  85:..\..\..\liblc3\src/tns.c **** 
  86:..\..\..\liblc3\src/tns.c ****     static const int sub_10m_nb[]   = { 12,  34,  57,  80 };
  87:..\..\..\liblc3\src/tns.c ****     static const int sub_10m_wb[]   = { 12,  61, 110, 160 };
ARM GAS  C:\Users\rdn\AppData\Local\Temp\ccYH9vOY.s 			page 3


  88:..\..\..\liblc3\src/tns.c ****     static const int sub_10m_sswb[] = { 12,  88, 164, 240 };
  89:..\..\..\liblc3\src/tns.c ****     static const int sub_10m_swb[]  = { 12,  61, 110, 160, 213, 266, 320 };
  90:..\..\..\liblc3\src/tns.c ****     static const int sub_10m_fb[]   = { 12,  74, 137, 200, 266, 333, 400 };
  91:..\..\..\liblc3\src/tns.c **** 
  92:..\..\..\liblc3\src/tns.c ****     static const float lag_window[] = {
  93:..\..\..\liblc3\src/tns.c ****         1.00000000e+00, 9.98028026e-01, 9.92135406e-01, 9.82391584e-01,
  94:..\..\..\liblc3\src/tns.c ****         9.68910791e-01, 9.51849807e-01, 9.31404933e-01, 9.07808230e-01,
  95:..\..\..\liblc3\src/tns.c ****         8.81323137e-01
  96:..\..\..\liblc3\src/tns.c ****     };
  97:..\..\..\liblc3\src/tns.c **** 
  98:..\..\..\liblc3\src/tns.c ****     const int *sub = (const int * const [LC3_NUM_DT][LC3_NUM_BANDWIDTH]){
  99:..\..\..\liblc3\src/tns.c **** 
 100:..\..\..\liblc3\src/tns.c **** #if LC3_PLUS
 101:..\..\..\liblc3\src/tns.c **** 
 102:..\..\..\liblc3\src/tns.c ****         [LC3_DT_2M5] = {
 103:..\..\..\liblc3\src/tns.c ****           sub_2m5_nb, sub_2m5_wb, sub_2m5_sswb, sub_2m5_swb,
 104:..\..\..\liblc3\src/tns.c ****           sub_2m5_fb, sub_2m5_fb, sub_2m5_fb                },
 105:..\..\..\liblc3\src/tns.c **** 
 106:..\..\..\liblc3\src/tns.c ****         [LC3_DT_5M] = {
 107:..\..\..\liblc3\src/tns.c ****             sub_5m_nb , sub_5m_wb , sub_5m_sswb , sub_5m_swb ,
 108:..\..\..\liblc3\src/tns.c ****             sub_5m_fb , sub_5m_fb , sub_5m_fb                 },
 109:..\..\..\liblc3\src/tns.c **** 
 110:..\..\..\liblc3\src/tns.c **** #endif /* LC3_PLUS */
 111:..\..\..\liblc3\src/tns.c **** 
 112:..\..\..\liblc3\src/tns.c ****         [LC3_DT_7M5] = {
 113:..\..\..\liblc3\src/tns.c ****             sub_7m5_nb, sub_7m5_wb, sub_7m5_sswb, sub_7m5_swb,
 114:..\..\..\liblc3\src/tns.c ****             sub_7m5_fb                                        },
 115:..\..\..\liblc3\src/tns.c **** 
 116:..\..\..\liblc3\src/tns.c ****         [LC3_DT_10M] = {
 117:..\..\..\liblc3\src/tns.c ****             sub_10m_nb, sub_10m_wb, sub_10m_sswb, sub_10m_swb,
 118:..\..\..\liblc3\src/tns.c ****             sub_10m_fb, sub_10m_fb, sub_10m_fb                },
 119:..\..\..\liblc3\src/tns.c **** 
 120:..\..\..\liblc3\src/tns.c ****     }[dt][bw];
 121:..\..\..\liblc3\src/tns.c **** 
 122:..\..\..\liblc3\src/tns.c ****     /* --- Normalized autocorrelation --- */
 123:..\..\..\liblc3\src/tns.c **** 
 124:..\..\..\liblc3\src/tns.c ****     int nfilters = 1 + (dt >= LC3_DT_5M && bw >= LC3_BANDWIDTH_SWB);
 125:..\..\..\liblc3\src/tns.c ****     int nsubdivisions = 2 + (dt >= LC3_DT_7M5);
 126:..\..\..\liblc3\src/tns.c **** 
 127:..\..\..\liblc3\src/tns.c ****     const float *xs, *xe = x + *sub;
 128:..\..\..\liblc3\src/tns.c ****     float r[2][9];
 129:..\..\..\liblc3\src/tns.c **** 
 130:..\..\..\liblc3\src/tns.c ****     for (int f = 0; f < nfilters; f++) {
 131:..\..\..\liblc3\src/tns.c ****         float c[9][3] = { 0 };
 132:..\..\..\liblc3\src/tns.c **** 
 133:..\..\..\liblc3\src/tns.c ****         for (int s = 0; s < nsubdivisions; s++) {
 134:..\..\..\liblc3\src/tns.c ****             xs = xe, xe = x + *(++sub);
 135:..\..\..\liblc3\src/tns.c **** 
 136:..\..\..\liblc3\src/tns.c ****             for (int k = 0; k <= maxorder; k++)
 137:..\..\..\liblc3\src/tns.c ****                 c[k][s] = dot(xs, xs + k, (xe - xs) - k);
 138:..\..\..\liblc3\src/tns.c ****         }
 139:..\..\..\liblc3\src/tns.c **** 
 140:..\..\..\liblc3\src/tns.c ****         r[f][0] = nsubdivisions;
 141:..\..\..\liblc3\src/tns.c ****         if (nsubdivisions == 2) {
 142:..\..\..\liblc3\src/tns.c ****             float e0 = c[0][0], e1 = c[0][1];
 143:..\..\..\liblc3\src/tns.c ****             for (int k = 1; k <= maxorder; k++)
 144:..\..\..\liblc3\src/tns.c ****                 r[f][k] = e0 == 0 || e1 == 0 ? 0 :
ARM GAS  C:\Users\rdn\AppData\Local\Temp\ccYH9vOY.s 			page 4


 145:..\..\..\liblc3\src/tns.c ****                   (c[k][0]/e0 + c[k][1]/e1) * lag_window[k];
 146:..\..\..\liblc3\src/tns.c **** 
 147:..\..\..\liblc3\src/tns.c ****         } else {
 148:..\..\..\liblc3\src/tns.c ****             float e0 = c[0][0], e1 = c[0][1], e2 = c[0][2];
 149:..\..\..\liblc3\src/tns.c ****             for (int k = 1; k <= maxorder; k++)
 150:..\..\..\liblc3\src/tns.c ****                 r[f][k] = e0 == 0 || e1 == 0 || e2 == 0 ? 0 :
 151:..\..\..\liblc3\src/tns.c ****                   (c[k][0]/e0 + c[k][1]/e1 + c[k][2]/e2) * lag_window[k];
 152:..\..\..\liblc3\src/tns.c ****         }
 153:..\..\..\liblc3\src/tns.c ****     }
 154:..\..\..\liblc3\src/tns.c **** 
 155:..\..\..\liblc3\src/tns.c ****     /* --- Levinson-Durbin recursion --- */
 156:..\..\..\liblc3\src/tns.c **** 
 157:..\..\..\liblc3\src/tns.c ****     for (int f = 0; f < nfilters; f++) {
 158:..\..\..\liblc3\src/tns.c ****         float *a0 = a[f], a1[9];
 159:..\..\..\liblc3\src/tns.c ****         float err = r[f][0], rc;
 160:..\..\..\liblc3\src/tns.c **** 
 161:..\..\..\liblc3\src/tns.c ****         gain[f] = err;
 162:..\..\..\liblc3\src/tns.c **** 
 163:..\..\..\liblc3\src/tns.c ****         a0[0] = 1;
 164:..\..\..\liblc3\src/tns.c ****         for (int k = 1; k <= maxorder; ) {
 165:..\..\..\liblc3\src/tns.c **** 
 166:..\..\..\liblc3\src/tns.c ****             rc = -r[f][k];
 167:..\..\..\liblc3\src/tns.c ****             for (int i = 1; i < k; i++)
 168:..\..\..\liblc3\src/tns.c ****                 rc -= a0[i] * r[f][k-i];
 169:..\..\..\liblc3\src/tns.c **** 
 170:..\..\..\liblc3\src/tns.c ****             rc /= err;
 171:..\..\..\liblc3\src/tns.c ****             err *= 1 - rc * rc;
 172:..\..\..\liblc3\src/tns.c **** 
 173:..\..\..\liblc3\src/tns.c ****             for (int i = 1; i < k; i++)
 174:..\..\..\liblc3\src/tns.c ****                 a1[i] = a0[i] + rc * a0[k-i];
 175:..\..\..\liblc3\src/tns.c ****             a1[k++] = rc;
 176:..\..\..\liblc3\src/tns.c **** 
 177:..\..\..\liblc3\src/tns.c ****             rc = -r[f][k];
 178:..\..\..\liblc3\src/tns.c ****             for (int i = 1; i < k; i++)
 179:..\..\..\liblc3\src/tns.c ****                 rc -= a1[i] * r[f][k-i];
 180:..\..\..\liblc3\src/tns.c **** 
 181:..\..\..\liblc3\src/tns.c ****             rc /= err;
 182:..\..\..\liblc3\src/tns.c ****             err *= 1 - rc * rc;
 183:..\..\..\liblc3\src/tns.c **** 
 184:..\..\..\liblc3\src/tns.c ****             for (int i = 1; i < k; i++)
 185:..\..\..\liblc3\src/tns.c ****                 a0[i] = a1[i] + rc * a1[k-i];
 186:..\..\..\liblc3\src/tns.c ****             a0[k++] = rc;
 187:..\..\..\liblc3\src/tns.c ****         }
 188:..\..\..\liblc3\src/tns.c **** 
 189:..\..\..\liblc3\src/tns.c ****         gain[f] /= err;
 190:..\..\..\liblc3\src/tns.c ****     }
 191:..\..\..\liblc3\src/tns.c **** }
 192:..\..\..\liblc3\src/tns.c **** 
 193:..\..\..\liblc3\src/tns.c **** /**
 194:..\..\..\liblc3\src/tns.c ****  * LPC Weighting
 195:..\..\..\liblc3\src/tns.c ****  * gain, a         Prediction gain and LPC coefficients, weighted as output
 196:..\..\..\liblc3\src/tns.c ****  */
 197:..\..\..\liblc3\src/tns.c **** LC3_HOT static void lpc_weighting(float pred_gain, float *a)
 198:..\..\..\liblc3\src/tns.c **** {
 199:..\..\..\liblc3\src/tns.c ****     float gamma = 1.f - (1.f - 0.85f) * (2.f - pred_gain) / (2.f - 1.5f);
 200:..\..\..\liblc3\src/tns.c ****     float g = 1.f;
 201:..\..\..\liblc3\src/tns.c **** 
ARM GAS  C:\Users\rdn\AppData\Local\Temp\ccYH9vOY.s 			page 5


 202:..\..\..\liblc3\src/tns.c ****     for (int i = 1; i < 9; i++)
 203:..\..\..\liblc3\src/tns.c ****         a[i] *= (g *= gamma);
 204:..\..\..\liblc3\src/tns.c **** }
 205:..\..\..\liblc3\src/tns.c **** 
 206:..\..\..\liblc3\src/tns.c **** /**
 207:..\..\..\liblc3\src/tns.c ****  * LPC reflection
 208:..\..\..\liblc3\src/tns.c ****  * a, maxorder     LPC coefficients, and maximum order (4 or 8)
 209:..\..\..\liblc3\src/tns.c ****  * rc              Output refelection coefficients
 210:..\..\..\liblc3\src/tns.c ****  */
 211:..\..\..\liblc3\src/tns.c **** LC3_HOT static void lpc_reflection(
 212:..\..\..\liblc3\src/tns.c ****     const float *a, int maxorder, float *rc)
 213:..\..\..\liblc3\src/tns.c **** {
 214:..\..\..\liblc3\src/tns.c ****     float e, b[2][7], *b0, *b1;
 215:..\..\..\liblc3\src/tns.c **** 
 216:..\..\..\liblc3\src/tns.c ****     rc[maxorder-1] = a[maxorder];
 217:..\..\..\liblc3\src/tns.c ****     e = 1 - rc[maxorder-1] * rc[maxorder-1];
 218:..\..\..\liblc3\src/tns.c **** 
 219:..\..\..\liblc3\src/tns.c ****     b1 = b[1];
 220:..\..\..\liblc3\src/tns.c ****     for (int i = 0; i < maxorder-1; i++)
 221:..\..\..\liblc3\src/tns.c ****         b1[i] = (a[1+i] - rc[maxorder-1] * a[(maxorder-1)-i]) / e;
 222:..\..\..\liblc3\src/tns.c **** 
 223:..\..\..\liblc3\src/tns.c ****     for (int k = maxorder-2; k > 0; k--) {
 224:..\..\..\liblc3\src/tns.c ****         b0 = b1, b1 = b[k & 1];
 225:..\..\..\liblc3\src/tns.c **** 
 226:..\..\..\liblc3\src/tns.c ****         rc[k] = b0[k];
 227:..\..\..\liblc3\src/tns.c ****         e = 1 - rc[k] * rc[k];
 228:..\..\..\liblc3\src/tns.c **** 
 229:..\..\..\liblc3\src/tns.c ****         for (int i = 0; i < k; i++)
 230:..\..\..\liblc3\src/tns.c ****             b1[i] = (b0[i] - rc[k] * b0[k-1-i]) / e;
 231:..\..\..\liblc3\src/tns.c ****     }
 232:..\..\..\liblc3\src/tns.c **** 
 233:..\..\..\liblc3\src/tns.c ****     rc[0] = b1[0];
 234:..\..\..\liblc3\src/tns.c **** }
 235:..\..\..\liblc3\src/tns.c **** 
 236:..\..\..\liblc3\src/tns.c **** /**
 237:..\..\..\liblc3\src/tns.c ****  * Quantization of RC coefficients
 238:..\..\..\liblc3\src/tns.c ****  * rc, maxorder    Refelection coefficients, and maximum order (4 or 8)
 239:..\..\..\liblc3\src/tns.c ****  * order           Return order of coefficients
 240:..\..\..\liblc3\src/tns.c ****  * rc_i            Return quantized coefficients
 241:..\..\..\liblc3\src/tns.c ****  */
 242:..\..\..\liblc3\src/tns.c **** static void quantize_rc(const float *rc, int maxorder, int *order, int *rc_q)
 243:..\..\..\liblc3\src/tns.c **** {
 244:..\..\..\liblc3\src/tns.c ****     /* Quantization table, sin(delta * (i + 0.5)), delta = Pi / 17,
 245:..\..\..\liblc3\src/tns.c ****      * rounded to fixed point Q15 value (LC3-Plus HR requirements). */
 246:..\..\..\liblc3\src/tns.c **** 
 247:..\..\..\liblc3\src/tns.c ****     static float q_thr[] = {
 248:..\..\..\liblc3\src/tns.c ****         0x0bcfp-15, 0x2307p-15, 0x390ep-15, 0x4d23p-15,
 249:..\..\..\liblc3\src/tns.c ****         0x5e98p-15, 0x6cd4p-15, 0x775bp-15, 0x7dd2p-15,
 250:..\..\..\liblc3\src/tns.c ****     };
 251:..\..\..\liblc3\src/tns.c **** 
 252:..\..\..\liblc3\src/tns.c ****     *order = maxorder;
 253:..\..\..\liblc3\src/tns.c **** 
 254:..\..\..\liblc3\src/tns.c ****     for (int i = 0; i < maxorder; i++) {
 255:..\..\..\liblc3\src/tns.c ****         float rc_m = fabsf(rc[i]);
 256:..\..\..\liblc3\src/tns.c **** 
 257:..\..\..\liblc3\src/tns.c ****         rc_q[i] = 4 * (rc_m >= q_thr[4]);
 258:..\..\..\liblc3\src/tns.c ****         for (int j = 0; j < 4 && rc_m >= q_thr[rc_q[i]]; j++, rc_q[i]++);
ARM GAS  C:\Users\rdn\AppData\Local\Temp\ccYH9vOY.s 			page 6


 259:..\..\..\liblc3\src/tns.c **** 
 260:..\..\..\liblc3\src/tns.c ****         if (rc[i] < 0)
 261:..\..\..\liblc3\src/tns.c ****             rc_q[i] = -rc_q[i];
 262:..\..\..\liblc3\src/tns.c **** 
 263:..\..\..\liblc3\src/tns.c ****         *order = rc_q[i] != 0 ? maxorder : *order - 1;
 264:..\..\..\liblc3\src/tns.c ****     }
 265:..\..\..\liblc3\src/tns.c **** }
 266:..\..\..\liblc3\src/tns.c **** 
 267:..\..\..\liblc3\src/tns.c **** /**
 268:..\..\..\liblc3\src/tns.c ****  * Unquantization of RC coefficients
 269:..\..\..\liblc3\src/tns.c ****  * rc_q, order     Quantized coefficients, and order
 270:..\..\..\liblc3\src/tns.c ****  * rc              Return refelection coefficients
 271:..\..\..\liblc3\src/tns.c ****  */
 272:..\..\..\liblc3\src/tns.c **** static void unquantize_rc(const int *rc_q, int order, float rc[8])
 273:..\..\..\liblc3\src/tns.c **** {
  28              		.loc 1 273 0
  29              		.cfi_startproc
  30              		@ args = 0, pretend = 0, frame = 0
  31              		@ frame_needed = 0, uses_anonymous_args = 0
  32              	.LVL0:
  33 0000 70B5     		push	{r4, r5, r6, lr}
  34              		.cfi_def_cfa_offset 16
  35              		.cfi_offset 4, -16
  36              		.cfi_offset 5, -12
  37              		.cfi_offset 6, -8
  38              		.cfi_offset 14, -4
  39              	.LBB23:
 274:..\..\..\liblc3\src/tns.c ****     /* Quantization table, sin(delta * i), delta = Pi / 17,
 275:..\..\..\liblc3\src/tns.c ****      * rounded to fixed point Q15 value (LC3-Plus HR requirements). */
 276:..\..\..\liblc3\src/tns.c **** 
 277:..\..\..\liblc3\src/tns.c ****     static float q_inv[] = {
 278:..\..\..\liblc3\src/tns.c ****         0x0000p-15, 0x1785p-15, 0x2e3dp-15, 0x4362p-15,
 279:..\..\..\liblc3\src/tns.c ****         0x563cp-15, 0x6625p-15, 0x7295p-15, 0x7b1dp-15, 0x7f74p-15,
 280:..\..\..\liblc3\src/tns.c ****     };
 281:..\..\..\liblc3\src/tns.c **** 
 282:..\..\..\liblc3\src/tns.c ****     int i;
 283:..\..\..\liblc3\src/tns.c **** 
 284:..\..\..\liblc3\src/tns.c ****     for (i = 0; i < order; i++) {
 285:..\..\..\liblc3\src/tns.c ****         float rc_m = q_inv[LC3_ABS(rc_q[i])];
  40              		.loc 1 285 0
  41 0002 0B4E     		ldr	r6, .L8
  42              	.LBE23:
 284:..\..\..\liblc3\src/tns.c ****         float rc_m = q_inv[LC3_ABS(rc_q[i])];
  43              		.loc 1 284 0
  44 0004 0023     		movs	r3, #0
  45              	.LVL1:
  46              	.L2:
 284:..\..\..\liblc3\src/tns.c ****         float rc_m = q_inv[LC3_ABS(rc_q[i])];
  47              		.loc 1 284 0 is_stmt 0 discriminator 2
  48 0006 8B42     		cmp	r3, r1
  49 0008 11DA     		bge	.L7
  50              	.LBB24:
  51              		.loc 1 285 0 is_stmt 1
  52 000a 50F82350 		ldr	r5, [r0, r3, lsl #2]
  53 000e 85EAE574 		eor	r4, r5, r5, asr #31
  54 0012 A4EBE574 		sub	r4, r4, r5, asr #31
  55 0016 06EB8404 		add	r4, r6, r4, lsl #2
ARM GAS  C:\Users\rdn\AppData\Local\Temp\ccYH9vOY.s 			page 7


  56 001a D4ED007A 		vldr.32	s15, [r4]
  57              	.LVL2:
 286:..\..\..\liblc3\src/tns.c ****         rc[i] = rc_q[i] < 0 ? -rc_m : rc_m;
  58              		.loc 1 286 0
  59 001e 002D     		cmp	r5, #0
  60 0020 B8BF     		it	lt
  61 0022 F1EE677A 		vneglt.f32	s15, s15
  62              	.LVL3:
  63 0026 E2EC017A 		vstmia.32	r2!, {s15}
  64              	.LBE24:
 284:..\..\..\liblc3\src/tns.c ****         float rc_m = q_inv[LC3_ABS(rc_q[i])];
  65              		.loc 1 284 0
  66 002a 0133     		adds	r3, r3, #1
  67              	.LVL4:
  68 002c EBE7     		b	.L2
  69              	.LVL5:
  70              	.L7:
 287:..\..\..\liblc3\src/tns.c ****     }
 288:..\..\..\liblc3\src/tns.c **** }
  71              		.loc 1 288 0
  72 002e 70BD     		pop	{r4, r5, r6, pc}
  73              	.L9:
  74              		.align	2
  75              	.L8:
  76 0030 00000000 		.word	.LANCHOR0
  77              		.cfi_endproc
  78              	.LFE26:
  79              		.size	unquantize_rc, .-unquantize_rc
  80              		.section	.text.lc3_put_symbol,"ax",%progbits
  81              		.align	1
  82              		.thumb
  83              		.thumb_func
  84              		.type	lc3_put_symbol, %function
  85              	lc3_put_symbol:
  86              	.LFB11:
  87              		.file 2 "..\\..\\..\\liblc3\\src\\bits.h"
   1:..\..\..\liblc3\src/bits.h **** /******************************************************************************
   2:..\..\..\liblc3\src/bits.h ****  *
   3:..\..\..\liblc3\src/bits.h ****  *  Copyright 2022 Google LLC
   4:..\..\..\liblc3\src/bits.h ****  *
   5:..\..\..\liblc3\src/bits.h ****  *  Licensed under the Apache License, Version 2.0 (the "License");
   6:..\..\..\liblc3\src/bits.h ****  *  you may not use this file except in compliance with the License.
   7:..\..\..\liblc3\src/bits.h ****  *  You may obtain a copy of the License at:
   8:..\..\..\liblc3\src/bits.h ****  *
   9:..\..\..\liblc3\src/bits.h ****  *  http://www.apache.org/licenses/LICENSE-2.0
  10:..\..\..\liblc3\src/bits.h ****  *
  11:..\..\..\liblc3\src/bits.h ****  *  Unless required by applicable law or agreed to in writing, software
  12:..\..\..\liblc3\src/bits.h ****  *  distributed under the License is distributed on an "AS IS" BASIS,
  13:..\..\..\liblc3\src/bits.h ****  *  WITHOUT WARRANTIES OR CONDITIONS OF ANY KIND, either express or implied.
  14:..\..\..\liblc3\src/bits.h ****  *  See the License for the specific language governing permissions and
  15:..\..\..\liblc3\src/bits.h ****  *  limitations under the License.
  16:..\..\..\liblc3\src/bits.h ****  *
  17:..\..\..\liblc3\src/bits.h ****  ******************************************************************************/
  18:..\..\..\liblc3\src/bits.h **** 
  19:..\..\..\liblc3\src/bits.h **** /**
  20:..\..\..\liblc3\src/bits.h ****  * The bitstream is written by the 2 ends of the buffer :
  21:..\..\..\liblc3\src/bits.h ****  *
ARM GAS  C:\Users\rdn\AppData\Local\Temp\ccYH9vOY.s 			page 8


  22:..\..\..\liblc3\src/bits.h ****  * - Arthmetic coder put bits while increasing memory addresses
  23:..\..\..\liblc3\src/bits.h ****  *   in the buffer (forward)
  24:..\..\..\liblc3\src/bits.h ****  *
  25:..\..\..\liblc3\src/bits.h ****  * - Plain bits are puts starting the end of the buffer, with memeory
  26:..\..\..\liblc3\src/bits.h ****  *   addresses decreasing (backward)
  27:..\..\..\liblc3\src/bits.h ****  *
  28:..\..\..\liblc3\src/bits.h ****  *       .---------------------------------------------------.
  29:..\..\..\liblc3\src/bits.h ****  *       | > > > > > > > > > > :         : < < < < < < < < < |
  30:..\..\..\liblc3\src/bits.h ****  *       '---------------------------------------------------'
  31:..\..\..\liblc3\src/bits.h ****  *       |---------------------> - - - - - - - - - - - - - ->|
  32:..\..\..\liblc3\src/bits.h ****  *                              |< - - - <-------------------|
  33:..\..\..\liblc3\src/bits.h ****  *          Arithmetic coding                  Plain bits
  34:..\..\..\liblc3\src/bits.h ****  *          `lc3_put_symbol()`               `lc3_put_bits()`
  35:..\..\..\liblc3\src/bits.h ****  *
  36:..\..\..\liblc3\src/bits.h ****  * - The forward writing is protected against buffer overflow, it cannot
  37:..\..\..\liblc3\src/bits.h ****  *   write after the buffer, but can overwrite plain bits previously
  38:..\..\..\liblc3\src/bits.h ****  *   written in the buffer.
  39:..\..\..\liblc3\src/bits.h ****  *
  40:..\..\..\liblc3\src/bits.h ****  * - The backward writing is protected against overwrite of the arithmetic
  41:..\..\..\liblc3\src/bits.h ****  *   coder bitstream. In such way, the backward bitstream is always limited
  42:..\..\..\liblc3\src/bits.h ****  *   by the aritmetic coder bitstream, and can be overwritten by him.
  43:..\..\..\liblc3\src/bits.h ****  *
  44:..\..\..\liblc3\src/bits.h ****  *       .---------------------------------------------------.
  45:..\..\..\liblc3\src/bits.h ****  *       | > > > > > > > > > > :         : < < < < < < < < < |
  46:..\..\..\liblc3\src/bits.h ****  *       '---------------------------------------------------'
  47:..\..\..\liblc3\src/bits.h ****  *       |---------------------> - - - - - - - - - - - - - ->|
  48:..\..\..\liblc3\src/bits.h ****  *       |< - - - - - - - - - - -  - - - <-------------------|
  49:..\..\..\liblc3\src/bits.h ****  *          Arithmetic coding                  Plain bits
  50:..\..\..\liblc3\src/bits.h ****  *          `lc3_get_symbol()`               `lc3_get_bits()`
  51:..\..\..\liblc3\src/bits.h ****  *
  52:..\..\..\liblc3\src/bits.h ****  * - Reading is limited to read of the complementary end of the buffer.
  53:..\..\..\liblc3\src/bits.h ****  *
  54:..\..\..\liblc3\src/bits.h ****  * - The procedure `lc3_check_bits()` returns indication that read has been
  55:..\..\..\liblc3\src/bits.h ****  *   made crossing the other bit plane.
  56:..\..\..\liblc3\src/bits.h ****  *
  57:..\..\..\liblc3\src/bits.h ****  */
  58:..\..\..\liblc3\src/bits.h **** 
  59:..\..\..\liblc3\src/bits.h **** #ifndef __LC3_BITS_H
  60:..\..\..\liblc3\src/bits.h **** #define __LC3_BITS_H
  61:..\..\..\liblc3\src/bits.h **** 
  62:..\..\..\liblc3\src/bits.h **** #include "common.h"
  63:..\..\..\liblc3\src/bits.h **** 
  64:..\..\..\liblc3\src/bits.h **** 
  65:..\..\..\liblc3\src/bits.h **** /**
  66:..\..\..\liblc3\src/bits.h ****  * Bitstream mode
  67:..\..\..\liblc3\src/bits.h ****  */
  68:..\..\..\liblc3\src/bits.h **** 
  69:..\..\..\liblc3\src/bits.h **** enum lc3_bits_mode {
  70:..\..\..\liblc3\src/bits.h ****     LC3_BITS_MODE_READ,
  71:..\..\..\liblc3\src/bits.h ****     LC3_BITS_MODE_WRITE,
  72:..\..\..\liblc3\src/bits.h **** };
  73:..\..\..\liblc3\src/bits.h **** 
  74:..\..\..\liblc3\src/bits.h **** /**
  75:..\..\..\liblc3\src/bits.h ****  * Arithmetic coder symbol interval
  76:..\..\..\liblc3\src/bits.h ****  * The model split the interval in 17 symbols
  77:..\..\..\liblc3\src/bits.h ****  */
  78:..\..\..\liblc3\src/bits.h **** 
ARM GAS  C:\Users\rdn\AppData\Local\Temp\ccYH9vOY.s 			page 9


  79:..\..\..\liblc3\src/bits.h **** struct lc3_ac_symbol {
  80:..\..\..\liblc3\src/bits.h ****     uint16_t low   : 16;
  81:..\..\..\liblc3\src/bits.h ****     uint16_t range : 16;
  82:..\..\..\liblc3\src/bits.h **** };
  83:..\..\..\liblc3\src/bits.h **** 
  84:..\..\..\liblc3\src/bits.h **** struct lc3_ac_model {
  85:..\..\..\liblc3\src/bits.h ****     struct lc3_ac_symbol s[17];
  86:..\..\..\liblc3\src/bits.h **** };
  87:..\..\..\liblc3\src/bits.h **** 
  88:..\..\..\liblc3\src/bits.h **** /**
  89:..\..\..\liblc3\src/bits.h ****  * Bitstream context
  90:..\..\..\liblc3\src/bits.h ****  */
  91:..\..\..\liblc3\src/bits.h **** 
  92:..\..\..\liblc3\src/bits.h **** #define LC3_ACCU_BITS (int)(8 * sizeof(unsigned))
  93:..\..\..\liblc3\src/bits.h **** 
  94:..\..\..\liblc3\src/bits.h **** struct lc3_bits_accu {
  95:..\..\..\liblc3\src/bits.h ****     unsigned v;
  96:..\..\..\liblc3\src/bits.h ****     int n, nover;
  97:..\..\..\liblc3\src/bits.h **** };
  98:..\..\..\liblc3\src/bits.h **** 
  99:..\..\..\liblc3\src/bits.h **** #define LC3_AC_BITS (int)(24)
 100:..\..\..\liblc3\src/bits.h **** 
 101:..\..\..\liblc3\src/bits.h **** struct lc3_bits_ac {
 102:..\..\..\liblc3\src/bits.h ****     unsigned low, range;
 103:..\..\..\liblc3\src/bits.h ****     int cache, carry, carry_count;
 104:..\..\..\liblc3\src/bits.h ****     bool error;
 105:..\..\..\liblc3\src/bits.h **** };
 106:..\..\..\liblc3\src/bits.h **** 
 107:..\..\..\liblc3\src/bits.h **** struct lc3_bits_buffer {
 108:..\..\..\liblc3\src/bits.h ****     const uint8_t *start, *end;
 109:..\..\..\liblc3\src/bits.h ****     uint8_t *p_fw, *p_bw;
 110:..\..\..\liblc3\src/bits.h **** };
 111:..\..\..\liblc3\src/bits.h **** 
 112:..\..\..\liblc3\src/bits.h **** typedef struct lc3_bits {
 113:..\..\..\liblc3\src/bits.h ****     enum lc3_bits_mode mode;
 114:..\..\..\liblc3\src/bits.h ****     struct lc3_bits_ac ac;
 115:..\..\..\liblc3\src/bits.h ****     struct lc3_bits_accu accu;
 116:..\..\..\liblc3\src/bits.h ****     struct lc3_bits_buffer buffer;
 117:..\..\..\liblc3\src/bits.h **** } lc3_bits_t;
 118:..\..\..\liblc3\src/bits.h **** 
 119:..\..\..\liblc3\src/bits.h **** 
 120:..\..\..\liblc3\src/bits.h **** /**
 121:..\..\..\liblc3\src/bits.h ****  * Setup bitstream reading/writing
 122:..\..\..\liblc3\src/bits.h ****  * bits            Bitstream context
 123:..\..\..\liblc3\src/bits.h ****  * mode            Either READ or WRITE mode
 124:..\..\..\liblc3\src/bits.h ****  * buffer, len     Output buffer and length (in bytes)
 125:..\..\..\liblc3\src/bits.h ****  */
 126:..\..\..\liblc3\src/bits.h **** void lc3_setup_bits(lc3_bits_t *bits,
 127:..\..\..\liblc3\src/bits.h ****     enum lc3_bits_mode mode, void *buffer, int len);
 128:..\..\..\liblc3\src/bits.h **** 
 129:..\..\..\liblc3\src/bits.h **** /**
 130:..\..\..\liblc3\src/bits.h ****  * Return number of bits left in the bitstream
 131:..\..\..\liblc3\src/bits.h ****  * bits            Bitstream context
 132:..\..\..\liblc3\src/bits.h ****  * return          Number of bits left
 133:..\..\..\liblc3\src/bits.h ****  */
 134:..\..\..\liblc3\src/bits.h **** int lc3_get_bits_left(const lc3_bits_t *bits);
 135:..\..\..\liblc3\src/bits.h **** 
ARM GAS  C:\Users\rdn\AppData\Local\Temp\ccYH9vOY.s 			page 10


 136:..\..\..\liblc3\src/bits.h **** /**
 137:..\..\..\liblc3\src/bits.h ****  * Check if error occured on bitstream reading/writing
 138:..\..\..\liblc3\src/bits.h ****  * bits            Bitstream context
 139:..\..\..\liblc3\src/bits.h ****  * return          0: Ok  -1: Bitstream overflow or AC reading error
 140:..\..\..\liblc3\src/bits.h ****  */
 141:..\..\..\liblc3\src/bits.h **** int lc3_check_bits(const lc3_bits_t *bits);
 142:..\..\..\liblc3\src/bits.h **** 
 143:..\..\..\liblc3\src/bits.h **** /**
 144:..\..\..\liblc3\src/bits.h ****  * Put a bit
 145:..\..\..\liblc3\src/bits.h ****  * bits            Bitstream context
 146:..\..\..\liblc3\src/bits.h ****  * v               Bit value, 0 or 1
 147:..\..\..\liblc3\src/bits.h ****  */
 148:..\..\..\liblc3\src/bits.h **** static inline void lc3_put_bit(lc3_bits_t *bits, int v);
 149:..\..\..\liblc3\src/bits.h **** 
 150:..\..\..\liblc3\src/bits.h **** /**
 151:..\..\..\liblc3\src/bits.h ****  * Put from 1 to 32 bits
 152:..\..\..\liblc3\src/bits.h ****  * bits            Bitstream context
 153:..\..\..\liblc3\src/bits.h ****  * v, n            Value, in range 0 to 2^n - 1, and bits count (1 to 32)
 154:..\..\..\liblc3\src/bits.h ****  */
 155:..\..\..\liblc3\src/bits.h **** static inline void lc3_put_bits(lc3_bits_t *bits, unsigned v, int n);
 156:..\..\..\liblc3\src/bits.h **** 
 157:..\..\..\liblc3\src/bits.h **** /**
 158:..\..\..\liblc3\src/bits.h ****  * Put arithmetic coder symbol
 159:..\..\..\liblc3\src/bits.h ****  * bits            Bitstream context
 160:..\..\..\liblc3\src/bits.h ****  * model, s        Model distribution and symbol value
 161:..\..\..\liblc3\src/bits.h ****  */
 162:..\..\..\liblc3\src/bits.h **** static inline void lc3_put_symbol(lc3_bits_t *bits,
 163:..\..\..\liblc3\src/bits.h ****     const struct lc3_ac_model *model, unsigned s);
 164:..\..\..\liblc3\src/bits.h **** 
 165:..\..\..\liblc3\src/bits.h **** /**
 166:..\..\..\liblc3\src/bits.h ****  * Flush and terminate bitstream writing
 167:..\..\..\liblc3\src/bits.h ****  * bits            Bitstream context
 168:..\..\..\liblc3\src/bits.h ****  */
 169:..\..\..\liblc3\src/bits.h **** void lc3_flush_bits(lc3_bits_t *bits);
 170:..\..\..\liblc3\src/bits.h **** 
 171:..\..\..\liblc3\src/bits.h **** /**
 172:..\..\..\liblc3\src/bits.h ****  * Get a bit
 173:..\..\..\liblc3\src/bits.h ****  * bits            Bitstream context
 174:..\..\..\liblc3\src/bits.h ****  */
 175:..\..\..\liblc3\src/bits.h **** static inline int lc3_get_bit(lc3_bits_t *bits);
 176:..\..\..\liblc3\src/bits.h **** 
 177:..\..\..\liblc3\src/bits.h **** /**
 178:..\..\..\liblc3\src/bits.h ****  * Get from 1 to 32 bits
 179:..\..\..\liblc3\src/bits.h ****  * bits            Bitstream context
 180:..\..\..\liblc3\src/bits.h ****  * n               Number of bits to read (1 to 32)
 181:..\..\..\liblc3\src/bits.h ****  * return          The value read
 182:..\..\..\liblc3\src/bits.h ****  */
 183:..\..\..\liblc3\src/bits.h **** static inline unsigned lc3_get_bits(lc3_bits_t *bits,  int n);
 184:..\..\..\liblc3\src/bits.h **** 
 185:..\..\..\liblc3\src/bits.h **** /**
 186:..\..\..\liblc3\src/bits.h ****  * Get arithmetic coder symbol
 187:..\..\..\liblc3\src/bits.h ****  * bits            Bitstream context
 188:..\..\..\liblc3\src/bits.h ****  * model           Model distribution
 189:..\..\..\liblc3\src/bits.h ****  * return          The value read
 190:..\..\..\liblc3\src/bits.h ****  */
 191:..\..\..\liblc3\src/bits.h **** static inline unsigned lc3_get_symbol(lc3_bits_t *bits,
 192:..\..\..\liblc3\src/bits.h ****     const struct lc3_ac_model *model);
ARM GAS  C:\Users\rdn\AppData\Local\Temp\ccYH9vOY.s 			page 11


 193:..\..\..\liblc3\src/bits.h **** 
 194:..\..\..\liblc3\src/bits.h **** 
 195:..\..\..\liblc3\src/bits.h **** 
 196:..\..\..\liblc3\src/bits.h **** /* ----------------------------------------------------------------------------
 197:..\..\..\liblc3\src/bits.h ****  *  Inline implementations
 198:..\..\..\liblc3\src/bits.h ****  * -------------------------------------------------------------------------- */
 199:..\..\..\liblc3\src/bits.h **** 
 200:..\..\..\liblc3\src/bits.h **** void lc3_put_bits_generic(lc3_bits_t *bits, unsigned v, int n);
 201:..\..\..\liblc3\src/bits.h **** unsigned lc3_get_bits_generic(struct lc3_bits *bits, int n);
 202:..\..\..\liblc3\src/bits.h **** 
 203:..\..\..\liblc3\src/bits.h **** void lc3_ac_read_renorm(lc3_bits_t *bits);
 204:..\..\..\liblc3\src/bits.h **** void lc3_ac_write_renorm(lc3_bits_t *bits);
 205:..\..\..\liblc3\src/bits.h **** 
 206:..\..\..\liblc3\src/bits.h **** 
 207:..\..\..\liblc3\src/bits.h **** /**
 208:..\..\..\liblc3\src/bits.h ****  * Put a bit
 209:..\..\..\liblc3\src/bits.h ****  */
 210:..\..\..\liblc3\src/bits.h **** LC3_HOT static inline void lc3_put_bit(lc3_bits_t *bits, int v)
 211:..\..\..\liblc3\src/bits.h **** {
 212:..\..\..\liblc3\src/bits.h ****     lc3_put_bits(bits, v, 1);
 213:..\..\..\liblc3\src/bits.h **** }
 214:..\..\..\liblc3\src/bits.h **** 
 215:..\..\..\liblc3\src/bits.h **** /**
 216:..\..\..\liblc3\src/bits.h ****  * Put from 1 to 32 bits
 217:..\..\..\liblc3\src/bits.h ****  */
 218:..\..\..\liblc3\src/bits.h **** LC3_HOT static inline void lc3_put_bits(
 219:..\..\..\liblc3\src/bits.h ****     struct lc3_bits *bits, unsigned v, int n)
 220:..\..\..\liblc3\src/bits.h **** {
 221:..\..\..\liblc3\src/bits.h ****     struct lc3_bits_accu *accu = &bits->accu;
 222:..\..\..\liblc3\src/bits.h **** 
 223:..\..\..\liblc3\src/bits.h ****     if (accu->n + n <= LC3_ACCU_BITS) {
 224:..\..\..\liblc3\src/bits.h ****         accu->v |= v << accu->n;
 225:..\..\..\liblc3\src/bits.h ****         accu->n += n;
 226:..\..\..\liblc3\src/bits.h ****     } else {
 227:..\..\..\liblc3\src/bits.h ****         lc3_put_bits_generic(bits, v, n);
 228:..\..\..\liblc3\src/bits.h ****     }
 229:..\..\..\liblc3\src/bits.h **** }
 230:..\..\..\liblc3\src/bits.h **** 
 231:..\..\..\liblc3\src/bits.h **** /**
 232:..\..\..\liblc3\src/bits.h ****  * Get a bit
 233:..\..\..\liblc3\src/bits.h ****  */
 234:..\..\..\liblc3\src/bits.h **** LC3_HOT static inline int lc3_get_bit(lc3_bits_t *bits)
 235:..\..\..\liblc3\src/bits.h **** {
 236:..\..\..\liblc3\src/bits.h ****     return lc3_get_bits(bits, 1);
 237:..\..\..\liblc3\src/bits.h **** }
 238:..\..\..\liblc3\src/bits.h **** 
 239:..\..\..\liblc3\src/bits.h **** /**
 240:..\..\..\liblc3\src/bits.h ****  * Get from 1 to 32 bits
 241:..\..\..\liblc3\src/bits.h ****  */
 242:..\..\..\liblc3\src/bits.h **** LC3_HOT static inline unsigned lc3_get_bits(struct lc3_bits *bits, int n)
 243:..\..\..\liblc3\src/bits.h **** {
 244:..\..\..\liblc3\src/bits.h ****     struct lc3_bits_accu *accu = &bits->accu;
 245:..\..\..\liblc3\src/bits.h **** 
 246:..\..\..\liblc3\src/bits.h ****     if (accu->n + n <= LC3_ACCU_BITS) {
 247:..\..\..\liblc3\src/bits.h ****         int v = (accu->v >> accu->n) & ((1u << n) - 1);
 248:..\..\..\liblc3\src/bits.h ****         return (accu->n += n), v;
 249:..\..\..\liblc3\src/bits.h ****     }
ARM GAS  C:\Users\rdn\AppData\Local\Temp\ccYH9vOY.s 			page 12


 250:..\..\..\liblc3\src/bits.h ****     else {
 251:..\..\..\liblc3\src/bits.h ****         return lc3_get_bits_generic(bits, n);
 252:..\..\..\liblc3\src/bits.h ****     }
 253:..\..\..\liblc3\src/bits.h **** }
 254:..\..\..\liblc3\src/bits.h **** 
 255:..\..\..\liblc3\src/bits.h **** /**
 256:..\..\..\liblc3\src/bits.h ****  * Put arithmetic coder symbol
 257:..\..\..\liblc3\src/bits.h ****  */
 258:..\..\..\liblc3\src/bits.h **** LC3_HOT static inline void lc3_put_symbol(
 259:..\..\..\liblc3\src/bits.h ****     struct lc3_bits *bits, const struct lc3_ac_model *model, unsigned s)
 260:..\..\..\liblc3\src/bits.h **** {
  88              		.loc 2 260 0
  89              		.cfi_startproc
  90              		@ args = 0, pretend = 0, frame = 0
  91              		@ frame_needed = 0, uses_anonymous_args = 0
  92              		@ link register save eliminated.
  93              	.LVL6:
 261:..\..\..\liblc3\src/bits.h ****     const struct lc3_ac_symbol *symbols = model->s;
 262:..\..\..\liblc3\src/bits.h ****     struct lc3_bits_ac *ac = &bits->ac;
 263:..\..\..\liblc3\src/bits.h ****     unsigned range = ac->range >> 10;
  94              		.loc 2 263 0
  95 0000 8368     		ldr	r3, [r0, #8]
 260:..\..\..\liblc3\src/bits.h ****     const struct lc3_ac_symbol *symbols = model->s;
  96              		.loc 2 260 0
  97 0002 30B4     		push	{r4, r5}
  98              		.cfi_def_cfa_offset 8
  99              		.cfi_offset 4, -8
 100              		.cfi_offset 5, -4
 264:..\..\..\liblc3\src/bits.h **** 
 265:..\..\..\liblc3\src/bits.h ****     ac->low += range * symbols[s].low;
 101              		.loc 2 265 0
 102 0004 01EB8205 		add	r5, r1, r2, lsl #2
 103 0008 31F82220 		ldrh	r2, [r1, r2, lsl #2]
 104              	.LVL7:
 105 000c 4168     		ldr	r1, [r0, #4]
 106              	.LVL8:
 263:..\..\..\liblc3\src/bits.h **** 
 107              		.loc 2 263 0
 108 000e 9B0A     		lsrs	r3, r3, #10
 109              	.LVL9:
 110              		.loc 2 265 0
 111 0010 03FB0212 		mla	r2, r3, r2, r1
 266:..\..\..\liblc3\src/bits.h ****     ac->range = range * symbols[s].range;
 112              		.loc 2 266 0
 113 0014 6988     		ldrh	r1, [r5, #2]
 114 0016 4B43     		muls	r3, r1, r3
 115              	.LVL10:
 267:..\..\..\liblc3\src/bits.h **** 
 268:..\..\..\liblc3\src/bits.h ****     ac->carry |= ac->low >> 24;
 116              		.loc 2 268 0
 117 0018 0169     		ldr	r1, [r0, #16]
 266:..\..\..\liblc3\src/bits.h ****     ac->range = range * symbols[s].range;
 118              		.loc 2 266 0
 119 001a 8360     		str	r3, [r0, #8]
 120              	.LVL11:
 121              		.loc 2 268 0
 122 001c 41EA1261 		orr	r1, r1, r2, lsr #24
ARM GAS  C:\Users\rdn\AppData\Local\Temp\ccYH9vOY.s 			page 13


 269:..\..\..\liblc3\src/bits.h ****     ac->low &= 0xffffff;
 270:..\..\..\liblc3\src/bits.h **** 
 271:..\..\..\liblc3\src/bits.h ****     if (ac->range < 0x10000)
 123              		.loc 2 271 0
 124 0020 B3F5803F 		cmp	r3, #65536
 269:..\..\..\liblc3\src/bits.h ****     ac->low &= 0xffffff;
 125              		.loc 2 269 0
 126 0024 22F07F42 		bic	r2, r2, #-16777216
 268:..\..\..\liblc3\src/bits.h ****     ac->low &= 0xffffff;
 127              		.loc 2 268 0
 128 0028 0161     		str	r1, [r0, #16]
 269:..\..\..\liblc3\src/bits.h ****     ac->low &= 0xffffff;
 129              		.loc 2 269 0
 130 002a 4260     		str	r2, [r0, #4]
 131              		.loc 2 271 0
 132 002c 02D2     		bcs	.L10
 272:..\..\..\liblc3\src/bits.h ****         lc3_ac_write_renorm(bits);
 273:..\..\..\liblc3\src/bits.h **** }
 133              		.loc 2 273 0
 134 002e 30BC     		pop	{r4, r5}
 135              		.cfi_remember_state
 136              		.cfi_restore 5
 137              		.cfi_restore 4
 138              		.cfi_def_cfa_offset 0
 272:..\..\..\liblc3\src/bits.h ****         lc3_ac_write_renorm(bits);
 139              		.loc 2 272 0
 140 0030 FFF7FEBF 		b	lc3_ac_write_renorm
 141              	.LVL12:
 142              	.L10:
 143              		.cfi_restore_state
 144              		.loc 2 273 0
 145 0034 30BC     		pop	{r4, r5}
 146              		.cfi_restore 5
 147              		.cfi_restore 4
 148              		.cfi_def_cfa_offset 0
 149 0036 7047     		bx	lr
 150              		.cfi_endproc
 151              	.LFE11:
 152              		.size	lc3_put_symbol, .-lc3_put_symbol
 153              		.section	.text.lc3_get_symbol,"ax",%progbits
 154              		.align	1
 155              		.thumb
 156              		.thumb_func
 157              		.type	lc3_get_symbol, %function
 158              	lc3_get_symbol:
 159              	.LFB12:
 274:..\..\..\liblc3\src/bits.h **** 
 275:..\..\..\liblc3\src/bits.h **** /**
 276:..\..\..\liblc3\src/bits.h ****  * Get arithmetic coder symbol
 277:..\..\..\liblc3\src/bits.h ****  */
 278:..\..\..\liblc3\src/bits.h **** LC3_HOT static inline unsigned lc3_get_symbol(
 279:..\..\..\liblc3\src/bits.h ****     lc3_bits_t *bits, const struct lc3_ac_model *model)
 280:..\..\..\liblc3\src/bits.h **** {
 160              		.loc 2 280 0
 161              		.cfi_startproc
 162              		@ args = 0, pretend = 0, frame = 0
 163              		@ frame_needed = 0, uses_anonymous_args = 0
ARM GAS  C:\Users\rdn\AppData\Local\Temp\ccYH9vOY.s 			page 14


 164              	.LVL13:
 165 0000 70B5     		push	{r4, r5, r6, lr}
 166              		.cfi_def_cfa_offset 16
 167              		.cfi_offset 4, -16
 168              		.cfi_offset 5, -12
 169              		.cfi_offset 6, -8
 170              		.cfi_offset 14, -4
 281:..\..\..\liblc3\src/bits.h ****     const struct lc3_ac_symbol *symbols = model->s;
 282:..\..\..\liblc3\src/bits.h ****     struct lc3_bits_ac *ac = &bits->ac;
 283:..\..\..\liblc3\src/bits.h **** 
 284:..\..\..\liblc3\src/bits.h ****     unsigned range = (ac->range >> 10) & 0xffff;
 171              		.loc 2 284 0
 172 0002 8568     		ldr	r5, [r0, #8]
 173 0004 4368     		ldr	r3, [r0, #4]
 174 0006 C5F38F25 		ubfx	r5, r5, #10, #16
 175              	.LVL14:
 176 000a B3EB852F 		cmp	r3, r5, lsl #10
 177 000e 037E     		ldrb	r3, [r0, #24]	@ zero_extendqisi2
 178 0010 28BF     		it	cs
 179 0012 43F00103 		orrcs	r3, r3, #1
 285:..\..\..\liblc3\src/bits.h **** 
 286:..\..\..\liblc3\src/bits.h ****     ac->error |= (ac->low >= (range << 10));
 180              		.loc 2 286 0
 181 0016 0376     		strb	r3, [r0, #24]
 287:..\..\..\liblc3\src/bits.h ****     if (ac->error)
 182              		.loc 2 287 0
 183 0018 0BB1     		cbz	r3, .L13
 288:..\..\..\liblc3\src/bits.h ****         ac->low = 0;
 184              		.loc 2 288 0
 185 001a 0023     		movs	r3, #0
 186 001c 4360     		str	r3, [r0, #4]
 187              	.L13:
 188              	.LVL15:
 289:..\..\..\liblc3\src/bits.h **** 
 290:..\..\..\liblc3\src/bits.h ****     int s = 16;
 291:..\..\..\liblc3\src/bits.h **** 
 292:..\..\..\liblc3\src/bits.h ****     if (ac->low < range * symbols[s].low) {
 189              		.loc 2 292 0
 190 001e B1F84030 		ldrh	r3, [r1, #64]
 191 0022 4668     		ldr	r6, [r0, #4]
 192 0024 6B43     		muls	r3, r5, r3
 193 0026 9E42     		cmp	r6, r3
 194 0028 1FD2     		bcs	.L19
 195              	.LVL16:
 293:..\..\..\liblc3\src/bits.h ****         s >>= 1;
 294:..\..\..\liblc3\src/bits.h ****         s -= ac->low < range * symbols[s].low ? 4 : -4;
 196              		.loc 2 294 0
 197 002a 0B8C     		ldrh	r3, [r1, #32]
 198 002c 6B43     		muls	r3, r5, r3
 199 002e 9E42     		cmp	r6, r3
 200 0030 34BF     		ite	cc
 201 0032 0423     		movcc	r3, #4
 202 0034 0C23     		movcs	r3, #12
 203              	.LVL17:
 295:..\..\..\liblc3\src/bits.h ****         s -= ac->low < range * symbols[s].low ? 2 : -2;
 204              		.loc 2 295 0
 205 0036 31F82320 		ldrh	r2, [r1, r3, lsl #2]
ARM GAS  C:\Users\rdn\AppData\Local\Temp\ccYH9vOY.s 			page 15


 206 003a 6A43     		muls	r2, r5, r2
 207 003c 9642     		cmp	r6, r2
 208 003e 34BF     		ite	cc
 209 0040 0222     		movcc	r2, #2
 210 0042 6FF00102 		mvncs	r2, #1
 211 0046 9A1A     		subs	r2, r3, r2
 212              	.LVL18:
 296:..\..\..\liblc3\src/bits.h ****         s -= ac->low < range * symbols[s].low ? 1 : -1;
 213              		.loc 2 296 0
 214 0048 31F82240 		ldrh	r4, [r1, r2, lsl #2]
 215 004c 6C43     		muls	r4, r5, r4
 216 004e A642     		cmp	r6, r4
 217 0050 34BF     		ite	cc
 218 0052 0124     		movcc	r4, #1
 219 0054 4FF0FF34 		movcs	r4, #-1
 220 0058 131B     		subs	r3, r2, r4
 221              	.LVL19:
 297:..\..\..\liblc3\src/bits.h ****         s -= ac->low < range * symbols[s].low;
 222              		.loc 2 297 0
 223 005a 31F82340 		ldrh	r4, [r1, r3, lsl #2]
 224 005e 6C43     		muls	r4, r5, r4
 225 0060 A642     		cmp	r6, r4
 226 0062 2CBF     		ite	cs
 227 0064 1C46     		movcs	r4, r3
 228 0066 5C1E     		subcc	r4, r3, #1
 229              	.LVL20:
 230 0068 00E0     		b	.L14
 231              	.LVL21:
 232              	.L19:
 290:..\..\..\liblc3\src/bits.h **** 
 233              		.loc 2 290 0
 234 006a 1024     		movs	r4, #16
 235              	.LVL22:
 236              	.L14:
 298:..\..\..\liblc3\src/bits.h ****     }
 299:..\..\..\liblc3\src/bits.h **** 
 300:..\..\..\liblc3\src/bits.h ****     ac->low -= range * symbols[s].low;
 237              		.loc 2 300 0
 238 006c 31F82430 		ldrh	r3, [r1, r4, lsl #2]
 239 0070 01EB8402 		add	r2, r1, r4, lsl #2
 240 0074 05FB1366 		mls	r6, r5, r3, r6
 301:..\..\..\liblc3\src/bits.h ****     ac->range = range * symbols[s].range;
 241              		.loc 2 301 0
 242 0078 5388     		ldrh	r3, [r2, #2]
 300:..\..\..\liblc3\src/bits.h ****     ac->range = range * symbols[s].range;
 243              		.loc 2 300 0
 244 007a 4660     		str	r6, [r0, #4]
 245              		.loc 2 301 0
 246 007c 5D43     		muls	r5, r3, r5
 247              	.LVL23:
 302:..\..\..\liblc3\src/bits.h **** 
 303:..\..\..\liblc3\src/bits.h ****     if (ac->range < 0x10000)
 248              		.loc 2 303 0
 249 007e B5F5803F 		cmp	r5, #65536
 301:..\..\..\liblc3\src/bits.h **** 
 250              		.loc 2 301 0
 251 0082 8560     		str	r5, [r0, #8]
ARM GAS  C:\Users\rdn\AppData\Local\Temp\ccYH9vOY.s 			page 16


 252              	.LVL24:
 253              		.loc 2 303 0
 254 0084 01D2     		bcs	.L18
 304:..\..\..\liblc3\src/bits.h ****         lc3_ac_read_renorm(bits);
 255              		.loc 2 304 0
 256 0086 FFF7FEFF 		bl	lc3_ac_read_renorm
 257              	.LVL25:
 258              	.L18:
 305:..\..\..\liblc3\src/bits.h **** 
 306:..\..\..\liblc3\src/bits.h ****     return s;
 307:..\..\..\liblc3\src/bits.h **** }
 259              		.loc 2 307 0
 260 008a 2046     		mov	r0, r4
 261 008c 70BD     		pop	{r4, r5, r6, pc}
 262              		.cfi_endproc
 263              	.LFE12:
 264              		.size	lc3_get_symbol, .-lc3_get_symbol
 265              		.section	.text.lc3_tns_analyze,"ax",%progbits
 266              		.align	1
 267              		.global	lc3_tns_analyze
 268              		.thumb
 269              		.thumb_func
 270              		.type	lc3_tns_analyze, %function
 271              	lc3_tns_analyze:
 272              	.LFB29:
 289:..\..\..\liblc3\src/tns.c **** 
 290:..\..\..\liblc3\src/tns.c **** 
 291:..\..\..\liblc3\src/tns.c **** /* ----------------------------------------------------------------------------
 292:..\..\..\liblc3\src/tns.c ****  *  Filtering
 293:..\..\..\liblc3\src/tns.c ****  * -------------------------------------------------------------------------- */
 294:..\..\..\liblc3\src/tns.c **** 
 295:..\..\..\liblc3\src/tns.c **** /**
 296:..\..\..\liblc3\src/tns.c ****  * Forward filtering
 297:..\..\..\liblc3\src/tns.c ****  * dt, bw          Duration and bandwidth of the frame
 298:..\..\..\liblc3\src/tns.c ****  * rc_order, rc    Order of coefficients, and coefficients
 299:..\..\..\liblc3\src/tns.c ****  * x               Spectral coefficients, filtered as output
 300:..\..\..\liblc3\src/tns.c ****  */
 301:..\..\..\liblc3\src/tns.c **** LC3_HOT static void forward_filtering(
 302:..\..\..\liblc3\src/tns.c ****     enum lc3_dt dt, enum lc3_bandwidth bw,
 303:..\..\..\liblc3\src/tns.c ****     const int rc_order[2], float (* const rc)[8], float *x)
 304:..\..\..\liblc3\src/tns.c **** {
 305:..\..\..\liblc3\src/tns.c ****     int nfilters = 1 + (dt >= LC3_DT_5M && bw >= LC3_BANDWIDTH_SWB);
 306:..\..\..\liblc3\src/tns.c ****     int nf = lc3_ne(dt, (enum lc3_srate)LC3_MIN(bw, LC3_BANDWIDTH_FB))
 307:..\..\..\liblc3\src/tns.c ****                 >> (nfilters - 1);
 308:..\..\..\liblc3\src/tns.c ****     int i0, ie = 3*(1 + dt);
 309:..\..\..\liblc3\src/tns.c **** 
 310:..\..\..\liblc3\src/tns.c ****     float s[8] = { 0 };
 311:..\..\..\liblc3\src/tns.c **** 
 312:..\..\..\liblc3\src/tns.c ****     for (int f = 0; f < nfilters; f++) {
 313:..\..\..\liblc3\src/tns.c **** 
 314:..\..\..\liblc3\src/tns.c ****         i0 = ie;
 315:..\..\..\liblc3\src/tns.c ****         ie = nf * (1 + f);
 316:..\..\..\liblc3\src/tns.c **** 
 317:..\..\..\liblc3\src/tns.c ****         if (!rc_order[f])
 318:..\..\..\liblc3\src/tns.c ****             continue;
 319:..\..\..\liblc3\src/tns.c **** 
 320:..\..\..\liblc3\src/tns.c ****         for (int i = i0; i < ie; i++) {
ARM GAS  C:\Users\rdn\AppData\Local\Temp\ccYH9vOY.s 			page 17


 321:..\..\..\liblc3\src/tns.c ****             float xi = x[i];
 322:..\..\..\liblc3\src/tns.c ****             float s0, s1 = xi;
 323:..\..\..\liblc3\src/tns.c **** 
 324:..\..\..\liblc3\src/tns.c ****             for (int k = 0; k < rc_order[f]; k++) {
 325:..\..\..\liblc3\src/tns.c ****                 s0 = s[k];
 326:..\..\..\liblc3\src/tns.c ****                 s[k] = s1;
 327:..\..\..\liblc3\src/tns.c **** 
 328:..\..\..\liblc3\src/tns.c ****                 s1  = rc[f][k] * xi + s0;
 329:..\..\..\liblc3\src/tns.c ****                 xi += rc[f][k] * s0;
 330:..\..\..\liblc3\src/tns.c ****             }
 331:..\..\..\liblc3\src/tns.c **** 
 332:..\..\..\liblc3\src/tns.c ****             x[i] = xi;
 333:..\..\..\liblc3\src/tns.c ****         }
 334:..\..\..\liblc3\src/tns.c ****     }
 335:..\..\..\liblc3\src/tns.c **** }
 336:..\..\..\liblc3\src/tns.c **** 
 337:..\..\..\liblc3\src/tns.c **** /**
 338:..\..\..\liblc3\src/tns.c ****  * Inverse filtering
 339:..\..\..\liblc3\src/tns.c ****  * dt, bw          Duration and bandwidth of the frame
 340:..\..\..\liblc3\src/tns.c ****  * rc_order, rc    Order of coefficients, and unquantized coefficients
 341:..\..\..\liblc3\src/tns.c ****  * x               Spectral coefficients, filtered as output
 342:..\..\..\liblc3\src/tns.c ****  */
 343:..\..\..\liblc3\src/tns.c **** LC3_HOT static void inverse_filtering(
 344:..\..\..\liblc3\src/tns.c ****     enum lc3_dt dt, enum lc3_bandwidth bw,
 345:..\..\..\liblc3\src/tns.c ****     const int rc_order[2], float (* const rc)[8], float *x)
 346:..\..\..\liblc3\src/tns.c **** {
 347:..\..\..\liblc3\src/tns.c ****     int nfilters = 1 + (dt >= LC3_DT_5M && bw >= LC3_BANDWIDTH_SWB);
 348:..\..\..\liblc3\src/tns.c ****     int nf = lc3_ne(dt, (enum lc3_srate)LC3_MIN(bw, LC3_BANDWIDTH_FB))
 349:..\..\..\liblc3\src/tns.c ****                 >> (nfilters - 1);
 350:..\..\..\liblc3\src/tns.c ****     int i0, ie = 3*(1 + dt);
 351:..\..\..\liblc3\src/tns.c **** 
 352:..\..\..\liblc3\src/tns.c ****     float s[8] = { 0 };
 353:..\..\..\liblc3\src/tns.c **** 
 354:..\..\..\liblc3\src/tns.c ****     for (int f = 0; f < nfilters; f++) {
 355:..\..\..\liblc3\src/tns.c **** 
 356:..\..\..\liblc3\src/tns.c ****         i0 = ie;
 357:..\..\..\liblc3\src/tns.c ****         ie = nf * (1 + f);
 358:..\..\..\liblc3\src/tns.c **** 
 359:..\..\..\liblc3\src/tns.c ****         if (!rc_order[f])
 360:..\..\..\liblc3\src/tns.c ****             continue;
 361:..\..\..\liblc3\src/tns.c **** 
 362:..\..\..\liblc3\src/tns.c ****         for (int i = i0; i < ie; i++) {
 363:..\..\..\liblc3\src/tns.c ****             float xi = x[i];
 364:..\..\..\liblc3\src/tns.c **** 
 365:..\..\..\liblc3\src/tns.c ****             xi -= s[7] * rc[f][7];
 366:..\..\..\liblc3\src/tns.c ****             for (int k = 6; k >= 0; k--) {
 367:..\..\..\liblc3\src/tns.c ****                 xi -= s[k] * rc[f][k];
 368:..\..\..\liblc3\src/tns.c ****                 s[k+1] = s[k] + rc[f][k] * xi;
 369:..\..\..\liblc3\src/tns.c ****             }
 370:..\..\..\liblc3\src/tns.c ****             s[0] = xi;
 371:..\..\..\liblc3\src/tns.c ****             x[i] = xi;
 372:..\..\..\liblc3\src/tns.c ****         }
 373:..\..\..\liblc3\src/tns.c **** 
 374:..\..\..\liblc3\src/tns.c ****         for (int k = 7; k >= rc_order[f]; k--)
 375:..\..\..\liblc3\src/tns.c ****             s[k] = 0;
 376:..\..\..\liblc3\src/tns.c ****     }
 377:..\..\..\liblc3\src/tns.c **** }
ARM GAS  C:\Users\rdn\AppData\Local\Temp\ccYH9vOY.s 			page 18


 378:..\..\..\liblc3\src/tns.c **** 
 379:..\..\..\liblc3\src/tns.c **** 
 380:..\..\..\liblc3\src/tns.c **** /* ----------------------------------------------------------------------------
 381:..\..\..\liblc3\src/tns.c ****  *  Interface
 382:..\..\..\liblc3\src/tns.c ****  * -------------------------------------------------------------------------- */
 383:..\..\..\liblc3\src/tns.c **** 
 384:..\..\..\liblc3\src/tns.c **** /**
 385:..\..\..\liblc3\src/tns.c ****  * TNS analysis
 386:..\..\..\liblc3\src/tns.c ****  */
 387:..\..\..\liblc3\src/tns.c **** void lc3_tns_analyze(enum lc3_dt dt, enum lc3_bandwidth bw,
 388:..\..\..\liblc3\src/tns.c ****     bool nn_flag, int nbytes, struct lc3_tns_data *data, float *x)
 389:..\..\..\liblc3\src/tns.c **** {
 273              		.loc 1 389 0
 274              		.cfi_startproc
 275              		@ args = 8, pretend = 0, frame = 408
 276              		@ frame_needed = 0, uses_anonymous_args = 0
 277              	.LVL26:
 278 0000 2DE9F04F 		push	{r4, r5, r6, r7, r8, r9, r10, fp, lr}
 279              		.cfi_def_cfa_offset 36
 280              		.cfi_offset 4, -36
 281              		.cfi_offset 5, -32
 282              		.cfi_offset 6, -28
 283              		.cfi_offset 7, -24
 284              		.cfi_offset 8, -20
 285              		.cfi_offset 9, -16
 286              		.cfi_offset 10, -12
 287              		.cfi_offset 11, -8
 288              		.cfi_offset 14, -4
 289 0004 E7B0     		sub	sp, sp, #412
 290              		.cfi_def_cfa_offset 448
 291              		.loc 1 389 0
 292 0006 8346     		mov	fp, r0
 293 0008 0A92     		str	r2, [sp, #40]
 294              	.LBB68:
 295              	.LBB69:
  34:..\..\..\liblc3\src/tns.c **** }
 296              		.loc 1 34 0
 297 000a 421C     		adds	r2, r0, #1
 298              	.LVL27:
 299 000c 0292     		str	r2, [sp, #8]
 300              	.LVL28:
 301              	.LBE69:
 302              	.LBE68:
 303              		.loc 1 389 0
 304 000e 0191     		str	r1, [sp, #4]
 390:..\..\..\liblc3\src/tns.c ****     /* Processing steps :
 391:..\..\..\liblc3\src/tns.c ****      * - Determine the LPC (Linear Predictive Coding) Coefficients
 392:..\..\..\liblc3\src/tns.c ****      * - Check is the filtering is disabled
 393:..\..\..\liblc3\src/tns.c ****      * - The coefficients are weighted on low bitrates and predicition gain
 394:..\..\..\liblc3\src/tns.c ****      * - Convert to reflection coefficients and quantize
 395:..\..\..\liblc3\src/tns.c ****      * - Finally filter the spectral coefficients */
 396:..\..\..\liblc3\src/tns.c **** 
 397:..\..\..\liblc3\src/tns.c ****     float pred_gain[2], a[2][9];
 398:..\..\..\liblc3\src/tns.c ****     float rc[2][8];
 399:..\..\..\liblc3\src/tns.c **** 
 400:..\..\..\liblc3\src/tns.c ****     data->lpc_weighting = resolve_lpc_weighting(dt, nbytes);
 305              		.loc 1 400 0
ARM GAS  C:\Users\rdn\AppData\Local\Temp\ccYH9vOY.s 			page 19


 306 0010 0299     		ldr	r1, [sp, #8]
 307              	.LVL29:
 308 0012 7822     		movs	r2, #120
 309 0014 4A43     		muls	r2, r1, r2
 310 0016 B2EBC30F 		cmp	r2, r3, lsl #3
 311 001a 709A     		ldr	r2, [sp, #448]
 312 001c CCBF     		ite	gt
 313 001e 0123     		movgt	r3, #1
 314              	.LVL30:
 315 0020 0023     		movle	r3, #0
 316 0022 1371     		strb	r3, [r2, #4]
 401:..\..\..\liblc3\src/tns.c ****     data->nfilters = 1 + (dt >= LC3_DT_5M && bw >= LC3_BANDWIDTH_SWB);
 317              		.loc 1 401 0
 318 0024 28B1     		cbz	r0, .L79
 319              		.loc 1 401 0 is_stmt 0 discriminator 1
 320 0026 019B     		ldr	r3, [sp, #4]
 321 0028 022B     		cmp	r3, #2
 322 002a 94BF     		ite	ls
 323 002c 0023     		movls	r3, #0
 324 002e 0123     		movhi	r3, #1
 325 0030 00E0     		b	.L27
 326              	.L79:
 327              		.loc 1 401 0
 328 0032 0346     		mov	r3, r0
 329              	.L27:
 330              		.loc 1 401 0 discriminator 6
 331 0034 709A     		ldr	r2, [sp, #448]
 332 0036 0133     		adds	r3, r3, #1
 402:..\..\..\liblc3\src/tns.c ****     int maxorder = dt <= LC3_DT_5M ? 4 : 8;
 333              		.loc 1 402 0 is_stmt 1 discriminator 6
 334 0038 BBF1010F 		cmp	fp, #1
 401:..\..\..\liblc3\src/tns.c ****     data->nfilters = 1 + (dt >= LC3_DT_5M && bw >= LC3_BANDWIDTH_SWB);
 335              		.loc 1 401 0 discriminator 6
 336 003c 1360     		str	r3, [r2]
 337              	.LBB70:
 338              	.LBB71:
  98:..\..\..\liblc3\src/tns.c **** 
 339              		.loc 1 98 0 discriminator 6
 340 003e 4FF00001 		mov	r1, #0
 341              	.LBE71:
 342              	.LBE70:
 343              		.loc 1 402 0 discriminator 6
 344 0042 8CBF     		ite	hi
 345 0044 0823     		movhi	r3, #8
 346 0046 0423     		movls	r3, #4
 347              	.LBB101:
 348              	.LBB99:
  98:..\..\..\liblc3\src/tns.c **** 
 349              		.loc 1 98 0 discriminator 6
 350 0048 7022     		movs	r2, #112
 351 004a 4AA8     		add	r0, sp, #296
 352              	.LVL31:
 353              	.LBE99:
 354              	.LBE101:
 355              		.loc 1 402 0 discriminator 6
 356 004c 0093     		str	r3, [sp]
 357              	.LVL32:
ARM GAS  C:\Users\rdn\AppData\Local\Temp\ccYH9vOY.s 			page 20


 358              	.LBB102:
 359              	.LBB100:
  98:..\..\..\liblc3\src/tns.c **** 
 360              		.loc 1 98 0 discriminator 6
 361 004e FFF7FEFF 		bl	memset
 362              	.LVL33:
 363 0052 B04B     		ldr	r3, .L120
 364 0054 4A93     		str	r3, [sp, #296]
 365 0056 03F10C02 		add	r2, r3, #12
 366 005a 4B92     		str	r2, [sp, #300]
 367 005c 03F11802 		add	r2, r3, #24
 368 0060 4C92     		str	r2, [sp, #304]
 369 0062 03F12402 		add	r2, r3, #36
 370 0066 4D92     		str	r2, [sp, #308]
 371 0068 03F13002 		add	r2, r3, #48
 372 006c 4E92     		str	r2, [sp, #312]
 373 006e 4F92     		str	r2, [sp, #316]
 374 0070 5092     		str	r2, [sp, #320]
 375 0072 03F13C02 		add	r2, r3, #60
 376 0076 5192     		str	r2, [sp, #324]
 377 0078 03F14802 		add	r2, r3, #72
 378 007c 5292     		str	r2, [sp, #328]
 379 007e 03F15402 		add	r2, r3, #84
 380 0082 5392     		str	r2, [sp, #332]
 381 0084 03F16002 		add	r2, r3, #96
 382 0088 5492     		str	r2, [sp, #336]
 383 008a 03F17402 		add	r2, r3, #116
 384 008e 5592     		str	r2, [sp, #340]
 385 0090 5692     		str	r2, [sp, #344]
 386 0092 5792     		str	r2, [sp, #348]
 387 0094 03F18802 		add	r2, r3, #136
 388 0098 5892     		str	r2, [sp, #352]
 389 009a 03F19802 		add	r2, r3, #152
 390 009e 5992     		str	r2, [sp, #356]
 391 00a0 03F1A802 		add	r2, r3, #168
 392 00a4 5A92     		str	r2, [sp, #360]
 393 00a6 03F1B802 		add	r2, r3, #184
 394 00aa 5B92     		str	r2, [sp, #364]
 395 00ac 03F1D402 		add	r2, r3, #212
 396 00b0 5C92     		str	r2, [sp, #368]
 397 00b2 03F1F002 		add	r2, r3, #240
 398 00b6 5F92     		str	r2, [sp, #380]
 399 00b8 03F58072 		add	r2, r3, #256
 400 00bc 6092     		str	r2, [sp, #384]
 401 00be 03F58872 		add	r2, r3, #272
 402 00c2 6192     		str	r2, [sp, #388]
 403 00c4 03F59072 		add	r2, r3, #288
 404 00c8 6292     		str	r2, [sp, #392]
 405 00ca 03F59E73 		add	r3, r3, #316
 406 00ce 019A     		ldr	r2, [sp, #4]
 407 00d0 6393     		str	r3, [sp, #396]
 408 00d2 6493     		str	r3, [sp, #400]
 409 00d4 6593     		str	r3, [sp, #404]
 410 00d6 CBEBCB03 		rsb	r3, fp, fp, lsl #3
 411 00da 1344     		add	r3, r3, r2
 412 00dc 66AA     		add	r2, sp, #408
 413 00de 02EB8303 		add	r3, r2, r3, lsl #2
ARM GAS  C:\Users\rdn\AppData\Local\Temp\ccYH9vOY.s 			page 21


 414 00e2 53F8708C 		ldr	r8, [r3, #-112]
 415              	.LVL34:
 124:..\..\..\liblc3\src/tns.c ****     int nsubdivisions = 2 + (dt >= LC3_DT_7M5);
 416              		.loc 1 124 0 discriminator 6
 417 00e6 BBF1000F 		cmp	fp, #0
 418 00ea 0AD0     		beq	.L81
 124:..\..\..\liblc3\src/tns.c ****     int nsubdivisions = 2 + (dt >= LC3_DT_7M5);
 419              		.loc 1 124 0 is_stmt 0
 420 00ec 019B     		ldr	r3, [sp, #4]
 421 00ee 022B     		cmp	r3, #2
 422 00f0 94BF     		ite	ls
 423 00f2 0027     		movls	r7, #0
 424 00f4 0127     		movhi	r7, #1
 425              	.LVL35:
 125:..\..\..\liblc3\src/tns.c **** 
 426              		.loc 1 125 0 is_stmt 1
 427 00f6 BBF1010F 		cmp	fp, #1
 428 00fa 03D9     		bls	.L82
 429 00fc 4FF00309 		mov	r9, #3
 430 0100 02E0     		b	.L30
 431              	.LVL36:
 432              	.L81:
 124:..\..\..\liblc3\src/tns.c ****     int nsubdivisions = 2 + (dt >= LC3_DT_7M5);
 433              		.loc 1 124 0
 434 0102 5F46     		mov	r7, fp
 435              	.L82:
 125:..\..\..\liblc3\src/tns.c **** 
 436              		.loc 1 125 0
 437 0104 4FF00209 		mov	r9, #2
 438              	.L30:
 439              	.LVL37:
 127:..\..\..\liblc3\src/tns.c ****     float r[2][9];
 440              		.loc 1 127 0
 441 0108 719B     		ldr	r3, [sp, #452]
 442 010a D8F80040 		ldr	r4, [r8]
 443 010e 03EB8404 		add	r4, r3, r4, lsl #2
 444              	.LVL38:
 445 0112 2423     		movs	r3, #36
 446              	.LVL39:
 447 0114 5F43     		muls	r7, r3, r7
 448 0116 07F12803 		add	r3, r7, #40
 449 011a 0593     		str	r3, [sp, #20]
 450 011c 059A     		ldr	r2, [sp, #20]
 451 011e 1DAB     		add	r3, sp, #116
 452 0120 1344     		add	r3, r3, r2
 453 0122 0993     		str	r3, [sp, #36]
 454 0124 009A     		ldr	r2, [sp]
 455 0126 4FEA8903 		lsl	r3, r9, #2
 456 012a 0893     		str	r3, [sp, #32]
 457 012c 2FAF     		add	r7, sp, #188
 458              	.LVL40:
 459 012e 0C23     		movs	r3, #12
 460 0130 1EAD     		add	r5, sp, #120
 461 0132 03FB0272 		mla	r2, r3, r2, r7
 462 0136 0492     		str	r2, [sp, #16]
 463 0138 2E46     		mov	r6, r5
 464              	.LBB72:
ARM GAS  C:\Users\rdn\AppData\Local\Temp\ccYH9vOY.s 			page 22


 465              	.LBB73:
 466              	.LBB74:
 467              	.LBB75:
 137:..\..\..\liblc3\src/tns.c ****         }
 468              		.loc 1 137 0
 469 013a 0B93     		str	r3, [sp, #44]
 470              	.LVL41:
 471              	.L38:
 472              	.LBE75:
 473              	.LBE74:
 131:..\..\..\liblc3\src/tns.c **** 
 474              		.loc 1 131 0
 475 013c 6C22     		movs	r2, #108
 476 013e 0021     		movs	r1, #0
 477 0140 3846     		mov	r0, r7
 478 0142 FFF7FEFF 		bl	memset
 479              	.LVL42:
 480 0146 2246     		mov	r2, r4
 481 0148 CDF80C80 		str	r8, [sp, #12]
 482              	.LBB81:
 133:..\..\..\liblc3\src/tns.c ****             xs = xe, xe = x + *(++sub);
 483              		.loc 1 133 0
 484 014c 0021     		movs	r1, #0
 485              	.LVL43:
 486              	.L34:
 134:..\..\..\liblc3\src/tns.c **** 
 487              		.loc 1 134 0
 488 014e 039B     		ldr	r3, [sp, #12]
 489 0150 53F8044F 		ldr	r4, [r3, #4]!
 490              	.LVL44:
 491 0154 0393     		str	r3, [sp, #12]
 492              	.LVL45:
 493 0156 719B     		ldr	r3, [sp, #452]
 494              	.LVL46:
 495 0158 03EB8404 		add	r4, r3, r4, lsl #2
 496              	.LVL47:
 497              	.LBB80:
 137:..\..\..\liblc3\src/tns.c ****         }
 498              		.loc 1 137 0
 499 015c A01A     		subs	r0, r4, r2
 500 015e 8310     		asrs	r3, r0, #2
 501 0160 0793     		str	r3, [sp, #28]
 502 0162 8B00     		lsls	r3, r1, #2
 503 0164 0693     		str	r3, [sp, #24]
 136:..\..\..\liblc3\src/tns.c ****                 c[k][s] = dot(xs, xs + k, (xe - xs) - k);
 504              		.loc 1 136 0
 505 0166 0023     		movs	r3, #0
 506              	.LVL48:
 507              	.L33:
 508 0168 0798     		ldr	r0, [sp, #28]
 509              	.LBB76:
 510              	.LBB77:
  44:..\..\..\liblc3\src/tns.c **** 
 511              		.loc 1 44 0
 512 016a DFED6B7A 		vldr.32	s15, .L120+4
 513 016e C3EB000E 		rsb	lr, r3, r0
 514 0172 02EB830A 		add	r10, r2, r3, lsl #2
ARM GAS  C:\Users\rdn\AppData\Local\Temp\ccYH9vOY.s 			page 23


 515              	.LVL49:
 516 0176 02EB8E0E 		add	lr, r2, lr, lsl #2
 517              	.LVL50:
 518              	.LBE77:
 519              	.LBE76:
 136:..\..\..\liblc3\src/tns.c ****                 c[k][s] = dot(xs, xs + k, (xe - xs) - k);
 520              		.loc 1 136 0
 521 017a 9446     		mov	ip, r2
 522              	.LVL51:
 523              	.L31:
 524              	.LBB79:
 525              	.LBB78:
  46:..\..\..\liblc3\src/tns.c ****         v += *(a++) * *(b++);
 526              		.loc 1 46 0
 527 017c F445     		cmp	ip, lr
 528 017e 06D0     		beq	.L114
  47:..\..\..\liblc3\src/tns.c **** 
 529              		.loc 1 47 0
 530 0180 FCEC016A 		vldmia.32	ip!, {s13}
 531              	.LVL52:
 532 0184 BAEC017A 		vldmia.32	r10!, {s14}
 533              	.LVL53:
 534 0188 E6EE877A 		vfma.f32	s15, s13, s14
 535              	.LVL54:
 536 018c F6E7     		b	.L31
 537              	.LVL55:
 538              	.L114:
 539              	.LBE78:
 540              	.LBE79:
 137:..\..\..\liblc3\src/tns.c ****         }
 541              		.loc 1 137 0
 542 018e 0B98     		ldr	r0, [sp, #44]
 543 0190 8646     		mov	lr, r0
 544 0192 0698     		ldr	r0, [sp, #24]
 545 0194 0EFB030E 		mla	lr, lr, r3, r0
 546 0198 2FA8     		add	r0, sp, #188
 547 019a 8644     		add	lr, lr, r0
 136:..\..\..\liblc3\src/tns.c ****                 c[k][s] = dot(xs, xs + k, (xe - xs) - k);
 548              		.loc 1 136 0
 549 019c 0098     		ldr	r0, [sp]
 137:..\..\..\liblc3\src/tns.c ****         }
 550              		.loc 1 137 0
 551 019e CEED007A 		vstr.32	s15, [lr]
 136:..\..\..\liblc3\src/tns.c ****                 c[k][s] = dot(xs, xs + k, (xe - xs) - k);
 552              		.loc 1 136 0
 553 01a2 0133     		adds	r3, r3, #1
 554              	.LVL56:
 555 01a4 9842     		cmp	r0, r3
 556 01a6 DFDA     		bge	.L33
 557              	.LBE80:
 133:..\..\..\liblc3\src/tns.c ****             xs = xe, xe = x + *(++sub);
 558              		.loc 1 133 0
 559 01a8 0131     		adds	r1, r1, #1
 560              	.LVL57:
 561 01aa 4945     		cmp	r1, r9
 134:..\..\..\liblc3\src/tns.c **** 
 562              		.loc 1 134 0
ARM GAS  C:\Users\rdn\AppData\Local\Temp\ccYH9vOY.s 			page 24


 563 01ac 2246     		mov	r2, r4
 133:..\..\..\liblc3\src/tns.c ****             xs = xe, xe = x + *(++sub);
 564              		.loc 1 133 0
 565 01ae CED1     		bne	.L34
 566              	.LBE81:
 140:..\..\..\liblc3\src/tns.c ****         if (nsubdivisions == 2) {
 567              		.loc 1 140 0
 568 01b0 07EE909A 		vmov	s15, r9	@ int
 569 01b4 089B     		ldr	r3, [sp, #32]
 570              	.LVL58:
 571 01b6 9DED2F7A 		vldr.32	s14, [sp, #188]
 572 01ba DDED306A 		vldr.32	s13, [sp, #192]
 573 01be F8EEE77A 		vcvt.f32.s32	s15, s15
 141:..\..\..\liblc3\src/tns.c ****             float e0 = c[0][0], e1 = c[0][1];
 574              		.loc 1 141 0
 575 01c2 B9F1020F 		cmp	r9, #2
 576 01c6 9844     		add	r8, r8, r3
 140:..\..\..\liblc3\src/tns.c ****         if (nsubdivisions == 2) {
 577              		.loc 1 140 0
 578 01c8 46ED017A 		vstr.32	s15, [r6, #-4]
 141:..\..\..\liblc3\src/tns.c ****             float e0 = c[0][0], e1 = c[0][1];
 579              		.loc 1 141 0
 580 01cc 36D1     		bne	.L35
 581              	.LVL59:
 582 01ce 534A     		ldr	r2, .L120+8
 583 01d0 3B46     		mov	r3, r7
 584              	.LBB82:
 142:..\..\..\liblc3\src/tns.c ****             for (int k = 1; k <= maxorder; k++)
 585              		.loc 1 142 0
 586 01d2 3146     		mov	r1, r6
 587              	.LVL60:
 588              	.L37:
 589              	.LBB83:
 144:..\..\..\liblc3\src/tns.c ****                   (c[k][0]/e0 + c[k][1]/e1) * lag_window[k];
 590              		.loc 1 144 0
 591 01d4 B5EE407A 		vcmp.f32	s14, #0
 592 01d8 F1EE10FA 		vmrs	APSR_nzcv, FPSCR
 593 01dc 13D0     		beq	.L84
 594 01de F5EE406A 		vcmp.f32	s13, #0
 595 01e2 F1EE10FA 		vmrs	APSR_nzcv, FPSCR
 596 01e6 0ED0     		beq	.L84
 597 01e8 93ED036A 		vldr.32	s12, [r3, #12]
 598 01ec D3ED045A 		vldr.32	s11, [r3, #16]
 599 01f0 C6EE077A 		vdiv.f32	s15, s12, s14
 600 01f4 85EEA66A 		vdiv.f32	s12, s11, s13
 601 01f8 77EE867A 		vadd.f32	s15, s15, s12
 602 01fc 92ED006A 		vldr.32	s12, [r2]
 603 0200 67EE867A 		vmul.f32	s15, s15, s12
 604 0204 01E0     		b	.L36
 605              	.L84:
 606 0206 DFED447A 		vldr.32	s15, .L120+4
 607              	.L36:
 143:..\..\..\liblc3\src/tns.c ****                 r[f][k] = e0 == 0 || e1 == 0 ? 0 :
 608              		.loc 1 143 0
 609 020a 0498     		ldr	r0, [sp, #16]
 144:..\..\..\liblc3\src/tns.c ****                   (c[k][0]/e0 + c[k][1]/e1) * lag_window[k];
 610              		.loc 1 144 0
ARM GAS  C:\Users\rdn\AppData\Local\Temp\ccYH9vOY.s 			page 25


 611 020c E1EC017A 		vstmia.32	r1!, {s15}
 612 0210 0C33     		adds	r3, r3, #12
 143:..\..\..\liblc3\src/tns.c ****                 r[f][k] = e0 == 0 || e1 == 0 ? 0 :
 613              		.loc 1 143 0
 614 0212 9842     		cmp	r0, r3
 615 0214 02F10402 		add	r2, r2, #4
 616 0218 DCD1     		bne	.L37
 617              	.LVL61:
 618              	.L42:
 619              	.LBE83:
 620              	.LBE82:
 621              	.LBE73:
 130:..\..\..\liblc3\src/tns.c ****         float c[9][3] = { 0 };
 622              		.loc 1 130 0
 623 021a 099B     		ldr	r3, [sp, #36]
 624 021c 2436     		adds	r6, r6, #36
 625 021e 9E42     		cmp	r6, r3
 626 0220 8CD1     		bne	.L38
 627 0222 059A     		ldr	r2, [sp, #20]
 628 0224 2FA9     		add	r1, sp, #188
 629 0226 0A44     		add	r2, r2, r1
 630              	.LBE72:
 631              	.LBB87:
 632              	.LBB88:
 163:..\..\..\liblc3\src/tns.c ****         for (int k = 1; k <= maxorder; ) {
 633              		.loc 1 163 0
 634 0228 B7EE005A 		vmov.f32	s10, #1.0e+0
 635 022c 0DF1340E 		add	lr, sp, #52
 636              	.LVL62:
 637 0230 30AB     		add	r3, sp, #192
 638 0232 0392     		str	r2, [sp, #12]
 639              	.LVL63:
 640 0234 F0EE454A 		vmov.f32	s9, s10
 641 0238 10A8     		add	r0, sp, #64
 642 023a 33E0     		b	.L50
 643              	.LVL64:
 644              	.L35:
 645              	.LBE88:
 646              	.LBE87:
 647              	.LBB97:
 648              	.LBB86:
 649              	.LBB84:
 148:..\..\..\liblc3\src/tns.c ****             for (int k = 1; k <= maxorder; k++)
 650              		.loc 1 148 0
 651 023c 9DED316A 		vldr.32	s12, [sp, #196]
 652              	.LVL65:
 653 0240 364A     		ldr	r2, .L120+8
 654 0242 3B46     		mov	r3, r7
 655 0244 3146     		mov	r1, r6
 656              	.LVL66:
 657              	.L41:
 658              	.LBB85:
 150:..\..\..\liblc3\src/tns.c ****                   (c[k][0]/e0 + c[k][1]/e1 + c[k][2]/e2) * lag_window[k];
 659              		.loc 1 150 0
 660 0246 B5EE407A 		vcmp.f32	s14, #0
 661 024a F1EE10FA 		vmrs	APSR_nzcv, FPSCR
 662 024e 1ED0     		beq	.L87
ARM GAS  C:\Users\rdn\AppData\Local\Temp\ccYH9vOY.s 			page 26


 663 0250 F5EE406A 		vcmp.f32	s13, #0
 664 0254 F1EE10FA 		vmrs	APSR_nzcv, FPSCR
 665 0258 19D0     		beq	.L87
 666 025a B5EE406A 		vcmp.f32	s12, #0
 667 025e F1EE10FA 		vmrs	APSR_nzcv, FPSCR
 668 0262 14D0     		beq	.L87
 669 0264 D3ED035A 		vldr.32	s11, [r3, #12]
 670 0268 93ED045A 		vldr.32	s10, [r3, #16]
 671 026c C5EE877A 		vdiv.f32	s15, s11, s14
 672 0270 C5EE265A 		vdiv.f32	s11, s10, s13
 673 0274 93ED055A 		vldr.32	s10, [r3, #20]
 674 0278 77EEA57A 		vadd.f32	s15, s15, s11
 675 027c C5EE065A 		vdiv.f32	s11, s10, s12
 676 0280 77EEA57A 		vadd.f32	s15, s15, s11
 677 0284 D2ED005A 		vldr.32	s11, [r2]
 678 0288 67EEA57A 		vmul.f32	s15, s15, s11
 679 028c 01E0     		b	.L40
 680              	.L87:
 681 028e DFED227A 		vldr.32	s15, .L120+4
 682              	.L40:
 149:..\..\..\liblc3\src/tns.c ****                 r[f][k] = e0 == 0 || e1 == 0 || e2 == 0 ? 0 :
 683              		.loc 1 149 0
 684 0292 0498     		ldr	r0, [sp, #16]
 150:..\..\..\liblc3\src/tns.c ****                   (c[k][0]/e0 + c[k][1]/e1 + c[k][2]/e2) * lag_window[k];
 685              		.loc 1 150 0
 686 0294 E1EC017A 		vstmia.32	r1!, {s15}
 687 0298 0C33     		adds	r3, r3, #12
 149:..\..\..\liblc3\src/tns.c ****                 r[f][k] = e0 == 0 || e1 == 0 || e2 == 0 ? 0 :
 688              		.loc 1 149 0
 689 029a 8342     		cmp	r3, r0
 690 029c 02F10402 		add	r2, r2, #4
 691 02a0 D1D1     		bne	.L41
 692 02a2 BAE7     		b	.L42
 693              	.LVL67:
 694              	.L50:
 695              	.LBE85:
 696              	.LBE84:
 697              	.LBE86:
 698              	.LBE97:
 699              	.LBB98:
 700              	.LBB95:
 159:..\..\..\liblc3\src/tns.c **** 
 701              		.loc 1 159 0
 702 02a4 55ED015A 		vldr.32	s11, [r5, #-4]
 703              	.LVL68:
 163:..\..\..\liblc3\src/tns.c ****         for (int k = 1; k <= maxorder; ) {
 704              		.loc 1 163 0
 705 02a8 03ED015A 		vstr.32	s10, [r3, #-4]
 706              	.LVL69:
 161:..\..\..\liblc3\src/tns.c **** 
 707              		.loc 1 161 0
 708 02ac CEED005A 		vstr.32	s11, [lr]
 709 02b0 11AE     		add	r6, sp, #68
 163:..\..\..\liblc3\src/tns.c ****         for (int k = 1; k <= maxorder; ) {
 710              		.loc 1 163 0
 711 02b2 1A46     		mov	r2, r3
 712 02b4 2946     		mov	r1, r5
ARM GAS  C:\Users\rdn\AppData\Local\Temp\ccYH9vOY.s 			page 27


 159:..\..\..\liblc3\src/tns.c **** 
 713              		.loc 1 159 0
 714 02b6 F0EE657A 		vmov.f32	s15, s11
 715              	.LBB89:
 164:..\..\..\liblc3\src/tns.c **** 
 716              		.loc 1 164 0
 717 02ba 0124     		movs	r4, #1
 718 02bc B7EE006A 		vmov.f32	s12, #1.0e+0
 719              	.LVL70:
 720              	.L49:
 166:..\..\..\liblc3\src/tns.c ****             for (int i = 1; i < k; i++)
 721              		.loc 1 166 0
 722 02c0 91ED007A 		vldr.32	s14, [r1]
 723 02c4 8846     		mov	r8, r1
 724 02c6 B1EE477A 		vneg.f32	s14, s14
 725              	.LVL71:
 726 02ca 9C46     		mov	ip, r3
 727              	.LVL72:
 728              	.L43:
 729              	.LBB90:
 167:..\..\..\liblc3\src/tns.c ****                 rc -= a0[i] * r[f][k-i];
 730              		.loc 1 167 0
 731 02cc 9445     		cmp	ip, r2
 732 02ce 06D0     		beq	.L115
 168:..\..\..\liblc3\src/tns.c **** 
 733              		.loc 1 168 0
 734 02d0 BCEC014A 		vldmia.32	ip!, {s8}
 735 02d4 78ED016A 		vldmdb.32	r8!, {s13}
 736 02d8 A4EE667A 		vfms.f32	s14, s8, s13
 737              	.LVL73:
 738 02dc F6E7     		b	.L43
 739              	.L115:
 740              	.LBE90:
 170:..\..\..\liblc3\src/tns.c ****             err *= 1 - rc * rc;
 741              		.loc 1 170 0
 742 02de C7EE276A 		vdiv.f32	s13, s14, s15
 743              	.LVL74:
 171:..\..\..\liblc3\src/tns.c **** 
 744              		.loc 1 171 0
 745 02e2 8046     		mov	r8, r0
 746 02e4 9246     		mov	r10, r2
 747 02e6 9946     		mov	r9, r3
 748              	.LBB91:
 173:..\..\..\liblc3\src/tns.c ****                 a1[i] = a0[i] + rc * a0[k-i];
 749              		.loc 1 173 0
 750 02e8 4FF0010C 		mov	ip, #1
 751              	.LBE91:
 171:..\..\..\liblc3\src/tns.c **** 
 752              		.loc 1 171 0
 753 02ec B0EE647A 		vmov.f32	s14, s9
 754 02f0 A6EEE67A 		vfms.f32	s14, s13, s13
 755 02f4 67EE277A 		vmul.f32	s15, s14, s15
 756              	.LVL75:
 757              	.L45:
 758              	.LBB92:
 173:..\..\..\liblc3\src/tns.c ****                 a1[i] = a0[i] + rc * a0[k-i];
 759              		.loc 1 173 0
ARM GAS  C:\Users\rdn\AppData\Local\Temp\ccYH9vOY.s 			page 28


 760 02f8 A445     		cmp	ip, r4
 761 02fa 15D0     		beq	.L116
 174:..\..\..\liblc3\src/tns.c ****             a1[k++] = rc;
 762              		.loc 1 174 0
 763 02fc B9EC017A 		vldmia.32	r9!, {s14}
 764 0300 3AED014A 		vldmdb.32	r10!, {s8}
 765 0304 A6EE847A 		vfma.f32	s14, s13, s8
 173:..\..\..\liblc3\src/tns.c ****                 a1[i] = a0[i] + rc * a0[k-i];
 766              		.loc 1 173 0
 767 0308 0CF1010C 		add	ip, ip, #1
 768              	.LVL76:
 174:..\..\..\liblc3\src/tns.c ****             a1[k++] = rc;
 769              		.loc 1 174 0
 770 030c A8EC017A 		vstmia.32	r8!, {s14}
 771 0310 F2E7     		b	.L45
 772              	.L121:
 773 0312 00BF     		.align	2
 774              	.L120:
 775 0314 24000000 		.word	.LANCHOR0+36
 776 0318 00000000 		.word	0
 777 031c 80010000 		.word	.LANCHOR0+384
 778 0320 9899193E 		.word	1041865112
 779 0324 00303D3F 		.word	1060974592
 780              	.L116:
 781              	.LVL77:
 782              	.LBE92:
 177:..\..\..\liblc3\src/tns.c ****             for (int i = 1; i < k; i++)
 783              		.loc 1 177 0
 784 0328 01F1040C 		add	ip, r1, #4
 785              	.LVL78:
 786 032c 9CED007A 		vldr.32	s14, [ip]
 175:..\..\..\liblc3\src/tns.c **** 
 787              		.loc 1 175 0
 788 0330 46ED016A 		vstr.32	s13, [r6, #-4]
 177:..\..\..\liblc3\src/tns.c ****             for (int i = 1; i < k; i++)
 789              		.loc 1 177 0
 790 0334 B1EE477A 		vneg.f32	s14, s14
 791              	.LVL79:
 792 0338 8046     		mov	r8, r0
 793              	.LVL80:
 794              	.L47:
 795              	.LBB93:
 179:..\..\..\liblc3\src/tns.c **** 
 796              		.loc 1 179 0
 797 033a 7CED016A 		vldmdb.32	ip!, {s13}
 798 033e B8EC014A 		vldmia.32	r8!, {s8}
 178:..\..\..\liblc3\src/tns.c ****                 rc -= a1[i] * r[f][k-i];
 799              		.loc 1 178 0
 800 0342 AC45     		cmp	ip, r5
 179:..\..\..\liblc3\src/tns.c **** 
 801              		.loc 1 179 0
 802 0344 A4EE667A 		vfms.f32	s14, s8, s13
 803              	.LVL81:
 178:..\..\..\liblc3\src/tns.c ****                 rc -= a1[i] * r[f][k-i];
 804              		.loc 1 178 0
 805 0348 F7D1     		bne	.L47
 806              	.LBE93:
ARM GAS  C:\Users\rdn\AppData\Local\Temp\ccYH9vOY.s 			page 29


 181:..\..\..\liblc3\src/tns.c ****             err *= 1 - rc * rc;
 807              		.loc 1 181 0
 808 034a C7EE276A 		vdiv.f32	s13, s14, s15
 809              	.LVL82:
 182:..\..\..\liblc3\src/tns.c **** 
 810              		.loc 1 182 0
 811 034e 9846     		mov	r8, r3
 812 0350 B446     		mov	ip, r6
 813 0352 8146     		mov	r9, r0
 814 0354 B0EE647A 		vmov.f32	s14, s9
 815 0358 A6EEE67A 		vfms.f32	s14, s13, s13
 816 035c 67EE277A 		vmul.f32	s15, s14, s15
 817              	.LVL83:
 818              	.L48:
 819              	.LBB94:
 185:..\..\..\liblc3\src/tns.c ****             a0[k++] = rc;
 820              		.loc 1 185 0
 821 0360 3CED014A 		vldmdb.32	ip!, {s8}
 822 0364 B9EC017A 		vldmia.32	r9!, {s14}
 823 0368 A6EE847A 		vfma.f32	s14, s13, s8
 184:..\..\..\liblc3\src/tns.c ****                 a0[i] = a1[i] + rc * a1[k-i];
 824              		.loc 1 184 0
 825 036c 8445     		cmp	ip, r0
 185:..\..\..\liblc3\src/tns.c ****             a0[k++] = rc;
 826              		.loc 1 185 0
 827 036e A8EC017A 		vstmia.32	r8!, {s14}
 184:..\..\..\liblc3\src/tns.c ****                 a0[i] = a1[i] + rc * a1[k-i];
 828              		.loc 1 184 0
 829 0372 F5D1     		bne	.L48
 830              	.LBE94:
 164:..\..\..\liblc3\src/tns.c **** 
 831              		.loc 1 164 0
 832 0374 009F     		ldr	r7, [sp]
 186:..\..\..\liblc3\src/tns.c ****         }
 833              		.loc 1 186 0
 834 0376 C2ED016A 		vstr.32	s13, [r2, #4]
 835 037a 0234     		adds	r4, r4, #2
 836              	.LVL84:
 164:..\..\..\liblc3\src/tns.c **** 
 837              		.loc 1 164 0
 838 037c A742     		cmp	r7, r4
 839 037e 01F10801 		add	r1, r1, #8
 840 0382 06F10806 		add	r6, r6, #8
 841 0386 02F10802 		add	r2, r2, #8
 842 038a 99DA     		bge	.L49
 843              	.LBE89:
 189:..\..\..\liblc3\src/tns.c ****     }
 844              		.loc 1 189 0
 845 038c 85EEA77A 		vdiv.f32	s14, s11, s15
 846              	.LBE95:
 157:..\..\..\liblc3\src/tns.c ****         float *a0 = a[f], a1[9];
 847              		.loc 1 157 0
 848 0390 039A     		ldr	r2, [sp, #12]
 849 0392 2433     		adds	r3, r3, #36
 850 0394 9A42     		cmp	r2, r3
 851 0396 05F12405 		add	r5, r5, #36
 852              	.LVL85:
ARM GAS  C:\Users\rdn\AppData\Local\Temp\ccYH9vOY.s 			page 30


 853              	.LBB96:
 189:..\..\..\liblc3\src/tns.c ****     }
 854              		.loc 1 189 0
 855 039a AEEC017A 		vstmia.32	lr!, {s14}
 856              	.LVL86:
 857              	.LBE96:
 157:..\..\..\liblc3\src/tns.c ****         float *a0 = a[f], a1[9];
 858              		.loc 1 157 0
 859 039e 81D1     		bne	.L50
 860              	.LBE98:
 861              	.LBE100:
 862              	.LBE102:
 863              	.LBB103:
 864              	.LBB104:
 865              	.LBB105:
 216:..\..\..\liblc3\src/tns.c ****     e = 1 - rc[maxorder-1] * rc[maxorder-1];
 866              		.loc 1 216 0
 867 03a0 07F18043 		add	r3, r7, #1073741824
 868 03a4 013B     		subs	r3, r3, #1
 869 03a6 4FEA8309 		lsl	r9, r3, #2
 870 03aa 09F10403 		add	r3, r9, #4
 871 03ae 0593     		str	r3, [sp, #20]
 872 03b0 709B     		ldr	r3, [sp, #448]
 873 03b2 03F11007 		add	r7, r3, #16
 874 03b6 1E1D     		adds	r6, r3, #4
 875 03b8 009B     		ldr	r3, [sp]
 876 03ba 023B     		subs	r3, r3, #2
 877 03bc 9B00     		lsls	r3, r3, #2
 878 03be 1DAC     		add	r4, sp, #116
 879              	.LVL87:
 880 03c0 2FAD     		add	r5, sp, #188
 881              	.LVL88:
 882 03c2 0693     		str	r3, [sp, #24]
 883              	.LBE105:
 884              	.LBE104:
 403:..\..\..\liblc3\src/tns.c **** 
 404:..\..\..\liblc3\src/tns.c ****     compute_lpc_coeffs(dt, bw, maxorder, x, pred_gain, a);
 405:..\..\..\liblc3\src/tns.c **** 
 406:..\..\..\liblc3\src/tns.c ****     for (int f = 0; f < data->nfilters; f++) {
 885              		.loc 1 406 0
 886 03c4 4FF0000A 		mov	r10, #0
 887              	.LVL89:
 888              	.L51:
 889              		.loc 1 406 0 is_stmt 0 discriminator 1
 890 03c8 709B     		ldr	r3, [sp, #448]
 891 03ca 1B68     		ldr	r3, [r3]
 892 03cc 9A45     		cmp	r10, r3
 893 03ce 80F2D580 		bge	.L117
 407:..\..\..\liblc3\src/tns.c **** 
 408:..\..\..\liblc3\src/tns.c ****         data->rc_order[f] = 0;
 894              		.loc 1 408 0 is_stmt 1
 895 03d2 0023     		movs	r3, #0
 896 03d4 46F8043F 		str	r3, [r6, #4]!
 409:..\..\..\liblc3\src/tns.c ****         if (nn_flag || pred_gain[f] <= 1.5f)
 897              		.loc 1 409 0
 898 03d8 0A9B     		ldr	r3, [sp, #40]
 899 03da 002B     		cmp	r3, #0
ARM GAS  C:\Users\rdn\AppData\Local\Temp\ccYH9vOY.s 			page 31


 900 03dc 40F0C880 		bne	.L52
 901              		.loc 1 409 0 is_stmt 0 discriminator 1
 902 03e0 0DAB     		add	r3, sp, #52
 903              	.LVL90:
 904 03e2 03EB8A03 		add	r3, r3, r10, lsl #2
 905              	.LVL91:
 906 03e6 D3ED007A 		vldr.32	s15, [r3]
 907 03ea B7EE087A 		vmov.f32	s14, #1.5e+0
 908 03ee F4EEC77A 		vcmpe.f32	s15, s14
 909 03f2 F1EE10FA 		vmrs	APSR_nzcv, FPSCR
 910 03f6 40F2BB80 		bls	.L52
 410:..\..\..\liblc3\src/tns.c ****             continue;
 411:..\..\..\liblc3\src/tns.c **** 
 412:..\..\..\liblc3\src/tns.c ****         if (data->lpc_weighting && pred_gain[f] < 2.f)
 911              		.loc 1 412 0 is_stmt 1
 912 03fa 709B     		ldr	r3, [sp, #448]
 913 03fc 1B79     		ldrb	r3, [r3, #4]	@ zero_extendqisi2
 914 03fe 8BB9     		cbnz	r3, .L53
 915              	.L55:
 916              	.LVL92:
 917              	.LBB112:
 918              	.LBB110:
 216:..\..\..\liblc3\src/tns.c ****     e = 1 - rc[maxorder-1] * rc[maxorder-1];
 919              		.loc 1 216 0
 920 0400 059B     		ldr	r3, [sp, #20]
 921 0402 EA18     		adds	r2, r5, r3
 922 0404 D2ED007A 		vldr.32	s15, [r2]
 923 0408 04EB0903 		add	r3, r4, r9
 217:..\..\..\liblc3\src/tns.c **** 
 924              		.loc 1 217 0
 925 040c B1EE677A 		vneg.f32	s14, s15
 926 0410 F0EE466A 		vmov.f32	s13, s12
 216:..\..\..\liblc3\src/tns.c ****     e = 1 - rc[maxorder-1] * rc[maxorder-1];
 927              		.loc 1 216 0
 928 0414 C3ED007A 		vstr.32	s15, [r3]
 217:..\..\..\liblc3\src/tns.c **** 
 929              		.loc 1 217 0
 930 0418 E7EE276A 		vfma.f32	s13, s14, s15
 931              	.LVL93:
 932 041c 2B1D     		adds	r3, r5, #4
 933 041e 16A9     		add	r1, sp, #88
 934              	.LVL94:
 935 0420 1046     		mov	r0, r2
 936 0422 20E0     		b	.L54
 937              	.LVL95:
 938              	.L53:
 939              	.LBE110:
 940              	.LBE112:
 941              		.loc 1 412 0 discriminator 1
 942 0424 B0EE007A 		vmov.f32	s14, #2.0e+0
 943 0428 F4EEC77A 		vcmpe.f32	s15, s14
 944 042c F1EE10FA 		vmrs	APSR_nzcv, FPSCR
 945 0430 E6D5     		bpl	.L55
 946              	.LVL96:
 947              	.LBB113:
 948              	.LBB114:
 199:..\..\..\liblc3\src/tns.c ****     float g = 1.f;
ARM GAS  C:\Users\rdn\AppData\Local\Temp\ccYH9vOY.s 			page 32


 949              		.loc 1 199 0
 950 0432 77EE677A 		vsub.f32	s15, s14, s15
 951              	.LVL97:
 952 0436 5FED466A 		vldr.32	s13, .L120+12
 953 043a 66EEE77A 		vnmul.f32	s15, s13, s15
 954 043e F0EE466A 		vmov.f32	s13, s12
 955 0442 E7EE876A 		vfma.f32	s13, s15, s14
 956              	.LVL98:
 957 0446 2B1D     		adds	r3, r5, #4
 958 0448 05F12402 		add	r2, r5, #36
 200:..\..\..\liblc3\src/tns.c **** 
 959              		.loc 1 200 0
 960 044c B7EE007A 		vmov.f32	s14, #1.0e+0
 961              	.LVL99:
 962              	.L57:
 963              	.LBB115:
 203:..\..\..\liblc3\src/tns.c **** }
 964              		.loc 1 203 0
 965 0450 D3ED007A 		vldr.32	s15, [r3]
 966 0454 27EE267A 		vmul.f32	s14, s14, s13
 967              	.LVL100:
 968 0458 67EE877A 		vmul.f32	s15, s15, s14
 969 045c E3EC017A 		vstmia.32	r3!, {s15}
 202:..\..\..\liblc3\src/tns.c ****         a[i] *= (g *= gamma);
 970              		.loc 1 202 0
 971 0460 9342     		cmp	r3, r2
 972 0462 F5D1     		bne	.L57
 973 0464 CCE7     		b	.L55
 974              	.LVL101:
 975              	.L54:
 976              	.LBE115:
 977              	.LBE114:
 978              	.LBE113:
 979              	.LBB116:
 980              	.LBB111:
 981              	.LBB106:
 220:..\..\..\liblc3\src/tns.c ****         b1[i] = (a[1+i] - rc[maxorder-1] * a[(maxorder-1)-i]) / e;
 982              		.loc 1 220 0
 983 0466 9A42     		cmp	r2, r3
 984 0468 0AD0     		beq	.L118
 221:..\..\..\liblc3\src/tns.c **** 
 985              		.loc 1 221 0
 986 046a 70ED015A 		vldmdb.32	r0!, {s11}
 987 046e F3EC017A 		vldmia.32	r3!, {s15}
 988 0472 E7EE257A 		vfma.f32	s15, s14, s11
 989 0476 C7EEA65A 		vdiv.f32	s11, s15, s13
 990 047a E1EC015A 		vstmia.32	r1!, {s11}
 991 047e F2E7     		b	.L54
 992              	.L118:
 993              	.LBE106:
 994              	.LBB107:
 223:..\..\..\liblc3\src/tns.c ****         b0 = b1, b1 = b[k & 1];
 995              		.loc 1 223 0
 996 0480 009B     		ldr	r3, [sp]
 997 0482 DDF818E0 		ldr	lr, [sp, #24]
 998 0486 991E     		subs	r1, r3, #2
 999              	.LVL102:
ARM GAS  C:\Users\rdn\AppData\Local\Temp\ccYH9vOY.s 			page 33


 1000 0488 09EB0408 		add	r8, r9, r4
 1001              	.LBE107:
 219:..\..\..\liblc3\src/tns.c ****     for (int i = 0; i < maxorder-1; i++)
 1002              		.loc 1 219 0
 1003 048c 16AB     		add	r3, sp, #88
 1004              	.LVL103:
 1005              	.L60:
 1006              	.LBB109:
 224:..\..\..\liblc3\src/tns.c **** 
 1007              		.loc 1 224 0
 1008 048e 1C20     		movs	r0, #28
 1009 0490 0DF13C0C 		add	ip, sp, #60
 1010 0494 01F00102 		and	r2, r1, #1
 1011 0498 00FB02C2 		mla	r2, r0, r2, ip
 1012              	.LVL104:
 226:..\..\..\liblc3\src/tns.c ****         e = 1 - rc[k] * rc[k];
 1013              		.loc 1 226 0
 1014 049c 03EB0E00 		add	r0, r3, lr
 1015 04a0 D0ED007A 		vldr.32	s15, [r0]
 1016 04a4 0393     		str	r3, [sp, #12]
 227:..\..\..\liblc3\src/tns.c **** 
 1017              		.loc 1 227 0
 1018 04a6 B1EE677A 		vneg.f32	s14, s15
 1019 04aa F0EE465A 		vmov.f32	s11, s12
 1020 04ae E7EE275A 		vfma.f32	s11, s14, s15
 1021              	.LVL105:
 1022 04b2 0490     		str	r0, [sp, #16]
 1023 04b4 1346     		mov	r3, r2
 1024              	.LVL106:
 226:..\..\..\liblc3\src/tns.c ****         e = 1 - rc[k] * rc[k];
 1025              		.loc 1 226 0
 1026 04b6 68ED017A 		vstmdb.32	r8!, {s15}
 1027              	.LBB108:
 229:..\..\..\liblc3\src/tns.c ****             b1[i] = (b0[i] - rc[k] * b0[k-1-i]) / e;
 1028              		.loc 1 229 0
 1029 04ba 4FF0000C 		mov	ip, #0
 1030              	.LVL107:
 1031              	.L59:
 230:..\..\..\liblc3\src/tns.c ****     }
 1032              		.loc 1 230 0
 1033 04be 0398     		ldr	r0, [sp, #12]
 1034 04c0 F0EC017A 		vldmia.32	r0!, {s15}
 1035 04c4 0390     		str	r0, [sp, #12]
 1036 04c6 0498     		ldr	r0, [sp, #16]
 1037 04c8 70ED016A 		vldmdb.32	r0!, {s13}
 1038 04cc E7EE267A 		vfma.f32	s15, s14, s13
 229:..\..\..\liblc3\src/tns.c ****             b1[i] = (b0[i] - rc[k] * b0[k-1-i]) / e;
 1039              		.loc 1 229 0
 1040 04d0 0CF1010C 		add	ip, ip, #1
 1041              	.LVL108:
 1042 04d4 8C45     		cmp	ip, r1
 230:..\..\..\liblc3\src/tns.c ****     }
 1043              		.loc 1 230 0
 1044 04d6 0490     		str	r0, [sp, #16]
 1045 04d8 C7EEA56A 		vdiv.f32	s13, s15, s11
 1046 04dc E3EC016A 		vstmia.32	r3!, {s13}
 229:..\..\..\liblc3\src/tns.c ****             b1[i] = (b0[i] - rc[k] * b0[k-1-i]) / e;
ARM GAS  C:\Users\rdn\AppData\Local\Temp\ccYH9vOY.s 			page 34


 1047              		.loc 1 229 0
 1048 04e0 EDDB     		blt	.L59
 1049              	.LVL109:
 1050              	.LBE108:
 223:..\..\..\liblc3\src/tns.c ****         b0 = b1, b1 = b[k & 1];
 1051              		.loc 1 223 0
 1052 04e2 0139     		subs	r1, r1, #1
 1053              	.LVL110:
 1054 04e4 AEF1040E 		sub	lr, lr, #4
 224:..\..\..\liblc3\src/tns.c **** 
 1055              		.loc 1 224 0
 1056 04e8 1346     		mov	r3, r2
 223:..\..\..\liblc3\src/tns.c ****         b0 = b1, b1 = b[k & 1];
 1057              		.loc 1 223 0
 1058 04ea D0D1     		bne	.L60
 1059              	.LBE109:
 233:..\..\..\liblc3\src/tns.c **** }
 1060              		.loc 1 233 0
 1061 04ec 1368     		ldr	r3, [r2]	@ float
 1062 04ee 2360     		str	r3, [r4]	@ float
 1063              	.LVL111:
 1064              	.LBE111:
 1065              	.LBE116:
 1066              	.LBB117:
 1067              	.LBB118:
 252:..\..\..\liblc3\src/tns.c **** 
 1068              		.loc 1 252 0
 1069 04f0 009B     		ldr	r3, [sp]
 1070 04f2 3360     		str	r3, [r6]
 1071              	.LVL112:
 1072 04f4 059B     		ldr	r3, [sp, #20]
 1073              	.LBB119:
 1074              	.LBB120:
 257:..\..\..\liblc3\src/tns.c ****         for (int j = 0; j < 4 && rc_m >= q_thr[rc_q[i]]; j++, rc_q[i]++);
 1075              		.loc 1 257 0
 1076 04f6 5FED756A 		vldr.32	s13, .L120+16
 1077 04fa 07EB030E 		add	lr, r7, r3
 1078              	.LBE120:
 1079              	.LBE119:
 252:..\..\..\liblc3\src/tns.c **** 
 1080              		.loc 1 252 0
 1081 04fe 2046     		mov	r0, r4
 1082 0500 3B46     		mov	r3, r7
 1083              	.LVL113:
 1084              	.L69:
 1085              	.LBB123:
 1086              	.LBB122:
 255:..\..\..\liblc3\src/tns.c **** 
 1087              		.loc 1 255 0
 1088 0502 F0EC017A 		vldmia.32	r0!, {s15}
 1089 0506 B0EEE77A 		vabs.f32	s14, s15
 1090              	.LVL114:
 257:..\..\..\liblc3\src/tns.c ****         for (int j = 0; j < 4 && rc_m >= q_thr[rc_q[i]]; j++, rc_q[i]++);
 1091              		.loc 1 257 0
 1092 050a B4EEE67A 		vcmpe.f32	s14, s13
 1093 050e F1EE10FA 		vmrs	APSR_nzcv, FPSCR
 1094 0512 ACBF     		ite	ge
ARM GAS  C:\Users\rdn\AppData\Local\Temp\ccYH9vOY.s 			page 35


 1095 0514 0422     		movge	r2, #4
 1096 0516 0022     		movlt	r2, #0
 1097 0518 1A60     		str	r2, [r3]
 1098              	.LVL115:
 1099 051a 0422     		movs	r2, #4
 1100 051c 9C46     		mov	ip, r3
 1101 051e 0392     		str	r2, [sp, #12]
 1102              	.LVL116:
 1103              	.L63:
 1104              	.LBB121:
 258:..\..\..\liblc3\src/tns.c **** 
 1105              		.loc 1 258 0
 1106 0520 1A68     		ldr	r2, [r3]
 1107 0522 3F49     		ldr	r1, .L122
 1108 0524 01EB8208 		add	r8, r1, r2, lsl #2
 1109 0528 D8ED685A 		vldr.32	s11, [r8, #416]
 1110 052c B4EEE57A 		vcmpe.f32	s14, s11
 1111 0530 F1EE10FA 		vmrs	APSR_nzcv, FPSCR
 1112 0534 05DB     		blt	.L67
 1113              	.LVL117:
 1114 0536 0132     		adds	r2, r2, #1
 1115 0538 1A60     		str	r2, [r3]
 1116 053a 039A     		ldr	r2, [sp, #12]
 1117 053c 013A     		subs	r2, r2, #1
 1118 053e 0392     		str	r2, [sp, #12]
 1119              	.LVL118:
 1120 0540 EED1     		bne	.L63
 1121              	.LVL119:
 1122              	.L67:
 1123              	.LBE121:
 260:..\..\..\liblc3\src/tns.c ****             rc_q[i] = -rc_q[i];
 1124              		.loc 1 260 0
 1125 0542 F5EEC07A 		vcmpe.f32	s15, #0
 1126 0546 F1EE10FA 		vmrs	APSR_nzcv, FPSCR
 1127 054a 02D5     		bpl	.L65
 261:..\..\..\liblc3\src/tns.c **** 
 1128              		.loc 1 261 0
 1129 054c 1A68     		ldr	r2, [r3]
 1130 054e 5242     		negs	r2, r2
 1131 0550 1A60     		str	r2, [r3]
 1132              	.L65:
 263:..\..\..\liblc3\src/tns.c ****     }
 1133              		.loc 1 263 0
 1134 0552 DCF80020 		ldr	r2, [ip]
 1135 0556 0433     		adds	r3, r3, #4
 1136 0558 12B9     		cbnz	r2, .L89
 1137 055a 3168     		ldr	r1, [r6]
 1138 055c 0139     		subs	r1, r1, #1
 1139 055e 00E0     		b	.L68
 1140              	.L89:
 1141 0560 0099     		ldr	r1, [sp]
 1142              	.L68:
 1143 0562 3160     		str	r1, [r6]
 1144              	.LBE122:
 254:..\..\..\liblc3\src/tns.c ****         float rc_m = fabsf(rc[i]);
 1145              		.loc 1 254 0
 1146 0564 7345     		cmp	r3, lr
ARM GAS  C:\Users\rdn\AppData\Local\Temp\ccYH9vOY.s 			page 36


 1147 0566 CCD1     		bne	.L69
 1148              	.LVL120:
 1149              	.LBE123:
 1150              	.LBE118:
 1151              	.LBE117:
 413:..\..\..\liblc3\src/tns.c ****             lpc_weighting(pred_gain[f], a[f]);
 414:..\..\..\liblc3\src/tns.c **** 
 415:..\..\..\liblc3\src/tns.c ****         lpc_reflection(a[f], maxorder, rc[f]);
 416:..\..\..\liblc3\src/tns.c **** 
 417:..\..\..\liblc3\src/tns.c ****         quantize_rc(rc[f], maxorder, &data->rc_order[f], data->rc[f]);
 418:..\..\..\liblc3\src/tns.c ****         unquantize_rc(data->rc[f], data->rc_order[f], rc[f]);
 1152              		.loc 1 418 0
 1153 0568 2246     		mov	r2, r4
 1154 056a 3846     		mov	r0, r7
 1155 056c FFF7FEFF 		bl	unquantize_rc
 1156              	.LVL121:
 1157              	.L52:
 406:..\..\..\liblc3\src/tns.c **** 
 1158              		.loc 1 406 0 discriminator 2
 1159 0570 0AF1010A 		add	r10, r10, #1
 1160              	.LVL122:
 1161 0574 2037     		adds	r7, r7, #32
 1162 0576 2034     		adds	r4, r4, #32
 1163 0578 2435     		adds	r5, r5, #36
 1164 057a 25E7     		b	.L51
 1165              	.L117:
 1166              	.LBE103:
 419:..\..\..\liblc3\src/tns.c ****     }
 420:..\..\..\liblc3\src/tns.c **** 
 421:..\..\..\liblc3\src/tns.c ****     forward_filtering(dt, bw, data->rc_order, rc, x);
 1167              		.loc 1 421 0
 1168 057c 709B     		ldr	r3, [sp, #448]
 1169 057e 03F10806 		add	r6, r3, #8
 1170              	.LVL123:
 1171              	.LBB124:
 1172              	.LBB125:
 305:..\..\..\liblc3\src/tns.c ****     int nf = lc3_ne(dt, (enum lc3_srate)LC3_MIN(bw, LC3_BANDWIDTH_FB))
 1173              		.loc 1 305 0
 1174 0582 BBF1000F 		cmp	fp, #0
 1175 0586 05D0     		beq	.L90
 1176 0588 019B     		ldr	r3, [sp, #4]
 1177 058a 022B     		cmp	r3, #2
 1178 058c 94BF     		ite	ls
 1179 058e 0027     		movls	r7, #0
 1180 0590 0127     		movhi	r7, #1
 1181 0592 00E0     		b	.L71
 1182              	.L90:
 1183 0594 5F46     		mov	r7, fp
 1184              	.L71:
 1185              	.LVL124:
 1186              	.LBB126:
 1187              	.LBB127:
 1188              		.file 3 "..\\..\\..\\liblc3\\src\\tables.h"
   1:..\..\..\liblc3\src/tables.h **** /******************************************************************************
   2:..\..\..\liblc3\src/tables.h ****  *
   3:..\..\..\liblc3\src/tables.h ****  *  Copyright 2022 Google LLC
   4:..\..\..\liblc3\src/tables.h ****  *
ARM GAS  C:\Users\rdn\AppData\Local\Temp\ccYH9vOY.s 			page 37


   5:..\..\..\liblc3\src/tables.h ****  *  Licensed under the Apache License, Version 2.0 (the "License");
   6:..\..\..\liblc3\src/tables.h ****  *  you may not use this file except in compliance with the License.
   7:..\..\..\liblc3\src/tables.h ****  *  You may obtain a copy of the License at:
   8:..\..\..\liblc3\src/tables.h ****  *
   9:..\..\..\liblc3\src/tables.h ****  *  http://www.apache.org/licenses/LICENSE-2.0
  10:..\..\..\liblc3\src/tables.h ****  *
  11:..\..\..\liblc3\src/tables.h ****  *  Unless required by applicable law or agreed to in writing, software
  12:..\..\..\liblc3\src/tables.h ****  *  distributed under the License is distributed on an "AS IS" BASIS,
  13:..\..\..\liblc3\src/tables.h ****  *  WITHOUT WARRANTIES OR CONDITIONS OF ANY KIND, either express or implied.
  14:..\..\..\liblc3\src/tables.h ****  *  See the License for the specific language governing permissions and
  15:..\..\..\liblc3\src/tables.h ****  *  limitations under the License.
  16:..\..\..\liblc3\src/tables.h ****  *
  17:..\..\..\liblc3\src/tables.h ****  ******************************************************************************/
  18:..\..\..\liblc3\src/tables.h **** 
  19:..\..\..\liblc3\src/tables.h **** #ifndef __LC3_TABLES_H
  20:..\..\..\liblc3\src/tables.h **** #define __LC3_TABLES_H
  21:..\..\..\liblc3\src/tables.h **** 
  22:..\..\..\liblc3\src/tables.h **** #include "common.h"
  23:..\..\..\liblc3\src/tables.h **** #include "bits.h"
  24:..\..\..\liblc3\src/tables.h **** 
  25:..\..\..\liblc3\src/tables.h **** 
  26:..\..\..\liblc3\src/tables.h **** /**
  27:..\..\..\liblc3\src/tables.h ****  * Characteristics
  28:..\..\..\liblc3\src/tables.h ****  *
  29:..\..\..\liblc3\src/tables.h ****  *   ns   Number of temporal samples / frequency coefficients within a frame
  30:..\..\..\liblc3\src/tables.h ****  *
  31:..\..\..\liblc3\src/tables.h ****  *   ne   Number of encoded frequency coefficients
  32:..\..\..\liblc3\src/tables.h ****  *
  33:..\..\..\liblc3\src/tables.h ****  *   nd   Number of MDCT delayed samples, sum of half a frame and an ovelap
  34:..\..\..\liblc3\src/tables.h ****  *        of future by 1.25 ms (2.5ms, 5ms and 10ms frame durations),
  35:..\..\..\liblc3\src/tables.h ****  *        or 2 ms (7.5ms frame duration).
  36:..\..\..\liblc3\src/tables.h ****  *
  37:..\..\..\liblc3\src/tables.h ****  *   nh   Number of 18 ms samples of the history buffer, aligned on a frame
  38:..\..\..\liblc3\src/tables.h ****  *
  39:..\..\..\liblc3\src/tables.h ****  *   nt   Number of 1.25 ms previous samples
  40:..\..\..\liblc3\src/tables.h ****  */
  41:..\..\..\liblc3\src/tables.h **** 
  42:..\..\..\liblc3\src/tables.h **** extern const int lc3_ns_2m5[LC3_NUM_SRATE];
  43:..\..\..\liblc3\src/tables.h **** extern const int lc3_ne_2m5[LC3_NUM_SRATE];
  44:..\..\..\liblc3\src/tables.h **** extern const int lc3_ns_4m [LC3_NUM_SRATE];
  45:..\..\..\liblc3\src/tables.h **** 
  46:..\..\..\liblc3\src/tables.h **** static inline int lc3_ns(enum lc3_dt dt, enum lc3_srate sr) {
  47:..\..\..\liblc3\src/tables.h ****     return lc3_ns_2m5[sr] * (1 + dt);
  48:..\..\..\liblc3\src/tables.h **** }
  49:..\..\..\liblc3\src/tables.h **** 
  50:..\..\..\liblc3\src/tables.h **** static inline int lc3_ne(enum lc3_dt dt, enum lc3_srate sr) {
  51:..\..\..\liblc3\src/tables.h ****     return lc3_ne_2m5[sr] * (1 + dt);
 1189              		.loc 3 51 0
 1190 0596 019B     		ldr	r3, [sp, #4]
 1191              	.LBE127:
 1192              	.LBE126:
 306:..\..\..\liblc3\src/tns.c ****                 >> (nfilters - 1);
 1193              		.loc 1 306 0
 1194 0598 224A     		ldr	r2, .L122+4
 1195              	.LBB129:
 1196              	.LBB128:
 1197              		.loc 3 51 0
ARM GAS  C:\Users\rdn\AppData\Local\Temp\ccYH9vOY.s 			page 38


 1198 059a 042B     		cmp	r3, #4
 1199 059c 28BF     		it	cs
 1200 059e 0423     		movcs	r3, #4
 1201              	.LBE128:
 1202              	.LBE129:
 310:..\..\..\liblc3\src/tns.c **** 
 1203              		.loc 1 310 0
 1204 05a0 0021     		movs	r1, #0
 306:..\..\..\liblc3\src/tns.c ****                 >> (nfilters - 1);
 1205              		.loc 1 306 0
 1206 05a2 52F82340 		ldr	r4, [r2, r3, lsl #2]
 1207 05a6 029B     		ldr	r3, [sp, #8]
 1208 05a8 5C43     		muls	r4, r3, r4
 310:..\..\..\liblc3\src/tns.c **** 
 1209              		.loc 1 310 0
 1210 05aa 2022     		movs	r2, #32
 306:..\..\..\liblc3\src/tns.c ****                 >> (nfilters - 1);
 1211              		.loc 1 306 0
 1212 05ac 3C41     		asrs	r4, r4, r7
 1213              	.LVL125:
 310:..\..\..\liblc3\src/tns.c **** 
 1214              		.loc 1 310 0
 1215 05ae 0FA8     		add	r0, sp, #60
 308:..\..\..\liblc3\src/tns.c **** 
 1216              		.loc 1 308 0
 1217 05b0 03EB4305 		add	r5, r3, r3, lsl #1
 1218              	.LVL126:
 310:..\..\..\liblc3\src/tns.c **** 
 1219              		.loc 1 310 0
 1220 05b4 FFF7FEFF 		bl	memset
 1221              	.LVL127:
 1222 05b8 2246     		mov	r2, r4
 1223 05ba 0023     		movs	r3, #0
 1224              	.LVL128:
 1225              	.L74:
 1226              	.LBB130:
 317:..\..\..\liblc3\src/tns.c ****             continue;
 1227              		.loc 1 317 0
 1228 05bc 56F823C0 		ldr	ip, [r6, r3, lsl #2]
 315:..\..\..\liblc3\src/tns.c **** 
 1229              		.loc 1 315 0
 1230 05c0 9146     		mov	r9, r2
 1231              	.LVL129:
 317:..\..\..\liblc3\src/tns.c ****             continue;
 1232              		.loc 1 317 0
 1233 05c2 BCF1000F 		cmp	ip, #0
 1234 05c6 06D0     		beq	.L72
 1235 05c8 7199     		ldr	r1, [sp, #452]
 1236 05ca 1DA8     		add	r0, sp, #116
 1237              	.LVL130:
 1238 05cc 01EB8501 		add	r1, r1, r5, lsl #2
 1239 05d0 00EB431A 		add	r10, r0, r3, lsl #5
 1240 05d4 0AE0     		b	.L73
 1241              	.LVL131:
 1242              	.L72:
 1243 05d6 0133     		adds	r3, r3, #1
 1244              	.LVL132:
ARM GAS  C:\Users\rdn\AppData\Local\Temp\ccYH9vOY.s 			page 39


 312:..\..\..\liblc3\src/tns.c **** 
 1245              		.loc 1 312 0
 1246 05d8 9F42     		cmp	r7, r3
 1247 05da 2244     		add	r2, r2, r4
 1248              	.LVL133:
 315:..\..\..\liblc3\src/tns.c **** 
 1249              		.loc 1 315 0
 1250 05dc 4D46     		mov	r5, r9
 312:..\..\..\liblc3\src/tns.c **** 
 1251              		.loc 1 312 0
 1252 05de EDDA     		bge	.L74
 1253              	.LVL134:
 1254              	.LBE130:
 1255              	.LBE125:
 1256              	.LBE124:
 422:..\..\..\liblc3\src/tns.c **** }
 1257              		.loc 1 422 0
 1258 05e0 67B0     		add	sp, sp, #412
 1259              		.cfi_remember_state
 1260              		.cfi_def_cfa_offset 36
 1261              	.LVL135:
 1262              		@ sp needed
 1263 05e2 BDE8F08F 		pop	{r4, r5, r6, r7, r8, r9, r10, fp, pc}
 1264              	.LVL136:
 1265              	.L119:
 1266              		.cfi_restore_state
 1267              	.LBB137:
 1268              	.LBB136:
 1269              	.LBB135:
 1270              	.LBB131:
 1271              	.LBB132:
 332:..\..\..\liblc3\src/tns.c ****         }
 1272              		.loc 1 332 0
 1273 05e6 E1EC017A 		vstmia.32	r1!, {s15}
 1274              	.LBE132:
 320:..\..\..\liblc3\src/tns.c ****             float xi = x[i];
 1275              		.loc 1 320 0
 1276 05ea 0135     		adds	r5, r5, #1
 1277              	.LVL137:
 1278              	.L73:
 1279 05ec AA42     		cmp	r2, r5
 1280 05ee F2DD     		ble	.L72
 1281              	.LBB134:
 321:..\..\..\liblc3\src/tns.c ****             float s0, s1 = xi;
 1282              		.loc 1 321 0
 1283 05f0 91ED007A 		vldr.32	s14, [r1]
 1284              	.LVL138:
 1285 05f4 0DF13C0E 		add	lr, sp, #60
 1286 05f8 D046     		mov	r8, r10
 1287 05fa F0EE477A 		vmov.f32	s15, s14
 1288              	.LBB133:
 324:..\..\..\liblc3\src/tns.c ****                 s0 = s[k];
 1289              		.loc 1 324 0
 1290 05fe 0020     		movs	r0, #0
 1291              	.LVL139:
 1292              	.L76:
 1293 0600 8445     		cmp	ip, r0
ARM GAS  C:\Users\rdn\AppData\Local\Temp\ccYH9vOY.s 			page 40


 1294 0602 F0DD     		ble	.L119
 325:..\..\..\liblc3\src/tns.c ****                 s[k] = s1;
 1295              		.loc 1 325 0
 1296 0604 9EED006A 		vldr.32	s12, [lr]
 1297              	.LVL140:
 328:..\..\..\liblc3\src/tns.c ****                 xi += rc[f][k] * s0;
 1298              		.loc 1 328 0
 1299 0608 F8EC016A 		vldmia.32	r8!, {s13}
 326:..\..\..\liblc3\src/tns.c **** 
 1300              		.loc 1 326 0
 1301 060c AEEC017A 		vstmia.32	lr!, {s14}
 328:..\..\..\liblc3\src/tns.c ****                 xi += rc[f][k] * s0;
 1302              		.loc 1 328 0
 1303 0610 B0EE467A 		vmov.f32	s14, s12
 1304              	.LVL141:
 1305 0614 A6EEA77A 		vfma.f32	s14, s13, s15
 1306              	.LVL142:
 324:..\..\..\liblc3\src/tns.c ****                 s0 = s[k];
 1307              		.loc 1 324 0
 1308 0618 0130     		adds	r0, r0, #1
 1309              	.LVL143:
 329:..\..\..\liblc3\src/tns.c ****             }
 1310              		.loc 1 329 0
 1311 061a E6EE267A 		vfma.f32	s15, s12, s13
 1312              	.LVL144:
 1313 061e EFE7     		b	.L76
 1314              	.L123:
 1315              		.align	2
 1316              	.L122:
 1317 0620 00000000 		.word	.LANCHOR0
 1318 0624 00000000 		.word	lc3_ne_2m5
 1319              	.LBE133:
 1320              	.LBE134:
 1321              	.LBE131:
 1322              	.LBE135:
 1323              	.LBE136:
 1324              	.LBE137:
 1325              		.cfi_endproc
 1326              	.LFE29:
 1327              		.size	lc3_tns_analyze, .-lc3_tns_analyze
 1328              		.section	.text.lc3_tns_synthesize,"ax",%progbits
 1329              		.align	1
 1330              		.global	lc3_tns_synthesize
 1331              		.thumb
 1332              		.thumb_func
 1333              		.type	lc3_tns_synthesize, %function
 1334              	lc3_tns_synthesize:
 1335              	.LFB30:
 423:..\..\..\liblc3\src/tns.c **** 
 424:..\..\..\liblc3\src/tns.c **** /**
 425:..\..\..\liblc3\src/tns.c ****  * TNS synthesis
 426:..\..\..\liblc3\src/tns.c ****  */
 427:..\..\..\liblc3\src/tns.c **** void lc3_tns_synthesize(enum lc3_dt dt, enum lc3_bandwidth bw,
 428:..\..\..\liblc3\src/tns.c ****     const struct lc3_tns_data *data, float *x)
 429:..\..\..\liblc3\src/tns.c **** {
 1336              		.loc 1 429 0
 1337              		.cfi_startproc
ARM GAS  C:\Users\rdn\AppData\Local\Temp\ccYH9vOY.s 			page 41


 1338              		@ args = 0, pretend = 0, frame = 96
 1339              		@ frame_needed = 0, uses_anonymous_args = 0
 1340              	.LVL145:
 1341 0000 2DE9F04F 		push	{r4, r5, r6, r7, r8, r9, r10, fp, lr}
 1342              		.cfi_def_cfa_offset 36
 1343              		.cfi_offset 4, -36
 1344              		.cfi_offset 5, -32
 1345              		.cfi_offset 6, -28
 1346              		.cfi_offset 7, -24
 1347              		.cfi_offset 8, -20
 1348              		.cfi_offset 9, -16
 1349              		.cfi_offset 10, -12
 1350              		.cfi_offset 11, -8
 1351              		.cfi_offset 14, -4
 1352 0004 99B0     		sub	sp, sp, #100
 1353              		.cfi_def_cfa_offset 136
 1354              		.loc 1 429 0
 1355 0006 1546     		mov	r5, r2
 1356 0008 0446     		mov	r4, r0
 1357 000a 0E46     		mov	r6, r1
 430:..\..\..\liblc3\src/tns.c ****     float rc[2][8] = { 0 };
 1358              		.loc 1 430 0
 1359 000c 4022     		movs	r2, #64
 1360              	.LVL146:
 1361 000e 0021     		movs	r1, #0
 1362              	.LVL147:
 1363 0010 08A8     		add	r0, sp, #32
 1364              	.LVL148:
 429:..\..\..\liblc3\src/tns.c ****     float rc[2][8] = { 0 };
 1365              		.loc 1 429 0
 1366 0012 9846     		mov	r8, r3
 1367              		.loc 1 430 0
 1368 0014 FFF7FEFF 		bl	memset
 1369              	.LVL149:
 1370 0018 05F1040A 		add	r10, r5, #4
 1371 001c 05F1100B 		add	fp, r5, #16
 1372              	.LBB148:
 431:..\..\..\liblc3\src/tns.c **** 
 432:..\..\..\liblc3\src/tns.c ****     for (int f = 0; f < data->nfilters; f++)
 1373              		.loc 1 432 0
 1374 0020 4FF00009 		mov	r9, #0
 1375 0024 5746     		mov	r7, r10
 1376              	.LVL150:
 1377              	.L125:
 1378              		.loc 1 432 0 is_stmt 0 discriminator 1
 1379 0026 2B68     		ldr	r3, [r5]
 1380 0028 9945     		cmp	r9, r3
 1381 002a 0DDA     		bge	.L147
 433:..\..\..\liblc3\src/tns.c ****         if (data->rc_order[f])
 1382              		.loc 1 433 0 is_stmt 1
 1383 002c 5AF8041F 		ldr	r1, [r10, #4]!
 1384 0030 29B1     		cbz	r1, .L126
 434:..\..\..\liblc3\src/tns.c ****             unquantize_rc(data->rc[f], data->rc_order[f], rc[f]);
 1385              		.loc 1 434 0
 1386 0032 08AB     		add	r3, sp, #32
 1387 0034 03EB4912 		add	r2, r3, r9, lsl #5
 1388 0038 5846     		mov	r0, fp
ARM GAS  C:\Users\rdn\AppData\Local\Temp\ccYH9vOY.s 			page 42


 1389 003a FFF7FEFF 		bl	unquantize_rc
 1390              	.LVL151:
 1391              	.L126:
 432:..\..\..\liblc3\src/tns.c ****         if (data->rc_order[f])
 1392              		.loc 1 432 0 discriminator 2
 1393 003e 09F10109 		add	r9, r9, #1
 1394              	.LVL152:
 1395 0042 0BF1200B 		add	fp, fp, #32
 1396 0046 EEE7     		b	.L125
 1397              	.L147:
 1398              	.LBE148:
 435:..\..\..\liblc3\src/tns.c **** 
 436:..\..\..\liblc3\src/tns.c ****     inverse_filtering(dt, bw, data->rc_order, rc, x);
 1399              		.loc 1 436 0
 1400 0048 0835     		adds	r5, r5, #8
 1401              	.LVL153:
 1402              	.LBB149:
 1403              	.LBB150:
 347:..\..\..\liblc3\src/tns.c ****     int nf = lc3_ne(dt, (enum lc3_srate)LC3_MIN(bw, LC3_BANDWIDTH_FB))
 1404              		.loc 1 347 0
 1405 004a 34B1     		cbz	r4, .L137
 1406 004c 022E     		cmp	r6, #2
 1407 004e 94BF     		ite	ls
 1408 0050 4FF00009 		movls	r9, #0
 1409              	.LVL154:
 1410 0054 4FF00109 		movhi	r9, #1
 1411 0058 00E0     		b	.L128
 1412              	.LVL155:
 1413              	.L137:
 1414 005a A146     		mov	r9, r4
 1415              	.LVL156:
 1416              	.L128:
 1417              	.LBB151:
 1418              	.LBB152:
 1419              		.loc 3 51 0
 1420 005c 042E     		cmp	r6, #4
 1421 005e 28BF     		it	cs
 1422 0060 0426     		movcs	r6, #4
 1423              	.LVL157:
 1424              	.LBE152:
 1425              	.LBE151:
 348:..\..\..\liblc3\src/tns.c ****                 >> (nfilters - 1);
 1426              		.loc 1 348 0
 1427 0062 254B     		ldr	r3, .L149
 1428 0064 53F82660 		ldr	r6, [r3, r6, lsl #2]
 1429              	.LBB154:
 1430              	.LBB153:
 1431              		.loc 3 51 0
 1432 0068 0134     		adds	r4, r4, #1
 1433              	.LVL158:
 1434              	.LBE153:
 1435              	.LBE154:
 348:..\..\..\liblc3\src/tns.c ****                 >> (nfilters - 1);
 1436              		.loc 1 348 0
 1437 006a 6643     		muls	r6, r4, r6
 1438 006c 46FA09F6 		asr	r6, r6, r9
 1439              	.LVL159:
ARM GAS  C:\Users\rdn\AppData\Local\Temp\ccYH9vOY.s 			page 43


 352:..\..\..\liblc3\src/tns.c **** 
 1440              		.loc 1 352 0
 1441 0070 0021     		movs	r1, #0
 1442 0072 2022     		movs	r2, #32
 1443 0074 6846     		mov	r0, sp
 1444 0076 FFF7FEFF 		bl	memset
 1445              	.LVL160:
 350:..\..\..\liblc3\src/tns.c **** 
 1446              		.loc 1 350 0
 1447 007a 04EB4404 		add	r4, r4, r4, lsl #1
 1448              	.LVL161:
 1449 007e 08A8     		add	r0, sp, #32
 1450              	.LVL162:
 1451 0080 05EB8909 		add	r9, r5, r9, lsl #2
 1452              	.LVL163:
 352:..\..\..\liblc3\src/tns.c **** 
 1453              		.loc 1 352 0
 1454 0084 3146     		mov	r1, r6
 1455              	.LBB155:
 1456              	.LBB156:
 375:..\..\..\liblc3\src/tns.c ****     }
 1457              		.loc 1 375 0
 1458 0086 4FF0000A 		mov	r10, #0
 1459              	.LVL164:
 1460              	.L131:
 1461              	.LBE156:
 359:..\..\..\liblc3\src/tns.c ****             continue;
 1462              		.loc 1 359 0
 1463 008a 57F8045F 		ldr	r5, [r7, #4]!
 357:..\..\..\liblc3\src/tns.c **** 
 1464              		.loc 1 357 0
 1465 008e 8C46     		mov	ip, r1
 1466              	.LVL165:
 359:..\..\..\liblc3\src/tns.c ****             continue;
 1467              		.loc 1 359 0
 1468 0090 15B1     		cbz	r5, .L129
 1469 0092 08EB840E 		add	lr, r8, r4, lsl #2
 1470 0096 19E0     		b	.L130
 1471              	.LVL166:
 1472              	.L129:
 354:..\..\..\liblc3\src/tns.c **** 
 1473              		.loc 1 354 0
 1474 0098 4F45     		cmp	r7, r9
 1475 009a 3144     		add	r1, r1, r6
 1476              	.LVL167:
 1477 009c 00F12000 		add	r0, r0, #32
 357:..\..\..\liblc3\src/tns.c **** 
 1478              		.loc 1 357 0
 1479 00a0 6446     		mov	r4, ip
 354:..\..\..\liblc3\src/tns.c **** 
 1480              		.loc 1 354 0
 1481 00a2 F2D1     		bne	.L131
 1482              	.LVL168:
 1483              	.LBE155:
 1484              	.LBE150:
 1485              	.LBE149:
 437:..\..\..\liblc3\src/tns.c **** }
ARM GAS  C:\Users\rdn\AppData\Local\Temp\ccYH9vOY.s 			page 44


 1486              		.loc 1 437 0
 1487 00a4 19B0     		add	sp, sp, #100
 1488              		.cfi_remember_state
 1489              		.cfi_def_cfa_offset 36
 1490              		@ sp needed
 1491 00a6 BDE8F08F 		pop	{r4, r5, r6, r7, r8, r9, r10, fp, pc}
 1492              	.LVL169:
 1493              	.L133:
 1494              		.cfi_restore_state
 1495              	.LBB164:
 1496              	.LBB163:
 1497              	.LBB162:
 1498              	.LBB157:
 1499              	.LBB158:
 1500              	.LBB159:
 367:..\..\..\liblc3\src/tns.c ****                 s[k+1] = s[k] + rc[f][k] * xi;
 1501              		.loc 1 367 0
 1502 00aa 32ED017A 		vldmdb.32	r2!, {s14}
 1503 00ae 73ED016A 		vldmdb.32	r3!, {s13}
 1504 00b2 E7EE667A 		vfms.f32	s15, s14, s13
 1505              	.LVL170:
 366:..\..\..\liblc3\src/tns.c ****                 xi -= s[k] * rc[f][k];
 1506              		.loc 1 366 0
 1507 00b6 8342     		cmp	r3, r0
 368:..\..\..\liblc3\src/tns.c ****             }
 1508              		.loc 1 368 0
 1509 00b8 A6EEA77A 		vfma.f32	s14, s13, s15
 1510 00bc 82ED017A 		vstr.32	s14, [r2, #4]
 1511              	.LVL171:
 366:..\..\..\liblc3\src/tns.c ****                 xi -= s[k] * rc[f][k];
 1512              		.loc 1 366 0
 1513 00c0 F3D1     		bne	.L133
 1514              	.LBE159:
 370:..\..\..\liblc3\src/tns.c ****             x[i] = xi;
 1515              		.loc 1 370 0
 1516 00c2 CDED007A 		vstr.32	s15, [sp]
 371:..\..\..\liblc3\src/tns.c ****         }
 1517              		.loc 1 371 0
 1518 00c6 EEEC017A 		vstmia.32	lr!, {s15}
 1519              	.LBE158:
 362:..\..\..\liblc3\src/tns.c ****             float xi = x[i];
 1520              		.loc 1 362 0
 1521 00ca 0134     		adds	r4, r4, #1
 1522              	.LVL172:
 1523              	.L130:
 1524 00cc A142     		cmp	r1, r4
 1525 00ce 0BDD     		ble	.L148
 1526              	.LBB160:
 365:..\..\..\liblc3\src/tns.c ****             for (int k = 6; k >= 0; k--) {
 1527              		.loc 1 365 0
 1528 00d0 0346     		mov	r3, r0
 1529 00d2 07AA     		add	r2, sp, #28
 1530 00d4 1C33     		adds	r3, r3, #28
 363:..\..\..\liblc3\src/tns.c **** 
 1531              		.loc 1 363 0
 1532 00d6 DEED007A 		vldr.32	s15, [lr]
 1533              	.LVL173:
ARM GAS  C:\Users\rdn\AppData\Local\Temp\ccYH9vOY.s 			page 45


 365:..\..\..\liblc3\src/tns.c ****             for (int k = 6; k >= 0; k--) {
 1534              		.loc 1 365 0
 1535 00da D2ED006A 		vldr.32	s13, [r2]
 1536 00de 93ED007A 		vldr.32	s14, [r3]
 1537 00e2 E6EEC77A 		vfms.f32	s15, s13, s14
 1538              	.LVL174:
 1539 00e6 E0E7     		b	.L133
 1540              	.LVL175:
 1541              	.L148:
 1542 00e8 08AA     		add	r2, sp, #32
 1543              	.LVL176:
 1544              	.LBE160:
 362:..\..\..\liblc3\src/tns.c ****             float xi = x[i];
 1545              		.loc 1 362 0
 1546 00ea 0723     		movs	r3, #7
 1547              	.LVL177:
 1548              	.L135:
 1549              	.LBE157:
 1550              	.LBB161:
 374:..\..\..\liblc3\src/tns.c ****             s[k] = 0;
 1551              		.loc 1 374 0
 1552 00ec 9D42     		cmp	r5, r3
 1553 00ee D3DC     		bgt	.L129
 375:..\..\..\liblc3\src/tns.c ****     }
 1554              		.loc 1 375 0
 1555 00f0 42F804AD 		str	r10, [r2, #-4]!	@ float
 374:..\..\..\liblc3\src/tns.c ****             s[k] = 0;
 1556              		.loc 1 374 0
 1557 00f4 013B     		subs	r3, r3, #1
 1558              	.LVL178:
 1559 00f6 F9E7     		b	.L135
 1560              	.L150:
 1561              		.align	2
 1562              	.L149:
 1563 00f8 00000000 		.word	lc3_ne_2m5
 1564              	.LBE161:
 1565              	.LBE162:
 1566              	.LBE163:
 1567              	.LBE164:
 1568              		.cfi_endproc
 1569              	.LFE30:
 1570              		.size	lc3_tns_synthesize, .-lc3_tns_synthesize
 1571              		.section	.text.lc3_tns_get_nbits,"ax",%progbits
 1572              		.align	1
 1573              		.global	lc3_tns_get_nbits
 1574              		.thumb
 1575              		.thumb_func
 1576              		.type	lc3_tns_get_nbits, %function
 1577              	lc3_tns_get_nbits:
 1578              	.LFB31:
 438:..\..\..\liblc3\src/tns.c **** 
 439:..\..\..\liblc3\src/tns.c **** /**
 440:..\..\..\liblc3\src/tns.c ****  * Bit consumption of bitstream data
 441:..\..\..\liblc3\src/tns.c ****  */
 442:..\..\..\liblc3\src/tns.c **** int lc3_tns_get_nbits(const struct lc3_tns_data *data)
 443:..\..\..\liblc3\src/tns.c **** {
 1579              		.loc 1 443 0
ARM GAS  C:\Users\rdn\AppData\Local\Temp\ccYH9vOY.s 			page 46


 1580              		.cfi_startproc
 1581              		@ args = 0, pretend = 0, frame = 0
 1582              		@ frame_needed = 0, uses_anonymous_args = 0
 1583              	.LVL179:
 1584              	.LBB165:
 444:..\..\..\liblc3\src/tns.c ****     int nbits = 0;
 445:..\..\..\liblc3\src/tns.c **** 
 446:..\..\..\liblc3\src/tns.c ****     for (int f = 0; f < data->nfilters; f++) {
 1585              		.loc 1 446 0
 1586 0000 0246     		mov	r2, r0
 1587              	.LBE165:
 443:..\..\..\liblc3\src/tns.c ****     int nbits = 0;
 1588              		.loc 1 443 0
 1589 0002 2DE9F04F 		push	{r4, r5, r6, r7, r8, r9, r10, fp, lr}
 1590              		.cfi_def_cfa_offset 36
 1591              		.cfi_offset 4, -36
 1592              		.cfi_offset 5, -32
 1593              		.cfi_offset 6, -28
 1594              		.cfi_offset 7, -24
 1595              		.cfi_offset 8, -20
 1596              		.cfi_offset 9, -16
 1597              		.cfi_offset 10, -12
 1598              		.cfi_offset 11, -8
 1599              		.cfi_offset 14, -4
 1600              	.LBB171:
 1601              		.loc 1 446 0
 1602 0006 52F80CCB 		ldr	ip, [r2], #12
 1603              	.LBB166:
 447:..\..\..\liblc3\src/tns.c **** 
 448:..\..\..\liblc3\src/tns.c ****         int nbits_2048 = 2048;
 449:..\..\..\liblc3\src/tns.c ****         int rc_order = data->rc_order[f];
 450:..\..\..\liblc3\src/tns.c **** 
 451:..\..\..\liblc3\src/tns.c ****         nbits_2048 += rc_order > 0 ? lc3_tns_order_bits
 452:..\..\..\liblc3\src/tns.c ****             [data->lpc_weighting][rc_order-1] : 0;
 1604              		.loc 1 452 0
 1605 000a DFF86480 		ldr	r8, .L160
 1606              	.LBB167:
 453:..\..\..\liblc3\src/tns.c **** 
 454:..\..\..\liblc3\src/tns.c ****         for (int i = 0; i < rc_order; i++)
 455:..\..\..\liblc3\src/tns.c ****             nbits_2048 += lc3_tns_coeffs_bits[i][8 + data->rc[f][i]];
 1607              		.loc 1 455 0
 1608 000e DFF86490 		ldr	r9, .L160+4
 1609              	.LBE167:
 1610              	.LBE166:
 446:..\..\..\liblc3\src/tns.c **** 
 1611              		.loc 1 446 0
 1612 0012 0025     		movs	r5, #0
 1613              	.LBE171:
 443:..\..\..\liblc3\src/tns.c ****     int nbits = 0;
 1614              		.loc 1 443 0
 1615 0014 0646     		mov	r6, r0
 1616 0016 00F1040E 		add	lr, r0, #4
 444:..\..\..\liblc3\src/tns.c **** 
 1617              		.loc 1 444 0
 1618 001a 2846     		mov	r0, r5
 1619              	.LVL180:
 1620              	.L152:
ARM GAS  C:\Users\rdn\AppData\Local\Temp\ccYH9vOY.s 			page 47


 1621              	.LBB172:
 446:..\..\..\liblc3\src/tns.c **** 
 1622              		.loc 1 446 0 discriminator 1
 1623 001c 6545     		cmp	r5, ip
 1624 001e 24DA     		bge	.L158
 1625              	.LVL181:
 1626              	.LBB170:
 449:..\..\..\liblc3\src/tns.c **** 
 1627              		.loc 1 449 0
 1628 0020 5EF8047F 		ldr	r7, [lr, #4]!
 1629              	.LVL182:
 452:..\..\..\liblc3\src/tns.c **** 
 1630              		.loc 1 452 0
 1631 0024 002F     		cmp	r7, #0
 1632 0026 C3BF     		ittte	gt
 1633 0028 3179     		ldrbgt	r1, [r6, #4]	@ zero_extendqisi2
 1634 002a 07F1FF33 		addgt	r3, r7, #-1
 1635 002e 03EBC103 		addgt	r3, r3, r1, lsl #3
 1636 0032 0023     		movle	r3, #0
 1637 0034 C8BF     		it	gt
 1638 0036 38F81330 		ldrhgt	r3, [r8, r3, lsl #1]
 1639              	.LBB168:
 454:..\..\..\liblc3\src/tns.c ****             nbits_2048 += lc3_tns_coeffs_bits[i][8 + data->rc[f][i]];
 1640              		.loc 1 454 0
 1641 003a 9246     		mov	r10, r2
 1642              	.LBE168:
 451:..\..\..\liblc3\src/tns.c ****             [data->lpc_weighting][rc_order-1] : 0;
 1643              		.loc 1 451 0
 1644 003c 03F50063 		add	r3, r3, #2048
 1645              	.LVL183:
 1646              	.LBB169:
 454:..\..\..\liblc3\src/tns.c ****             nbits_2048 += lc3_tns_coeffs_bits[i][8 + data->rc[f][i]];
 1647              		.loc 1 454 0
 1648 0040 0021     		movs	r1, #0
 1649              	.LVL184:
 1650              	.L154:
 454:..\..\..\liblc3\src/tns.c ****             nbits_2048 += lc3_tns_coeffs_bits[i][8 + data->rc[f][i]];
 1651              		.loc 1 454 0 is_stmt 0 discriminator 1
 1652 0042 B942     		cmp	r1, r7
 1653 0044 0ADA     		bge	.L159
 1654              		.loc 1 455 0 is_stmt 1 discriminator 3
 1655 0046 5AF8044F 		ldr	r4, [r10, #4]!
 1656 004a 01EB011B 		add	fp, r1, r1, lsl #4
 1657 004e 0834     		adds	r4, r4, #8
 1658 0050 5C44     		add	r4, r4, fp
 454:..\..\..\liblc3\src/tns.c ****             nbits_2048 += lc3_tns_coeffs_bits[i][8 + data->rc[f][i]];
 1659              		.loc 1 454 0 discriminator 3
 1660 0052 0131     		adds	r1, r1, #1
 1661              	.LVL185:
 1662              		.loc 1 455 0 discriminator 3
 1663 0054 39F81440 		ldrh	r4, [r9, r4, lsl #1]
 1664 0058 2344     		add	r3, r3, r4
 1665              	.LVL186:
 1666 005a F2E7     		b	.L154
 1667              	.L159:
 1668              	.LBE169:
 456:..\..\..\liblc3\src/tns.c **** 
ARM GAS  C:\Users\rdn\AppData\Local\Temp\ccYH9vOY.s 			page 48


 457:..\..\..\liblc3\src/tns.c ****         nbits += (nbits_2048 + (1 << 11) - 1) >> 11;
 1669              		.loc 1 457 0 discriminator 2
 1670 005c 03F2FF73 		addw	r3, r3, #2047
 1671              	.LVL187:
 1672 0060 00EBE320 		add	r0, r0, r3, asr #11
 1673              	.LVL188:
 1674              	.LBE170:
 446:..\..\..\liblc3\src/tns.c **** 
 1675              		.loc 1 446 0 discriminator 2
 1676 0064 0135     		adds	r5, r5, #1
 1677              	.LVL189:
 1678 0066 2032     		adds	r2, r2, #32
 1679 0068 D8E7     		b	.L152
 1680              	.LVL190:
 1681              	.L158:
 1682              	.LBE172:
 458:..\..\..\liblc3\src/tns.c ****     }
 459:..\..\..\liblc3\src/tns.c **** 
 460:..\..\..\liblc3\src/tns.c ****     return nbits;
 461:..\..\..\liblc3\src/tns.c **** }
 1683              		.loc 1 461 0
 1684 006a BDE8F08F 		pop	{r4, r5, r6, r7, r8, r9, r10, fp, pc}
 1685              	.LVL191:
 1686              	.L161:
 1687 006e 00BF     		.align	2
 1688              	.L160:
 1689 0070 00000000 		.word	lc3_tns_order_bits
 1690 0074 00000000 		.word	lc3_tns_coeffs_bits
 1691              		.cfi_endproc
 1692              	.LFE31:
 1693              		.size	lc3_tns_get_nbits, .-lc3_tns_get_nbits
 1694              		.section	.text.lc3_tns_put_data,"ax",%progbits
 1695              		.align	1
 1696              		.global	lc3_tns_put_data
 1697              		.thumb
 1698              		.thumb_func
 1699              		.type	lc3_tns_put_data, %function
 1700              	lc3_tns_put_data:
 1701              	.LFB32:
 462:..\..\..\liblc3\src/tns.c **** 
 463:..\..\..\liblc3\src/tns.c **** /**
 464:..\..\..\liblc3\src/tns.c ****  * Put bitstream data
 465:..\..\..\liblc3\src/tns.c ****  */
 466:..\..\..\liblc3\src/tns.c **** void lc3_tns_put_data(lc3_bits_t *bits, const struct lc3_tns_data *data)
 467:..\..\..\liblc3\src/tns.c **** {
 1702              		.loc 1 467 0
 1703              		.cfi_startproc
 1704              		@ args = 0, pretend = 0, frame = 8
 1705              		@ frame_needed = 0, uses_anonymous_args = 0
 1706              	.LVL192:
 1707 0000 2DE9F74F 		push	{r0, r1, r2, r4, r5, r6, r7, r8, r9, r10, fp, lr}
 1708              		.cfi_def_cfa_offset 48
 1709              		.cfi_offset 4, -36
 1710              		.cfi_offset 5, -32
 1711              		.cfi_offset 6, -28
 1712              		.cfi_offset 7, -24
 1713              		.cfi_offset 8, -20
ARM GAS  C:\Users\rdn\AppData\Local\Temp\ccYH9vOY.s 			page 49


 1714              		.cfi_offset 9, -16
 1715              		.cfi_offset 10, -12
 1716              		.cfi_offset 11, -8
 1717              		.cfi_offset 14, -4
 1718              		.loc 1 467 0
 1719 0004 0446     		mov	r4, r0
 1720 0006 0D46     		mov	r5, r1
 1721 0008 01F10C0A 		add	r10, r1, #12
 1722 000c 01F1040B 		add	fp, r1, #4
 1723              	.LBB178:
 468:..\..\..\liblc3\src/tns.c ****     for (int f = 0; f < data->nfilters; f++) {
 1724              		.loc 1 468 0
 1725 0010 4FF00009 		mov	r9, #0
 1726              	.LVL193:
 1727              	.L163:
 1728              		.loc 1 468 0 is_stmt 0 discriminator 1
 1729 0014 2B68     		ldr	r3, [r5]
 1730 0016 9945     		cmp	r9, r3
 1731 0018 37DA     		bge	.L171
 1732              	.LBB179:
 469:..\..\..\liblc3\src/tns.c ****         int rc_order = data->rc_order[f];
 1733              		.loc 1 469 0 is_stmt 1
 1734 001a 5BF8047F 		ldr	r7, [fp, #4]!
 1735              	.LVL194:
 1736              	.LBB180:
 1737              	.LBB181:
 223:..\..\..\liblc3\src/bits.h ****         accu->v |= v << accu->n;
 1738              		.loc 2 223 0
 1739 001e 226A     		ldr	r2, [r4, #32]
 1740              	.LBE181:
 1741              	.LBE180:
 470:..\..\..\liblc3\src/tns.c **** 
 471:..\..\..\liblc3\src/tns.c ****         lc3_put_bits(bits, rc_order > 0, 1);
 1742              		.loc 1 471 0
 1743 0020 002F     		cmp	r7, #0
 1744              	.LBB184:
 1745              	.LBB182:
 223:..\..\..\liblc3\src/bits.h ****         accu->v |= v << accu->n;
 1746              		.loc 2 223 0
 1747 0022 02F10103 		add	r3, r2, #1
 1748              	.LBE182:
 1749              	.LBE184:
 1750              		.loc 1 471 0
 1751 0026 D4BF     		ite	le
 1752 0028 0021     		movle	r1, #0
 1753 002a 0121     		movgt	r1, #1
 1754              	.LVL195:
 1755              	.LBB185:
 1756              	.LBB183:
 223:..\..\..\liblc3\src/bits.h ****         accu->v |= v << accu->n;
 1757              		.loc 2 223 0
 1758 002c 202B     		cmp	r3, #32
 1759 002e 05DC     		bgt	.L164
 224:..\..\..\liblc3\src/bits.h ****         accu->n += n;
 1760              		.loc 2 224 0
 1761 0030 9140     		lsls	r1, r1, r2
 1762              	.LVL196:
ARM GAS  C:\Users\rdn\AppData\Local\Temp\ccYH9vOY.s 			page 50


 1763 0032 E269     		ldr	r2, [r4, #28]
 225:..\..\..\liblc3\src/bits.h ****     } else {
 1764              		.loc 2 225 0
 1765 0034 2362     		str	r3, [r4, #32]
 224:..\..\..\liblc3\src/bits.h ****         accu->n += n;
 1766              		.loc 2 224 0
 1767 0036 1143     		orrs	r1, r1, r2
 1768 0038 E161     		str	r1, [r4, #28]
 1769 003a 03E0     		b	.L165
 1770              	.LVL197:
 1771              	.L164:
 227:..\..\..\liblc3\src/bits.h ****     }
 1772              		.loc 2 227 0
 1773 003c 0122     		movs	r2, #1
 1774 003e 2046     		mov	r0, r4
 1775 0040 FFF7FEFF 		bl	lc3_put_bits_generic
 1776              	.LVL198:
 1777              	.L165:
 1778              	.LBE183:
 1779              	.LBE185:
 472:..\..\..\liblc3\src/tns.c ****         if (rc_order <= 0)
 1780              		.loc 1 472 0
 1781 0044 002F     		cmp	r7, #0
 1782 0046 04DC     		bgt	.L166
 1783              	.L168:
 1784              	.LBE179:
 468:..\..\..\liblc3\src/tns.c ****         int rc_order = data->rc_order[f];
 1785              		.loc 1 468 0
 1786 0048 09F10109 		add	r9, r9, #1
 1787              	.LVL199:
 1788 004c 0AF1200A 		add	r10, r10, #32
 1789 0050 E0E7     		b	.L163
 1790              	.L166:
 1791              	.LBB188:
 473:..\..\..\liblc3\src/tns.c ****             continue;
 474:..\..\..\liblc3\src/tns.c **** 
 475:..\..\..\liblc3\src/tns.c ****         lc3_put_symbol(bits,
 1792              		.loc 1 475 0
 1793 0052 0F4B     		ldr	r3, .L172
 1794 0054 2979     		ldrb	r1, [r5, #4]	@ zero_extendqisi2
 1795 0056 4FF04408 		mov	r8, #68
 1796 005a 08FB0131 		mla	r1, r8, r1, r3
 1797 005e 7A1E     		subs	r2, r7, #1
 1798 0060 2046     		mov	r0, r4
 1799 0062 FFF7FEFF 		bl	lc3_put_symbol
 1800              	.LVL200:
 1801              	.LBB186:
 476:..\..\..\liblc3\src/tns.c ****             lc3_tns_order_models + data->lpc_weighting, rc_order-1);
 477:..\..\..\liblc3\src/tns.c **** 
 478:..\..\..\liblc3\src/tns.c ****         for (int i = 0; i < rc_order; i++)
 1802              		.loc 1 478 0
 1803 0066 0026     		movs	r6, #0
 1804              	.LBE186:
 475:..\..\..\liblc3\src/tns.c ****             lc3_tns_order_models + data->lpc_weighting, rc_order-1);
 1805              		.loc 1 475 0
 1806 0068 5346     		mov	r3, r10
 1807              	.LVL201:
ARM GAS  C:\Users\rdn\AppData\Local\Temp\ccYH9vOY.s 			page 51


 1808              	.L167:
 1809              	.LBB187:
 479:..\..\..\liblc3\src/tns.c ****             lc3_put_symbol(bits,
 1810              		.loc 1 479 0 discriminator 3
 1811 006a 53F8042F 		ldr	r2, [r3, #4]!
 1812 006e 0093     		str	r3, [sp]
 1813 0070 0193     		str	r3, [sp, #4]
 1814 0072 084B     		ldr	r3, .L172+4
 1815 0074 0832     		adds	r2, r2, #8
 1816 0076 08FB0631 		mla	r1, r8, r6, r3
 1817 007a 2046     		mov	r0, r4
 478:..\..\..\liblc3\src/tns.c ****             lc3_put_symbol(bits,
 1818              		.loc 1 478 0 discriminator 3
 1819 007c 0136     		adds	r6, r6, #1
 1820              	.LVL202:
 1821              		.loc 1 479 0 discriminator 3
 1822 007e FFF7FEFF 		bl	lc3_put_symbol
 1823              	.LVL203:
 478:..\..\..\liblc3\src/tns.c ****             lc3_put_symbol(bits,
 1824              		.loc 1 478 0 discriminator 3
 1825 0082 B742     		cmp	r7, r6
 1826 0084 009B     		ldr	r3, [sp]
 1827 0086 F0D1     		bne	.L167
 1828 0088 DEE7     		b	.L168
 1829              	.LVL204:
 1830              	.L171:
 1831              	.LBE187:
 1832              	.LBE188:
 1833              	.LBE178:
 480:..\..\..\liblc3\src/tns.c ****                 lc3_tns_coeffs_models + i, 8 + data->rc[f][i]);
 481:..\..\..\liblc3\src/tns.c ****     }
 482:..\..\..\liblc3\src/tns.c **** }
 1834              		.loc 1 482 0
 1835 008a 03B0     		add	sp, sp, #12
 1836              		.cfi_def_cfa_offset 36
 1837              		@ sp needed
 1838 008c BDE8F08F 		pop	{r4, r5, r6, r7, r8, r9, r10, fp, pc}
 1839              	.LVL205:
 1840              	.L173:
 1841              		.align	2
 1842              	.L172:
 1843 0090 00000000 		.word	lc3_tns_order_models
 1844 0094 00000000 		.word	lc3_tns_coeffs_models
 1845              		.cfi_endproc
 1846              	.LFE32:
 1847              		.size	lc3_tns_put_data, .-lc3_tns_put_data
 1848              		.section	.text.lc3_tns_get_data,"ax",%progbits
 1849              		.align	1
 1850              		.global	lc3_tns_get_data
 1851              		.thumb
 1852              		.thumb_func
 1853              		.type	lc3_tns_get_data, %function
 1854              	lc3_tns_get_data:
 1855              	.LFB33:
 483:..\..\..\liblc3\src/tns.c **** 
 484:..\..\..\liblc3\src/tns.c **** /**
 485:..\..\..\liblc3\src/tns.c ****  * Get bitstream data
ARM GAS  C:\Users\rdn\AppData\Local\Temp\ccYH9vOY.s 			page 52


 486:..\..\..\liblc3\src/tns.c ****  */
 487:..\..\..\liblc3\src/tns.c **** int lc3_tns_get_data(lc3_bits_t *bits,
 488:..\..\..\liblc3\src/tns.c ****     enum lc3_dt dt, enum lc3_bandwidth bw, int nbytes, lc3_tns_data_t *data)
 489:..\..\..\liblc3\src/tns.c **** {
 1856              		.loc 1 489 0
 1857              		.cfi_startproc
 1858              		@ args = 4, pretend = 0, frame = 8
 1859              		@ frame_needed = 0, uses_anonymous_args = 0
 1860              	.LVL206:
 1861 0000 2DE9F74F 		push	{r0, r1, r2, r4, r5, r6, r7, r8, r9, r10, fp, lr}
 1862              		.cfi_def_cfa_offset 48
 1863              		.cfi_offset 4, -36
 1864              		.cfi_offset 5, -32
 1865              		.cfi_offset 6, -28
 1866              		.cfi_offset 7, -24
 1867              		.cfi_offset 8, -20
 1868              		.cfi_offset 9, -16
 1869              		.cfi_offset 10, -12
 1870              		.cfi_offset 11, -8
 1871              		.cfi_offset 14, -4
 1872              		.loc 1 489 0
 1873 0004 0C9E     		ldr	r6, [sp, #48]
 1874 0006 0546     		mov	r5, r0
 490:..\..\..\liblc3\src/tns.c ****     data->nfilters = 1 + (dt >= LC3_DT_5M && bw >= LC3_BANDWIDTH_SWB);
 1875              		.loc 1 490 0
 1876 0008 8946     		mov	r9, r1
 1877 000a 21B1     		cbz	r1, .L185
 1878              		.loc 1 490 0 is_stmt 0 discriminator 1
 1879 000c 022A     		cmp	r2, #2
 1880 000e 94BF     		ite	ls
 1881 0010 0022     		movls	r2, #0
 1882              	.LVL207:
 1883 0012 0122     		movhi	r2, #1
 1884 0014 00E0     		b	.L175
 1885              	.LVL208:
 1886              	.L185:
 1887              		.loc 1 490 0
 1888 0016 0A46     		mov	r2, r1
 1889              	.LVL209:
 1890              	.L175:
 1891              		.loc 1 490 0 discriminator 6
 1892 0018 0132     		adds	r2, r2, #1
 1893 001a 3260     		str	r2, [r6]
 491:..\..\..\liblc3\src/tns.c ****     data->lpc_weighting = resolve_lpc_weighting(dt, nbytes);
 1894              		.loc 1 491 0 is_stmt 1 discriminator 6
 1895 001c 7822     		movs	r2, #120
 1896 001e 09FB0222 		mla	r2, r9, r2, r2
 1897 0022 B2EBC30F 		cmp	r2, r3, lsl #3
 1898 0026 3446     		mov	r4, r6
 1899 0028 CCBF     		ite	gt
 1900 002a 0123     		movgt	r3, #1
 1901              	.LVL210:
 1902 002c 0023     		movle	r3, #0
 1903 002e 04F8043F 		strb	r3, [r4, #4]!
 1904              	.LVL211:
 1905 0032 06F10C08 		add	r8, r6, #12
 1906              	.LBB198:
ARM GAS  C:\Users\rdn\AppData\Local\Temp\ccYH9vOY.s 			page 53


 492:..\..\..\liblc3\src/tns.c **** 
 493:..\..\..\liblc3\src/tns.c ****     for (int f = 0; f < data->nfilters; f++) {
 1907              		.loc 1 493 0 discriminator 6
 1908 0036 4FF0000A 		mov	r10, #0
 1909              	.LVL212:
 1910              	.L176:
 1911              		.loc 1 493 0 is_stmt 0 discriminator 1
 1912 003a 3368     		ldr	r3, [r6]
 1913 003c 9A45     		cmp	r10, r3
 1914 003e 39DA     		bge	.L189
 1915              	.LVL213:
 1916              	.LBB199:
 1917              	.LBB200:
 1918              	.LBB201:
 1919              	.LBB202:
 246:..\..\..\liblc3\src/bits.h ****         int v = (accu->v >> accu->n) & ((1u << n) - 1);
 1920              		.loc 2 246 0 is_stmt 1
 1921 0040 286A     		ldr	r0, [r5, #32]
 1922 0042 421C     		adds	r2, r0, #1
 1923 0044 202A     		cmp	r2, #32
 1924 0046 06DC     		bgt	.L177
 1925              	.LBB203:
 247:..\..\..\liblc3\src/bits.h ****         return (accu->n += n), v;
 1926              		.loc 2 247 0
 1927 0048 EB69     		ldr	r3, [r5, #28]
 248:..\..\..\liblc3\src/bits.h ****     }
 1928              		.loc 2 248 0
 1929 004a 2A62     		str	r2, [r5, #32]
 247:..\..\..\liblc3\src/bits.h ****         return (accu->n += n), v;
 1930              		.loc 2 247 0
 1931 004c 23FA00F0 		lsr	r0, r3, r0
 1932 0050 00F00100 		and	r0, r0, #1
 1933              	.LVL214:
 1934 0054 03E0     		b	.L178
 1935              	.LVL215:
 1936              	.L177:
 1937              	.LBE203:
 251:..\..\..\liblc3\src/bits.h ****     }
 1938              		.loc 2 251 0
 1939 0056 0121     		movs	r1, #1
 1940 0058 2846     		mov	r0, r5
 1941 005a FFF7FEFF 		bl	lc3_get_bits_generic
 1942              	.LVL216:
 1943              	.L178:
 1944              	.LBE202:
 1945              	.LBE201:
 1946              	.LBE200:
 1947              	.LBE199:
 494:..\..\..\liblc3\src/tns.c **** 
 495:..\..\..\liblc3\src/tns.c ****         data->rc_order[f] = lc3_get_bit(bits);
 1948              		.loc 1 495 0
 1949 005e 44F8040F 		str	r0, [r4, #4]!
 496:..\..\..\liblc3\src/tns.c ****         if (!data->rc_order[f])
 1950              		.loc 1 496 0
 1951 0062 20B9     		cbnz	r0, .L179
 1952              	.L183:
 493:..\..\..\liblc3\src/tns.c **** 
ARM GAS  C:\Users\rdn\AppData\Local\Temp\ccYH9vOY.s 			page 54


 1953              		.loc 1 493 0
 1954 0064 0AF1010A 		add	r10, r10, #1
 1955              	.LVL217:
 1956 0068 08F12008 		add	r8, r8, #32
 1957 006c E5E7     		b	.L176
 1958              	.L179:
 497:..\..\..\liblc3\src/tns.c ****             continue;
 498:..\..\..\liblc3\src/tns.c **** 
 499:..\..\..\liblc3\src/tns.c ****         data->rc_order[f] += lc3_get_symbol(bits,
 1959              		.loc 1 499 0
 1960 006e 3379     		ldrb	r3, [r6, #4]	@ zero_extendqisi2
 1961 0070 144A     		ldr	r2, .L190
 1962 0072 4421     		movs	r1, #68
 1963 0074 01FB0321 		mla	r1, r1, r3, r2
 1964 0078 2846     		mov	r0, r5
 1965 007a FFF7FEFF 		bl	lc3_get_symbol
 1966              	.LVL218:
 1967 007e 2368     		ldr	r3, [r4]
 500:..\..\..\liblc3\src/tns.c ****             lc3_tns_order_models + data->lpc_weighting);
 501:..\..\..\liblc3\src/tns.c ****         if (dt <= LC3_DT_5M && data->rc_order[f] > 4)
 1968              		.loc 1 501 0
 1969 0080 B9F1010F 		cmp	r9, #1
 499:..\..\..\liblc3\src/tns.c ****             lc3_tns_order_models + data->lpc_weighting);
 1970              		.loc 1 499 0
 1971 0084 1844     		add	r0, r0, r3
 1972 0086 2060     		str	r0, [r4]
 1973              		.loc 1 501 0
 1974 0088 01D8     		bhi	.L186
 1975              		.loc 1 501 0 is_stmt 0 discriminator 1
 1976 008a 0428     		cmp	r0, #4
 1977 008c 14DC     		bgt	.L187
 1978              	.L186:
 1979 008e C346     		mov	fp, r8
 1980 0090 0027     		movs	r7, #0
 1981              	.LBB204:
 502:..\..\..\liblc3\src/tns.c ****             return -1;
 503:..\..\..\liblc3\src/tns.c **** 
 504:..\..\..\liblc3\src/tns.c ****         for (int i = 0; i < data->rc_order[f]; i++)
 505:..\..\..\liblc3\src/tns.c ****             data->rc[f][i] = (int)lc3_get_symbol(bits,
 1982              		.loc 1 505 0 is_stmt 1
 1983 0092 4422     		movs	r2, #68
 1984              	.L188:
 1985              	.LVL219:
 504:..\..\..\liblc3\src/tns.c ****             data->rc[f][i] = (int)lc3_get_symbol(bits,
 1986              		.loc 1 504 0 discriminator 1
 1987 0094 2168     		ldr	r1, [r4]
 1988 0096 8F42     		cmp	r7, r1
 1989 0098 E4DA     		bge	.L183
 1990              		.loc 1 505 0 discriminator 3
 1991 009a 0B4B     		ldr	r3, .L190+4
 1992 009c 0192     		str	r2, [sp, #4]
 1993 009e 02FB0731 		mla	r1, r2, r7, r3
 1994 00a2 2846     		mov	r0, r5
 1995 00a4 FFF7FEFF 		bl	lc3_get_symbol
 1996              	.LVL220:
 1997 00a8 0838     		subs	r0, r0, #8
 1998 00aa 4BF8040F 		str	r0, [fp, #4]!
ARM GAS  C:\Users\rdn\AppData\Local\Temp\ccYH9vOY.s 			page 55


 504:..\..\..\liblc3\src/tns.c ****             data->rc[f][i] = (int)lc3_get_symbol(bits,
 1999              		.loc 1 504 0 discriminator 3
 2000 00ae 0137     		adds	r7, r7, #1
 2001              	.LVL221:
 2002 00b0 019A     		ldr	r2, [sp, #4]
 2003 00b2 EFE7     		b	.L188
 2004              	.LVL222:
 2005              	.L189:
 2006              	.LBE204:
 2007              	.LBE198:
 506:..\..\..\liblc3\src/tns.c ****                 lc3_tns_coeffs_models + i) - 8;
 507:..\..\..\liblc3\src/tns.c ****     }
 508:..\..\..\liblc3\src/tns.c **** 
 509:..\..\..\liblc3\src/tns.c ****     return 0;
 2008              		.loc 1 509 0
 2009 00b4 0020     		movs	r0, #0
 2010              	.LBB205:
 2011 00b6 01E0     		b	.L181
 2012              	.LVL223:
 2013              	.L187:
 502:..\..\..\liblc3\src/tns.c **** 
 2014              		.loc 1 502 0
 2015 00b8 4FF0FF30 		mov	r0, #-1
 2016              	.LVL224:
 2017              	.L181:
 2018              	.LBE205:
 510:..\..\..\liblc3\src/tns.c **** }
 2019              		.loc 1 510 0
 2020 00bc 03B0     		add	sp, sp, #12
 2021              		.cfi_def_cfa_offset 36
 2022              		@ sp needed
 2023 00be BDE8F08F 		pop	{r4, r5, r6, r7, r8, r9, r10, fp, pc}
 2024              	.LVL225:
 2025              	.L191:
 2026 00c2 00BF     		.align	2
 2027              	.L190:
 2028 00c4 00000000 		.word	lc3_tns_order_models
 2029 00c8 00000000 		.word	lc3_tns_coeffs_models
 2030              		.cfi_endproc
 2031              	.LFE33:
 2032              		.size	lc3_tns_get_data, .-lc3_tns_get_data
 2033              		.section	.rodata
 2034              		.align	2
 2035              		.set	.LANCHOR0,. + 0
 2036              		.type	q_inv.5677, %object
 2037              		.size	q_inv.5677, 36
 2038              	q_inv.5677:
 2039 0000 00000000 		.word	0
 2040 0004 00283C3E 		.word	1044129792
 2041 0008 00F4B83E 		.word	1052308480
 2042 000c 00C4063F 		.word	1057408000
 2043 0010 00782C3F 		.word	1059878912
 2044 0014 004A4C3F 		.word	1061964288
 2045 0018 002A653F 		.word	1063594496
 2046 001c 003A763F 		.word	1064712704
 2047 0020 00E87E3F 		.word	1065281536
 2048              		.type	sub_2m5_nb.5543, %object
ARM GAS  C:\Users\rdn\AppData\Local\Temp\ccYH9vOY.s 			page 56


 2049              		.size	sub_2m5_nb.5543, 12
 2050              	sub_2m5_nb.5543:
 2051 0024 03000000 		.word	3
 2052 0028 0A000000 		.word	10
 2053 002c 14000000 		.word	20
 2054              		.type	sub_2m5_wb.5544, %object
 2055              		.size	sub_2m5_wb.5544, 12
 2056              	sub_2m5_wb.5544:
 2057 0030 03000000 		.word	3
 2058 0034 14000000 		.word	20
 2059 0038 28000000 		.word	40
 2060              		.type	sub_2m5_sswb.5545, %object
 2061              		.size	sub_2m5_sswb.5545, 12
 2062              	sub_2m5_sswb.5545:
 2063 003c 03000000 		.word	3
 2064 0040 1E000000 		.word	30
 2065 0044 3C000000 		.word	60
 2066              		.type	sub_2m5_swb.5546, %object
 2067              		.size	sub_2m5_swb.5546, 12
 2068              	sub_2m5_swb.5546:
 2069 0048 03000000 		.word	3
 2070 004c 28000000 		.word	40
 2071 0050 50000000 		.word	80
 2072              		.type	sub_2m5_fb.5547, %object
 2073              		.size	sub_2m5_fb.5547, 12
 2074              	sub_2m5_fb.5547:
 2075 0054 03000000 		.word	3
 2076 0058 33000000 		.word	51
 2077 005c 64000000 		.word	100
 2078              		.type	sub_5m_nb.5548, %object
 2079              		.size	sub_5m_nb.5548, 12
 2080              	sub_5m_nb.5548:
 2081 0060 06000000 		.word	6
 2082 0064 17000000 		.word	23
 2083 0068 28000000 		.word	40
 2084              		.type	sub_5m_wb.5549, %object
 2085              		.size	sub_5m_wb.5549, 12
 2086              	sub_5m_wb.5549:
 2087 006c 06000000 		.word	6
 2088 0070 2B000000 		.word	43
 2089 0074 50000000 		.word	80
 2090              		.type	sub_5m_sswb.5550, %object
 2091              		.size	sub_5m_sswb.5550, 12
 2092              	sub_5m_sswb.5550:
 2093 0078 06000000 		.word	6
 2094 007c 3F000000 		.word	63
 2095 0080 78000000 		.word	120
 2096              		.type	sub_5m_swb.5551, %object
 2097              		.size	sub_5m_swb.5551, 20
 2098              	sub_5m_swb.5551:
 2099 0084 06000000 		.word	6
 2100 0088 2B000000 		.word	43
 2101 008c 50000000 		.word	80
 2102 0090 78000000 		.word	120
 2103 0094 A0000000 		.word	160
 2104              		.type	sub_5m_fb.5552, %object
 2105              		.size	sub_5m_fb.5552, 20
ARM GAS  C:\Users\rdn\AppData\Local\Temp\ccYH9vOY.s 			page 57


 2106              	sub_5m_fb.5552:
 2107 0098 06000000 		.word	6
 2108 009c 35000000 		.word	53
 2109 00a0 64000000 		.word	100
 2110 00a4 96000000 		.word	150
 2111 00a8 C8000000 		.word	200
 2112              		.type	sub_7m5_nb.5553, %object
 2113              		.size	sub_7m5_nb.5553, 16
 2114              	sub_7m5_nb.5553:
 2115 00ac 09000000 		.word	9
 2116 00b0 1A000000 		.word	26
 2117 00b4 2B000000 		.word	43
 2118 00b8 3C000000 		.word	60
 2119              		.type	sub_7m5_wb.5554, %object
 2120              		.size	sub_7m5_wb.5554, 16
 2121              	sub_7m5_wb.5554:
 2122 00bc 09000000 		.word	9
 2123 00c0 2E000000 		.word	46
 2124 00c4 53000000 		.word	83
 2125 00c8 78000000 		.word	120
 2126              		.type	sub_7m5_sswb.5555, %object
 2127              		.size	sub_7m5_sswb.5555, 16
 2128              	sub_7m5_sswb.5555:
 2129 00cc 09000000 		.word	9
 2130 00d0 42000000 		.word	66
 2131 00d4 7B000000 		.word	123
 2132 00d8 B4000000 		.word	180
 2133              		.type	sub_7m5_swb.5556, %object
 2134              		.size	sub_7m5_swb.5556, 28
 2135              	sub_7m5_swb.5556:
 2136 00dc 09000000 		.word	9
 2137 00e0 2E000000 		.word	46
 2138 00e4 52000000 		.word	82
 2139 00e8 78000000 		.word	120
 2140 00ec 9F000000 		.word	159
 2141 00f0 C8000000 		.word	200
 2142 00f4 F0000000 		.word	240
 2143              		.type	sub_7m5_fb.5557, %object
 2144              		.size	sub_7m5_fb.5557, 28
 2145              	sub_7m5_fb.5557:
 2146 00f8 09000000 		.word	9
 2147 00fc 38000000 		.word	56
 2148 0100 67000000 		.word	103
 2149 0104 96000000 		.word	150
 2150 0108 C8000000 		.word	200
 2151 010c FA000000 		.word	250
 2152 0110 2C010000 		.word	300
 2153              		.type	sub_10m_nb.5558, %object
 2154              		.size	sub_10m_nb.5558, 16
 2155              	sub_10m_nb.5558:
 2156 0114 0C000000 		.word	12
 2157 0118 22000000 		.word	34
 2158 011c 39000000 		.word	57
 2159 0120 50000000 		.word	80
 2160              		.type	sub_10m_wb.5559, %object
 2161              		.size	sub_10m_wb.5559, 16
 2162              	sub_10m_wb.5559:
ARM GAS  C:\Users\rdn\AppData\Local\Temp\ccYH9vOY.s 			page 58


 2163 0124 0C000000 		.word	12
 2164 0128 3D000000 		.word	61
 2165 012c 6E000000 		.word	110
 2166 0130 A0000000 		.word	160
 2167              		.type	sub_10m_sswb.5560, %object
 2168              		.size	sub_10m_sswb.5560, 16
 2169              	sub_10m_sswb.5560:
 2170 0134 0C000000 		.word	12
 2171 0138 58000000 		.word	88
 2172 013c A4000000 		.word	164
 2173 0140 F0000000 		.word	240
 2174              		.type	sub_10m_swb.5561, %object
 2175              		.size	sub_10m_swb.5561, 28
 2176              	sub_10m_swb.5561:
 2177 0144 0C000000 		.word	12
 2178 0148 3D000000 		.word	61
 2179 014c 6E000000 		.word	110
 2180 0150 A0000000 		.word	160
 2181 0154 D5000000 		.word	213
 2182 0158 0A010000 		.word	266
 2183 015c 40010000 		.word	320
 2184              		.type	sub_10m_fb.5562, %object
 2185              		.size	sub_10m_fb.5562, 28
 2186              	sub_10m_fb.5562:
 2187 0160 0C000000 		.word	12
 2188 0164 4A000000 		.word	74
 2189 0168 89000000 		.word	137
 2190 016c C8000000 		.word	200
 2191 0170 0A010000 		.word	266
 2192 0174 4D010000 		.word	333
 2193 0178 90010000 		.word	400
 2194              		.type	lag_window.5563, %object
 2195              		.size	lag_window.5563, 36
 2196              	lag_window.5563:
 2197 017c 0000803F 		.word	1065353216
 2198 0180 C47E7F3F 		.word	1065320132
 2199 0184 96FC7D3F 		.word	1065221270
 2200 0188 047E7B3F 		.word	1065057796
 2201 018c 8A0A783F 		.word	1064831626
 2202 0190 6EAC733F 		.word	1064545390
 2203 0194 8E706E3F 		.word	1064202382
 2204 0198 1F66683F 		.word	1063806495
 2205 019c 659E613F 		.word	1063362149
 2206              		.type	q_thr.5662, %object
 2207              		.size	q_thr.5662, 32
 2208              	q_thr.5662:
 2209 01a0 00F0BC3D 		.word	1035792384
 2210 01a4 001C8C3E 		.word	1049369600
 2211 01a8 0038E43E 		.word	1055143936
 2212 01ac 00461A3F 		.word	1058686464
 2213 01b0 00303D3F 		.word	1060974592
 2214 01b4 00A8593F 		.word	1062840320
 2215 01b8 00B66E3F 		.word	1064220160
 2216 01bc 00A47B3F 		.word	1065067520
 2217              		.text
 2218              	.Letext0:
 2219              		.file 4 "c:\\program files (x86)\\cypress\\psoc creator\\4.4\\psoc creator\\import\\gnu\\arm\\5.4.
ARM GAS  C:\Users\rdn\AppData\Local\Temp\ccYH9vOY.s 			page 59


 2220              		.file 5 "c:\\program files (x86)\\cypress\\psoc creator\\4.4\\psoc creator\\import\\gnu\\arm\\5.4.
 2221              		.file 6 "./liblc3/include/lc3_private.h"
 2222              		.file 7 "..\\..\\..\\liblc3\\src\\common.h"
 2223              		.file 8 "..\\..\\..\\liblc3\\src\\tns.h"
 2224              		.section	.debug_info,"",%progbits
 2225              	.Ldebug_info0:
 2226 0000 7E1A0000 		.4byte	0x1a7e
 2227 0004 0400     		.2byte	0x4
 2228 0006 00000000 		.4byte	.Ldebug_abbrev0
 2229 000a 04       		.byte	0x4
 2230 000b 01       		.uleb128 0x1
 2231 000c DD040000 		.4byte	.LASF138
 2232 0010 0C       		.byte	0xc
 2233 0011 6D060000 		.4byte	.LASF139
 2234 0015 B7020000 		.4byte	.LASF140
 2235 0019 00030000 		.4byte	.Ldebug_ranges0+0x300
 2236 001d 00000000 		.4byte	0
 2237 0021 00000000 		.4byte	.Ldebug_line0
 2238 0025 02       		.uleb128 0x2
 2239 0026 01       		.byte	0x1
 2240 0027 06       		.byte	0x6
 2241 0028 C3060000 		.4byte	.LASF0
 2242 002c 03       		.uleb128 0x3
 2243 002d E1050000 		.4byte	.LASF3
 2244 0031 04       		.byte	0x4
 2245 0032 1D       		.byte	0x1d
 2246 0033 37000000 		.4byte	0x37
 2247 0037 02       		.uleb128 0x2
 2248 0038 01       		.byte	0x1
 2249 0039 08       		.byte	0x8
 2250 003a 55060000 		.4byte	.LASF1
 2251 003e 02       		.uleb128 0x2
 2252 003f 02       		.byte	0x2
 2253 0040 05       		.byte	0x5
 2254 0041 B5040000 		.4byte	.LASF2
 2255 0045 03       		.uleb128 0x3
 2256 0046 CC010000 		.4byte	.LASF4
 2257 004a 04       		.byte	0x4
 2258 004b 2B       		.byte	0x2b
 2259 004c 50000000 		.4byte	0x50
 2260 0050 02       		.uleb128 0x2
 2261 0051 02       		.byte	0x2
 2262 0052 07       		.byte	0x7
 2263 0053 DE060000 		.4byte	.LASF5
 2264 0057 02       		.uleb128 0x2
 2265 0058 04       		.byte	0x4
 2266 0059 05       		.byte	0x5
 2267 005a CA040000 		.4byte	.LASF6
 2268 005e 02       		.uleb128 0x2
 2269 005f 04       		.byte	0x4
 2270 0060 07       		.byte	0x7
 2271 0061 39060000 		.4byte	.LASF7
 2272 0065 02       		.uleb128 0x2
 2273 0066 08       		.byte	0x8
 2274 0067 05       		.byte	0x5
 2275 0068 43030000 		.4byte	.LASF8
 2276 006c 02       		.uleb128 0x2
ARM GAS  C:\Users\rdn\AppData\Local\Temp\ccYH9vOY.s 			page 60


 2277 006d 08       		.byte	0x8
 2278 006e 07       		.byte	0x7
 2279 006f A5010000 		.4byte	.LASF9
 2280 0073 04       		.uleb128 0x4
 2281 0074 04       		.byte	0x4
 2282 0075 05       		.byte	0x5
 2283 0076 696E7400 		.ascii	"int\000"
 2284 007a 02       		.uleb128 0x2
 2285 007b 04       		.byte	0x4
 2286 007c 07       		.byte	0x7
 2287 007d 96000000 		.4byte	.LASF10
 2288 0081 03       		.uleb128 0x3
 2289 0082 11030000 		.4byte	.LASF11
 2290 0086 05       		.byte	0x5
 2291 0087 18       		.byte	0x18
 2292 0088 2C000000 		.4byte	0x2c
 2293 008c 03       		.uleb128 0x3
 2294 008d 75040000 		.4byte	.LASF12
 2295 0091 05       		.byte	0x5
 2296 0092 24       		.byte	0x24
 2297 0093 45000000 		.4byte	0x45
 2298 0097 05       		.uleb128 0x5
 2299 0098 13010000 		.4byte	.LASF18
 2300 009c 01       		.byte	0x1
 2301 009d 37000000 		.4byte	0x37
 2302 00a1 06       		.byte	0x6
 2303 00a2 3B       		.byte	0x3b
 2304 00a3 C6000000 		.4byte	0xc6
 2305 00a7 06       		.uleb128 0x6
 2306 00a8 BF040000 		.4byte	.LASF13
 2307 00ac 00       		.byte	0
 2308 00ad 06       		.uleb128 0x6
 2309 00ae 79010000 		.4byte	.LASF14
 2310 00b2 01       		.byte	0x1
 2311 00b3 06       		.uleb128 0x6
 2312 00b4 94040000 		.4byte	.LASF15
 2313 00b8 02       		.byte	0x2
 2314 00b9 06       		.uleb128 0x6
 2315 00ba 7C020000 		.4byte	.LASF16
 2316 00be 03       		.byte	0x3
 2317 00bf 06       		.uleb128 0x6
 2318 00c0 EE010000 		.4byte	.LASF17
 2319 00c4 04       		.byte	0x4
 2320 00c5 00       		.byte	0
 2321 00c6 05       		.uleb128 0x5
 2322 00c7 4B060000 		.4byte	.LASF19
 2323 00cb 01       		.byte	0x1
 2324 00cc 37000000 		.4byte	0x37
 2325 00d0 06       		.byte	0x6
 2326 00d1 49       		.byte	0x49
 2327 00d2 07010000 		.4byte	0x107
 2328 00d6 06       		.uleb128 0x6
 2329 00d7 B6060000 		.4byte	.LASF20
 2330 00db 00       		.byte	0
 2331 00dc 06       		.uleb128 0x6
 2332 00dd F1050000 		.4byte	.LASF21
 2333 00e1 01       		.byte	0x1
ARM GAS  C:\Users\rdn\AppData\Local\Temp\ccYH9vOY.s 			page 61


 2334 00e2 06       		.uleb128 0x6
 2335 00e3 16000000 		.4byte	.LASF22
 2336 00e7 02       		.byte	0x2
 2337 00e8 06       		.uleb128 0x6
 2338 00e9 E0010000 		.4byte	.LASF23
 2339 00ed 03       		.byte	0x3
 2340 00ee 06       		.uleb128 0x6
 2341 00ef A3000000 		.4byte	.LASF24
 2342 00f3 04       		.byte	0x4
 2343 00f4 06       		.uleb128 0x6
 2344 00f5 1A010000 		.4byte	.LASF25
 2345 00f9 05       		.byte	0x5
 2346 00fa 06       		.uleb128 0x6
 2347 00fb 46070000 		.4byte	.LASF26
 2348 00ff 06       		.byte	0x6
 2349 0100 06       		.uleb128 0x6
 2350 0101 7E040000 		.4byte	.LASF27
 2351 0105 07       		.byte	0x7
 2352 0106 00       		.byte	0
 2353 0107 02       		.uleb128 0x2
 2354 0108 01       		.byte	0x1
 2355 0109 02       		.byte	0x2
 2356 010a 2E020000 		.4byte	.LASF28
 2357 010e 07       		.uleb128 0x7
 2358 010f 25010000 		.4byte	0x125
 2359 0113 1E010000 		.4byte	0x11e
 2360 0117 08       		.uleb128 0x8
 2361 0118 1E010000 		.4byte	0x11e
 2362 011c 01       		.byte	0x1
 2363 011d 00       		.byte	0
 2364 011e 02       		.uleb128 0x2
 2365 011f 04       		.byte	0x4
 2366 0120 07       		.byte	0x7
 2367 0121 29060000 		.4byte	.LASF29
 2368 0125 02       		.uleb128 0x2
 2369 0126 04       		.byte	0x4
 2370 0127 04       		.byte	0x4
 2371 0128 99010000 		.4byte	.LASF30
 2372 012c 02       		.uleb128 0x2
 2373 012d 08       		.byte	0x8
 2374 012e 04       		.byte	0x4
 2375 012f 69040000 		.4byte	.LASF31
 2376 0133 02       		.uleb128 0x2
 2377 0134 01       		.byte	0x1
 2378 0135 08       		.byte	0x8
 2379 0136 8C020000 		.4byte	.LASF32
 2380 013a 02       		.uleb128 0x2
 2381 013b 08       		.byte	0x8
 2382 013c 04       		.byte	0x4
 2383 013d 3F070000 		.4byte	.LASF33
 2384 0141 05       		.uleb128 0x5
 2385 0142 87060000 		.4byte	.LASF34
 2386 0146 01       		.byte	0x1
 2387 0147 37000000 		.4byte	0x37
 2388 014b 07       		.byte	0x7
 2389 014c 76       		.byte	0x76
 2390 014d 82010000 		.4byte	0x182
ARM GAS  C:\Users\rdn\AppData\Local\Temp\ccYH9vOY.s 			page 62


 2391 0151 06       		.uleb128 0x6
 2392 0152 F5020000 		.4byte	.LASF35
 2393 0156 00       		.byte	0
 2394 0157 06       		.uleb128 0x6
 2395 0158 44000000 		.4byte	.LASF36
 2396 015c 01       		.byte	0x1
 2397 015d 06       		.uleb128 0x6
 2398 015e 16060000 		.4byte	.LASF37
 2399 0162 02       		.byte	0x2
 2400 0163 06       		.uleb128 0x6
 2401 0164 A0030000 		.4byte	.LASF38
 2402 0168 03       		.byte	0x3
 2403 0169 06       		.uleb128 0x6
 2404 016a 02070000 		.4byte	.LASF39
 2405 016e 04       		.byte	0x4
 2406 016f 06       		.uleb128 0x6
 2407 0170 30000000 		.4byte	.LASF40
 2408 0174 05       		.byte	0x5
 2409 0175 06       		.uleb128 0x6
 2410 0176 34040000 		.4byte	.LASF41
 2411 017a 06       		.byte	0x6
 2412 017b 06       		.uleb128 0x6
 2413 017c 1E070000 		.4byte	.LASF42
 2414 0180 07       		.byte	0x7
 2415 0181 00       		.byte	0
 2416 0182 05       		.uleb128 0x5
 2417 0183 49010000 		.4byte	.LASF43
 2418 0187 01       		.byte	0x1
 2419 0188 37000000 		.4byte	0x37
 2420 018c 02       		.byte	0x2
 2421 018d 45       		.byte	0x45
 2422 018e 9F010000 		.4byte	0x19f
 2423 0192 06       		.uleb128 0x6
 2424 0193 A3060000 		.4byte	.LASF44
 2425 0197 00       		.byte	0
 2426 0198 06       		.uleb128 0x6
 2427 0199 AE050000 		.4byte	.LASF45
 2428 019d 01       		.byte	0x1
 2429 019e 00       		.byte	0
 2430 019f 09       		.uleb128 0x9
 2431 01a0 62030000 		.4byte	.LASF47
 2432 01a4 04       		.byte	0x4
 2433 01a5 02       		.byte	0x2
 2434 01a6 4F       		.byte	0x4f
 2435 01a7 CA010000 		.4byte	0x1ca
 2436 01ab 0A       		.uleb128 0xa
 2437 01ac 6C6F7700 		.ascii	"low\000"
 2438 01b0 02       		.byte	0x2
 2439 01b1 50       		.byte	0x50
 2440 01b2 8C000000 		.4byte	0x8c
 2441 01b6 02       		.byte	0x2
 2442 01b7 10       		.byte	0x10
 2443 01b8 00       		.byte	0
 2444 01b9 00       		.byte	0
 2445 01ba 0B       		.uleb128 0xb
 2446 01bb ED030000 		.4byte	.LASF46
 2447 01bf 02       		.byte	0x2
ARM GAS  C:\Users\rdn\AppData\Local\Temp\ccYH9vOY.s 			page 63


 2448 01c0 51       		.byte	0x51
 2449 01c1 8C000000 		.4byte	0x8c
 2450 01c5 02       		.byte	0x2
 2451 01c6 10       		.byte	0x10
 2452 01c7 00       		.byte	0
 2453 01c8 02       		.byte	0x2
 2454 01c9 00       		.byte	0
 2455 01ca 09       		.uleb128 0x9
 2456 01cb 90050000 		.4byte	.LASF48
 2457 01cf 44       		.byte	0x44
 2458 01d0 02       		.byte	0x2
 2459 01d1 54       		.byte	0x54
 2460 01d2 E1010000 		.4byte	0x1e1
 2461 01d6 0C       		.uleb128 0xc
 2462 01d7 7300     		.ascii	"s\000"
 2463 01d9 02       		.byte	0x2
 2464 01da 55       		.byte	0x55
 2465 01db E1010000 		.4byte	0x1e1
 2466 01df 00       		.byte	0
 2467 01e0 00       		.byte	0
 2468 01e1 07       		.uleb128 0x7
 2469 01e2 9F010000 		.4byte	0x19f
 2470 01e6 F1010000 		.4byte	0x1f1
 2471 01ea 08       		.uleb128 0x8
 2472 01eb 1E010000 		.4byte	0x11e
 2473 01ef 10       		.byte	0x10
 2474 01f0 00       		.byte	0
 2475 01f1 09       		.uleb128 0x9
 2476 01f2 A4020000 		.4byte	.LASF49
 2477 01f6 0C       		.byte	0xc
 2478 01f7 02       		.byte	0x2
 2479 01f8 5E       		.byte	0x5e
 2480 01f9 1E020000 		.4byte	0x21e
 2481 01fd 0C       		.uleb128 0xc
 2482 01fe 7600     		.ascii	"v\000"
 2483 0200 02       		.byte	0x2
 2484 0201 5F       		.byte	0x5f
 2485 0202 7A000000 		.4byte	0x7a
 2486 0206 00       		.byte	0
 2487 0207 0C       		.uleb128 0xc
 2488 0208 6E00     		.ascii	"n\000"
 2489 020a 02       		.byte	0x2
 2490 020b 60       		.byte	0x60
 2491 020c 73000000 		.4byte	0x73
 2492 0210 04       		.byte	0x4
 2493 0211 0D       		.uleb128 0xd
 2494 0212 EF020000 		.4byte	.LASF50
 2495 0216 02       		.byte	0x2
 2496 0217 60       		.byte	0x60
 2497 0218 73000000 		.4byte	0x73
 2498 021c 08       		.byte	0x8
 2499 021d 00       		.byte	0
 2500 021e 09       		.uleb128 0x9
 2501 021f 63070000 		.4byte	.LASF51
 2502 0223 18       		.byte	0x18
 2503 0224 02       		.byte	0x2
 2504 0225 65       		.byte	0x65
ARM GAS  C:\Users\rdn\AppData\Local\Temp\ccYH9vOY.s 			page 64


 2505 0226 73020000 		.4byte	0x273
 2506 022a 0C       		.uleb128 0xc
 2507 022b 6C6F7700 		.ascii	"low\000"
 2508 022f 02       		.byte	0x2
 2509 0230 66       		.byte	0x66
 2510 0231 7A000000 		.4byte	0x7a
 2511 0235 00       		.byte	0
 2512 0236 0D       		.uleb128 0xd
 2513 0237 ED030000 		.4byte	.LASF46
 2514 023b 02       		.byte	0x2
 2515 023c 66       		.byte	0x66
 2516 023d 7A000000 		.4byte	0x7a
 2517 0241 04       		.byte	0x4
 2518 0242 0D       		.uleb128 0xd
 2519 0243 48040000 		.4byte	.LASF52
 2520 0247 02       		.byte	0x2
 2521 0248 67       		.byte	0x67
 2522 0249 73000000 		.4byte	0x73
 2523 024d 08       		.byte	0x8
 2524 024e 0D       		.uleb128 0xd
 2525 024f 9F010000 		.4byte	.LASF53
 2526 0253 02       		.byte	0x2
 2527 0254 67       		.byte	0x67
 2528 0255 73000000 		.4byte	0x73
 2529 0259 0C       		.byte	0xc
 2530 025a 0D       		.uleb128 0xd
 2531 025b C7000000 		.4byte	.LASF54
 2532 025f 02       		.byte	0x2
 2533 0260 67       		.byte	0x67
 2534 0261 73000000 		.4byte	0x73
 2535 0265 10       		.byte	0x10
 2536 0266 0D       		.uleb128 0xd
 2537 0267 08010000 		.4byte	.LASF55
 2538 026b 02       		.byte	0x2
 2539 026c 68       		.byte	0x68
 2540 026d 07010000 		.4byte	0x107
 2541 0271 14       		.byte	0x14
 2542 0272 00       		.byte	0
 2543 0273 09       		.uleb128 0x9
 2544 0274 69000000 		.4byte	.LASF56
 2545 0278 10       		.byte	0x10
 2546 0279 02       		.byte	0x2
 2547 027a 6B       		.byte	0x6b
 2548 027b B0020000 		.4byte	0x2b0
 2549 027f 0D       		.uleb128 0xd
 2550 0280 EB050000 		.4byte	.LASF57
 2551 0284 02       		.byte	0x2
 2552 0285 6C       		.byte	0x6c
 2553 0286 B0020000 		.4byte	0x2b0
 2554 028a 00       		.byte	0
 2555 028b 0C       		.uleb128 0xc
 2556 028c 656E6400 		.ascii	"end\000"
 2557 0290 02       		.byte	0x2
 2558 0291 6C       		.byte	0x6c
 2559 0292 B0020000 		.4byte	0x2b0
 2560 0296 04       		.byte	0x4
 2561 0297 0D       		.uleb128 0xd
ARM GAS  C:\Users\rdn\AppData\Local\Temp\ccYH9vOY.s 			page 65


 2562 0298 AF070000 		.4byte	.LASF58
 2563 029c 02       		.byte	0x2
 2564 029d 6D       		.byte	0x6d
 2565 029e BB020000 		.4byte	0x2bb
 2566 02a2 08       		.byte	0x8
 2567 02a3 0D       		.uleb128 0xd
 2568 02a4 31030000 		.4byte	.LASF59
 2569 02a8 02       		.byte	0x2
 2570 02a9 6D       		.byte	0x6d
 2571 02aa BB020000 		.4byte	0x2bb
 2572 02ae 0C       		.byte	0xc
 2573 02af 00       		.byte	0
 2574 02b0 0E       		.uleb128 0xe
 2575 02b1 04       		.byte	0x4
 2576 02b2 B6020000 		.4byte	0x2b6
 2577 02b6 0F       		.uleb128 0xf
 2578 02b7 81000000 		.4byte	0x81
 2579 02bb 0E       		.uleb128 0xe
 2580 02bc 04       		.byte	0x4
 2581 02bd 81000000 		.4byte	0x81
 2582 02c1 09       		.uleb128 0x9
 2583 02c2 4E040000 		.4byte	.LASF60
 2584 02c6 38       		.byte	0x38
 2585 02c7 02       		.byte	0x2
 2586 02c8 70       		.byte	0x70
 2587 02c9 FD020000 		.4byte	0x2fd
 2588 02cd 0D       		.uleb128 0xd
 2589 02ce 0E010000 		.4byte	.LASF61
 2590 02d2 02       		.byte	0x2
 2591 02d3 71       		.byte	0x71
 2592 02d4 82010000 		.4byte	0x182
 2593 02d8 00       		.byte	0
 2594 02d9 0C       		.uleb128 0xc
 2595 02da 616300   		.ascii	"ac\000"
 2596 02dd 02       		.byte	0x2
 2597 02de 72       		.byte	0x72
 2598 02df 1E020000 		.4byte	0x21e
 2599 02e3 04       		.byte	0x4
 2600 02e4 0D       		.uleb128 0xd
 2601 02e5 87020000 		.4byte	.LASF62
 2602 02e9 02       		.byte	0x2
 2603 02ea 73       		.byte	0x73
 2604 02eb F1010000 		.4byte	0x1f1
 2605 02ef 1C       		.byte	0x1c
 2606 02f0 0D       		.uleb128 0xd
 2607 02f1 79000000 		.4byte	.LASF63
 2608 02f5 02       		.byte	0x2
 2609 02f6 74       		.byte	0x74
 2610 02f7 73020000 		.4byte	0x273
 2611 02fb 28       		.byte	0x28
 2612 02fc 00       		.byte	0
 2613 02fd 03       		.uleb128 0x3
 2614 02fe 4D020000 		.4byte	.LASF64
 2615 0302 02       		.byte	0x2
 2616 0303 75       		.byte	0x75
 2617 0304 C1020000 		.4byte	0x2c1
 2618 0308 09       		.uleb128 0x9
ARM GAS  C:\Users\rdn\AppData\Local\Temp\ccYH9vOY.s 			page 66


 2619 0309 6C010000 		.4byte	.LASF65
 2620 030d 50       		.byte	0x50
 2621 030e 08       		.byte	0x8
 2622 030f 1E       		.byte	0x1e
 2623 0310 44030000 		.4byte	0x344
 2624 0314 0D       		.uleb128 0xd
 2625 0315 FF050000 		.4byte	.LASF66
 2626 0319 08       		.byte	0x8
 2627 031a 1F       		.byte	0x1f
 2628 031b 73000000 		.4byte	0x73
 2629 031f 00       		.byte	0
 2630 0320 0D       		.uleb128 0xd
 2631 0321 08060000 		.4byte	.LASF67
 2632 0325 08       		.byte	0x8
 2633 0326 20       		.byte	0x20
 2634 0327 07010000 		.4byte	0x107
 2635 032b 04       		.byte	0x4
 2636 032c 0D       		.uleb128 0xd
 2637 032d 60000000 		.4byte	.LASF68
 2638 0331 08       		.byte	0x8
 2639 0332 21       		.byte	0x21
 2640 0333 44030000 		.4byte	0x344
 2641 0337 08       		.byte	0x8
 2642 0338 0C       		.uleb128 0xc
 2643 0339 726300   		.ascii	"rc\000"
 2644 033c 08       		.byte	0x8
 2645 033d 22       		.byte	0x22
 2646 033e 54030000 		.4byte	0x354
 2647 0342 10       		.byte	0x10
 2648 0343 00       		.byte	0
 2649 0344 07       		.uleb128 0x7
 2650 0345 73000000 		.4byte	0x73
 2651 0349 54030000 		.4byte	0x354
 2652 034d 08       		.uleb128 0x8
 2653 034e 1E010000 		.4byte	0x11e
 2654 0352 01       		.byte	0x1
 2655 0353 00       		.byte	0
 2656 0354 07       		.uleb128 0x7
 2657 0355 73000000 		.4byte	0x73
 2658 0359 6A030000 		.4byte	0x36a
 2659 035d 08       		.uleb128 0x8
 2660 035e 1E010000 		.4byte	0x11e
 2661 0362 01       		.byte	0x1
 2662 0363 08       		.uleb128 0x8
 2663 0364 1E010000 		.4byte	0x11e
 2664 0368 07       		.byte	0x7
 2665 0369 00       		.byte	0
 2666 036a 03       		.uleb128 0x3
 2667 036b EE000000 		.4byte	.LASF69
 2668 036f 08       		.byte	0x8
 2669 0370 23       		.byte	0x23
 2670 0371 08030000 		.4byte	0x308
 2671 0375 0E       		.uleb128 0xe
 2672 0376 04       		.byte	0x4
 2673 0377 7B030000 		.4byte	0x37b
 2674 037b 0F       		.uleb128 0xf
 2675 037c 25010000 		.4byte	0x125
ARM GAS  C:\Users\rdn\AppData\Local\Temp\ccYH9vOY.s 			page 67


 2676 0380 10       		.uleb128 0x10
 2677 0381 32060000 		.4byte	.LASF70
 2678 0385 03       		.byte	0x3
 2679 0386 32       		.byte	0x32
 2680 0387 73000000 		.4byte	0x73
 2681 038b 03       		.byte	0x3
 2682 038c A5030000 		.4byte	0x3a5
 2683 0390 11       		.uleb128 0x11
 2684 0391 647400   		.ascii	"dt\000"
 2685 0394 03       		.byte	0x3
 2686 0395 32       		.byte	0x32
 2687 0396 97000000 		.4byte	0x97
 2688 039a 11       		.uleb128 0x11
 2689 039b 737200   		.ascii	"sr\000"
 2690 039e 03       		.byte	0x3
 2691 039f 32       		.byte	0x32
 2692 03a0 C6000000 		.4byte	0xc6
 2693 03a4 00       		.byte	0
 2694 03a5 10       		.uleb128 0x10
 2695 03a6 83010000 		.4byte	.LASF71
 2696 03aa 01       		.byte	0x1
 2697 03ab 20       		.byte	0x20
 2698 03ac 07010000 		.4byte	0x107
 2699 03b0 01       		.byte	0x1
 2700 03b1 CB030000 		.4byte	0x3cb
 2701 03b5 11       		.uleb128 0x11
 2702 03b6 647400   		.ascii	"dt\000"
 2703 03b9 01       		.byte	0x1
 2704 03ba 20       		.byte	0x20
 2705 03bb 97000000 		.4byte	0x97
 2706 03bf 12       		.uleb128 0x12
 2707 03c0 C4030000 		.4byte	.LASF72
 2708 03c4 01       		.byte	0x1
 2709 03c5 20       		.byte	0x20
 2710 03c6 73000000 		.4byte	0x73
 2711 03ca 00       		.byte	0
 2712 03cb 13       		.uleb128 0x13
 2713 03cc F9010000 		.4byte	.LASF83
 2714 03d0 02       		.byte	0x2
 2715 03d1 DA       		.byte	0xda
 2716 03d2 03       		.byte	0x3
 2717 03d3 00040000 		.4byte	0x400
 2718 03d7 12       		.uleb128 0x12
 2719 03d8 36030000 		.4byte	.LASF73
 2720 03dc 02       		.byte	0x2
 2721 03dd DB       		.byte	0xdb
 2722 03de 00040000 		.4byte	0x400
 2723 03e2 11       		.uleb128 0x11
 2724 03e3 7600     		.ascii	"v\000"
 2725 03e5 02       		.byte	0x2
 2726 03e6 DB       		.byte	0xdb
 2727 03e7 7A000000 		.4byte	0x7a
 2728 03eb 11       		.uleb128 0x11
 2729 03ec 6E00     		.ascii	"n\000"
 2730 03ee 02       		.byte	0x2
 2731 03ef DB       		.byte	0xdb
 2732 03f0 73000000 		.4byte	0x73
ARM GAS  C:\Users\rdn\AppData\Local\Temp\ccYH9vOY.s 			page 68


 2733 03f4 14       		.uleb128 0x14
 2734 03f5 87020000 		.4byte	.LASF62
 2735 03f9 02       		.byte	0x2
 2736 03fa DD       		.byte	0xdd
 2737 03fb 06040000 		.4byte	0x406
 2738 03ff 00       		.byte	0
 2739 0400 0E       		.uleb128 0xe
 2740 0401 04       		.byte	0x4
 2741 0402 C1020000 		.4byte	0x2c1
 2742 0406 0E       		.uleb128 0xe
 2743 0407 04       		.byte	0x4
 2744 0408 F1010000 		.4byte	0x1f1
 2745 040c 10       		.uleb128 0x10
 2746 040d E1000000 		.4byte	.LASF74
 2747 0411 02       		.byte	0x2
 2748 0412 F2       		.byte	0xf2
 2749 0413 7A000000 		.4byte	0x7a
 2750 0417 03       		.byte	0x3
 2751 0418 47040000 		.4byte	0x447
 2752 041c 12       		.uleb128 0x12
 2753 041d 36030000 		.4byte	.LASF73
 2754 0421 02       		.byte	0x2
 2755 0422 F2       		.byte	0xf2
 2756 0423 00040000 		.4byte	0x400
 2757 0427 11       		.uleb128 0x11
 2758 0428 6E00     		.ascii	"n\000"
 2759 042a 02       		.byte	0x2
 2760 042b F2       		.byte	0xf2
 2761 042c 73000000 		.4byte	0x73
 2762 0430 14       		.uleb128 0x14
 2763 0431 87020000 		.4byte	.LASF62
 2764 0435 02       		.byte	0x2
 2765 0436 F4       		.byte	0xf4
 2766 0437 06040000 		.4byte	0x406
 2767 043b 15       		.uleb128 0x15
 2768 043c 16       		.uleb128 0x16
 2769 043d 7600     		.ascii	"v\000"
 2770 043f 02       		.byte	0x2
 2771 0440 F7       		.byte	0xf7
 2772 0441 73000000 		.4byte	0x73
 2773 0445 00       		.byte	0
 2774 0446 00       		.byte	0
 2775 0447 17       		.uleb128 0x17
 2776 0448 95060000 		.4byte	.LASF79
 2777 044c 01       		.byte	0x1
 2778 044d 1001     		.2byte	0x110
 2779 044f 00000000 		.4byte	.LFB26
 2780 0453 34000000 		.4byte	.LFE26-.LFB26
 2781 0457 01       		.uleb128 0x1
 2782 0458 9C       		.byte	0x9c
 2783 0459 BF040000 		.4byte	0x4bf
 2784 045d 18       		.uleb128 0x18
 2785 045e 68060000 		.4byte	.LASF75
 2786 0462 01       		.byte	0x1
 2787 0463 1001     		.2byte	0x110
 2788 0465 BF040000 		.4byte	0x4bf
 2789 0469 01       		.uleb128 0x1
ARM GAS  C:\Users\rdn\AppData\Local\Temp\ccYH9vOY.s 			page 69


 2790 046a 50       		.byte	0x50
 2791 046b 18       		.uleb128 0x18
 2792 046c 9E020000 		.4byte	.LASF76
 2793 0470 01       		.byte	0x1
 2794 0471 1001     		.2byte	0x110
 2795 0473 73000000 		.4byte	0x73
 2796 0477 01       		.uleb128 0x1
 2797 0478 51       		.byte	0x51
 2798 0479 19       		.uleb128 0x19
 2799 047a 726300   		.ascii	"rc\000"
 2800 047d 01       		.byte	0x1
 2801 047e 1001     		.2byte	0x110
 2802 0480 CA040000 		.4byte	0x4ca
 2803 0484 00000000 		.4byte	.LLST0
 2804 0488 1A       		.uleb128 0x1a
 2805 0489 34020000 		.4byte	.LASF77
 2806 048d 01       		.byte	0x1
 2807 048e 1501     		.2byte	0x115
 2808 0490 E0040000 		.4byte	0x4e0
 2809 0494 05       		.uleb128 0x5
 2810 0495 03       		.byte	0x3
 2811 0496 00000000 		.4byte	q_inv.5677
 2812 049a 1B       		.uleb128 0x1b
 2813 049b 6900     		.ascii	"i\000"
 2814 049d 01       		.byte	0x1
 2815 049e 1A01     		.2byte	0x11a
 2816 04a0 73000000 		.4byte	0x73
 2817 04a4 21000000 		.4byte	.LLST1
 2818 04a8 1C       		.uleb128 0x1c
 2819 04a9 00000000 		.4byte	.Ldebug_ranges0+0
 2820 04ad 1D       		.uleb128 0x1d
 2821 04ae 63060000 		.4byte	.LASF78
 2822 04b2 01       		.byte	0x1
 2823 04b3 1D01     		.2byte	0x11d
 2824 04b5 25010000 		.4byte	0x125
 2825 04b9 40000000 		.4byte	.LLST2
 2826 04bd 00       		.byte	0
 2827 04be 00       		.byte	0
 2828 04bf 0E       		.uleb128 0xe
 2829 04c0 04       		.byte	0x4
 2830 04c1 C5040000 		.4byte	0x4c5
 2831 04c5 0F       		.uleb128 0xf
 2832 04c6 73000000 		.4byte	0x73
 2833 04ca 0E       		.uleb128 0xe
 2834 04cb 04       		.byte	0x4
 2835 04cc 25010000 		.4byte	0x125
 2836 04d0 07       		.uleb128 0x7
 2837 04d1 25010000 		.4byte	0x125
 2838 04d5 E0040000 		.4byte	0x4e0
 2839 04d9 08       		.uleb128 0x8
 2840 04da 1E010000 		.4byte	0x11e
 2841 04de 08       		.byte	0x8
 2842 04df 00       		.byte	0
 2843 04e0 0F       		.uleb128 0xf
 2844 04e1 D0040000 		.4byte	0x4d0
 2845 04e5 17       		.uleb128 0x17
 2846 04e6 06040000 		.4byte	.LASF80
ARM GAS  C:\Users\rdn\AppData\Local\Temp\ccYH9vOY.s 			page 70


 2847 04ea 02       		.byte	0x2
 2848 04eb 0201     		.2byte	0x102
 2849 04ed 00000000 		.4byte	.LFB11
 2850 04f1 38000000 		.4byte	.LFE11-.LFB11
 2851 04f5 01       		.uleb128 0x1
 2852 04f6 9C       		.byte	0x9c
 2853 04f7 6A050000 		.4byte	0x56a
 2854 04fb 1E       		.uleb128 0x1e
 2855 04fc 36030000 		.4byte	.LASF73
 2856 0500 02       		.byte	0x2
 2857 0501 0301     		.2byte	0x103
 2858 0503 00040000 		.4byte	0x400
 2859 0507 60000000 		.4byte	.LLST3
 2860 050b 1E       		.uleb128 0x1e
 2861 050c 76020000 		.4byte	.LASF81
 2862 0510 02       		.byte	0x2
 2863 0511 0301     		.2byte	0x103
 2864 0513 6A050000 		.4byte	0x56a
 2865 0517 8C000000 		.4byte	.LLST4
 2866 051b 19       		.uleb128 0x19
 2867 051c 7300     		.ascii	"s\000"
 2868 051e 02       		.byte	0x2
 2869 051f 0301     		.2byte	0x103
 2870 0521 7A000000 		.4byte	0x7a
 2871 0525 AD000000 		.4byte	.LLST5
 2872 0529 1D       		.uleb128 0x1d
 2873 052a 8C040000 		.4byte	.LASF82
 2874 052e 02       		.byte	0x2
 2875 052f 0501     		.2byte	0x105
 2876 0531 75050000 		.4byte	0x575
 2877 0535 CE000000 		.4byte	.LLST6
 2878 0539 1B       		.uleb128 0x1b
 2879 053a 616300   		.ascii	"ac\000"
 2880 053d 02       		.byte	0x2
 2881 053e 0601     		.2byte	0x106
 2882 0540 80050000 		.4byte	0x580
 2883 0544 EF000000 		.4byte	.LLST7
 2884 0548 1D       		.uleb128 0x1d
 2885 0549 ED030000 		.4byte	.LASF46
 2886 054d 02       		.byte	0x2
 2887 054e 0701     		.2byte	0x107
 2888 0550 7A000000 		.4byte	0x7a
 2889 0554 21010000 		.4byte	.LLST8
 2890 0558 1F       		.uleb128 0x1f
 2891 0559 34000000 		.4byte	.LVL12
 2892 055d 4C1A0000 		.4byte	0x1a4c
 2893 0561 20       		.uleb128 0x20
 2894 0562 01       		.uleb128 0x1
 2895 0563 50       		.byte	0x50
 2896 0564 03       		.uleb128 0x3
 2897 0565 F3       		.byte	0xf3
 2898 0566 01       		.uleb128 0x1
 2899 0567 50       		.byte	0x50
 2900 0568 00       		.byte	0
 2901 0569 00       		.byte	0
 2902 056a 0E       		.uleb128 0xe
 2903 056b 04       		.byte	0x4
ARM GAS  C:\Users\rdn\AppData\Local\Temp\ccYH9vOY.s 			page 71


 2904 056c 70050000 		.4byte	0x570
 2905 0570 0F       		.uleb128 0xf
 2906 0571 CA010000 		.4byte	0x1ca
 2907 0575 0E       		.uleb128 0xe
 2908 0576 04       		.byte	0x4
 2909 0577 7B050000 		.4byte	0x57b
 2910 057b 0F       		.uleb128 0xf
 2911 057c 9F010000 		.4byte	0x19f
 2912 0580 0E       		.uleb128 0xe
 2913 0581 04       		.byte	0x4
 2914 0582 1E020000 		.4byte	0x21e
 2915 0586 21       		.uleb128 0x21
 2916 0587 30070000 		.4byte	.LASF141
 2917 058b 02       		.byte	0x2
 2918 058c 1601     		.2byte	0x116
 2919 058e 7A000000 		.4byte	0x7a
 2920 0592 00000000 		.4byte	.LFB12
 2921 0596 8E000000 		.4byte	.LFE12-.LFB12
 2922 059a 01       		.uleb128 0x1
 2923 059b 9C       		.byte	0x9c
 2924 059c 0F060000 		.4byte	0x60f
 2925 05a0 1E       		.uleb128 0x1e
 2926 05a1 36030000 		.4byte	.LASF73
 2927 05a5 02       		.byte	0x2
 2928 05a6 1701     		.2byte	0x117
 2929 05a8 0F060000 		.4byte	0x60f
 2930 05ac 44010000 		.4byte	.LLST9
 2931 05b0 1E       		.uleb128 0x1e
 2932 05b1 76020000 		.4byte	.LASF81
 2933 05b5 02       		.byte	0x2
 2934 05b6 1701     		.2byte	0x117
 2935 05b8 6A050000 		.4byte	0x56a
 2936 05bc 65010000 		.4byte	.LLST10
 2937 05c0 1D       		.uleb128 0x1d
 2938 05c1 8C040000 		.4byte	.LASF82
 2939 05c5 02       		.byte	0x2
 2940 05c6 1901     		.2byte	0x119
 2941 05c8 75050000 		.4byte	0x575
 2942 05cc 86010000 		.4byte	.LLST11
 2943 05d0 1B       		.uleb128 0x1b
 2944 05d1 616300   		.ascii	"ac\000"
 2945 05d4 02       		.byte	0x2
 2946 05d5 1A01     		.2byte	0x11a
 2947 05d7 80050000 		.4byte	0x580
 2948 05db A7010000 		.4byte	.LLST12
 2949 05df 1D       		.uleb128 0x1d
 2950 05e0 ED030000 		.4byte	.LASF46
 2951 05e4 02       		.byte	0x2
 2952 05e5 1C01     		.2byte	0x11c
 2953 05e7 7A000000 		.4byte	0x7a
 2954 05eb CC010000 		.4byte	.LLST13
 2955 05ef 1B       		.uleb128 0x1b
 2956 05f0 7300     		.ascii	"s\000"
 2957 05f2 02       		.byte	0x2
 2958 05f3 2201     		.2byte	0x122
 2959 05f5 73000000 		.4byte	0x73
 2960 05f9 F3010000 		.4byte	.LLST14
ARM GAS  C:\Users\rdn\AppData\Local\Temp\ccYH9vOY.s 			page 72


 2961 05fd 22       		.uleb128 0x22
 2962 05fe 8A000000 		.4byte	.LVL25
 2963 0602 571A0000 		.4byte	0x1a57
 2964 0606 20       		.uleb128 0x20
 2965 0607 01       		.uleb128 0x1
 2966 0608 50       		.byte	0x50
 2967 0609 03       		.uleb128 0x3
 2968 060a F3       		.byte	0xf3
 2969 060b 01       		.uleb128 0x1
 2970 060c 50       		.byte	0x50
 2971 060d 00       		.byte	0
 2972 060e 00       		.byte	0
 2973 060f 0E       		.uleb128 0xe
 2974 0610 04       		.byte	0x4
 2975 0611 FD020000 		.4byte	0x2fd
 2976 0615 13       		.uleb128 0x13
 2977 0616 3A020000 		.4byte	.LASF84
 2978 061a 01       		.byte	0x1
 2979 061b 3B       		.byte	0x3b
 2980 061c 01       		.byte	0x1
 2981 061d 110A0000 		.4byte	0xa11
 2982 0621 11       		.uleb128 0x11
 2983 0622 647400   		.ascii	"dt\000"
 2984 0625 01       		.byte	0x1
 2985 0626 3C       		.byte	0x3c
 2986 0627 97000000 		.4byte	0x97
 2987 062b 11       		.uleb128 0x11
 2988 062c 627700   		.ascii	"bw\000"
 2989 062f 01       		.byte	0x1
 2990 0630 3C       		.byte	0x3c
 2991 0631 41010000 		.4byte	0x141
 2992 0635 12       		.uleb128 0x12
 2993 0636 D7010000 		.4byte	.LASF85
 2994 063a 01       		.byte	0x1
 2995 063b 3C       		.byte	0x3c
 2996 063c 73000000 		.4byte	0x73
 2997 0640 11       		.uleb128 0x11
 2998 0641 7800     		.ascii	"x\000"
 2999 0643 01       		.byte	0x1
 3000 0644 3D       		.byte	0x3d
 3001 0645 75030000 		.4byte	0x375
 3002 0649 12       		.uleb128 0x12
 3003 064a 19030000 		.4byte	.LASF86
 3004 064e 01       		.byte	0x1
 3005 064f 3D       		.byte	0x3d
 3006 0650 CA040000 		.4byte	0x4ca
 3007 0654 11       		.uleb128 0x11
 3008 0655 6100     		.ascii	"a\000"
 3009 0657 01       		.byte	0x1
 3010 0658 3D       		.byte	0x3d
 3011 0659 110A0000 		.4byte	0xa11
 3012 065d 23       		.uleb128 0x23
 3013 065e 06030000 		.4byte	.LASF87
 3014 0662 01       		.byte	0x1
 3015 0663 42       		.byte	0x42
 3016 0664 270A0000 		.4byte	0xa27
 3017 0668 0C       		.byte	0xc
ARM GAS  C:\Users\rdn\AppData\Local\Temp\ccYH9vOY.s 			page 73


 3018 0669 03       		.byte	0x3
 3019 066a 00       		.byte	0
 3020 066b 00       		.byte	0
 3021 066c 00       		.byte	0
 3022 066d 0A       		.byte	0xa
 3023 066e 00       		.byte	0
 3024 066f 00       		.byte	0
 3025 0670 00       		.byte	0
 3026 0671 14       		.byte	0x14
 3027 0672 00       		.byte	0
 3028 0673 00       		.byte	0
 3029 0674 00       		.byte	0
 3030 0675 23       		.uleb128 0x23
 3031 0676 55000000 		.4byte	.LASF88
 3032 067a 01       		.byte	0x1
 3033 067b 43       		.byte	0x43
 3034 067c 2C0A0000 		.4byte	0xa2c
 3035 0680 0C       		.byte	0xc
 3036 0681 03       		.byte	0x3
 3037 0682 00       		.byte	0
 3038 0683 00       		.byte	0
 3039 0684 00       		.byte	0
 3040 0685 14       		.byte	0x14
 3041 0686 00       		.byte	0
 3042 0687 00       		.byte	0
 3043 0688 00       		.byte	0
 3044 0689 28       		.byte	0x28
 3045 068a 00       		.byte	0
 3046 068b 00       		.byte	0
 3047 068c 00       		.byte	0
 3048 068d 23       		.uleb128 0x23
 3049 068e E0030000 		.4byte	.LASF89
 3050 0692 01       		.byte	0x1
 3051 0693 44       		.byte	0x44
 3052 0694 310A0000 		.4byte	0xa31
 3053 0698 0C       		.byte	0xc
 3054 0699 03       		.byte	0x3
 3055 069a 00       		.byte	0
 3056 069b 00       		.byte	0
 3057 069c 00       		.byte	0
 3058 069d 1E       		.byte	0x1e
 3059 069e 00       		.byte	0
 3060 069f 00       		.byte	0
 3061 06a0 00       		.byte	0
 3062 06a1 3C       		.byte	0x3c
 3063 06a2 00       		.byte	0
 3064 06a3 00       		.byte	0
 3065 06a4 00       		.byte	0
 3066 06a5 23       		.uleb128 0x23
 3067 06a6 24000000 		.4byte	.LASF90
 3068 06aa 01       		.byte	0x1
 3069 06ab 45       		.byte	0x45
 3070 06ac 360A0000 		.4byte	0xa36
 3071 06b0 0C       		.byte	0xc
 3072 06b1 03       		.byte	0x3
 3073 06b2 00       		.byte	0
 3074 06b3 00       		.byte	0
ARM GAS  C:\Users\rdn\AppData\Local\Temp\ccYH9vOY.s 			page 74


 3075 06b4 00       		.byte	0
 3076 06b5 28       		.byte	0x28
 3077 06b6 00       		.byte	0
 3078 06b7 00       		.byte	0
 3079 06b8 00       		.byte	0
 3080 06b9 50       		.byte	0x50
 3081 06ba 00       		.byte	0
 3082 06bb 00       		.byte	0
 3083 06bc 00       		.byte	0
 3084 06bd 23       		.uleb128 0x23
 3085 06be 13070000 		.4byte	.LASF91
 3086 06c2 01       		.byte	0x1
 3087 06c3 46       		.byte	0x46
 3088 06c4 3B0A0000 		.4byte	0xa3b
 3089 06c8 0C       		.byte	0xc
 3090 06c9 03       		.byte	0x3
 3091 06ca 00       		.byte	0
 3092 06cb 00       		.byte	0
 3093 06cc 00       		.byte	0
 3094 06cd 33       		.byte	0x33
 3095 06ce 00       		.byte	0
 3096 06cf 00       		.byte	0
 3097 06d0 00       		.byte	0
 3098 06d1 64       		.byte	0x64
 3099 06d2 00       		.byte	0
 3100 06d3 00       		.byte	0
 3101 06d4 00       		.byte	0
 3102 06d5 23       		.uleb128 0x23
 3103 06d6 6C020000 		.4byte	.LASF92
 3104 06da 01       		.byte	0x1
 3105 06db 48       		.byte	0x48
 3106 06dc 400A0000 		.4byte	0xa40
 3107 06e0 0C       		.byte	0xc
 3108 06e1 06       		.byte	0x6
 3109 06e2 00       		.byte	0
 3110 06e3 00       		.byte	0
 3111 06e4 00       		.byte	0
 3112 06e5 17       		.byte	0x17
 3113 06e6 00       		.byte	0
 3114 06e7 00       		.byte	0
 3115 06e8 00       		.byte	0
 3116 06e9 28       		.byte	0x28
 3117 06ea 00       		.byte	0
 3118 06eb 00       		.byte	0
 3119 06ec 00       		.byte	0
 3120 06ed 23       		.uleb128 0x23
 3121 06ee D3040000 		.4byte	.LASF93
 3122 06f2 01       		.byte	0x1
 3123 06f3 49       		.byte	0x49
 3124 06f4 450A0000 		.4byte	0xa45
 3125 06f8 0C       		.byte	0xc
 3126 06f9 06       		.byte	0x6
 3127 06fa 00       		.byte	0
 3128 06fb 00       		.byte	0
 3129 06fc 00       		.byte	0
 3130 06fd 2B       		.byte	0x2b
 3131 06fe 00       		.byte	0
ARM GAS  C:\Users\rdn\AppData\Local\Temp\ccYH9vOY.s 			page 75


 3132 06ff 00       		.byte	0
 3133 0700 00       		.byte	0
 3134 0701 50       		.byte	0x50
 3135 0702 00       		.byte	0
 3136 0703 00       		.byte	0
 3137 0704 00       		.byte	0
 3138 0705 23       		.uleb128 0x23
 3139 0706 70030000 		.4byte	.LASF94
 3140 070a 01       		.byte	0x1
 3141 070b 4A       		.byte	0x4a
 3142 070c 4A0A0000 		.4byte	0xa4a
 3143 0710 0C       		.byte	0xc
 3144 0711 06       		.byte	0x6
 3145 0712 00       		.byte	0
 3146 0713 00       		.byte	0
 3147 0714 00       		.byte	0
 3148 0715 3F       		.byte	0x3f
 3149 0716 00       		.byte	0
 3150 0717 00       		.byte	0
 3151 0718 00       		.byte	0
 3152 0719 78       		.byte	0x78
 3153 071a 00       		.byte	0
 3154 071b 00       		.byte	0
 3155 071c 00       		.byte	0
 3156 071d 23       		.uleb128 0x23
 3157 071e 0B000000 		.4byte	.LASF95
 3158 0722 01       		.byte	0x1
 3159 0723 4B       		.byte	0x4b
 3160 0724 5F0A0000 		.4byte	0xa5f
 3161 0728 14       		.byte	0x14
 3162 0729 06       		.byte	0x6
 3163 072a 00       		.byte	0
 3164 072b 00       		.byte	0
 3165 072c 00       		.byte	0
 3166 072d 2B       		.byte	0x2b
 3167 072e 00       		.byte	0
 3168 072f 00       		.byte	0
 3169 0730 00       		.byte	0
 3170 0731 50       		.byte	0x50
 3171 0732 00       		.byte	0
 3172 0733 00       		.byte	0
 3173 0734 00       		.byte	0
 3174 0735 78       		.byte	0x78
 3175 0736 00       		.byte	0
 3176 0737 00       		.byte	0
 3177 0738 00       		.byte	0
 3178 0739 A0       		.byte	0xa0
 3179 073a 00       		.byte	0
 3180 073b 00       		.byte	0
 3181 073c 00       		.byte	0
 3182 073d 23       		.uleb128 0x23
 3183 073e 2A040000 		.4byte	.LASF96
 3184 0742 01       		.byte	0x1
 3185 0743 4C       		.byte	0x4c
 3186 0744 640A0000 		.4byte	0xa64
 3187 0748 14       		.byte	0x14
 3188 0749 06       		.byte	0x6
ARM GAS  C:\Users\rdn\AppData\Local\Temp\ccYH9vOY.s 			page 76


 3189 074a 00       		.byte	0
 3190 074b 00       		.byte	0
 3191 074c 00       		.byte	0
 3192 074d 35       		.byte	0x35
 3193 074e 00       		.byte	0
 3194 074f 00       		.byte	0
 3195 0750 00       		.byte	0
 3196 0751 64       		.byte	0x64
 3197 0752 00       		.byte	0
 3198 0753 00       		.byte	0
 3199 0754 00       		.byte	0
 3200 0755 96       		.byte	0x96
 3201 0756 00       		.byte	0
 3202 0757 00       		.byte	0
 3203 0758 00       		.byte	0
 3204 0759 C8       		.byte	0xc8
 3205 075a 00       		.byte	0
 3206 075b 00       		.byte	0
 3207 075c 00       		.byte	0
 3208 075d 23       		.uleb128 0x23
 3209 075e B2030000 		.4byte	.LASF97
 3210 0762 01       		.byte	0x1
 3211 0763 50       		.byte	0x50
 3212 0764 790A0000 		.4byte	0xa79
 3213 0768 10       		.byte	0x10
 3214 0769 09       		.byte	0x9
 3215 076a 00       		.byte	0
 3216 076b 00       		.byte	0
 3217 076c 00       		.byte	0
 3218 076d 1A       		.byte	0x1a
 3219 076e 00       		.byte	0
 3220 076f 00       		.byte	0
 3221 0770 00       		.byte	0
 3222 0771 2B       		.byte	0x2b
 3223 0772 00       		.byte	0
 3224 0773 00       		.byte	0
 3225 0774 00       		.byte	0
 3226 0775 3C       		.byte	0x3c
 3227 0776 00       		.byte	0
 3228 0777 00       		.byte	0
 3229 0778 00       		.byte	0
 3230 0779 23       		.uleb128 0x23
 3231 077a FD000000 		.4byte	.LASF98
 3232 077e 01       		.byte	0x1
 3233 077f 51       		.byte	0x51
 3234 0780 7E0A0000 		.4byte	0xa7e
 3235 0784 10       		.byte	0x10
 3236 0785 09       		.byte	0x9
 3237 0786 00       		.byte	0
 3238 0787 00       		.byte	0
 3239 0788 00       		.byte	0
 3240 0789 2E       		.byte	0x2e
 3241 078a 00       		.byte	0
 3242 078b 00       		.byte	0
 3243 078c 00       		.byte	0
 3244 078d 53       		.byte	0x53
 3245 078e 00       		.byte	0
ARM GAS  C:\Users\rdn\AppData\Local\Temp\ccYH9vOY.s 			page 77


 3246 078f 00       		.byte	0
 3247 0790 00       		.byte	0
 3248 0791 78       		.byte	0x78
 3249 0792 00       		.byte	0
 3250 0793 00       		.byte	0
 3251 0794 00       		.byte	0
 3252 0795 23       		.uleb128 0x23
 3253 0796 0C020000 		.4byte	.LASF99
 3254 079a 01       		.byte	0x1
 3255 079b 52       		.byte	0x52
 3256 079c 830A0000 		.4byte	0xa83
 3257 07a0 10       		.byte	0x10
 3258 07a1 09       		.byte	0x9
 3259 07a2 00       		.byte	0
 3260 07a3 00       		.byte	0
 3261 07a4 00       		.byte	0
 3262 07a5 42       		.byte	0x42
 3263 07a6 00       		.byte	0
 3264 07a7 00       		.byte	0
 3265 07a8 00       		.byte	0
 3266 07a9 7B       		.byte	0x7b
 3267 07aa 00       		.byte	0
 3268 07ab 00       		.byte	0
 3269 07ac 00       		.byte	0
 3270 07ad B4       		.byte	0xb4
 3271 07ae 00       		.byte	0
 3272 07af 00       		.byte	0
 3273 07b0 00       		.byte	0
 3274 07b1 23       		.uleb128 0x23
 3275 07b2 C2050000 		.4byte	.LASF100
 3276 07b6 01       		.byte	0x1
 3277 07b7 53       		.byte	0x53
 3278 07b8 980A0000 		.4byte	0xa98
 3279 07bc 1C       		.byte	0x1c
 3280 07bd 09       		.byte	0x9
 3281 07be 00       		.byte	0
 3282 07bf 00       		.byte	0
 3283 07c0 00       		.byte	0
 3284 07c1 2E       		.byte	0x2e
 3285 07c2 00       		.byte	0
 3286 07c3 00       		.byte	0
 3287 07c4 00       		.byte	0
 3288 07c5 52       		.byte	0x52
 3289 07c6 00       		.byte	0
 3290 07c7 00       		.byte	0
 3291 07c8 00       		.byte	0
 3292 07c9 78       		.byte	0x78
 3293 07ca 00       		.byte	0
 3294 07cb 00       		.byte	0
 3295 07cc 00       		.byte	0
 3296 07cd 9F       		.byte	0x9f
 3297 07ce 00       		.byte	0
 3298 07cf 00       		.byte	0
 3299 07d0 00       		.byte	0
 3300 07d1 C8       		.byte	0xc8
 3301 07d2 00       		.byte	0
 3302 07d3 00       		.byte	0
ARM GAS  C:\Users\rdn\AppData\Local\Temp\ccYH9vOY.s 			page 78


 3303 07d4 00       		.byte	0
 3304 07d5 F0       		.byte	0xf0
 3305 07d6 00       		.byte	0
 3306 07d7 00       		.byte	0
 3307 07d8 00       		.byte	0
 3308 07d9 23       		.uleb128 0x23
 3309 07da 00000000 		.4byte	.LASF101
 3310 07de 01       		.byte	0x1
 3311 07df 54       		.byte	0x54
 3312 07e0 9D0A0000 		.4byte	0xa9d
 3313 07e4 1C       		.byte	0x1c
 3314 07e5 09       		.byte	0x9
 3315 07e6 00       		.byte	0
 3316 07e7 00       		.byte	0
 3317 07e8 00       		.byte	0
 3318 07e9 38       		.byte	0x38
 3319 07ea 00       		.byte	0
 3320 07eb 00       		.byte	0
 3321 07ec 00       		.byte	0
 3322 07ed 67       		.byte	0x67
 3323 07ee 00       		.byte	0
 3324 07ef 00       		.byte	0
 3325 07f0 00       		.byte	0
 3326 07f1 96       		.byte	0x96
 3327 07f2 00       		.byte	0
 3328 07f3 00       		.byte	0
 3329 07f4 00       		.byte	0
 3330 07f5 C8       		.byte	0xc8
 3331 07f6 00       		.byte	0
 3332 07f7 00       		.byte	0
 3333 07f8 00       		.byte	0
 3334 07f9 FA       		.byte	0xfa
 3335 07fa 00       		.byte	0
 3336 07fb 00       		.byte	0
 3337 07fc 00       		.byte	0
 3338 07fd 2C       		.byte	0x2c
 3339 07fe 01       		.byte	0x1
 3340 07ff 00       		.byte	0
 3341 0800 00       		.byte	0
 3342 0801 23       		.uleb128 0x23
 3343 0802 51030000 		.4byte	.LASF102
 3344 0806 01       		.byte	0x1
 3345 0807 56       		.byte	0x56
 3346 0808 A20A0000 		.4byte	0xaa2
 3347 080c 10       		.byte	0x10
 3348 080d 0C       		.byte	0xc
 3349 080e 00       		.byte	0
 3350 080f 00       		.byte	0
 3351 0810 00       		.byte	0
 3352 0811 22       		.byte	0x22
 3353 0812 00       		.byte	0
 3354 0813 00       		.byte	0
 3355 0814 00       		.byte	0
 3356 0815 39       		.byte	0x39
 3357 0816 00       		.byte	0
 3358 0817 00       		.byte	0
 3359 0818 00       		.byte	0
ARM GAS  C:\Users\rdn\AppData\Local\Temp\ccYH9vOY.s 			page 79


 3360 0819 50       		.byte	0x50
 3361 081a 00       		.byte	0
 3362 081b 00       		.byte	0
 3363 081c 00       		.byte	0
 3364 081d 23       		.uleb128 0x23
 3365 081e BC000000 		.4byte	.LASF103
 3366 0822 01       		.byte	0x1
 3367 0823 57       		.byte	0x57
 3368 0824 A70A0000 		.4byte	0xaa7
 3369 0828 10       		.byte	0x10
 3370 0829 0C       		.byte	0xc
 3371 082a 00       		.byte	0
 3372 082b 00       		.byte	0
 3373 082c 00       		.byte	0
 3374 082d 3D       		.byte	0x3d
 3375 082e 00       		.byte	0
 3376 082f 00       		.byte	0
 3377 0830 00       		.byte	0
 3378 0831 6E       		.byte	0x6e
 3379 0832 00       		.byte	0
 3380 0833 00       		.byte	0
 3381 0834 00       		.byte	0
 3382 0835 A0       		.byte	0xa0
 3383 0836 00       		.byte	0
 3384 0837 00       		.byte	0
 3385 0838 00       		.byte	0
 3386 0839 23       		.uleb128 0x23
 3387 083a 91020000 		.4byte	.LASF104
 3388 083e 01       		.byte	0x1
 3389 083f 58       		.byte	0x58
 3390 0840 AC0A0000 		.4byte	0xaac
 3391 0844 10       		.byte	0x10
 3392 0845 0C       		.byte	0xc
 3393 0846 00       		.byte	0
 3394 0847 00       		.byte	0
 3395 0848 00       		.byte	0
 3396 0849 58       		.byte	0x58
 3397 084a 00       		.byte	0
 3398 084b 00       		.byte	0
 3399 084c 00       		.byte	0
 3400 084d A4       		.byte	0xa4
 3401 084e 00       		.byte	0
 3402 084f 00       		.byte	0
 3403 0850 00       		.byte	0
 3404 0851 F0       		.byte	0xf0
 3405 0852 00       		.byte	0
 3406 0853 00       		.byte	0
 3407 0854 00       		.byte	0
 3408 0855 23       		.uleb128 0x23
 3409 0856 A3070000 		.4byte	.LASF105
 3410 085a 01       		.byte	0x1
 3411 085b 59       		.byte	0x59
 3412 085c B10A0000 		.4byte	0xab1
 3413 0860 1C       		.byte	0x1c
 3414 0861 0C       		.byte	0xc
 3415 0862 00       		.byte	0
 3416 0863 00       		.byte	0
ARM GAS  C:\Users\rdn\AppData\Local\Temp\ccYH9vOY.s 			page 80


 3417 0864 00       		.byte	0
 3418 0865 3D       		.byte	0x3d
 3419 0866 00       		.byte	0
 3420 0867 00       		.byte	0
 3421 0868 00       		.byte	0
 3422 0869 6E       		.byte	0x6e
 3423 086a 00       		.byte	0
 3424 086b 00       		.byte	0
 3425 086c 00       		.byte	0
 3426 086d A0       		.byte	0xa0
 3427 086e 00       		.byte	0
 3428 086f 00       		.byte	0
 3429 0870 00       		.byte	0
 3430 0871 D5       		.byte	0xd5
 3431 0872 00       		.byte	0
 3432 0873 00       		.byte	0
 3433 0874 00       		.byte	0
 3434 0875 0A       		.byte	0xa
 3435 0876 01       		.byte	0x1
 3436 0877 00       		.byte	0
 3437 0878 00       		.byte	0
 3438 0879 40       		.byte	0x40
 3439 087a 01       		.byte	0x1
 3440 087b 00       		.byte	0
 3441 087c 00       		.byte	0
 3442 087d 23       		.uleb128 0x23
 3443 087e 86070000 		.4byte	.LASF106
 3444 0882 01       		.byte	0x1
 3445 0883 5A       		.byte	0x5a
 3446 0884 B60A0000 		.4byte	0xab6
 3447 0888 1C       		.byte	0x1c
 3448 0889 0C       		.byte	0xc
 3449 088a 00       		.byte	0
 3450 088b 00       		.byte	0
 3451 088c 00       		.byte	0
 3452 088d 4A       		.byte	0x4a
 3453 088e 00       		.byte	0
 3454 088f 00       		.byte	0
 3455 0890 00       		.byte	0
 3456 0891 89       		.byte	0x89
 3457 0892 00       		.byte	0
 3458 0893 00       		.byte	0
 3459 0894 00       		.byte	0
 3460 0895 C8       		.byte	0xc8
 3461 0896 00       		.byte	0
 3462 0897 00       		.byte	0
 3463 0898 00       		.byte	0
 3464 0899 0A       		.byte	0xa
 3465 089a 01       		.byte	0x1
 3466 089b 00       		.byte	0
 3467 089c 00       		.byte	0
 3468 089d 4D       		.byte	0x4d
 3469 089e 01       		.byte	0x1
 3470 089f 00       		.byte	0
 3471 08a0 00       		.byte	0
 3472 08a1 90       		.byte	0x90
 3473 08a2 01       		.byte	0x1
ARM GAS  C:\Users\rdn\AppData\Local\Temp\ccYH9vOY.s 			page 81


 3474 08a3 00       		.byte	0
 3475 08a4 00       		.byte	0
 3476 08a5 23       		.uleb128 0x23
 3477 08a6 B1000000 		.4byte	.LASF107
 3478 08aa 01       		.byte	0x1
 3479 08ab 5C       		.byte	0x5c
 3480 08ac CB0A0000 		.4byte	0xacb
 3481 08b0 24       		.byte	0x24
 3482 08b1 00       		.byte	0
 3483 08b2 00       		.byte	0
 3484 08b3 80       		.byte	0x80
 3485 08b4 3F       		.byte	0x3f
 3486 08b5 C4       		.byte	0xc4
 3487 08b6 7E       		.byte	0x7e
 3488 08b7 7F       		.byte	0x7f
 3489 08b8 3F       		.byte	0x3f
 3490 08b9 96       		.byte	0x96
 3491 08ba FC       		.byte	0xfc
 3492 08bb 7D       		.byte	0x7d
 3493 08bc 3F       		.byte	0x3f
 3494 08bd 04       		.byte	0x4
 3495 08be 7E       		.byte	0x7e
 3496 08bf 7B       		.byte	0x7b
 3497 08c0 3F       		.byte	0x3f
 3498 08c1 8A       		.byte	0x8a
 3499 08c2 0A       		.byte	0xa
 3500 08c3 78       		.byte	0x78
 3501 08c4 3F       		.byte	0x3f
 3502 08c5 6E       		.byte	0x6e
 3503 08c6 AC       		.byte	0xac
 3504 08c7 73       		.byte	0x73
 3505 08c8 3F       		.byte	0x3f
 3506 08c9 8E       		.byte	0x8e
 3507 08ca 70       		.byte	0x70
 3508 08cb 6E       		.byte	0x6e
 3509 08cc 3F       		.byte	0x3f
 3510 08cd 1F       		.byte	0x1f
 3511 08ce 66       		.byte	0x66
 3512 08cf 68       		.byte	0x68
 3513 08d0 3F       		.byte	0x3f
 3514 08d1 65       		.byte	0x65
 3515 08d2 9E       		.byte	0x9e
 3516 08d3 61       		.byte	0x61
 3517 08d4 3F       		.byte	0x3f
 3518 08d5 16       		.uleb128 0x16
 3519 08d6 73756200 		.ascii	"sub\000"
 3520 08da 01       		.byte	0x1
 3521 08db 62       		.byte	0x62
 3522 08dc BF040000 		.4byte	0x4bf
 3523 08e0 14       		.uleb128 0x14
 3524 08e1 FF050000 		.4byte	.LASF66
 3525 08e5 01       		.byte	0x1
 3526 08e6 7C       		.byte	0x7c
 3527 08e7 73000000 		.4byte	0x73
 3528 08eb 14       		.uleb128 0x14
 3529 08ec D3000000 		.4byte	.LASF108
 3530 08f0 01       		.byte	0x1
ARM GAS  C:\Users\rdn\AppData\Local\Temp\ccYH9vOY.s 			page 82


 3531 08f1 7D       		.byte	0x7d
 3532 08f2 73000000 		.4byte	0x73
 3533 08f6 16       		.uleb128 0x16
 3534 08f7 787300   		.ascii	"xs\000"
 3535 08fa 01       		.byte	0x1
 3536 08fb 7F       		.byte	0x7f
 3537 08fc 75030000 		.4byte	0x375
 3538 0900 16       		.uleb128 0x16
 3539 0901 786500   		.ascii	"xe\000"
 3540 0904 01       		.byte	0x1
 3541 0905 7F       		.byte	0x7f
 3542 0906 75030000 		.4byte	0x375
 3543 090a 16       		.uleb128 0x16
 3544 090b 7200     		.ascii	"r\000"
 3545 090d 01       		.byte	0x1
 3546 090e 80       		.byte	0x80
 3547 090f D00A0000 		.4byte	0xad0
 3548 0913 24       		.uleb128 0x24
 3549 0914 97090000 		.4byte	0x997
 3550 0918 16       		.uleb128 0x16
 3551 0919 6600     		.ascii	"f\000"
 3552 091b 01       		.byte	0x1
 3553 091c 82       		.byte	0x82
 3554 091d 73000000 		.4byte	0x73
 3555 0921 15       		.uleb128 0x15
 3556 0922 16       		.uleb128 0x16
 3557 0923 6300     		.ascii	"c\000"
 3558 0925 01       		.byte	0x1
 3559 0926 83       		.byte	0x83
 3560 0927 E60A0000 		.4byte	0xae6
 3561 092b 24       		.uleb128 0x24
 3562 092c 45090000 		.4byte	0x945
 3563 0930 16       		.uleb128 0x16
 3564 0931 7300     		.ascii	"s\000"
 3565 0933 01       		.byte	0x1
 3566 0934 85       		.byte	0x85
 3567 0935 73000000 		.4byte	0x73
 3568 0939 15       		.uleb128 0x15
 3569 093a 16       		.uleb128 0x16
 3570 093b 6B00     		.ascii	"k\000"
 3571 093d 01       		.byte	0x1
 3572 093e 88       		.byte	0x88
 3573 093f 73000000 		.4byte	0x73
 3574 0943 00       		.byte	0
 3575 0944 00       		.byte	0
 3576 0945 24       		.uleb128 0x24
 3577 0946 6A090000 		.4byte	0x96a
 3578 094a 16       		.uleb128 0x16
 3579 094b 653000   		.ascii	"e0\000"
 3580 094e 01       		.byte	0x1
 3581 094f 8E       		.byte	0x8e
 3582 0950 25010000 		.4byte	0x125
 3583 0954 16       		.uleb128 0x16
 3584 0955 653100   		.ascii	"e1\000"
 3585 0958 01       		.byte	0x1
 3586 0959 8E       		.byte	0x8e
 3587 095a 25010000 		.4byte	0x125
ARM GAS  C:\Users\rdn\AppData\Local\Temp\ccYH9vOY.s 			page 83


 3588 095e 15       		.uleb128 0x15
 3589 095f 16       		.uleb128 0x16
 3590 0960 6B00     		.ascii	"k\000"
 3591 0962 01       		.byte	0x1
 3592 0963 8F       		.byte	0x8f
 3593 0964 73000000 		.4byte	0x73
 3594 0968 00       		.byte	0
 3595 0969 00       		.byte	0
 3596 096a 15       		.uleb128 0x15
 3597 096b 16       		.uleb128 0x16
 3598 096c 653000   		.ascii	"e0\000"
 3599 096f 01       		.byte	0x1
 3600 0970 94       		.byte	0x94
 3601 0971 25010000 		.4byte	0x125
 3602 0975 16       		.uleb128 0x16
 3603 0976 653100   		.ascii	"e1\000"
 3604 0979 01       		.byte	0x1
 3605 097a 94       		.byte	0x94
 3606 097b 25010000 		.4byte	0x125
 3607 097f 16       		.uleb128 0x16
 3608 0980 653200   		.ascii	"e2\000"
 3609 0983 01       		.byte	0x1
 3610 0984 94       		.byte	0x94
 3611 0985 25010000 		.4byte	0x125
 3612 0989 15       		.uleb128 0x15
 3613 098a 16       		.uleb128 0x16
 3614 098b 6B00     		.ascii	"k\000"
 3615 098d 01       		.byte	0x1
 3616 098e 95       		.byte	0x95
 3617 098f 73000000 		.4byte	0x73
 3618 0993 00       		.byte	0
 3619 0994 00       		.byte	0
 3620 0995 00       		.byte	0
 3621 0996 00       		.byte	0
 3622 0997 15       		.uleb128 0x15
 3623 0998 16       		.uleb128 0x16
 3624 0999 6600     		.ascii	"f\000"
 3625 099b 01       		.byte	0x1
 3626 099c 9D       		.byte	0x9d
 3627 099d 73000000 		.4byte	0x73
 3628 09a1 15       		.uleb128 0x15
 3629 09a2 16       		.uleb128 0x16
 3630 09a3 613000   		.ascii	"a0\000"
 3631 09a6 01       		.byte	0x1
 3632 09a7 9E       		.byte	0x9e
 3633 09a8 CA040000 		.4byte	0x4ca
 3634 09ac 16       		.uleb128 0x16
 3635 09ad 613100   		.ascii	"a1\000"
 3636 09b0 01       		.byte	0x1
 3637 09b1 9E       		.byte	0x9e
 3638 09b2 D0040000 		.4byte	0x4d0
 3639 09b6 16       		.uleb128 0x16
 3640 09b7 65727200 		.ascii	"err\000"
 3641 09bb 01       		.byte	0x1
 3642 09bc 9F       		.byte	0x9f
 3643 09bd 25010000 		.4byte	0x125
 3644 09c1 16       		.uleb128 0x16
ARM GAS  C:\Users\rdn\AppData\Local\Temp\ccYH9vOY.s 			page 84


 3645 09c2 726300   		.ascii	"rc\000"
 3646 09c5 01       		.byte	0x1
 3647 09c6 9F       		.byte	0x9f
 3648 09c7 25010000 		.4byte	0x125
 3649 09cb 15       		.uleb128 0x15
 3650 09cc 16       		.uleb128 0x16
 3651 09cd 6B00     		.ascii	"k\000"
 3652 09cf 01       		.byte	0x1
 3653 09d0 A4       		.byte	0xa4
 3654 09d1 73000000 		.4byte	0x73
 3655 09d5 24       		.uleb128 0x24
 3656 09d6 E4090000 		.4byte	0x9e4
 3657 09da 16       		.uleb128 0x16
 3658 09db 6900     		.ascii	"i\000"
 3659 09dd 01       		.byte	0x1
 3660 09de A7       		.byte	0xa7
 3661 09df 73000000 		.4byte	0x73
 3662 09e3 00       		.byte	0
 3663 09e4 24       		.uleb128 0x24
 3664 09e5 F3090000 		.4byte	0x9f3
 3665 09e9 16       		.uleb128 0x16
 3666 09ea 6900     		.ascii	"i\000"
 3667 09ec 01       		.byte	0x1
 3668 09ed AD       		.byte	0xad
 3669 09ee 73000000 		.4byte	0x73
 3670 09f2 00       		.byte	0
 3671 09f3 24       		.uleb128 0x24
 3672 09f4 020A0000 		.4byte	0xa02
 3673 09f8 16       		.uleb128 0x16
 3674 09f9 6900     		.ascii	"i\000"
 3675 09fb 01       		.byte	0x1
 3676 09fc B2       		.byte	0xb2
 3677 09fd 73000000 		.4byte	0x73
 3678 0a01 00       		.byte	0
 3679 0a02 15       		.uleb128 0x15
 3680 0a03 16       		.uleb128 0x16
 3681 0a04 6900     		.ascii	"i\000"
 3682 0a06 01       		.byte	0x1
 3683 0a07 B8       		.byte	0xb8
 3684 0a08 73000000 		.4byte	0x73
 3685 0a0c 00       		.byte	0
 3686 0a0d 00       		.byte	0
 3687 0a0e 00       		.byte	0
 3688 0a0f 00       		.byte	0
 3689 0a10 00       		.byte	0
 3690 0a11 0E       		.uleb128 0xe
 3691 0a12 04       		.byte	0x4
 3692 0a13 D0040000 		.4byte	0x4d0
 3693 0a17 07       		.uleb128 0x7
 3694 0a18 C5040000 		.4byte	0x4c5
 3695 0a1c 270A0000 		.4byte	0xa27
 3696 0a20 08       		.uleb128 0x8
 3697 0a21 1E010000 		.4byte	0x11e
 3698 0a25 02       		.byte	0x2
 3699 0a26 00       		.byte	0
 3700 0a27 0F       		.uleb128 0xf
 3701 0a28 170A0000 		.4byte	0xa17
ARM GAS  C:\Users\rdn\AppData\Local\Temp\ccYH9vOY.s 			page 85


 3702 0a2c 0F       		.uleb128 0xf
 3703 0a2d 170A0000 		.4byte	0xa17
 3704 0a31 0F       		.uleb128 0xf
 3705 0a32 170A0000 		.4byte	0xa17
 3706 0a36 0F       		.uleb128 0xf
 3707 0a37 170A0000 		.4byte	0xa17
 3708 0a3b 0F       		.uleb128 0xf
 3709 0a3c 170A0000 		.4byte	0xa17
 3710 0a40 0F       		.uleb128 0xf
 3711 0a41 170A0000 		.4byte	0xa17
 3712 0a45 0F       		.uleb128 0xf
 3713 0a46 170A0000 		.4byte	0xa17
 3714 0a4a 0F       		.uleb128 0xf
 3715 0a4b 170A0000 		.4byte	0xa17
 3716 0a4f 07       		.uleb128 0x7
 3717 0a50 C5040000 		.4byte	0x4c5
 3718 0a54 5F0A0000 		.4byte	0xa5f
 3719 0a58 08       		.uleb128 0x8
 3720 0a59 1E010000 		.4byte	0x11e
 3721 0a5d 04       		.byte	0x4
 3722 0a5e 00       		.byte	0
 3723 0a5f 0F       		.uleb128 0xf
 3724 0a60 4F0A0000 		.4byte	0xa4f
 3725 0a64 0F       		.uleb128 0xf
 3726 0a65 4F0A0000 		.4byte	0xa4f
 3727 0a69 07       		.uleb128 0x7
 3728 0a6a C5040000 		.4byte	0x4c5
 3729 0a6e 790A0000 		.4byte	0xa79
 3730 0a72 08       		.uleb128 0x8
 3731 0a73 1E010000 		.4byte	0x11e
 3732 0a77 03       		.byte	0x3
 3733 0a78 00       		.byte	0
 3734 0a79 0F       		.uleb128 0xf
 3735 0a7a 690A0000 		.4byte	0xa69
 3736 0a7e 0F       		.uleb128 0xf
 3737 0a7f 690A0000 		.4byte	0xa69
 3738 0a83 0F       		.uleb128 0xf
 3739 0a84 690A0000 		.4byte	0xa69
 3740 0a88 07       		.uleb128 0x7
 3741 0a89 C5040000 		.4byte	0x4c5
 3742 0a8d 980A0000 		.4byte	0xa98
 3743 0a91 08       		.uleb128 0x8
 3744 0a92 1E010000 		.4byte	0x11e
 3745 0a96 06       		.byte	0x6
 3746 0a97 00       		.byte	0
 3747 0a98 0F       		.uleb128 0xf
 3748 0a99 880A0000 		.4byte	0xa88
 3749 0a9d 0F       		.uleb128 0xf
 3750 0a9e 880A0000 		.4byte	0xa88
 3751 0aa2 0F       		.uleb128 0xf
 3752 0aa3 690A0000 		.4byte	0xa69
 3753 0aa7 0F       		.uleb128 0xf
 3754 0aa8 690A0000 		.4byte	0xa69
 3755 0aac 0F       		.uleb128 0xf
 3756 0aad 690A0000 		.4byte	0xa69
 3757 0ab1 0F       		.uleb128 0xf
 3758 0ab2 880A0000 		.4byte	0xa88
ARM GAS  C:\Users\rdn\AppData\Local\Temp\ccYH9vOY.s 			page 86


 3759 0ab6 0F       		.uleb128 0xf
 3760 0ab7 880A0000 		.4byte	0xa88
 3761 0abb 07       		.uleb128 0x7
 3762 0abc 7B030000 		.4byte	0x37b
 3763 0ac0 CB0A0000 		.4byte	0xacb
 3764 0ac4 08       		.uleb128 0x8
 3765 0ac5 1E010000 		.4byte	0x11e
 3766 0ac9 08       		.byte	0x8
 3767 0aca 00       		.byte	0
 3768 0acb 0F       		.uleb128 0xf
 3769 0acc BB0A0000 		.4byte	0xabb
 3770 0ad0 07       		.uleb128 0x7
 3771 0ad1 25010000 		.4byte	0x125
 3772 0ad5 E60A0000 		.4byte	0xae6
 3773 0ad9 08       		.uleb128 0x8
 3774 0ada 1E010000 		.4byte	0x11e
 3775 0ade 01       		.byte	0x1
 3776 0adf 08       		.uleb128 0x8
 3777 0ae0 1E010000 		.4byte	0x11e
 3778 0ae4 08       		.byte	0x8
 3779 0ae5 00       		.byte	0
 3780 0ae6 07       		.uleb128 0x7
 3781 0ae7 25010000 		.4byte	0x125
 3782 0aeb FC0A0000 		.4byte	0xafc
 3783 0aef 08       		.uleb128 0x8
 3784 0af0 1E010000 		.4byte	0x11e
 3785 0af4 08       		.byte	0x8
 3786 0af5 08       		.uleb128 0x8
 3787 0af6 1E010000 		.4byte	0x11e
 3788 0afa 02       		.byte	0x2
 3789 0afb 00       		.byte	0
 3790 0afc 25       		.uleb128 0x25
 3791 0afd 646F7400 		.ascii	"dot\000"
 3792 0b01 01       		.byte	0x1
 3793 0b02 2A       		.byte	0x2a
 3794 0b03 25010000 		.4byte	0x125
 3795 0b07 03       		.byte	0x3
 3796 0b08 310B0000 		.4byte	0xb31
 3797 0b0c 11       		.uleb128 0x11
 3798 0b0d 6100     		.ascii	"a\000"
 3799 0b0f 01       		.byte	0x1
 3800 0b10 2A       		.byte	0x2a
 3801 0b11 75030000 		.4byte	0x375
 3802 0b15 11       		.uleb128 0x11
 3803 0b16 6200     		.ascii	"b\000"
 3804 0b18 01       		.byte	0x1
 3805 0b19 2A       		.byte	0x2a
 3806 0b1a 75030000 		.4byte	0x375
 3807 0b1e 11       		.uleb128 0x11
 3808 0b1f 6E00     		.ascii	"n\000"
 3809 0b21 01       		.byte	0x1
 3810 0b22 2A       		.byte	0x2a
 3811 0b23 73000000 		.4byte	0x73
 3812 0b27 16       		.uleb128 0x16
 3813 0b28 7600     		.ascii	"v\000"
 3814 0b2a 01       		.byte	0x1
 3815 0b2b 2C       		.byte	0x2c
ARM GAS  C:\Users\rdn\AppData\Local\Temp\ccYH9vOY.s 			page 87


 3816 0b2c 25010000 		.4byte	0x125
 3817 0b30 00       		.byte	0
 3818 0b31 13       		.uleb128 0x13
 3819 0b32 08060000 		.4byte	.LASF67
 3820 0b36 01       		.byte	0x1
 3821 0b37 C5       		.byte	0xc5
 3822 0b38 01       		.byte	0x1
 3823 0b39 710B0000 		.4byte	0xb71
 3824 0b3d 12       		.uleb128 0x12
 3825 0b3e 57010000 		.4byte	.LASF109
 3826 0b42 01       		.byte	0x1
 3827 0b43 C5       		.byte	0xc5
 3828 0b44 25010000 		.4byte	0x125
 3829 0b48 11       		.uleb128 0x11
 3830 0b49 6100     		.ascii	"a\000"
 3831 0b4b 01       		.byte	0x1
 3832 0b4c C5       		.byte	0xc5
 3833 0b4d CA040000 		.4byte	0x4ca
 3834 0b51 14       		.uleb128 0x14
 3835 0b52 5C030000 		.4byte	.LASF110
 3836 0b56 01       		.byte	0x1
 3837 0b57 C7       		.byte	0xc7
 3838 0b58 25010000 		.4byte	0x125
 3839 0b5c 16       		.uleb128 0x16
 3840 0b5d 6700     		.ascii	"g\000"
 3841 0b5f 01       		.byte	0x1
 3842 0b60 C8       		.byte	0xc8
 3843 0b61 25010000 		.4byte	0x125
 3844 0b65 15       		.uleb128 0x15
 3845 0b66 16       		.uleb128 0x16
 3846 0b67 6900     		.ascii	"i\000"
 3847 0b69 01       		.byte	0x1
 3848 0b6a CA       		.byte	0xca
 3849 0b6b 73000000 		.4byte	0x73
 3850 0b6f 00       		.byte	0
 3851 0b70 00       		.byte	0
 3852 0b71 13       		.uleb128 0x13
 3853 0b72 57070000 		.4byte	.LASF111
 3854 0b76 01       		.byte	0x1
 3855 0b77 F2       		.byte	0xf2
 3856 0b78 01       		.byte	0x1
 3857 0b79 F90B0000 		.4byte	0xbf9
 3858 0b7d 11       		.uleb128 0x11
 3859 0b7e 726300   		.ascii	"rc\000"
 3860 0b81 01       		.byte	0x1
 3861 0b82 F2       		.byte	0xf2
 3862 0b83 75030000 		.4byte	0x375
 3863 0b87 12       		.uleb128 0x12
 3864 0b88 D7010000 		.4byte	.LASF85
 3865 0b8c 01       		.byte	0x1
 3866 0b8d F2       		.byte	0xf2
 3867 0b8e 73000000 		.4byte	0x73
 3868 0b92 12       		.uleb128 0x12
 3869 0b93 9E020000 		.4byte	.LASF76
 3870 0b97 01       		.byte	0x1
 3871 0b98 F2       		.byte	0xf2
 3872 0b99 F90B0000 		.4byte	0xbf9
ARM GAS  C:\Users\rdn\AppData\Local\Temp\ccYH9vOY.s 			page 88


 3873 0b9d 12       		.uleb128 0x12
 3874 0b9e 68060000 		.4byte	.LASF75
 3875 0ba2 01       		.byte	0x1
 3876 0ba3 F2       		.byte	0xf2
 3877 0ba4 F90B0000 		.4byte	0xbf9
 3878 0ba8 23       		.uleb128 0x23
 3879 0ba9 06020000 		.4byte	.LASF112
 3880 0bad 01       		.byte	0x1
 3881 0bae F7       		.byte	0xf7
 3882 0baf 0F0C0000 		.4byte	0xc0f
 3883 0bb3 20       		.byte	0x20
 3884 0bb4 00       		.byte	0
 3885 0bb5 F0       		.byte	0xf0
 3886 0bb6 BC       		.byte	0xbc
 3887 0bb7 3D       		.byte	0x3d
 3888 0bb8 00       		.byte	0
 3889 0bb9 1C       		.byte	0x1c
 3890 0bba 8C       		.byte	0x8c
 3891 0bbb 3E       		.byte	0x3e
 3892 0bbc 00       		.byte	0
 3893 0bbd 38       		.byte	0x38
 3894 0bbe E4       		.byte	0xe4
 3895 0bbf 3E       		.byte	0x3e
 3896 0bc0 00       		.byte	0
 3897 0bc1 46       		.byte	0x46
 3898 0bc2 1A       		.byte	0x1a
 3899 0bc3 3F       		.byte	0x3f
 3900 0bc4 00       		.byte	0
 3901 0bc5 30       		.byte	0x30
 3902 0bc6 3D       		.byte	0x3d
 3903 0bc7 3F       		.byte	0x3f
 3904 0bc8 00       		.byte	0
 3905 0bc9 A8       		.byte	0xa8
 3906 0bca 59       		.byte	0x59
 3907 0bcb 3F       		.byte	0x3f
 3908 0bcc 00       		.byte	0
 3909 0bcd B6       		.byte	0xb6
 3910 0bce 6E       		.byte	0x6e
 3911 0bcf 3F       		.byte	0x3f
 3912 0bd0 00       		.byte	0
 3913 0bd1 A4       		.byte	0xa4
 3914 0bd2 7B       		.byte	0x7b
 3915 0bd3 3F       		.byte	0x3f
 3916 0bd4 15       		.uleb128 0x15
 3917 0bd5 16       		.uleb128 0x16
 3918 0bd6 6900     		.ascii	"i\000"
 3919 0bd8 01       		.byte	0x1
 3920 0bd9 FE       		.byte	0xfe
 3921 0bda 73000000 		.4byte	0x73
 3922 0bde 15       		.uleb128 0x15
 3923 0bdf 14       		.uleb128 0x14
 3924 0be0 63060000 		.4byte	.LASF78
 3925 0be4 01       		.byte	0x1
 3926 0be5 FF       		.byte	0xff
 3927 0be6 25010000 		.4byte	0x125
 3928 0bea 15       		.uleb128 0x15
 3929 0beb 26       		.uleb128 0x26
ARM GAS  C:\Users\rdn\AppData\Local\Temp\ccYH9vOY.s 			page 89


 3930 0bec 6A00     		.ascii	"j\000"
 3931 0bee 01       		.byte	0x1
 3932 0bef 0201     		.2byte	0x102
 3933 0bf1 73000000 		.4byte	0x73
 3934 0bf5 00       		.byte	0
 3935 0bf6 00       		.byte	0
 3936 0bf7 00       		.byte	0
 3937 0bf8 00       		.byte	0
 3938 0bf9 0E       		.uleb128 0xe
 3939 0bfa 04       		.byte	0x4
 3940 0bfb 73000000 		.4byte	0x73
 3941 0bff 07       		.uleb128 0x7
 3942 0c00 25010000 		.4byte	0x125
 3943 0c04 0F0C0000 		.4byte	0xc0f
 3944 0c08 08       		.uleb128 0x8
 3945 0c09 1E010000 		.4byte	0x11e
 3946 0c0d 07       		.byte	0x7
 3947 0c0e 00       		.byte	0
 3948 0c0f 0F       		.uleb128 0xf
 3949 0c10 FF0B0000 		.4byte	0xbff
 3950 0c14 13       		.uleb128 0x13
 3951 0c15 CF060000 		.4byte	.LASF113
 3952 0c19 01       		.byte	0x1
 3953 0c1a D3       		.byte	0xd3
 3954 0c1b 01       		.byte	0x1
 3955 0c1c 8A0C0000 		.4byte	0xc8a
 3956 0c20 11       		.uleb128 0x11
 3957 0c21 6100     		.ascii	"a\000"
 3958 0c23 01       		.byte	0x1
 3959 0c24 D4       		.byte	0xd4
 3960 0c25 75030000 		.4byte	0x375
 3961 0c29 12       		.uleb128 0x12
 3962 0c2a D7010000 		.4byte	.LASF85
 3963 0c2e 01       		.byte	0x1
 3964 0c2f D4       		.byte	0xd4
 3965 0c30 73000000 		.4byte	0x73
 3966 0c34 11       		.uleb128 0x11
 3967 0c35 726300   		.ascii	"rc\000"
 3968 0c38 01       		.byte	0x1
 3969 0c39 D4       		.byte	0xd4
 3970 0c3a CA040000 		.4byte	0x4ca
 3971 0c3e 16       		.uleb128 0x16
 3972 0c3f 6500     		.ascii	"e\000"
 3973 0c41 01       		.byte	0x1
 3974 0c42 D6       		.byte	0xd6
 3975 0c43 25010000 		.4byte	0x125
 3976 0c47 16       		.uleb128 0x16
 3977 0c48 6200     		.ascii	"b\000"
 3978 0c4a 01       		.byte	0x1
 3979 0c4b D6       		.byte	0xd6
 3980 0c4c 8A0C0000 		.4byte	0xc8a
 3981 0c50 16       		.uleb128 0x16
 3982 0c51 623000   		.ascii	"b0\000"
 3983 0c54 01       		.byte	0x1
 3984 0c55 D6       		.byte	0xd6
 3985 0c56 CA040000 		.4byte	0x4ca
 3986 0c5a 16       		.uleb128 0x16
ARM GAS  C:\Users\rdn\AppData\Local\Temp\ccYH9vOY.s 			page 90


 3987 0c5b 623100   		.ascii	"b1\000"
 3988 0c5e 01       		.byte	0x1
 3989 0c5f D6       		.byte	0xd6
 3990 0c60 CA040000 		.4byte	0x4ca
 3991 0c64 24       		.uleb128 0x24
 3992 0c65 730C0000 		.4byte	0xc73
 3993 0c69 16       		.uleb128 0x16
 3994 0c6a 6900     		.ascii	"i\000"
 3995 0c6c 01       		.byte	0x1
 3996 0c6d DC       		.byte	0xdc
 3997 0c6e 73000000 		.4byte	0x73
 3998 0c72 00       		.byte	0
 3999 0c73 15       		.uleb128 0x15
 4000 0c74 16       		.uleb128 0x16
 4001 0c75 6B00     		.ascii	"k\000"
 4002 0c77 01       		.byte	0x1
 4003 0c78 DF       		.byte	0xdf
 4004 0c79 73000000 		.4byte	0x73
 4005 0c7d 15       		.uleb128 0x15
 4006 0c7e 16       		.uleb128 0x16
 4007 0c7f 6900     		.ascii	"i\000"
 4008 0c81 01       		.byte	0x1
 4009 0c82 E5       		.byte	0xe5
 4010 0c83 73000000 		.4byte	0x73
 4011 0c87 00       		.byte	0
 4012 0c88 00       		.byte	0
 4013 0c89 00       		.byte	0
 4014 0c8a 07       		.uleb128 0x7
 4015 0c8b 25010000 		.4byte	0x125
 4016 0c8f A00C0000 		.4byte	0xca0
 4017 0c93 08       		.uleb128 0x8
 4018 0c94 1E010000 		.4byte	0x11e
 4019 0c98 01       		.byte	0x1
 4020 0c99 08       		.uleb128 0x8
 4021 0c9a 1E010000 		.4byte	0x11e
 4022 0c9e 06       		.byte	0x6
 4023 0c9f 00       		.byte	0
 4024 0ca0 27       		.uleb128 0x27
 4025 0ca1 88030000 		.4byte	.LASF114
 4026 0ca5 01       		.byte	0x1
 4027 0ca6 2D01     		.2byte	0x12d
 4028 0ca8 01       		.byte	0x1
 4029 0ca9 630D0000 		.4byte	0xd63
 4030 0cad 28       		.uleb128 0x28
 4031 0cae 647400   		.ascii	"dt\000"
 4032 0cb1 01       		.byte	0x1
 4033 0cb2 2E01     		.2byte	0x12e
 4034 0cb4 97000000 		.4byte	0x97
 4035 0cb8 28       		.uleb128 0x28
 4036 0cb9 627700   		.ascii	"bw\000"
 4037 0cbc 01       		.byte	0x1
 4038 0cbd 2E01     		.2byte	0x12e
 4039 0cbf 41010000 		.4byte	0x141
 4040 0cc3 29       		.uleb128 0x29
 4041 0cc4 60000000 		.4byte	.LASF68
 4042 0cc8 01       		.byte	0x1
 4043 0cc9 2F01     		.2byte	0x12f
ARM GAS  C:\Users\rdn\AppData\Local\Temp\ccYH9vOY.s 			page 91


 4044 0ccb BF040000 		.4byte	0x4bf
 4045 0ccf 28       		.uleb128 0x28
 4046 0cd0 726300   		.ascii	"rc\000"
 4047 0cd3 01       		.byte	0x1
 4048 0cd4 2F01     		.2byte	0x12f
 4049 0cd6 690D0000 		.4byte	0xd69
 4050 0cda 28       		.uleb128 0x28
 4051 0cdb 7800     		.ascii	"x\000"
 4052 0cdd 01       		.byte	0x1
 4053 0cde 2F01     		.2byte	0x12f
 4054 0ce0 CA040000 		.4byte	0x4ca
 4055 0ce4 2A       		.uleb128 0x2a
 4056 0ce5 FF050000 		.4byte	.LASF66
 4057 0ce9 01       		.byte	0x1
 4058 0cea 3101     		.2byte	0x131
 4059 0cec 73000000 		.4byte	0x73
 4060 0cf0 26       		.uleb128 0x26
 4061 0cf1 6E6600   		.ascii	"nf\000"
 4062 0cf4 01       		.byte	0x1
 4063 0cf5 3201     		.2byte	0x132
 4064 0cf7 73000000 		.4byte	0x73
 4065 0cfb 26       		.uleb128 0x26
 4066 0cfc 693000   		.ascii	"i0\000"
 4067 0cff 01       		.byte	0x1
 4068 0d00 3401     		.2byte	0x134
 4069 0d02 73000000 		.4byte	0x73
 4070 0d06 26       		.uleb128 0x26
 4071 0d07 696500   		.ascii	"ie\000"
 4072 0d0a 01       		.byte	0x1
 4073 0d0b 3401     		.2byte	0x134
 4074 0d0d 73000000 		.4byte	0x73
 4075 0d11 26       		.uleb128 0x26
 4076 0d12 7300     		.ascii	"s\000"
 4077 0d14 01       		.byte	0x1
 4078 0d15 3601     		.2byte	0x136
 4079 0d17 FF0B0000 		.4byte	0xbff
 4080 0d1b 15       		.uleb128 0x15
 4081 0d1c 26       		.uleb128 0x26
 4082 0d1d 6600     		.ascii	"f\000"
 4083 0d1f 01       		.byte	0x1
 4084 0d20 3801     		.2byte	0x138
 4085 0d22 73000000 		.4byte	0x73
 4086 0d26 15       		.uleb128 0x15
 4087 0d27 26       		.uleb128 0x26
 4088 0d28 6900     		.ascii	"i\000"
 4089 0d2a 01       		.byte	0x1
 4090 0d2b 4001     		.2byte	0x140
 4091 0d2d 73000000 		.4byte	0x73
 4092 0d31 15       		.uleb128 0x15
 4093 0d32 26       		.uleb128 0x26
 4094 0d33 786900   		.ascii	"xi\000"
 4095 0d36 01       		.byte	0x1
 4096 0d37 4101     		.2byte	0x141
 4097 0d39 25010000 		.4byte	0x125
 4098 0d3d 26       		.uleb128 0x26
 4099 0d3e 733000   		.ascii	"s0\000"
 4100 0d41 01       		.byte	0x1
ARM GAS  C:\Users\rdn\AppData\Local\Temp\ccYH9vOY.s 			page 92


 4101 0d42 4201     		.2byte	0x142
 4102 0d44 25010000 		.4byte	0x125
 4103 0d48 26       		.uleb128 0x26
 4104 0d49 733100   		.ascii	"s1\000"
 4105 0d4c 01       		.byte	0x1
 4106 0d4d 4201     		.2byte	0x142
 4107 0d4f 25010000 		.4byte	0x125
 4108 0d53 15       		.uleb128 0x15
 4109 0d54 26       		.uleb128 0x26
 4110 0d55 6B00     		.ascii	"k\000"
 4111 0d57 01       		.byte	0x1
 4112 0d58 4401     		.2byte	0x144
 4113 0d5a 73000000 		.4byte	0x73
 4114 0d5e 00       		.byte	0
 4115 0d5f 00       		.byte	0
 4116 0d60 00       		.byte	0
 4117 0d61 00       		.byte	0
 4118 0d62 00       		.byte	0
 4119 0d63 0E       		.uleb128 0xe
 4120 0d64 04       		.byte	0x4
 4121 0d65 FF0B0000 		.4byte	0xbff
 4122 0d69 0F       		.uleb128 0xf
 4123 0d6a 630D0000 		.4byte	0xd63
 4124 0d6e 2B       		.uleb128 0x2b
 4125 0d6f BC010000 		.4byte	.LASF118
 4126 0d73 01       		.byte	0x1
 4127 0d74 8301     		.2byte	0x183
 4128 0d76 00000000 		.4byte	.LFB29
 4129 0d7a 28060000 		.4byte	.LFE29-.LFB29
 4130 0d7e 01       		.uleb128 0x1
 4131 0d7f 9C       		.byte	0x9c
 4132 0d80 FE130000 		.4byte	0x13fe
 4133 0d84 19       		.uleb128 0x19
 4134 0d85 647400   		.ascii	"dt\000"
 4135 0d88 01       		.byte	0x1
 4136 0d89 8301     		.2byte	0x183
 4137 0d8b 97000000 		.4byte	0x97
 4138 0d8f 56020000 		.4byte	.LLST15
 4139 0d93 19       		.uleb128 0x19
 4140 0d94 627700   		.ascii	"bw\000"
 4141 0d97 01       		.byte	0x1
 4142 0d98 8301     		.2byte	0x183
 4143 0d9a 41010000 		.4byte	0x141
 4144 0d9e 77020000 		.4byte	.LLST16
 4145 0da2 1E       		.uleb128 0x1e
 4146 0da3 3B030000 		.4byte	.LASF115
 4147 0da7 01       		.byte	0x1
 4148 0da8 8401     		.2byte	0x184
 4149 0daa 07010000 		.4byte	0x107
 4150 0dae 98020000 		.4byte	.LLST17
 4151 0db2 1E       		.uleb128 0x1e
 4152 0db3 C4030000 		.4byte	.LASF72
 4153 0db7 01       		.byte	0x1
 4154 0db8 8401     		.2byte	0x184
 4155 0dba 73000000 		.4byte	0x73
 4156 0dbe B9020000 		.4byte	.LLST18
 4157 0dc2 1E       		.uleb128 0x1e
ARM GAS  C:\Users\rdn\AppData\Local\Temp\ccYH9vOY.s 			page 93


 4158 0dc3 B2020000 		.4byte	.LASF116
 4159 0dc7 01       		.byte	0x1
 4160 0dc8 8401     		.2byte	0x184
 4161 0dca FE130000 		.4byte	0x13fe
 4162 0dce DA020000 		.4byte	.LLST19
 4163 0dd2 19       		.uleb128 0x19
 4164 0dd3 7800     		.ascii	"x\000"
 4165 0dd5 01       		.byte	0x1
 4166 0dd6 8401     		.2byte	0x184
 4167 0dd8 CA040000 		.4byte	0x4ca
 4168 0ddc FA020000 		.4byte	.LLST20
 4169 0de0 1A       		.uleb128 0x1a
 4170 0de1 57010000 		.4byte	.LASF109
 4171 0de5 01       		.byte	0x1
 4172 0de6 8D01     		.2byte	0x18d
 4173 0de8 0E010000 		.4byte	0x10e
 4174 0dec 03       		.uleb128 0x3
 4175 0ded 91       		.byte	0x91
 4176 0dee F47C     		.sleb128 -396
 4177 0df0 2C       		.uleb128 0x2c
 4178 0df1 6100     		.ascii	"a\000"
 4179 0df3 01       		.byte	0x1
 4180 0df4 8D01     		.2byte	0x18d
 4181 0df6 D00A0000 		.4byte	0xad0
 4182 0dfa 03       		.uleb128 0x3
 4183 0dfb 91       		.byte	0x91
 4184 0dfc FC7D     		.sleb128 -260
 4185 0dfe 2C       		.uleb128 0x2c
 4186 0dff 726300   		.ascii	"rc\000"
 4187 0e02 01       		.byte	0x1
 4188 0e03 8E01     		.2byte	0x18e
 4189 0e05 04140000 		.4byte	0x1404
 4190 0e09 03       		.uleb128 0x3
 4191 0e0a 91       		.byte	0x91
 4192 0e0b B47D     		.sleb128 -332
 4193 0e0d 1D       		.uleb128 0x1d
 4194 0e0e D7010000 		.4byte	.LASF85
 4195 0e12 01       		.byte	0x1
 4196 0e13 9201     		.2byte	0x192
 4197 0e15 73000000 		.4byte	0x73
 4198 0e19 1A030000 		.4byte	.LLST21
 4199 0e1d 2D       		.uleb128 0x2d
 4200 0e1e A5030000 		.4byte	0x3a5
 4201 0e22 0A000000 		.4byte	.LBB68
 4202 0e26 04000000 		.4byte	.LBE68-.LBB68
 4203 0e2a 01       		.byte	0x1
 4204 0e2b 9001     		.2byte	0x190
 4205 0e2d 440E0000 		.4byte	0xe44
 4206 0e31 2E       		.uleb128 0x2e
 4207 0e32 BF030000 		.4byte	0x3bf
 4208 0e36 52030000 		.4byte	.LLST22
 4209 0e3a 2E       		.uleb128 0x2e
 4210 0e3b B5030000 		.4byte	0x3b5
 4211 0e3f 65030000 		.4byte	.LLST23
 4212 0e43 00       		.byte	0
 4213 0e44 2F       		.uleb128 0x2f
 4214 0e45 15060000 		.4byte	0x615
ARM GAS  C:\Users\rdn\AppData\Local\Temp\ccYH9vOY.s 			page 94


 4215 0e49 3E000000 		.4byte	.LBB70
 4216 0e4d 18000000 		.4byte	.Ldebug_ranges0+0x18
 4217 0e51 01       		.byte	0x1
 4218 0e52 9401     		.2byte	0x194
 4219 0e54 6F110000 		.4byte	0x116f
 4220 0e58 2E       		.uleb128 0x2e
 4221 0e59 54060000 		.4byte	0x654
 4222 0e5d 78030000 		.4byte	.LLST24
 4223 0e61 2E       		.uleb128 0x2e
 4224 0e62 49060000 		.4byte	0x649
 4225 0e66 A7030000 		.4byte	.LLST25
 4226 0e6a 30       		.uleb128 0x30
 4227 0e6b 40060000 		.4byte	0x640
 4228 0e6f 02       		.uleb128 0x2
 4229 0e70 91       		.byte	0x91
 4230 0e71 04       		.sleb128 4
 4231 0e72 2E       		.uleb128 0x2e
 4232 0e73 35060000 		.4byte	0x635
 4233 0e77 1A030000 		.4byte	.LLST21
 4234 0e7b 30       		.uleb128 0x30
 4235 0e7c 2B060000 		.4byte	0x62b
 4236 0e80 03       		.uleb128 0x3
 4237 0e81 91       		.byte	0x91
 4238 0e82 C47C     		.sleb128 -444
 4239 0e84 30       		.uleb128 0x30
 4240 0e85 21060000 		.4byte	0x621
 4241 0e89 01       		.uleb128 0x1
 4242 0e8a 5B       		.byte	0x5b
 4243 0e8b 1C       		.uleb128 0x1c
 4244 0e8c 18000000 		.4byte	.Ldebug_ranges0+0x18
 4245 0e90 31       		.uleb128 0x31
 4246 0e91 D5080000 		.4byte	0x8d5
 4247 0e95 EF030000 		.4byte	.LLST27
 4248 0e99 31       		.uleb128 0x31
 4249 0e9a E0080000 		.4byte	0x8e0
 4250 0e9e 52040000 		.4byte	.LLST28
 4251 0ea2 31       		.uleb128 0x31
 4252 0ea3 EB080000 		.4byte	0x8eb
 4253 0ea7 67040000 		.4byte	.LLST29
 4254 0eab 31       		.uleb128 0x31
 4255 0eac F6080000 		.4byte	0x8f6
 4256 0eb0 7A040000 		.4byte	.LLST30
 4257 0eb4 31       		.uleb128 0x31
 4258 0eb5 00090000 		.4byte	0x900
 4259 0eb9 C1040000 		.4byte	.LLST31
 4260 0ebd 32       		.uleb128 0x32
 4261 0ebe 0A090000 		.4byte	0x90a
 4262 0ec2 03       		.uleb128 0x3
 4263 0ec3 91       		.byte	0x91
 4264 0ec4 B47D     		.sleb128 -332
 4265 0ec6 32       		.uleb128 0x32
 4266 0ec7 5D060000 		.4byte	0x65d
 4267 0ecb 05       		.uleb128 0x5
 4268 0ecc 03       		.byte	0x3
 4269 0ecd 24000000 		.4byte	sub_2m5_nb.5543
 4270 0ed1 32       		.uleb128 0x32
 4271 0ed2 75060000 		.4byte	0x675
ARM GAS  C:\Users\rdn\AppData\Local\Temp\ccYH9vOY.s 			page 95


 4272 0ed6 05       		.uleb128 0x5
 4273 0ed7 03       		.byte	0x3
 4274 0ed8 30000000 		.4byte	sub_2m5_wb.5544
 4275 0edc 32       		.uleb128 0x32
 4276 0edd 8D060000 		.4byte	0x68d
 4277 0ee1 05       		.uleb128 0x5
 4278 0ee2 03       		.byte	0x3
 4279 0ee3 3C000000 		.4byte	sub_2m5_sswb.5545
 4280 0ee7 32       		.uleb128 0x32
 4281 0ee8 A5060000 		.4byte	0x6a5
 4282 0eec 05       		.uleb128 0x5
 4283 0eed 03       		.byte	0x3
 4284 0eee 48000000 		.4byte	sub_2m5_swb.5546
 4285 0ef2 32       		.uleb128 0x32
 4286 0ef3 BD060000 		.4byte	0x6bd
 4287 0ef7 05       		.uleb128 0x5
 4288 0ef8 03       		.byte	0x3
 4289 0ef9 54000000 		.4byte	sub_2m5_fb.5547
 4290 0efd 32       		.uleb128 0x32
 4291 0efe D5060000 		.4byte	0x6d5
 4292 0f02 05       		.uleb128 0x5
 4293 0f03 03       		.byte	0x3
 4294 0f04 60000000 		.4byte	sub_5m_nb.5548
 4295 0f08 32       		.uleb128 0x32
 4296 0f09 ED060000 		.4byte	0x6ed
 4297 0f0d 05       		.uleb128 0x5
 4298 0f0e 03       		.byte	0x3
 4299 0f0f 6C000000 		.4byte	sub_5m_wb.5549
 4300 0f13 32       		.uleb128 0x32
 4301 0f14 05070000 		.4byte	0x705
 4302 0f18 05       		.uleb128 0x5
 4303 0f19 03       		.byte	0x3
 4304 0f1a 78000000 		.4byte	sub_5m_sswb.5550
 4305 0f1e 32       		.uleb128 0x32
 4306 0f1f 1D070000 		.4byte	0x71d
 4307 0f23 05       		.uleb128 0x5
 4308 0f24 03       		.byte	0x3
 4309 0f25 84000000 		.4byte	sub_5m_swb.5551
 4310 0f29 32       		.uleb128 0x32
 4311 0f2a 3D070000 		.4byte	0x73d
 4312 0f2e 05       		.uleb128 0x5
 4313 0f2f 03       		.byte	0x3
 4314 0f30 98000000 		.4byte	sub_5m_fb.5552
 4315 0f34 32       		.uleb128 0x32
 4316 0f35 5D070000 		.4byte	0x75d
 4317 0f39 05       		.uleb128 0x5
 4318 0f3a 03       		.byte	0x3
 4319 0f3b AC000000 		.4byte	sub_7m5_nb.5553
 4320 0f3f 32       		.uleb128 0x32
 4321 0f40 79070000 		.4byte	0x779
 4322 0f44 05       		.uleb128 0x5
 4323 0f45 03       		.byte	0x3
 4324 0f46 BC000000 		.4byte	sub_7m5_wb.5554
 4325 0f4a 32       		.uleb128 0x32
 4326 0f4b 95070000 		.4byte	0x795
 4327 0f4f 05       		.uleb128 0x5
 4328 0f50 03       		.byte	0x3
ARM GAS  C:\Users\rdn\AppData\Local\Temp\ccYH9vOY.s 			page 96


 4329 0f51 CC000000 		.4byte	sub_7m5_sswb.5555
 4330 0f55 32       		.uleb128 0x32
 4331 0f56 B1070000 		.4byte	0x7b1
 4332 0f5a 05       		.uleb128 0x5
 4333 0f5b 03       		.byte	0x3
 4334 0f5c DC000000 		.4byte	sub_7m5_swb.5556
 4335 0f60 32       		.uleb128 0x32
 4336 0f61 D9070000 		.4byte	0x7d9
 4337 0f65 05       		.uleb128 0x5
 4338 0f66 03       		.byte	0x3
 4339 0f67 F8000000 		.4byte	sub_7m5_fb.5557
 4340 0f6b 32       		.uleb128 0x32
 4341 0f6c 01080000 		.4byte	0x801
 4342 0f70 05       		.uleb128 0x5
 4343 0f71 03       		.byte	0x3
 4344 0f72 14010000 		.4byte	sub_10m_nb.5558
 4345 0f76 32       		.uleb128 0x32
 4346 0f77 1D080000 		.4byte	0x81d
 4347 0f7b 05       		.uleb128 0x5
 4348 0f7c 03       		.byte	0x3
 4349 0f7d 24010000 		.4byte	sub_10m_wb.5559
 4350 0f81 32       		.uleb128 0x32
 4351 0f82 39080000 		.4byte	0x839
 4352 0f86 05       		.uleb128 0x5
 4353 0f87 03       		.byte	0x3
 4354 0f88 34010000 		.4byte	sub_10m_sswb.5560
 4355 0f8c 32       		.uleb128 0x32
 4356 0f8d 55080000 		.4byte	0x855
 4357 0f91 05       		.uleb128 0x5
 4358 0f92 03       		.byte	0x3
 4359 0f93 44010000 		.4byte	sub_10m_swb.5561
 4360 0f97 32       		.uleb128 0x32
 4361 0f98 7D080000 		.4byte	0x87d
 4362 0f9c 05       		.uleb128 0x5
 4363 0f9d 03       		.byte	0x3
 4364 0f9e 60010000 		.4byte	sub_10m_fb.5562
 4365 0fa2 32       		.uleb128 0x32
 4366 0fa3 A5080000 		.4byte	0x8a5
 4367 0fa7 05       		.uleb128 0x5
 4368 0fa8 03       		.byte	0x3
 4369 0fa9 7C010000 		.4byte	lag_window.5563
 4370 0fad 33       		.uleb128 0x33
 4371 0fae 38000000 		.4byte	.Ldebug_ranges0+0x38
 4372 0fb2 B5100000 		.4byte	0x10b5
 4373 0fb6 31       		.uleb128 0x31
 4374 0fb7 18090000 		.4byte	0x918
 4375 0fbb 2F050000 		.4byte	.LLST32
 4376 0fbf 1C       		.uleb128 0x1c
 4377 0fc0 50000000 		.4byte	.Ldebug_ranges0+0x50
 4378 0fc4 32       		.uleb128 0x32
 4379 0fc5 22090000 		.4byte	0x922
 4380 0fc9 03       		.uleb128 0x3
 4381 0fca 91       		.byte	0x91
 4382 0fcb FC7D     		.sleb128 -260
 4383 0fcd 33       		.uleb128 0x33
 4384 0fce 68000000 		.4byte	.Ldebug_ranges0+0x68
 4385 0fd2 29100000 		.4byte	0x1029
ARM GAS  C:\Users\rdn\AppData\Local\Temp\ccYH9vOY.s 			page 97


 4386 0fd6 31       		.uleb128 0x31
 4387 0fd7 30090000 		.4byte	0x930
 4388 0fdb 43050000 		.4byte	.LLST33
 4389 0fdf 1C       		.uleb128 0x1c
 4390 0fe0 80000000 		.4byte	.Ldebug_ranges0+0x80
 4391 0fe4 31       		.uleb128 0x31
 4392 0fe5 3A090000 		.4byte	0x93a
 4393 0fe9 6D050000 		.4byte	.LLST34
 4394 0fed 34       		.uleb128 0x34
 4395 0fee FC0A0000 		.4byte	0xafc
 4396 0ff2 6A010000 		.4byte	.LBB76
 4397 0ff6 98000000 		.4byte	.Ldebug_ranges0+0x98
 4398 0ffa 01       		.byte	0x1
 4399 0ffb 89       		.byte	0x89
 4400 0ffc 2E       		.uleb128 0x2e
 4401 0ffd 1E0B0000 		.4byte	0xb1e
 4402 1001 8C050000 		.4byte	.LLST35
 4403 1005 2E       		.uleb128 0x2e
 4404 1006 150B0000 		.4byte	0xb15
 4405 100a AF050000 		.4byte	.LLST36
 4406 100e 2E       		.uleb128 0x2e
 4407 100f 0C0B0000 		.4byte	0xb0c
 4408 1013 CF050000 		.4byte	.LLST37
 4409 1017 1C       		.uleb128 0x1c
 4410 1018 98000000 		.4byte	.Ldebug_ranges0+0x98
 4411 101c 31       		.uleb128 0x31
 4412 101d 270B0000 		.4byte	0xb27
 4413 1021 FA050000 		.4byte	.LLST38
 4414 1025 00       		.byte	0
 4415 1026 00       		.byte	0
 4416 1027 00       		.byte	0
 4417 1028 00       		.byte	0
 4418 1029 35       		.uleb128 0x35
 4419 102a D2010000 		.4byte	.LBB82
 4420 102e 48000000 		.4byte	.LBE82-.LBB82
 4421 1032 5C100000 		.4byte	0x105c
 4422 1036 31       		.uleb128 0x31
 4423 1037 4A090000 		.4byte	0x94a
 4424 103b 1E060000 		.4byte	.LLST39
 4425 103f 31       		.uleb128 0x31
 4426 1040 54090000 		.4byte	0x954
 4427 1044 32060000 		.4byte	.LLST40
 4428 1048 36       		.uleb128 0x36
 4429 1049 D4010000 		.4byte	.LBB83
 4430 104d 46000000 		.4byte	.LBE83-.LBB83
 4431 1051 31       		.uleb128 0x31
 4432 1052 5F090000 		.4byte	0x95f
 4433 1056 46060000 		.4byte	.LLST41
 4434 105a 00       		.byte	0
 4435 105b 00       		.byte	0
 4436 105c 35       		.uleb128 0x35
 4437 105d 3C020000 		.4byte	.LBB84
 4438 1061 68000000 		.4byte	.LBE84-.LBB84
 4439 1065 98100000 		.4byte	0x1098
 4440 1069 31       		.uleb128 0x31
 4441 106a 6B090000 		.4byte	0x96b
 4442 106e 5A060000 		.4byte	.LLST42
ARM GAS  C:\Users\rdn\AppData\Local\Temp\ccYH9vOY.s 			page 98


 4443 1072 31       		.uleb128 0x31
 4444 1073 75090000 		.4byte	0x975
 4445 1077 6E060000 		.4byte	.LLST43
 4446 107b 31       		.uleb128 0x31
 4447 107c 7F090000 		.4byte	0x97f
 4448 1080 82060000 		.4byte	.LLST44
 4449 1084 36       		.uleb128 0x36
 4450 1085 46020000 		.4byte	.LBB85
 4451 1089 5E000000 		.4byte	.LBE85-.LBB85
 4452 108d 31       		.uleb128 0x31
 4453 108e 8A090000 		.4byte	0x98a
 4454 1092 96060000 		.4byte	.LLST45
 4455 1096 00       		.byte	0
 4456 1097 00       		.byte	0
 4457 1098 22       		.uleb128 0x22
 4458 1099 46010000 		.4byte	.LVL42
 4459 109d 621A0000 		.4byte	0x1a62
 4460 10a1 20       		.uleb128 0x20
 4461 10a2 01       		.uleb128 0x1
 4462 10a3 50       		.byte	0x50
 4463 10a4 02       		.uleb128 0x2
 4464 10a5 77       		.byte	0x77
 4465 10a6 00       		.sleb128 0
 4466 10a7 20       		.uleb128 0x20
 4467 10a8 01       		.uleb128 0x1
 4468 10a9 51       		.byte	0x51
 4469 10aa 01       		.uleb128 0x1
 4470 10ab 30       		.byte	0x30
 4471 10ac 20       		.uleb128 0x20
 4472 10ad 01       		.uleb128 0x1
 4473 10ae 52       		.byte	0x52
 4474 10af 02       		.uleb128 0x2
 4475 10b0 08       		.byte	0x8
 4476 10b1 6C       		.byte	0x6c
 4477 10b2 00       		.byte	0
 4478 10b3 00       		.byte	0
 4479 10b4 00       		.byte	0
 4480 10b5 33       		.uleb128 0x33
 4481 10b6 B0000000 		.4byte	.Ldebug_ranges0+0xb0
 4482 10ba 51110000 		.4byte	0x1151
 4483 10be 37       		.uleb128 0x37
 4484 10bf 98090000 		.4byte	0x998
 4485 10c3 1C       		.uleb128 0x1c
 4486 10c4 C8000000 		.4byte	.Ldebug_ranges0+0xc8
 4487 10c8 31       		.uleb128 0x31
 4488 10c9 A2090000 		.4byte	0x9a2
 4489 10cd AA060000 		.4byte	.LLST46
 4490 10d1 32       		.uleb128 0x32
 4491 10d2 AC090000 		.4byte	0x9ac
 4492 10d6 03       		.uleb128 0x3
 4493 10d7 91       		.byte	0x91
 4494 10d8 FC7C     		.sleb128 -388
 4495 10da 31       		.uleb128 0x31
 4496 10db B6090000 		.4byte	0x9b6
 4497 10df CD060000 		.4byte	.LLST47
 4498 10e3 31       		.uleb128 0x31
 4499 10e4 C1090000 		.4byte	0x9c1
ARM GAS  C:\Users\rdn\AppData\Local\Temp\ccYH9vOY.s 			page 99


 4500 10e8 ED060000 		.4byte	.LLST48
 4501 10ec 36       		.uleb128 0x36
 4502 10ed BA020000 		.4byte	.LBB89
 4503 10f1 D2000000 		.4byte	.LBE89-.LBB89
 4504 10f5 31       		.uleb128 0x31
 4505 10f6 CC090000 		.4byte	0x9cc
 4506 10fa 25070000 		.4byte	.LLST49
 4507 10fe 35       		.uleb128 0x35
 4508 10ff CC020000 		.4byte	.LBB90
 4509 1103 12000000 		.4byte	.LBE90-.LBB90
 4510 1107 15110000 		.4byte	0x1115
 4511 110b 31       		.uleb128 0x31
 4512 110c DA090000 		.4byte	0x9da
 4513 1110 5C070000 		.4byte	.LLST50
 4514 1114 00       		.byte	0
 4515 1115 33       		.uleb128 0x33
 4516 1116 E8000000 		.4byte	.Ldebug_ranges0+0xe8
 4517 111a 28110000 		.4byte	0x1128
 4518 111e 31       		.uleb128 0x31
 4519 111f E9090000 		.4byte	0x9e9
 4520 1123 70070000 		.4byte	.LLST51
 4521 1127 00       		.byte	0
 4522 1128 35       		.uleb128 0x35
 4523 1129 3A030000 		.4byte	.LBB93
 4524 112d 10000000 		.4byte	.LBE93-.LBB93
 4525 1131 3F110000 		.4byte	0x113f
 4526 1135 31       		.uleb128 0x31
 4527 1136 F8090000 		.4byte	0x9f8
 4528 113a 83070000 		.4byte	.LLST52
 4529 113e 00       		.byte	0
 4530 113f 36       		.uleb128 0x36
 4531 1140 60030000 		.4byte	.LBB94
 4532 1144 14000000 		.4byte	.LBE94-.LBB94
 4533 1148 37       		.uleb128 0x37
 4534 1149 030A0000 		.4byte	0xa03
 4535 114d 00       		.byte	0
 4536 114e 00       		.byte	0
 4537 114f 00       		.byte	0
 4538 1150 00       		.byte	0
 4539 1151 22       		.uleb128 0x22
 4540 1152 52000000 		.4byte	.LVL33
 4541 1156 621A0000 		.4byte	0x1a62
 4542 115a 20       		.uleb128 0x20
 4543 115b 01       		.uleb128 0x1
 4544 115c 50       		.byte	0x50
 4545 115d 03       		.uleb128 0x3
 4546 115e 91       		.byte	0x91
 4547 115f E87E     		.sleb128 -152
 4548 1161 20       		.uleb128 0x20
 4549 1162 01       		.uleb128 0x1
 4550 1163 51       		.byte	0x51
 4551 1164 01       		.uleb128 0x1
 4552 1165 30       		.byte	0x30
 4553 1166 20       		.uleb128 0x20
 4554 1167 01       		.uleb128 0x1
 4555 1168 52       		.byte	0x52
 4556 1169 02       		.uleb128 0x2
ARM GAS  C:\Users\rdn\AppData\Local\Temp\ccYH9vOY.s 			page 100


 4557 116a 08       		.byte	0x8
 4558 116b 70       		.byte	0x70
 4559 116c 00       		.byte	0
 4560 116d 00       		.byte	0
 4561 116e 00       		.byte	0
 4562 116f 35       		.uleb128 0x35
 4563 1170 A0030000 		.4byte	.LBB103
 4564 1174 DC010000 		.4byte	.LBE103-.LBB103
 4565 1178 01130000 		.4byte	0x1301
 4566 117c 1B       		.uleb128 0x1b
 4567 117d 6600     		.ascii	"f\000"
 4568 117f 01       		.byte	0x1
 4569 1180 9601     		.2byte	0x196
 4570 1182 73000000 		.4byte	0x73
 4571 1186 97070000 		.4byte	.LLST53
 4572 118a 2F       		.uleb128 0x2f
 4573 118b 140C0000 		.4byte	0xc14
 4574 118f A0030000 		.4byte	.LBB104
 4575 1193 00010000 		.4byte	.Ldebug_ranges0+0x100
 4576 1197 01       		.byte	0x1
 4577 1198 9F01     		.2byte	0x19f
 4578 119a 19120000 		.4byte	0x1219
 4579 119e 2E       		.uleb128 0x2e
 4580 119f 340C0000 		.4byte	0xc34
 4581 11a3 AA070000 		.4byte	.LLST54
 4582 11a7 38       		.uleb128 0x38
 4583 11a8 290C0000 		.4byte	0xc29
 4584 11ac 2E       		.uleb128 0x2e
 4585 11ad 200C0000 		.4byte	0xc20
 4586 11b1 C8070000 		.4byte	.LLST55
 4587 11b5 1C       		.uleb128 0x1c
 4588 11b6 00010000 		.4byte	.Ldebug_ranges0+0x100
 4589 11ba 31       		.uleb128 0x31
 4590 11bb 3E0C0000 		.4byte	0xc3e
 4591 11bf E6070000 		.4byte	.LLST56
 4592 11c3 32       		.uleb128 0x32
 4593 11c4 470C0000 		.4byte	0xc47
 4594 11c8 03       		.uleb128 0x3
 4595 11c9 91       		.byte	0x91
 4596 11ca FC7C     		.sleb128 -388
 4597 11cc 31       		.uleb128 0x31
 4598 11cd 500C0000 		.4byte	0xc50
 4599 11d1 12080000 		.4byte	.LLST57
 4600 11d5 31       		.uleb128 0x31
 4601 11d6 5A0C0000 		.4byte	0xc5a
 4602 11da 32080000 		.4byte	.LLST58
 4603 11de 35       		.uleb128 0x35
 4604 11df 66040000 		.4byte	.LBB106
 4605 11e3 1A000000 		.4byte	.LBE106-.LBB106
 4606 11e7 F5110000 		.4byte	0x11f5
 4607 11eb 31       		.uleb128 0x31
 4608 11ec 690C0000 		.4byte	0xc69
 4609 11f0 77080000 		.4byte	.LLST59
 4610 11f4 00       		.byte	0
 4611 11f5 1C       		.uleb128 0x1c
 4612 11f6 20010000 		.4byte	.Ldebug_ranges0+0x120
 4613 11fa 31       		.uleb128 0x31
ARM GAS  C:\Users\rdn\AppData\Local\Temp\ccYH9vOY.s 			page 101


 4614 11fb 740C0000 		.4byte	0xc74
 4615 11ff 8B080000 		.4byte	.LLST60
 4616 1203 36       		.uleb128 0x36
 4617 1204 BA040000 		.4byte	.LBB108
 4618 1208 28000000 		.4byte	.LBE108-.LBB108
 4619 120c 31       		.uleb128 0x31
 4620 120d 7E0C0000 		.4byte	0xc7e
 4621 1211 B6080000 		.4byte	.LLST61
 4622 1215 00       		.byte	0
 4623 1216 00       		.byte	0
 4624 1217 00       		.byte	0
 4625 1218 00       		.byte	0
 4626 1219 2D       		.uleb128 0x2d
 4627 121a 310B0000 		.4byte	0xb31
 4628 121e 32040000 		.4byte	.LBB113
 4629 1222 34000000 		.4byte	.LBE113-.LBB113
 4630 1226 01       		.byte	0x1
 4631 1227 9D01     		.2byte	0x19d
 4632 1229 6F120000 		.4byte	0x126f
 4633 122d 2E       		.uleb128 0x2e
 4634 122e 480B0000 		.4byte	0xb48
 4635 1232 D5080000 		.4byte	.LLST62
 4636 1236 2E       		.uleb128 0x2e
 4637 1237 3D0B0000 		.4byte	0xb3d
 4638 123b E8080000 		.4byte	.LLST63
 4639 123f 36       		.uleb128 0x36
 4640 1240 32040000 		.4byte	.LBB114
 4641 1244 34000000 		.4byte	.LBE114-.LBB114
 4642 1248 31       		.uleb128 0x31
 4643 1249 510B0000 		.4byte	0xb51
 4644 124d 11090000 		.4byte	.LLST64
 4645 1251 31       		.uleb128 0x31
 4646 1252 5C0B0000 		.4byte	0xb5c
 4647 1256 25090000 		.4byte	.LLST65
 4648 125a 36       		.uleb128 0x36
 4649 125b 50040000 		.4byte	.LBB115
 4650 125f 16000000 		.4byte	.LBE115-.LBB115
 4651 1263 31       		.uleb128 0x31
 4652 1264 660B0000 		.4byte	0xb66
 4653 1268 49090000 		.4byte	.LLST66
 4654 126c 00       		.byte	0
 4655 126d 00       		.byte	0
 4656 126e 00       		.byte	0
 4657 126f 2D       		.uleb128 0x2d
 4658 1270 710B0000 		.4byte	0xb71
 4659 1274 F0040000 		.4byte	.LBB117
 4660 1278 78000000 		.4byte	.LBE117-.LBB117
 4661 127c 01       		.byte	0x1
 4662 127d A101     		.2byte	0x1a1
 4663 127f EA120000 		.4byte	0x12ea
 4664 1283 2E       		.uleb128 0x2e
 4665 1284 9D0B0000 		.4byte	0xb9d
 4666 1288 5D090000 		.4byte	.LLST67
 4667 128c 38       		.uleb128 0x38
 4668 128d 920B0000 		.4byte	0xb92
 4669 1291 2E       		.uleb128 0x2e
 4670 1292 870B0000 		.4byte	0xb87
ARM GAS  C:\Users\rdn\AppData\Local\Temp\ccYH9vOY.s 			page 102


 4671 1296 70090000 		.4byte	.LLST68
 4672 129a 2E       		.uleb128 0x2e
 4673 129b 7D0B0000 		.4byte	0xb7d
 4674 129f 84090000 		.4byte	.LLST69
 4675 12a3 36       		.uleb128 0x36
 4676 12a4 F0040000 		.4byte	.LBB118
 4677 12a8 78000000 		.4byte	.LBE118-.LBB118
 4678 12ac 32       		.uleb128 0x32
 4679 12ad A80B0000 		.4byte	0xba8
 4680 12b1 05       		.uleb128 0x5
 4681 12b2 03       		.byte	0x3
 4682 12b3 A0010000 		.4byte	q_thr.5662
 4683 12b7 1C       		.uleb128 0x1c
 4684 12b8 38010000 		.4byte	.Ldebug_ranges0+0x138
 4685 12bc 31       		.uleb128 0x31
 4686 12bd D50B0000 		.4byte	0xbd5
 4687 12c1 97090000 		.4byte	.LLST70
 4688 12c5 1C       		.uleb128 0x1c
 4689 12c6 50010000 		.4byte	.Ldebug_ranges0+0x150
 4690 12ca 31       		.uleb128 0x31
 4691 12cb DF0B0000 		.4byte	0xbdf
 4692 12cf AB090000 		.4byte	.LLST71
 4693 12d3 36       		.uleb128 0x36
 4694 12d4 20050000 		.4byte	.LBB121
 4695 12d8 22000000 		.4byte	.LBE121-.LBB121
 4696 12dc 31       		.uleb128 0x31
 4697 12dd EB0B0000 		.4byte	0xbeb
 4698 12e1 BF090000 		.4byte	.LLST72
 4699 12e5 00       		.byte	0
 4700 12e6 00       		.byte	0
 4701 12e7 00       		.byte	0
 4702 12e8 00       		.byte	0
 4703 12e9 00       		.byte	0
 4704 12ea 22       		.uleb128 0x22
 4705 12eb 70050000 		.4byte	.LVL121
 4706 12ef 47040000 		.4byte	0x447
 4707 12f3 20       		.uleb128 0x20
 4708 12f4 01       		.uleb128 0x1
 4709 12f5 50       		.byte	0x50
 4710 12f6 02       		.uleb128 0x2
 4711 12f7 77       		.byte	0x77
 4712 12f8 00       		.sleb128 0
 4713 12f9 20       		.uleb128 0x20
 4714 12fa 01       		.uleb128 0x1
 4715 12fb 52       		.byte	0x52
 4716 12fc 02       		.uleb128 0x2
 4717 12fd 74       		.byte	0x74
 4718 12fe 00       		.sleb128 0
 4719 12ff 00       		.byte	0
 4720 1300 00       		.byte	0
 4721 1301 39       		.uleb128 0x39
 4722 1302 A00C0000 		.4byte	0xca0
 4723 1306 82050000 		.4byte	.LBB124
 4724 130a 68010000 		.4byte	.Ldebug_ranges0+0x168
 4725 130e 01       		.byte	0x1
 4726 130f A501     		.2byte	0x1a5
 4727 1311 30       		.uleb128 0x30
ARM GAS  C:\Users\rdn\AppData\Local\Temp\ccYH9vOY.s 			page 103


 4728 1312 DA0C0000 		.4byte	0xcda
 4729 1316 02       		.uleb128 0x2
 4730 1317 91       		.byte	0x91
 4731 1318 04       		.sleb128 4
 4732 1319 2E       		.uleb128 0x2e
 4733 131a CF0C0000 		.4byte	0xccf
 4734 131e 040A0000 		.4byte	.LLST73
 4735 1322 30       		.uleb128 0x30
 4736 1323 C30C0000 		.4byte	0xcc3
 4737 1327 01       		.uleb128 0x1
 4738 1328 56       		.byte	0x56
 4739 1329 30       		.uleb128 0x30
 4740 132a B80C0000 		.4byte	0xcb8
 4741 132e 03       		.uleb128 0x3
 4742 132f 91       		.byte	0x91
 4743 1330 C47C     		.sleb128 -444
 4744 1332 30       		.uleb128 0x30
 4745 1333 AD0C0000 		.4byte	0xcad
 4746 1337 01       		.uleb128 0x1
 4747 1338 5B       		.byte	0x5b
 4748 1339 1C       		.uleb128 0x1c
 4749 133a 68010000 		.4byte	.Ldebug_ranges0+0x168
 4750 133e 32       		.uleb128 0x32
 4751 133f E40C0000 		.4byte	0xce4
 4752 1343 03       		.uleb128 0x3
 4753 1344 77       		.byte	0x77
 4754 1345 01       		.sleb128 1
 4755 1346 9F       		.byte	0x9f
 4756 1347 32       		.uleb128 0x32
 4757 1348 F00C0000 		.4byte	0xcf0
 4758 134c 01       		.uleb128 0x1
 4759 134d 54       		.byte	0x54
 4760 134e 31       		.uleb128 0x31
 4761 134f FB0C0000 		.4byte	0xcfb
 4762 1353 330A0000 		.4byte	.LLST74
 4763 1357 31       		.uleb128 0x31
 4764 1358 060D0000 		.4byte	0xd06
 4765 135c 460A0000 		.4byte	.LLST75
 4766 1360 32       		.uleb128 0x32
 4767 1361 110D0000 		.4byte	0xd11
 4768 1365 03       		.uleb128 0x3
 4769 1366 91       		.byte	0x91
 4770 1367 FC7C     		.sleb128 -388
 4771 1369 2F       		.uleb128 0x2f
 4772 136a 80030000 		.4byte	0x380
 4773 136e 96050000 		.4byte	.LBB126
 4774 1372 80010000 		.4byte	.Ldebug_ranges0+0x180
 4775 1376 01       		.byte	0x1
 4776 1377 3201     		.2byte	0x132
 4777 1379 88130000 		.4byte	0x1388
 4778 137d 38       		.uleb128 0x38
 4779 137e 9A030000 		.4byte	0x39a
 4780 1382 38       		.uleb128 0x38
 4781 1383 90030000 		.4byte	0x390
 4782 1387 00       		.byte	0
 4783 1388 33       		.uleb128 0x33
 4784 1389 98010000 		.4byte	.Ldebug_ranges0+0x198
ARM GAS  C:\Users\rdn\AppData\Local\Temp\ccYH9vOY.s 			page 104


 4785 138d DF130000 		.4byte	0x13df
 4786 1391 31       		.uleb128 0x31
 4787 1392 1C0D0000 		.4byte	0xd1c
 4788 1396 850A0000 		.4byte	.LLST76
 4789 139a 36       		.uleb128 0x36
 4790 139b E6050000 		.4byte	.LBB131
 4791 139f 42000000 		.4byte	.LBE131-.LBB131
 4792 13a3 32       		.uleb128 0x32
 4793 13a4 270D0000 		.4byte	0xd27
 4794 13a8 01       		.uleb128 0x1
 4795 13a9 55       		.byte	0x55
 4796 13aa 1C       		.uleb128 0x1c
 4797 13ab B0010000 		.4byte	.Ldebug_ranges0+0x1b0
 4798 13af 31       		.uleb128 0x31
 4799 13b0 320D0000 		.4byte	0xd32
 4800 13b4 BC0A0000 		.4byte	.LLST77
 4801 13b8 32       		.uleb128 0x32
 4802 13b9 3D0D0000 		.4byte	0xd3d
 4803 13bd 02       		.uleb128 0x2
 4804 13be 90       		.byte	0x90
 4805 13bf 4C       		.uleb128 0x4c
 4806 13c0 31       		.uleb128 0x31
 4807 13c1 480D0000 		.4byte	0xd48
 4808 13c5 E80A0000 		.4byte	.LLST78
 4809 13c9 36       		.uleb128 0x36
 4810 13ca FE050000 		.4byte	.LBB133
 4811 13ce 2A000000 		.4byte	.LBE133-.LBB133
 4812 13d2 31       		.uleb128 0x31
 4813 13d3 540D0000 		.4byte	0xd54
 4814 13d7 200B0000 		.4byte	.LLST79
 4815 13db 00       		.byte	0
 4816 13dc 00       		.byte	0
 4817 13dd 00       		.byte	0
 4818 13de 00       		.byte	0
 4819 13df 22       		.uleb128 0x22
 4820 13e0 B8050000 		.4byte	.LVL127
 4821 13e4 621A0000 		.4byte	0x1a62
 4822 13e8 20       		.uleb128 0x20
 4823 13e9 01       		.uleb128 0x1
 4824 13ea 50       		.byte	0x50
 4825 13eb 03       		.uleb128 0x3
 4826 13ec 91       		.byte	0x91
 4827 13ed FC7C     		.sleb128 -388
 4828 13ef 20       		.uleb128 0x20
 4829 13f0 01       		.uleb128 0x1
 4830 13f1 51       		.byte	0x51
 4831 13f2 01       		.uleb128 0x1
 4832 13f3 30       		.byte	0x30
 4833 13f4 20       		.uleb128 0x20
 4834 13f5 01       		.uleb128 0x1
 4835 13f6 52       		.byte	0x52
 4836 13f7 02       		.uleb128 0x2
 4837 13f8 08       		.byte	0x8
 4838 13f9 20       		.byte	0x20
 4839 13fa 00       		.byte	0
 4840 13fb 00       		.byte	0
 4841 13fc 00       		.byte	0
ARM GAS  C:\Users\rdn\AppData\Local\Temp\ccYH9vOY.s 			page 105


 4842 13fd 00       		.byte	0
 4843 13fe 0E       		.uleb128 0xe
 4844 13ff 04       		.byte	0x4
 4845 1400 08030000 		.4byte	0x308
 4846 1404 07       		.uleb128 0x7
 4847 1405 25010000 		.4byte	0x125
 4848 1409 1A140000 		.4byte	0x141a
 4849 140d 08       		.uleb128 0x8
 4850 140e 1E010000 		.4byte	0x11e
 4851 1412 01       		.byte	0x1
 4852 1413 08       		.uleb128 0x8
 4853 1414 1E010000 		.4byte	0x11e
 4854 1418 07       		.byte	0x7
 4855 1419 00       		.byte	0
 4856 141a 27       		.uleb128 0x27
 4857 141b 57040000 		.4byte	.LASF117
 4858 141f 01       		.byte	0x1
 4859 1420 5701     		.2byte	0x157
 4860 1422 01       		.byte	0x1
 4861 1423 D7140000 		.4byte	0x14d7
 4862 1427 28       		.uleb128 0x28
 4863 1428 647400   		.ascii	"dt\000"
 4864 142b 01       		.byte	0x1
 4865 142c 5801     		.2byte	0x158
 4866 142e 97000000 		.4byte	0x97
 4867 1432 28       		.uleb128 0x28
 4868 1433 627700   		.ascii	"bw\000"
 4869 1436 01       		.byte	0x1
 4870 1437 5801     		.2byte	0x158
 4871 1439 41010000 		.4byte	0x141
 4872 143d 29       		.uleb128 0x29
 4873 143e 60000000 		.4byte	.LASF68
 4874 1442 01       		.byte	0x1
 4875 1443 5901     		.2byte	0x159
 4876 1445 BF040000 		.4byte	0x4bf
 4877 1449 28       		.uleb128 0x28
 4878 144a 726300   		.ascii	"rc\000"
 4879 144d 01       		.byte	0x1
 4880 144e 5901     		.2byte	0x159
 4881 1450 690D0000 		.4byte	0xd69
 4882 1454 28       		.uleb128 0x28
 4883 1455 7800     		.ascii	"x\000"
 4884 1457 01       		.byte	0x1
 4885 1458 5901     		.2byte	0x159
 4886 145a CA040000 		.4byte	0x4ca
 4887 145e 2A       		.uleb128 0x2a
 4888 145f FF050000 		.4byte	.LASF66
 4889 1463 01       		.byte	0x1
 4890 1464 5B01     		.2byte	0x15b
 4891 1466 73000000 		.4byte	0x73
 4892 146a 26       		.uleb128 0x26
 4893 146b 6E6600   		.ascii	"nf\000"
 4894 146e 01       		.byte	0x1
 4895 146f 5C01     		.2byte	0x15c
 4896 1471 73000000 		.4byte	0x73
 4897 1475 26       		.uleb128 0x26
 4898 1476 693000   		.ascii	"i0\000"
ARM GAS  C:\Users\rdn\AppData\Local\Temp\ccYH9vOY.s 			page 106


 4899 1479 01       		.byte	0x1
 4900 147a 5E01     		.2byte	0x15e
 4901 147c 73000000 		.4byte	0x73
 4902 1480 26       		.uleb128 0x26
 4903 1481 696500   		.ascii	"ie\000"
 4904 1484 01       		.byte	0x1
 4905 1485 5E01     		.2byte	0x15e
 4906 1487 73000000 		.4byte	0x73
 4907 148b 26       		.uleb128 0x26
 4908 148c 7300     		.ascii	"s\000"
 4909 148e 01       		.byte	0x1
 4910 148f 6001     		.2byte	0x160
 4911 1491 FF0B0000 		.4byte	0xbff
 4912 1495 15       		.uleb128 0x15
 4913 1496 26       		.uleb128 0x26
 4914 1497 6600     		.ascii	"f\000"
 4915 1499 01       		.byte	0x1
 4916 149a 6201     		.2byte	0x162
 4917 149c 73000000 		.4byte	0x73
 4918 14a0 24       		.uleb128 0x24
 4919 14a1 C9140000 		.4byte	0x14c9
 4920 14a5 26       		.uleb128 0x26
 4921 14a6 6900     		.ascii	"i\000"
 4922 14a8 01       		.byte	0x1
 4923 14a9 6A01     		.2byte	0x16a
 4924 14ab 73000000 		.4byte	0x73
 4925 14af 15       		.uleb128 0x15
 4926 14b0 26       		.uleb128 0x26
 4927 14b1 786900   		.ascii	"xi\000"
 4928 14b4 01       		.byte	0x1
 4929 14b5 6B01     		.2byte	0x16b
 4930 14b7 25010000 		.4byte	0x125
 4931 14bb 15       		.uleb128 0x15
 4932 14bc 26       		.uleb128 0x26
 4933 14bd 6B00     		.ascii	"k\000"
 4934 14bf 01       		.byte	0x1
 4935 14c0 6E01     		.2byte	0x16e
 4936 14c2 73000000 		.4byte	0x73
 4937 14c6 00       		.byte	0
 4938 14c7 00       		.byte	0
 4939 14c8 00       		.byte	0
 4940 14c9 15       		.uleb128 0x15
 4941 14ca 26       		.uleb128 0x26
 4942 14cb 6B00     		.ascii	"k\000"
 4943 14cd 01       		.byte	0x1
 4944 14ce 7601     		.2byte	0x176
 4945 14d0 73000000 		.4byte	0x73
 4946 14d4 00       		.byte	0
 4947 14d5 00       		.byte	0
 4948 14d6 00       		.byte	0
 4949 14d7 2B       		.uleb128 0x2b
 4950 14d8 CE050000 		.4byte	.LASF119
 4951 14dc 01       		.byte	0x1
 4952 14dd AB01     		.2byte	0x1ab
 4953 14df 00000000 		.4byte	.LFB30
 4954 14e3 FC000000 		.4byte	.LFE30-.LFB30
 4955 14e7 01       		.uleb128 0x1
ARM GAS  C:\Users\rdn\AppData\Local\Temp\ccYH9vOY.s 			page 107


 4956 14e8 9C       		.byte	0x9c
 4957 14e9 99160000 		.4byte	0x1699
 4958 14ed 19       		.uleb128 0x19
 4959 14ee 647400   		.ascii	"dt\000"
 4960 14f1 01       		.byte	0x1
 4961 14f2 AB01     		.2byte	0x1ab
 4962 14f4 97000000 		.4byte	0x97
 4963 14f8 620B0000 		.4byte	.LLST80
 4964 14fc 19       		.uleb128 0x19
 4965 14fd 627700   		.ascii	"bw\000"
 4966 1500 01       		.byte	0x1
 4967 1501 AB01     		.2byte	0x1ab
 4968 1503 41010000 		.4byte	0x141
 4969 1507 830B0000 		.4byte	.LLST81
 4970 150b 1E       		.uleb128 0x1e
 4971 150c B2020000 		.4byte	.LASF116
 4972 1510 01       		.byte	0x1
 4973 1511 AC01     		.2byte	0x1ac
 4974 1513 99160000 		.4byte	0x1699
 4975 1517 A40B0000 		.4byte	.LLST82
 4976 151b 19       		.uleb128 0x19
 4977 151c 7800     		.ascii	"x\000"
 4978 151e 01       		.byte	0x1
 4979 151f AC01     		.2byte	0x1ac
 4980 1521 CA040000 		.4byte	0x4ca
 4981 1525 DD0B0000 		.4byte	.LLST83
 4982 1529 2C       		.uleb128 0x2c
 4983 152a 726300   		.ascii	"rc\000"
 4984 152d 01       		.byte	0x1
 4985 152e AE01     		.2byte	0x1ae
 4986 1530 04140000 		.4byte	0x1404
 4987 1534 03       		.uleb128 0x3
 4988 1535 91       		.byte	0x91
 4989 1536 987F     		.sleb128 -104
 4990 1538 35       		.uleb128 0x35
 4991 1539 20000000 		.4byte	.LBB148
 4992 153d 28000000 		.4byte	.LBE148-.LBB148
 4993 1541 72150000 		.4byte	0x1572
 4994 1545 1B       		.uleb128 0x1b
 4995 1546 6600     		.ascii	"f\000"
 4996 1548 01       		.byte	0x1
 4997 1549 B001     		.2byte	0x1b0
 4998 154b 73000000 		.4byte	0x73
 4999 154f FB0B0000 		.4byte	.LLST84
 5000 1553 22       		.uleb128 0x22
 5001 1554 3E000000 		.4byte	.LVL151
 5002 1558 47040000 		.4byte	0x447
 5003 155c 20       		.uleb128 0x20
 5004 155d 01       		.uleb128 0x1
 5005 155e 50       		.byte	0x50
 5006 155f 02       		.uleb128 0x2
 5007 1560 7B       		.byte	0x7b
 5008 1561 00       		.sleb128 0
 5009 1562 20       		.uleb128 0x20
 5010 1563 01       		.uleb128 0x1
 5011 1564 52       		.byte	0x52
 5012 1565 0A       		.uleb128 0xa
ARM GAS  C:\Users\rdn\AppData\Local\Temp\ccYH9vOY.s 			page 108


 5013 1566 79       		.byte	0x79
 5014 1567 00       		.sleb128 0
 5015 1568 35       		.byte	0x35
 5016 1569 24       		.byte	0x24
 5017 156a 91       		.byte	0x91
 5018 156b 00       		.sleb128 0
 5019 156c 22       		.byte	0x22
 5020 156d 08       		.byte	0x8
 5021 156e 68       		.byte	0x68
 5022 156f 1C       		.byte	0x1c
 5023 1570 00       		.byte	0
 5024 1571 00       		.byte	0
 5025 1572 2F       		.uleb128 0x2f
 5026 1573 1A140000 		.4byte	0x141a
 5027 1577 4A000000 		.4byte	.LBB149
 5028 157b C8010000 		.4byte	.Ldebug_ranges0+0x1c8
 5029 157f 01       		.byte	0x1
 5030 1580 B401     		.2byte	0x1b4
 5031 1582 7C160000 		.4byte	0x167c
 5032 1586 30       		.uleb128 0x30
 5033 1587 54140000 		.4byte	0x1454
 5034 158b 01       		.uleb128 0x1
 5035 158c 58       		.byte	0x58
 5036 158d 2E       		.uleb128 0x2e
 5037 158e 49140000 		.4byte	0x1449
 5038 1592 250C0000 		.4byte	.LLST85
 5039 1596 2E       		.uleb128 0x2e
 5040 1597 3D140000 		.4byte	0x143d
 5041 159b 6D0C0000 		.4byte	.LLST86
 5042 159f 2E       		.uleb128 0x2e
 5043 15a0 32140000 		.4byte	0x1432
 5044 15a4 900C0000 		.4byte	.LLST87
 5045 15a8 2E       		.uleb128 0x2e
 5046 15a9 27140000 		.4byte	0x1427
 5047 15ad A30C0000 		.4byte	.LLST88
 5048 15b1 1C       		.uleb128 0x1c
 5049 15b2 C8010000 		.4byte	.Ldebug_ranges0+0x1c8
 5050 15b6 31       		.uleb128 0x31
 5051 15b7 5E140000 		.4byte	0x145e
 5052 15bb B60C0000 		.4byte	.LLST89
 5053 15bf 32       		.uleb128 0x32
 5054 15c0 6A140000 		.4byte	0x146a
 5055 15c4 01       		.uleb128 0x1
 5056 15c5 56       		.byte	0x56
 5057 15c6 31       		.uleb128 0x31
 5058 15c7 75140000 		.4byte	0x1475
 5059 15cb CB0C0000 		.4byte	.LLST90
 5060 15cf 31       		.uleb128 0x31
 5061 15d0 80140000 		.4byte	0x1480
 5062 15d4 DE0C0000 		.4byte	.LLST91
 5063 15d8 32       		.uleb128 0x32
 5064 15d9 8B140000 		.4byte	0x148b
 5065 15dd 03       		.uleb128 0x3
 5066 15de 91       		.byte	0x91
 5067 15df F87E     		.sleb128 -136
 5068 15e1 2F       		.uleb128 0x2f
 5069 15e2 80030000 		.4byte	0x380
ARM GAS  C:\Users\rdn\AppData\Local\Temp\ccYH9vOY.s 			page 109


 5070 15e6 5C000000 		.4byte	.LBB151
 5071 15ea E0010000 		.4byte	.Ldebug_ranges0+0x1e0
 5072 15ee 01       		.byte	0x1
 5073 15ef 5C01     		.2byte	0x15c
 5074 15f1 08160000 		.4byte	0x1608
 5075 15f5 2E       		.uleb128 0x2e
 5076 15f6 9A030000 		.4byte	0x39a
 5077 15fa 1D0D0000 		.4byte	.LLST92
 5078 15fe 2E       		.uleb128 0x2e
 5079 15ff 90030000 		.4byte	0x390
 5080 1603 420D0000 		.4byte	.LLST93
 5081 1607 00       		.byte	0
 5082 1608 33       		.uleb128 0x33
 5083 1609 F8010000 		.4byte	.Ldebug_ranges0+0x1f8
 5084 160d 5F160000 		.4byte	0x165f
 5085 1611 31       		.uleb128 0x31
 5086 1612 96140000 		.4byte	0x1496
 5087 1616 550D0000 		.4byte	.LLST94
 5088 161a 33       		.uleb128 0x33
 5089 161b 10020000 		.4byte	.Ldebug_ranges0+0x210
 5090 161f 2B160000 		.4byte	0x162b
 5091 1623 32       		.uleb128 0x32
 5092 1624 CA140000 		.4byte	0x14ca
 5093 1628 01       		.uleb128 0x1
 5094 1629 53       		.byte	0x53
 5095 162a 00       		.byte	0
 5096 162b 36       		.uleb128 0x36
 5097 162c AA000000 		.4byte	.LBB157
 5098 1630 42000000 		.4byte	.LBE157-.LBB157
 5099 1634 32       		.uleb128 0x32
 5100 1635 A5140000 		.4byte	0x14a5
 5101 1639 01       		.uleb128 0x1
 5102 163a 54       		.byte	0x54
 5103 163b 1C       		.uleb128 0x1c
 5104 163c 28020000 		.4byte	.Ldebug_ranges0+0x228
 5105 1640 31       		.uleb128 0x31
 5106 1641 B0140000 		.4byte	0x14b0
 5107 1645 690D0000 		.4byte	.LLST95
 5108 1649 36       		.uleb128 0x36
 5109 164a AA000000 		.4byte	.LBB159
 5110 164e 18000000 		.4byte	.LBE159-.LBB159
 5111 1652 31       		.uleb128 0x31
 5112 1653 BC140000 		.4byte	0x14bc
 5113 1657 890D0000 		.4byte	.LLST96
 5114 165b 00       		.byte	0
 5115 165c 00       		.byte	0
 5116 165d 00       		.byte	0
 5117 165e 00       		.byte	0
 5118 165f 22       		.uleb128 0x22
 5119 1660 7A000000 		.4byte	.LVL160
 5120 1664 621A0000 		.4byte	0x1a62
 5121 1668 20       		.uleb128 0x20
 5122 1669 01       		.uleb128 0x1
 5123 166a 50       		.byte	0x50
 5124 166b 02       		.uleb128 0x2
 5125 166c 7D       		.byte	0x7d
 5126 166d 00       		.sleb128 0
ARM GAS  C:\Users\rdn\AppData\Local\Temp\ccYH9vOY.s 			page 110


 5127 166e 20       		.uleb128 0x20
 5128 166f 01       		.uleb128 0x1
 5129 1670 51       		.byte	0x51
 5130 1671 01       		.uleb128 0x1
 5131 1672 30       		.byte	0x30
 5132 1673 20       		.uleb128 0x20
 5133 1674 01       		.uleb128 0x1
 5134 1675 52       		.byte	0x52
 5135 1676 02       		.uleb128 0x2
 5136 1677 08       		.byte	0x8
 5137 1678 20       		.byte	0x20
 5138 1679 00       		.byte	0
 5139 167a 00       		.byte	0
 5140 167b 00       		.byte	0
 5141 167c 22       		.uleb128 0x22
 5142 167d 18000000 		.4byte	.LVL149
 5143 1681 621A0000 		.4byte	0x1a62
 5144 1685 20       		.uleb128 0x20
 5145 1686 01       		.uleb128 0x1
 5146 1687 50       		.byte	0x50
 5147 1688 03       		.uleb128 0x3
 5148 1689 91       		.byte	0x91
 5149 168a 987F     		.sleb128 -104
 5150 168c 20       		.uleb128 0x20
 5151 168d 01       		.uleb128 0x1
 5152 168e 51       		.byte	0x51
 5153 168f 01       		.uleb128 0x1
 5154 1690 30       		.byte	0x30
 5155 1691 20       		.uleb128 0x20
 5156 1692 01       		.uleb128 0x1
 5157 1693 52       		.byte	0x52
 5158 1694 02       		.uleb128 0x2
 5159 1695 08       		.byte	0x8
 5160 1696 40       		.byte	0x40
 5161 1697 00       		.byte	0
 5162 1698 00       		.byte	0
 5163 1699 0E       		.uleb128 0xe
 5164 169a 04       		.byte	0x4
 5165 169b 9F160000 		.4byte	0x169f
 5166 169f 0F       		.uleb128 0xf
 5167 16a0 08030000 		.4byte	0x308
 5168 16a4 3A       		.uleb128 0x3a
 5169 16a5 91070000 		.4byte	.LASF124
 5170 16a9 01       		.byte	0x1
 5171 16aa BA01     		.2byte	0x1ba
 5172 16ac 73000000 		.4byte	0x73
 5173 16b0 00000000 		.4byte	.LFB31
 5174 16b4 78000000 		.4byte	.LFE31-.LFB31
 5175 16b8 01       		.uleb128 0x1
 5176 16b9 9C       		.byte	0x9c
 5177 16ba 2D170000 		.4byte	0x172d
 5178 16be 1E       		.uleb128 0x1e
 5179 16bf B2020000 		.4byte	.LASF116
 5180 16c3 01       		.byte	0x1
 5181 16c4 BA01     		.2byte	0x1ba
 5182 16c6 99160000 		.4byte	0x1699
 5183 16ca 9D0D0000 		.4byte	.LLST97
ARM GAS  C:\Users\rdn\AppData\Local\Temp\ccYH9vOY.s 			page 111


 5184 16ce 1D       		.uleb128 0x1d
 5185 16cf 9A030000 		.4byte	.LASF120
 5186 16d3 01       		.byte	0x1
 5187 16d4 BC01     		.2byte	0x1bc
 5188 16d6 73000000 		.4byte	0x73
 5189 16da C90D0000 		.4byte	.LLST98
 5190 16de 1C       		.uleb128 0x1c
 5191 16df 40020000 		.4byte	.Ldebug_ranges0+0x240
 5192 16e3 1B       		.uleb128 0x1b
 5193 16e4 6600     		.ascii	"f\000"
 5194 16e6 01       		.byte	0x1
 5195 16e7 BE01     		.2byte	0x1be
 5196 16e9 73000000 		.4byte	0x73
 5197 16ed E80D0000 		.4byte	.LLST99
 5198 16f1 1C       		.uleb128 0x1c
 5199 16f2 60020000 		.4byte	.Ldebug_ranges0+0x260
 5200 16f6 1D       		.uleb128 0x1d
 5201 16f7 8B000000 		.4byte	.LASF121
 5202 16fb 01       		.byte	0x1
 5203 16fc C001     		.2byte	0x1c0
 5204 16fe 73000000 		.4byte	0x73
 5205 1702 070E0000 		.4byte	.LLST100
 5206 1706 1D       		.uleb128 0x1d
 5207 1707 60000000 		.4byte	.LASF68
 5208 170b 01       		.byte	0x1
 5209 170c C101     		.2byte	0x1c1
 5210 170e 73000000 		.4byte	0x73
 5211 1712 360E0000 		.4byte	.LLST101
 5212 1716 1C       		.uleb128 0x1c
 5213 1717 78020000 		.4byte	.Ldebug_ranges0+0x278
 5214 171b 1B       		.uleb128 0x1b
 5215 171c 6900     		.ascii	"i\000"
 5216 171e 01       		.byte	0x1
 5217 171f C601     		.2byte	0x1c6
 5218 1721 73000000 		.4byte	0x73
 5219 1725 490E0000 		.4byte	.LLST102
 5220 1729 00       		.byte	0
 5221 172a 00       		.byte	0
 5222 172b 00       		.byte	0
 5223 172c 00       		.byte	0
 5224 172d 2B       		.uleb128 0x2b
 5225 172e F1060000 		.4byte	.LASF122
 5226 1732 01       		.byte	0x1
 5227 1733 D201     		.2byte	0x1d2
 5228 1735 00000000 		.4byte	.LFB32
 5229 1739 98000000 		.4byte	.LFE32-.LFB32
 5230 173d 01       		.uleb128 0x1
 5231 173e 9C       		.byte	0x9c
 5232 173f 24180000 		.4byte	0x1824
 5233 1743 1E       		.uleb128 0x1e
 5234 1744 36030000 		.4byte	.LASF73
 5235 1748 01       		.byte	0x1
 5236 1749 D201     		.2byte	0x1d2
 5237 174b 0F060000 		.4byte	0x60f
 5238 174f 800E0000 		.4byte	.LLST103
 5239 1753 1E       		.uleb128 0x1e
 5240 1754 B2020000 		.4byte	.LASF116
ARM GAS  C:\Users\rdn\AppData\Local\Temp\ccYH9vOY.s 			page 112


 5241 1758 01       		.byte	0x1
 5242 1759 D201     		.2byte	0x1d2
 5243 175b 99160000 		.4byte	0x1699
 5244 175f AC0E0000 		.4byte	.LLST104
 5245 1763 36       		.uleb128 0x36
 5246 1764 10000000 		.4byte	.LBB178
 5247 1768 7A000000 		.4byte	.LBE178-.LBB178
 5248 176c 1B       		.uleb128 0x1b
 5249 176d 6600     		.ascii	"f\000"
 5250 176f 01       		.byte	0x1
 5251 1770 D401     		.2byte	0x1d4
 5252 1772 73000000 		.4byte	0x73
 5253 1776 D80E0000 		.4byte	.LLST105
 5254 177a 1C       		.uleb128 0x1c
 5255 177b 98020000 		.4byte	.Ldebug_ranges0+0x298
 5256 177f 1D       		.uleb128 0x1d
 5257 1780 60000000 		.4byte	.LASF68
 5258 1784 01       		.byte	0x1
 5259 1785 D501     		.2byte	0x1d5
 5260 1787 73000000 		.4byte	0x73
 5261 178b F70E0000 		.4byte	.LLST106
 5262 178f 2F       		.uleb128 0x2f
 5263 1790 CB030000 		.4byte	0x3cb
 5264 1794 1E000000 		.4byte	.LBB180
 5265 1798 B0020000 		.4byte	.Ldebug_ranges0+0x2b0
 5266 179c 01       		.byte	0x1
 5267 179d D701     		.2byte	0x1d7
 5268 179f E3170000 		.4byte	0x17e3
 5269 17a3 2E       		.uleb128 0x2e
 5270 17a4 EB030000 		.4byte	0x3eb
 5271 17a8 0A0F0000 		.4byte	.LLST107
 5272 17ac 2E       		.uleb128 0x2e
 5273 17ad E2030000 		.4byte	0x3e2
 5274 17b1 1E0F0000 		.4byte	.LLST108
 5275 17b5 2E       		.uleb128 0x2e
 5276 17b6 D7030000 		.4byte	0x3d7
 5277 17ba 3C0F0000 		.4byte	.LLST109
 5278 17be 1C       		.uleb128 0x1c
 5279 17bf B0020000 		.4byte	.Ldebug_ranges0+0x2b0
 5280 17c3 31       		.uleb128 0x31
 5281 17c4 F4030000 		.4byte	0x3f4
 5282 17c8 4F0F0000 		.4byte	.LLST110
 5283 17cc 22       		.uleb128 0x22
 5284 17cd 44000000 		.4byte	.LVL198
 5285 17d1 6B1A0000 		.4byte	0x1a6b
 5286 17d5 20       		.uleb128 0x20
 5287 17d6 01       		.uleb128 0x1
 5288 17d7 50       		.byte	0x50
 5289 17d8 02       		.uleb128 0x2
 5290 17d9 74       		.byte	0x74
 5291 17da 00       		.sleb128 0
 5292 17db 20       		.uleb128 0x20
 5293 17dc 01       		.uleb128 0x1
 5294 17dd 52       		.byte	0x52
 5295 17de 01       		.uleb128 0x1
 5296 17df 31       		.byte	0x31
 5297 17e0 00       		.byte	0
ARM GAS  C:\Users\rdn\AppData\Local\Temp\ccYH9vOY.s 			page 113


 5298 17e1 00       		.byte	0
 5299 17e2 00       		.byte	0
 5300 17e3 33       		.uleb128 0x33
 5301 17e4 D0020000 		.4byte	.Ldebug_ranges0+0x2d0
 5302 17e8 0B180000 		.4byte	0x180b
 5303 17ec 1B       		.uleb128 0x1b
 5304 17ed 6900     		.ascii	"i\000"
 5305 17ef 01       		.byte	0x1
 5306 17f0 DE01     		.2byte	0x1de
 5307 17f2 73000000 		.4byte	0x73
 5308 17f6 640F0000 		.4byte	.LLST111
 5309 17fa 22       		.uleb128 0x22
 5310 17fb 82000000 		.4byte	.LVL203
 5311 17ff E5040000 		.4byte	0x4e5
 5312 1803 20       		.uleb128 0x20
 5313 1804 01       		.uleb128 0x1
 5314 1805 50       		.byte	0x50
 5315 1806 02       		.uleb128 0x2
 5316 1807 74       		.byte	0x74
 5317 1808 00       		.sleb128 0
 5318 1809 00       		.byte	0
 5319 180a 00       		.byte	0
 5320 180b 22       		.uleb128 0x22
 5321 180c 66000000 		.4byte	.LVL200
 5322 1810 E5040000 		.4byte	0x4e5
 5323 1814 20       		.uleb128 0x20
 5324 1815 01       		.uleb128 0x1
 5325 1816 50       		.byte	0x50
 5326 1817 02       		.uleb128 0x2
 5327 1818 74       		.byte	0x74
 5328 1819 00       		.sleb128 0
 5329 181a 20       		.uleb128 0x20
 5330 181b 01       		.uleb128 0x1
 5331 181c 52       		.byte	0x52
 5332 181d 02       		.uleb128 0x2
 5333 181e 77       		.byte	0x77
 5334 181f 7F       		.sleb128 -1
 5335 1820 00       		.byte	0
 5336 1821 00       		.byte	0
 5337 1822 00       		.byte	0
 5338 1823 00       		.byte	0
 5339 1824 10       		.uleb128 0x10
 5340 1825 7C030000 		.4byte	.LASF123
 5341 1829 02       		.byte	0x2
 5342 182a EA       		.byte	0xea
 5343 182b 73000000 		.4byte	0x73
 5344 182f 03       		.byte	0x3
 5345 1830 40180000 		.4byte	0x1840
 5346 1834 12       		.uleb128 0x12
 5347 1835 36030000 		.4byte	.LASF73
 5348 1839 02       		.byte	0x2
 5349 183a EA       		.byte	0xea
 5350 183b 0F060000 		.4byte	0x60f
 5351 183f 00       		.byte	0
 5352 1840 3A       		.uleb128 0x3a
 5353 1841 9D050000 		.4byte	.LASF125
 5354 1845 01       		.byte	0x1
ARM GAS  C:\Users\rdn\AppData\Local\Temp\ccYH9vOY.s 			page 114


 5355 1846 E701     		.2byte	0x1e7
 5356 1848 73000000 		.4byte	0x73
 5357 184c 00000000 		.4byte	.LFB33
 5358 1850 CC000000 		.4byte	.LFE33-.LFB33
 5359 1854 01       		.uleb128 0x1
 5360 1855 9C       		.byte	0x9c
 5361 1856 78190000 		.4byte	0x1978
 5362 185a 1E       		.uleb128 0x1e
 5363 185b 36030000 		.4byte	.LASF73
 5364 185f 01       		.byte	0x1
 5365 1860 E701     		.2byte	0x1e7
 5366 1862 0F060000 		.4byte	0x60f
 5367 1866 9B0F0000 		.4byte	.LLST112
 5368 186a 19       		.uleb128 0x19
 5369 186b 647400   		.ascii	"dt\000"
 5370 186e 01       		.byte	0x1
 5371 186f E801     		.2byte	0x1e8
 5372 1871 97000000 		.4byte	0x97
 5373 1875 C70F0000 		.4byte	.LLST113
 5374 1879 19       		.uleb128 0x19
 5375 187a 627700   		.ascii	"bw\000"
 5376 187d 01       		.byte	0x1
 5377 187e E801     		.2byte	0x1e8
 5378 1880 41010000 		.4byte	0x141
 5379 1884 E80F0000 		.4byte	.LLST114
 5380 1888 1E       		.uleb128 0x1e
 5381 1889 C4030000 		.4byte	.LASF72
 5382 188d 01       		.byte	0x1
 5383 188e E801     		.2byte	0x1e8
 5384 1890 73000000 		.4byte	0x73
 5385 1894 22100000 		.4byte	.LLST115
 5386 1898 1E       		.uleb128 0x1e
 5387 1899 B2020000 		.4byte	.LASF116
 5388 189d 01       		.byte	0x1
 5389 189e E801     		.2byte	0x1e8
 5390 18a0 78190000 		.4byte	0x1978
 5391 18a4 43100000 		.4byte	.LLST116
 5392 18a8 1C       		.uleb128 0x1c
 5393 18a9 E8020000 		.4byte	.Ldebug_ranges0+0x2e8
 5394 18ad 1B       		.uleb128 0x1b
 5395 18ae 6600     		.ascii	"f\000"
 5396 18b0 01       		.byte	0x1
 5397 18b1 ED01     		.2byte	0x1ed
 5398 18b3 73000000 		.4byte	0x73
 5399 18b7 63100000 		.4byte	.LLST117
 5400 18bb 2D       		.uleb128 0x2d
 5401 18bc 24180000 		.4byte	0x1824
 5402 18c0 40000000 		.4byte	.LBB199
 5403 18c4 1E000000 		.4byte	.LBE199-.LBB199
 5404 18c8 01       		.byte	0x1
 5405 18c9 EF01     		.2byte	0x1ef
 5406 18cb 3A190000 		.4byte	0x193a
 5407 18cf 2E       		.uleb128 0x2e
 5408 18d0 34180000 		.4byte	0x1834
 5409 18d4 82100000 		.4byte	.LLST118
 5410 18d8 3B       		.uleb128 0x3b
 5411 18d9 0C040000 		.4byte	0x40c
ARM GAS  C:\Users\rdn\AppData\Local\Temp\ccYH9vOY.s 			page 115


 5412 18dd 40000000 		.4byte	.LBB201
 5413 18e1 1E000000 		.4byte	.LBE201-.LBB201
 5414 18e5 02       		.byte	0x2
 5415 18e6 EC       		.byte	0xec
 5416 18e7 2E       		.uleb128 0x2e
 5417 18e8 27040000 		.4byte	0x427
 5418 18ec 95100000 		.4byte	.LLST119
 5419 18f0 2E       		.uleb128 0x2e
 5420 18f1 1C040000 		.4byte	0x41c
 5421 18f5 82100000 		.4byte	.LLST118
 5422 18f9 36       		.uleb128 0x36
 5423 18fa 40000000 		.4byte	.LBB202
 5424 18fe 1E000000 		.4byte	.LBE202-.LBB202
 5425 1902 31       		.uleb128 0x31
 5426 1903 30040000 		.4byte	0x430
 5427 1907 A9100000 		.4byte	.LLST121
 5428 190b 35       		.uleb128 0x35
 5429 190c 48000000 		.4byte	.LBB203
 5430 1910 0E000000 		.4byte	.LBE203-.LBB203
 5431 1914 22190000 		.4byte	0x1922
 5432 1918 31       		.uleb128 0x31
 5433 1919 3C040000 		.4byte	0x43c
 5434 191d CB100000 		.4byte	.LLST122
 5435 1921 00       		.byte	0
 5436 1922 22       		.uleb128 0x22
 5437 1923 5E000000 		.4byte	.LVL216
 5438 1927 761A0000 		.4byte	0x1a76
 5439 192b 20       		.uleb128 0x20
 5440 192c 01       		.uleb128 0x1
 5441 192d 50       		.byte	0x50
 5442 192e 02       		.uleb128 0x2
 5443 192f 75       		.byte	0x75
 5444 1930 00       		.sleb128 0
 5445 1931 20       		.uleb128 0x20
 5446 1932 01       		.uleb128 0x1
 5447 1933 51       		.byte	0x51
 5448 1934 01       		.uleb128 0x1
 5449 1935 31       		.byte	0x31
 5450 1936 00       		.byte	0
 5451 1937 00       		.byte	0
 5452 1938 00       		.byte	0
 5453 1939 00       		.byte	0
 5454 193a 35       		.uleb128 0x35
 5455 193b 92000000 		.4byte	.LBB204
 5456 193f 22000000 		.4byte	.LBE204-.LBB204
 5457 1943 66190000 		.4byte	0x1966
 5458 1947 1B       		.uleb128 0x1b
 5459 1948 6900     		.ascii	"i\000"
 5460 194a 01       		.byte	0x1
 5461 194b F801     		.2byte	0x1f8
 5462 194d 73000000 		.4byte	0x73
 5463 1951 DE100000 		.4byte	.LLST123
 5464 1955 22       		.uleb128 0x22
 5465 1956 A8000000 		.4byte	.LVL220
 5466 195a 86050000 		.4byte	0x586
 5467 195e 20       		.uleb128 0x20
 5468 195f 01       		.uleb128 0x1
ARM GAS  C:\Users\rdn\AppData\Local\Temp\ccYH9vOY.s 			page 116


 5469 1960 50       		.byte	0x50
 5470 1961 02       		.uleb128 0x2
 5471 1962 75       		.byte	0x75
 5472 1963 00       		.sleb128 0
 5473 1964 00       		.byte	0
 5474 1965 00       		.byte	0
 5475 1966 22       		.uleb128 0x22
 5476 1967 7E000000 		.4byte	.LVL218
 5477 196b 86050000 		.4byte	0x586
 5478 196f 20       		.uleb128 0x20
 5479 1970 01       		.uleb128 0x1
 5480 1971 50       		.byte	0x50
 5481 1972 02       		.uleb128 0x2
 5482 1973 75       		.byte	0x75
 5483 1974 00       		.sleb128 0
 5484 1975 00       		.byte	0
 5485 1976 00       		.byte	0
 5486 1977 00       		.byte	0
 5487 1978 0E       		.uleb128 0xe
 5488 1979 04       		.byte	0x4
 5489 197a 6A030000 		.4byte	0x36a
 5490 197e 3C       		.uleb128 0x3c
 5491 197f 61010000 		.4byte	.LASF126
 5492 1983 03       		.byte	0x3
 5493 1984 2A       		.byte	0x2a
 5494 1985 89190000 		.4byte	0x1989
 5495 1989 0F       		.uleb128 0xf
 5496 198a 880A0000 		.4byte	0xa88
 5497 198e 3C       		.uleb128 0x3c
 5498 198f 80000000 		.4byte	.LASF127
 5499 1993 03       		.byte	0x3
 5500 1994 2B       		.byte	0x2b
 5501 1995 99190000 		.4byte	0x1999
 5502 1999 0F       		.uleb128 0xf
 5503 199a 880A0000 		.4byte	0xa88
 5504 199e 3C       		.uleb128 0x3c
 5505 199f 2B010000 		.4byte	.LASF128
 5506 19a3 03       		.byte	0x3
 5507 19a4 2C       		.byte	0x2c
 5508 19a5 A9190000 		.4byte	0x19a9
 5509 19a9 0F       		.uleb128 0xf
 5510 19aa 880A0000 		.4byte	0xa88
 5511 19ae 07       		.uleb128 0x7
 5512 19af C5040000 		.4byte	0x4c5
 5513 19b3 CA190000 		.4byte	0x19ca
 5514 19b7 08       		.uleb128 0x8
 5515 19b8 1E010000 		.4byte	0x11e
 5516 19bc 03       		.byte	0x3
 5517 19bd 08       		.uleb128 0x8
 5518 19be 1E010000 		.4byte	0x11e
 5519 19c2 01       		.byte	0x1
 5520 19c3 08       		.uleb128 0x8
 5521 19c4 1E010000 		.4byte	0x11e
 5522 19c8 01       		.byte	0x1
 5523 19c9 00       		.byte	0
 5524 19ca 3C       		.uleb128 0x3c
 5525 19cb 6F070000 		.4byte	.LASF129
ARM GAS  C:\Users\rdn\AppData\Local\Temp\ccYH9vOY.s 			page 117


 5526 19cf 03       		.byte	0x3
 5527 19d0 4E       		.byte	0x4e
 5528 19d1 D5190000 		.4byte	0x19d5
 5529 19d5 0F       		.uleb128 0xf
 5530 19d6 AE190000 		.4byte	0x19ae
 5531 19da 07       		.uleb128 0x7
 5532 19db 70050000 		.4byte	0x570
 5533 19df E5190000 		.4byte	0x19e5
 5534 19e3 3D       		.uleb128 0x3d
 5535 19e4 00       		.byte	0
 5536 19e5 3C       		.uleb128 0x3c
 5537 19e6 CB030000 		.4byte	.LASF130
 5538 19ea 03       		.byte	0x3
 5539 19eb 89       		.byte	0x89
 5540 19ec F0190000 		.4byte	0x19f0
 5541 19f0 0F       		.uleb128 0xf
 5542 19f1 DA190000 		.4byte	0x19da
 5543 19f5 07       		.uleb128 0x7
 5544 19f6 061A0000 		.4byte	0x1a06
 5545 19fa 061A0000 		.4byte	0x1a06
 5546 19fe 3D       		.uleb128 0x3d
 5547 19ff 08       		.uleb128 0x8
 5548 1a00 1E010000 		.4byte	0x11e
 5549 1a04 07       		.byte	0x7
 5550 1a05 00       		.byte	0
 5551 1a06 0F       		.uleb128 0xf
 5552 1a07 8C000000 		.4byte	0x8c
 5553 1a0b 3C       		.uleb128 0x3c
 5554 1a0c 1E030000 		.4byte	.LASF131
 5555 1a10 03       		.byte	0x3
 5556 1a11 8A       		.byte	0x8a
 5557 1a12 161A0000 		.4byte	0x1a16
 5558 1a16 0F       		.uleb128 0xf
 5559 1a17 F5190000 		.4byte	0x19f5
 5560 1a1b 3C       		.uleb128 0x3c
 5561 1a1c 9F040000 		.4byte	.LASF132
 5562 1a20 03       		.byte	0x3
 5563 1a21 8C       		.byte	0x8c
 5564 1a22 261A0000 		.4byte	0x1a26
 5565 1a26 0F       		.uleb128 0xf
 5566 1a27 DA190000 		.4byte	0x19da
 5567 1a2b 07       		.uleb128 0x7
 5568 1a2c 061A0000 		.4byte	0x1a06
 5569 1a30 3C1A0000 		.4byte	0x1a3c
 5570 1a34 3D       		.uleb128 0x3d
 5571 1a35 08       		.uleb128 0x8
 5572 1a36 1E010000 		.4byte	0x11e
 5573 1a3a 10       		.byte	0x10
 5574 1a3b 00       		.byte	0
 5575 1a3c 3C       		.uleb128 0x3c
 5576 1a3d 58020000 		.4byte	.LASF133
 5577 1a41 03       		.byte	0x3
 5578 1a42 8D       		.byte	0x8d
 5579 1a43 471A0000 		.4byte	0x1a47
 5580 1a47 0F       		.uleb128 0xf
 5581 1a48 2B1A0000 		.4byte	0x1a2b
 5582 1a4c 3E       		.uleb128 0x3e
ARM GAS  C:\Users\rdn\AppData\Local\Temp\ccYH9vOY.s 			page 118


 5583 1a4d 35010000 		.4byte	.LASF134
 5584 1a51 35010000 		.4byte	.LASF134
 5585 1a55 02       		.byte	0x2
 5586 1a56 CC       		.byte	0xcc
 5587 1a57 3E       		.uleb128 0x3e
 5588 1a58 F3030000 		.4byte	.LASF135
 5589 1a5c F3030000 		.4byte	.LASF135
 5590 1a60 02       		.byte	0x2
 5591 1a61 CB       		.byte	0xcb
 5592 1a62 3F       		.uleb128 0x3f
 5593 1a63 BD030000 		.4byte	.LASF142
 5594 1a67 BD030000 		.4byte	.LASF142
 5595 1a6b 3E       		.uleb128 0x3e
 5596 1a6c 15040000 		.4byte	.LASF136
 5597 1a70 15040000 		.4byte	.LASF136
 5598 1a74 02       		.byte	0x2
 5599 1a75 C8       		.byte	0xc8
 5600 1a76 3E       		.uleb128 0x3e
 5601 1a77 19020000 		.4byte	.LASF137
 5602 1a7b 19020000 		.4byte	.LASF137
 5603 1a7f 02       		.byte	0x2
 5604 1a80 C9       		.byte	0xc9
 5605 1a81 00       		.byte	0
 5606              		.section	.debug_abbrev,"",%progbits
 5607              	.Ldebug_abbrev0:
 5608 0000 01       		.uleb128 0x1
 5609 0001 11       		.uleb128 0x11
 5610 0002 01       		.byte	0x1
 5611 0003 25       		.uleb128 0x25
 5612 0004 0E       		.uleb128 0xe
 5613 0005 13       		.uleb128 0x13
 5614 0006 0B       		.uleb128 0xb
 5615 0007 03       		.uleb128 0x3
 5616 0008 0E       		.uleb128 0xe
 5617 0009 1B       		.uleb128 0x1b
 5618 000a 0E       		.uleb128 0xe
 5619 000b 55       		.uleb128 0x55
 5620 000c 17       		.uleb128 0x17
 5621 000d 11       		.uleb128 0x11
 5622 000e 01       		.uleb128 0x1
 5623 000f 10       		.uleb128 0x10
 5624 0010 17       		.uleb128 0x17
 5625 0011 00       		.byte	0
 5626 0012 00       		.byte	0
 5627 0013 02       		.uleb128 0x2
 5628 0014 24       		.uleb128 0x24
 5629 0015 00       		.byte	0
 5630 0016 0B       		.uleb128 0xb
 5631 0017 0B       		.uleb128 0xb
 5632 0018 3E       		.uleb128 0x3e
 5633 0019 0B       		.uleb128 0xb
 5634 001a 03       		.uleb128 0x3
 5635 001b 0E       		.uleb128 0xe
 5636 001c 00       		.byte	0
 5637 001d 00       		.byte	0
 5638 001e 03       		.uleb128 0x3
 5639 001f 16       		.uleb128 0x16
ARM GAS  C:\Users\rdn\AppData\Local\Temp\ccYH9vOY.s 			page 119


 5640 0020 00       		.byte	0
 5641 0021 03       		.uleb128 0x3
 5642 0022 0E       		.uleb128 0xe
 5643 0023 3A       		.uleb128 0x3a
 5644 0024 0B       		.uleb128 0xb
 5645 0025 3B       		.uleb128 0x3b
 5646 0026 0B       		.uleb128 0xb
 5647 0027 49       		.uleb128 0x49
 5648 0028 13       		.uleb128 0x13
 5649 0029 00       		.byte	0
 5650 002a 00       		.byte	0
 5651 002b 04       		.uleb128 0x4
 5652 002c 24       		.uleb128 0x24
 5653 002d 00       		.byte	0
 5654 002e 0B       		.uleb128 0xb
 5655 002f 0B       		.uleb128 0xb
 5656 0030 3E       		.uleb128 0x3e
 5657 0031 0B       		.uleb128 0xb
 5658 0032 03       		.uleb128 0x3
 5659 0033 08       		.uleb128 0x8
 5660 0034 00       		.byte	0
 5661 0035 00       		.byte	0
 5662 0036 05       		.uleb128 0x5
 5663 0037 04       		.uleb128 0x4
 5664 0038 01       		.byte	0x1
 5665 0039 03       		.uleb128 0x3
 5666 003a 0E       		.uleb128 0xe
 5667 003b 0B       		.uleb128 0xb
 5668 003c 0B       		.uleb128 0xb
 5669 003d 49       		.uleb128 0x49
 5670 003e 13       		.uleb128 0x13
 5671 003f 3A       		.uleb128 0x3a
 5672 0040 0B       		.uleb128 0xb
 5673 0041 3B       		.uleb128 0x3b
 5674 0042 0B       		.uleb128 0xb
 5675 0043 01       		.uleb128 0x1
 5676 0044 13       		.uleb128 0x13
 5677 0045 00       		.byte	0
 5678 0046 00       		.byte	0
 5679 0047 06       		.uleb128 0x6
 5680 0048 28       		.uleb128 0x28
 5681 0049 00       		.byte	0
 5682 004a 03       		.uleb128 0x3
 5683 004b 0E       		.uleb128 0xe
 5684 004c 1C       		.uleb128 0x1c
 5685 004d 0B       		.uleb128 0xb
 5686 004e 00       		.byte	0
 5687 004f 00       		.byte	0
 5688 0050 07       		.uleb128 0x7
 5689 0051 01       		.uleb128 0x1
 5690 0052 01       		.byte	0x1
 5691 0053 49       		.uleb128 0x49
 5692 0054 13       		.uleb128 0x13
 5693 0055 01       		.uleb128 0x1
 5694 0056 13       		.uleb128 0x13
 5695 0057 00       		.byte	0
 5696 0058 00       		.byte	0
ARM GAS  C:\Users\rdn\AppData\Local\Temp\ccYH9vOY.s 			page 120


 5697 0059 08       		.uleb128 0x8
 5698 005a 21       		.uleb128 0x21
 5699 005b 00       		.byte	0
 5700 005c 49       		.uleb128 0x49
 5701 005d 13       		.uleb128 0x13
 5702 005e 2F       		.uleb128 0x2f
 5703 005f 0B       		.uleb128 0xb
 5704 0060 00       		.byte	0
 5705 0061 00       		.byte	0
 5706 0062 09       		.uleb128 0x9
 5707 0063 13       		.uleb128 0x13
 5708 0064 01       		.byte	0x1
 5709 0065 03       		.uleb128 0x3
 5710 0066 0E       		.uleb128 0xe
 5711 0067 0B       		.uleb128 0xb
 5712 0068 0B       		.uleb128 0xb
 5713 0069 3A       		.uleb128 0x3a
 5714 006a 0B       		.uleb128 0xb
 5715 006b 3B       		.uleb128 0x3b
 5716 006c 0B       		.uleb128 0xb
 5717 006d 01       		.uleb128 0x1
 5718 006e 13       		.uleb128 0x13
 5719 006f 00       		.byte	0
 5720 0070 00       		.byte	0
 5721 0071 0A       		.uleb128 0xa
 5722 0072 0D       		.uleb128 0xd
 5723 0073 00       		.byte	0
 5724 0074 03       		.uleb128 0x3
 5725 0075 08       		.uleb128 0x8
 5726 0076 3A       		.uleb128 0x3a
 5727 0077 0B       		.uleb128 0xb
 5728 0078 3B       		.uleb128 0x3b
 5729 0079 0B       		.uleb128 0xb
 5730 007a 49       		.uleb128 0x49
 5731 007b 13       		.uleb128 0x13
 5732 007c 0B       		.uleb128 0xb
 5733 007d 0B       		.uleb128 0xb
 5734 007e 0D       		.uleb128 0xd
 5735 007f 0B       		.uleb128 0xb
 5736 0080 0C       		.uleb128 0xc
 5737 0081 0B       		.uleb128 0xb
 5738 0082 38       		.uleb128 0x38
 5739 0083 0B       		.uleb128 0xb
 5740 0084 00       		.byte	0
 5741 0085 00       		.byte	0
 5742 0086 0B       		.uleb128 0xb
 5743 0087 0D       		.uleb128 0xd
 5744 0088 00       		.byte	0
 5745 0089 03       		.uleb128 0x3
 5746 008a 0E       		.uleb128 0xe
 5747 008b 3A       		.uleb128 0x3a
 5748 008c 0B       		.uleb128 0xb
 5749 008d 3B       		.uleb128 0x3b
 5750 008e 0B       		.uleb128 0xb
 5751 008f 49       		.uleb128 0x49
 5752 0090 13       		.uleb128 0x13
 5753 0091 0B       		.uleb128 0xb
ARM GAS  C:\Users\rdn\AppData\Local\Temp\ccYH9vOY.s 			page 121


 5754 0092 0B       		.uleb128 0xb
 5755 0093 0D       		.uleb128 0xd
 5756 0094 0B       		.uleb128 0xb
 5757 0095 0C       		.uleb128 0xc
 5758 0096 0B       		.uleb128 0xb
 5759 0097 38       		.uleb128 0x38
 5760 0098 0B       		.uleb128 0xb
 5761 0099 00       		.byte	0
 5762 009a 00       		.byte	0
 5763 009b 0C       		.uleb128 0xc
 5764 009c 0D       		.uleb128 0xd
 5765 009d 00       		.byte	0
 5766 009e 03       		.uleb128 0x3
 5767 009f 08       		.uleb128 0x8
 5768 00a0 3A       		.uleb128 0x3a
 5769 00a1 0B       		.uleb128 0xb
 5770 00a2 3B       		.uleb128 0x3b
 5771 00a3 0B       		.uleb128 0xb
 5772 00a4 49       		.uleb128 0x49
 5773 00a5 13       		.uleb128 0x13
 5774 00a6 38       		.uleb128 0x38
 5775 00a7 0B       		.uleb128 0xb
 5776 00a8 00       		.byte	0
 5777 00a9 00       		.byte	0
 5778 00aa 0D       		.uleb128 0xd
 5779 00ab 0D       		.uleb128 0xd
 5780 00ac 00       		.byte	0
 5781 00ad 03       		.uleb128 0x3
 5782 00ae 0E       		.uleb128 0xe
 5783 00af 3A       		.uleb128 0x3a
 5784 00b0 0B       		.uleb128 0xb
 5785 00b1 3B       		.uleb128 0x3b
 5786 00b2 0B       		.uleb128 0xb
 5787 00b3 49       		.uleb128 0x49
 5788 00b4 13       		.uleb128 0x13
 5789 00b5 38       		.uleb128 0x38
 5790 00b6 0B       		.uleb128 0xb
 5791 00b7 00       		.byte	0
 5792 00b8 00       		.byte	0
 5793 00b9 0E       		.uleb128 0xe
 5794 00ba 0F       		.uleb128 0xf
 5795 00bb 00       		.byte	0
 5796 00bc 0B       		.uleb128 0xb
 5797 00bd 0B       		.uleb128 0xb
 5798 00be 49       		.uleb128 0x49
 5799 00bf 13       		.uleb128 0x13
 5800 00c0 00       		.byte	0
 5801 00c1 00       		.byte	0
 5802 00c2 0F       		.uleb128 0xf
 5803 00c3 26       		.uleb128 0x26
 5804 00c4 00       		.byte	0
 5805 00c5 49       		.uleb128 0x49
 5806 00c6 13       		.uleb128 0x13
 5807 00c7 00       		.byte	0
 5808 00c8 00       		.byte	0
 5809 00c9 10       		.uleb128 0x10
 5810 00ca 2E       		.uleb128 0x2e
ARM GAS  C:\Users\rdn\AppData\Local\Temp\ccYH9vOY.s 			page 122


 5811 00cb 01       		.byte	0x1
 5812 00cc 03       		.uleb128 0x3
 5813 00cd 0E       		.uleb128 0xe
 5814 00ce 3A       		.uleb128 0x3a
 5815 00cf 0B       		.uleb128 0xb
 5816 00d0 3B       		.uleb128 0x3b
 5817 00d1 0B       		.uleb128 0xb
 5818 00d2 27       		.uleb128 0x27
 5819 00d3 19       		.uleb128 0x19
 5820 00d4 49       		.uleb128 0x49
 5821 00d5 13       		.uleb128 0x13
 5822 00d6 20       		.uleb128 0x20
 5823 00d7 0B       		.uleb128 0xb
 5824 00d8 01       		.uleb128 0x1
 5825 00d9 13       		.uleb128 0x13
 5826 00da 00       		.byte	0
 5827 00db 00       		.byte	0
 5828 00dc 11       		.uleb128 0x11
 5829 00dd 05       		.uleb128 0x5
 5830 00de 00       		.byte	0
 5831 00df 03       		.uleb128 0x3
 5832 00e0 08       		.uleb128 0x8
 5833 00e1 3A       		.uleb128 0x3a
 5834 00e2 0B       		.uleb128 0xb
 5835 00e3 3B       		.uleb128 0x3b
 5836 00e4 0B       		.uleb128 0xb
 5837 00e5 49       		.uleb128 0x49
 5838 00e6 13       		.uleb128 0x13
 5839 00e7 00       		.byte	0
 5840 00e8 00       		.byte	0
 5841 00e9 12       		.uleb128 0x12
 5842 00ea 05       		.uleb128 0x5
 5843 00eb 00       		.byte	0
 5844 00ec 03       		.uleb128 0x3
 5845 00ed 0E       		.uleb128 0xe
 5846 00ee 3A       		.uleb128 0x3a
 5847 00ef 0B       		.uleb128 0xb
 5848 00f0 3B       		.uleb128 0x3b
 5849 00f1 0B       		.uleb128 0xb
 5850 00f2 49       		.uleb128 0x49
 5851 00f3 13       		.uleb128 0x13
 5852 00f4 00       		.byte	0
 5853 00f5 00       		.byte	0
 5854 00f6 13       		.uleb128 0x13
 5855 00f7 2E       		.uleb128 0x2e
 5856 00f8 01       		.byte	0x1
 5857 00f9 03       		.uleb128 0x3
 5858 00fa 0E       		.uleb128 0xe
 5859 00fb 3A       		.uleb128 0x3a
 5860 00fc 0B       		.uleb128 0xb
 5861 00fd 3B       		.uleb128 0x3b
 5862 00fe 0B       		.uleb128 0xb
 5863 00ff 27       		.uleb128 0x27
 5864 0100 19       		.uleb128 0x19
 5865 0101 20       		.uleb128 0x20
 5866 0102 0B       		.uleb128 0xb
 5867 0103 01       		.uleb128 0x1
ARM GAS  C:\Users\rdn\AppData\Local\Temp\ccYH9vOY.s 			page 123


 5868 0104 13       		.uleb128 0x13
 5869 0105 00       		.byte	0
 5870 0106 00       		.byte	0
 5871 0107 14       		.uleb128 0x14
 5872 0108 34       		.uleb128 0x34
 5873 0109 00       		.byte	0
 5874 010a 03       		.uleb128 0x3
 5875 010b 0E       		.uleb128 0xe
 5876 010c 3A       		.uleb128 0x3a
 5877 010d 0B       		.uleb128 0xb
 5878 010e 3B       		.uleb128 0x3b
 5879 010f 0B       		.uleb128 0xb
 5880 0110 49       		.uleb128 0x49
 5881 0111 13       		.uleb128 0x13
 5882 0112 00       		.byte	0
 5883 0113 00       		.byte	0
 5884 0114 15       		.uleb128 0x15
 5885 0115 0B       		.uleb128 0xb
 5886 0116 01       		.byte	0x1
 5887 0117 00       		.byte	0
 5888 0118 00       		.byte	0
 5889 0119 16       		.uleb128 0x16
 5890 011a 34       		.uleb128 0x34
 5891 011b 00       		.byte	0
 5892 011c 03       		.uleb128 0x3
 5893 011d 08       		.uleb128 0x8
 5894 011e 3A       		.uleb128 0x3a
 5895 011f 0B       		.uleb128 0xb
 5896 0120 3B       		.uleb128 0x3b
 5897 0121 0B       		.uleb128 0xb
 5898 0122 49       		.uleb128 0x49
 5899 0123 13       		.uleb128 0x13
 5900 0124 00       		.byte	0
 5901 0125 00       		.byte	0
 5902 0126 17       		.uleb128 0x17
 5903 0127 2E       		.uleb128 0x2e
 5904 0128 01       		.byte	0x1
 5905 0129 03       		.uleb128 0x3
 5906 012a 0E       		.uleb128 0xe
 5907 012b 3A       		.uleb128 0x3a
 5908 012c 0B       		.uleb128 0xb
 5909 012d 3B       		.uleb128 0x3b
 5910 012e 05       		.uleb128 0x5
 5911 012f 27       		.uleb128 0x27
 5912 0130 19       		.uleb128 0x19
 5913 0131 11       		.uleb128 0x11
 5914 0132 01       		.uleb128 0x1
 5915 0133 12       		.uleb128 0x12
 5916 0134 06       		.uleb128 0x6
 5917 0135 40       		.uleb128 0x40
 5918 0136 18       		.uleb128 0x18
 5919 0137 9742     		.uleb128 0x2117
 5920 0139 19       		.uleb128 0x19
 5921 013a 01       		.uleb128 0x1
 5922 013b 13       		.uleb128 0x13
 5923 013c 00       		.byte	0
 5924 013d 00       		.byte	0
ARM GAS  C:\Users\rdn\AppData\Local\Temp\ccYH9vOY.s 			page 124


 5925 013e 18       		.uleb128 0x18
 5926 013f 05       		.uleb128 0x5
 5927 0140 00       		.byte	0
 5928 0141 03       		.uleb128 0x3
 5929 0142 0E       		.uleb128 0xe
 5930 0143 3A       		.uleb128 0x3a
 5931 0144 0B       		.uleb128 0xb
 5932 0145 3B       		.uleb128 0x3b
 5933 0146 05       		.uleb128 0x5
 5934 0147 49       		.uleb128 0x49
 5935 0148 13       		.uleb128 0x13
 5936 0149 02       		.uleb128 0x2
 5937 014a 18       		.uleb128 0x18
 5938 014b 00       		.byte	0
 5939 014c 00       		.byte	0
 5940 014d 19       		.uleb128 0x19
 5941 014e 05       		.uleb128 0x5
 5942 014f 00       		.byte	0
 5943 0150 03       		.uleb128 0x3
 5944 0151 08       		.uleb128 0x8
 5945 0152 3A       		.uleb128 0x3a
 5946 0153 0B       		.uleb128 0xb
 5947 0154 3B       		.uleb128 0x3b
 5948 0155 05       		.uleb128 0x5
 5949 0156 49       		.uleb128 0x49
 5950 0157 13       		.uleb128 0x13
 5951 0158 02       		.uleb128 0x2
 5952 0159 17       		.uleb128 0x17
 5953 015a 00       		.byte	0
 5954 015b 00       		.byte	0
 5955 015c 1A       		.uleb128 0x1a
 5956 015d 34       		.uleb128 0x34
 5957 015e 00       		.byte	0
 5958 015f 03       		.uleb128 0x3
 5959 0160 0E       		.uleb128 0xe
 5960 0161 3A       		.uleb128 0x3a
 5961 0162 0B       		.uleb128 0xb
 5962 0163 3B       		.uleb128 0x3b
 5963 0164 05       		.uleb128 0x5
 5964 0165 49       		.uleb128 0x49
 5965 0166 13       		.uleb128 0x13
 5966 0167 02       		.uleb128 0x2
 5967 0168 18       		.uleb128 0x18
 5968 0169 00       		.byte	0
 5969 016a 00       		.byte	0
 5970 016b 1B       		.uleb128 0x1b
 5971 016c 34       		.uleb128 0x34
 5972 016d 00       		.byte	0
 5973 016e 03       		.uleb128 0x3
 5974 016f 08       		.uleb128 0x8
 5975 0170 3A       		.uleb128 0x3a
 5976 0171 0B       		.uleb128 0xb
 5977 0172 3B       		.uleb128 0x3b
 5978 0173 05       		.uleb128 0x5
 5979 0174 49       		.uleb128 0x49
 5980 0175 13       		.uleb128 0x13
 5981 0176 02       		.uleb128 0x2
ARM GAS  C:\Users\rdn\AppData\Local\Temp\ccYH9vOY.s 			page 125


 5982 0177 17       		.uleb128 0x17
 5983 0178 00       		.byte	0
 5984 0179 00       		.byte	0
 5985 017a 1C       		.uleb128 0x1c
 5986 017b 0B       		.uleb128 0xb
 5987 017c 01       		.byte	0x1
 5988 017d 55       		.uleb128 0x55
 5989 017e 17       		.uleb128 0x17
 5990 017f 00       		.byte	0
 5991 0180 00       		.byte	0
 5992 0181 1D       		.uleb128 0x1d
 5993 0182 34       		.uleb128 0x34
 5994 0183 00       		.byte	0
 5995 0184 03       		.uleb128 0x3
 5996 0185 0E       		.uleb128 0xe
 5997 0186 3A       		.uleb128 0x3a
 5998 0187 0B       		.uleb128 0xb
 5999 0188 3B       		.uleb128 0x3b
 6000 0189 05       		.uleb128 0x5
 6001 018a 49       		.uleb128 0x49
 6002 018b 13       		.uleb128 0x13
 6003 018c 02       		.uleb128 0x2
 6004 018d 17       		.uleb128 0x17
 6005 018e 00       		.byte	0
 6006 018f 00       		.byte	0
 6007 0190 1E       		.uleb128 0x1e
 6008 0191 05       		.uleb128 0x5
 6009 0192 00       		.byte	0
 6010 0193 03       		.uleb128 0x3
 6011 0194 0E       		.uleb128 0xe
 6012 0195 3A       		.uleb128 0x3a
 6013 0196 0B       		.uleb128 0xb
 6014 0197 3B       		.uleb128 0x3b
 6015 0198 05       		.uleb128 0x5
 6016 0199 49       		.uleb128 0x49
 6017 019a 13       		.uleb128 0x13
 6018 019b 02       		.uleb128 0x2
 6019 019c 17       		.uleb128 0x17
 6020 019d 00       		.byte	0
 6021 019e 00       		.byte	0
 6022 019f 1F       		.uleb128 0x1f
 6023 01a0 898201   		.uleb128 0x4109
 6024 01a3 01       		.byte	0x1
 6025 01a4 11       		.uleb128 0x11
 6026 01a5 01       		.uleb128 0x1
 6027 01a6 9542     		.uleb128 0x2115
 6028 01a8 19       		.uleb128 0x19
 6029 01a9 31       		.uleb128 0x31
 6030 01aa 13       		.uleb128 0x13
 6031 01ab 00       		.byte	0
 6032 01ac 00       		.byte	0
 6033 01ad 20       		.uleb128 0x20
 6034 01ae 8A8201   		.uleb128 0x410a
 6035 01b1 00       		.byte	0
 6036 01b2 02       		.uleb128 0x2
 6037 01b3 18       		.uleb128 0x18
 6038 01b4 9142     		.uleb128 0x2111
ARM GAS  C:\Users\rdn\AppData\Local\Temp\ccYH9vOY.s 			page 126


 6039 01b6 18       		.uleb128 0x18
 6040 01b7 00       		.byte	0
 6041 01b8 00       		.byte	0
 6042 01b9 21       		.uleb128 0x21
 6043 01ba 2E       		.uleb128 0x2e
 6044 01bb 01       		.byte	0x1
 6045 01bc 03       		.uleb128 0x3
 6046 01bd 0E       		.uleb128 0xe
 6047 01be 3A       		.uleb128 0x3a
 6048 01bf 0B       		.uleb128 0xb
 6049 01c0 3B       		.uleb128 0x3b
 6050 01c1 05       		.uleb128 0x5
 6051 01c2 27       		.uleb128 0x27
 6052 01c3 19       		.uleb128 0x19
 6053 01c4 49       		.uleb128 0x49
 6054 01c5 13       		.uleb128 0x13
 6055 01c6 11       		.uleb128 0x11
 6056 01c7 01       		.uleb128 0x1
 6057 01c8 12       		.uleb128 0x12
 6058 01c9 06       		.uleb128 0x6
 6059 01ca 40       		.uleb128 0x40
 6060 01cb 18       		.uleb128 0x18
 6061 01cc 9742     		.uleb128 0x2117
 6062 01ce 19       		.uleb128 0x19
 6063 01cf 01       		.uleb128 0x1
 6064 01d0 13       		.uleb128 0x13
 6065 01d1 00       		.byte	0
 6066 01d2 00       		.byte	0
 6067 01d3 22       		.uleb128 0x22
 6068 01d4 898201   		.uleb128 0x4109
 6069 01d7 01       		.byte	0x1
 6070 01d8 11       		.uleb128 0x11
 6071 01d9 01       		.uleb128 0x1
 6072 01da 31       		.uleb128 0x31
 6073 01db 13       		.uleb128 0x13
 6074 01dc 00       		.byte	0
 6075 01dd 00       		.byte	0
 6076 01de 23       		.uleb128 0x23
 6077 01df 34       		.uleb128 0x34
 6078 01e0 00       		.byte	0
 6079 01e1 03       		.uleb128 0x3
 6080 01e2 0E       		.uleb128 0xe
 6081 01e3 3A       		.uleb128 0x3a
 6082 01e4 0B       		.uleb128 0xb
 6083 01e5 3B       		.uleb128 0x3b
 6084 01e6 0B       		.uleb128 0xb
 6085 01e7 49       		.uleb128 0x49
 6086 01e8 13       		.uleb128 0x13
 6087 01e9 1C       		.uleb128 0x1c
 6088 01ea 0A       		.uleb128 0xa
 6089 01eb 00       		.byte	0
 6090 01ec 00       		.byte	0
 6091 01ed 24       		.uleb128 0x24
 6092 01ee 0B       		.uleb128 0xb
 6093 01ef 01       		.byte	0x1
 6094 01f0 01       		.uleb128 0x1
 6095 01f1 13       		.uleb128 0x13
ARM GAS  C:\Users\rdn\AppData\Local\Temp\ccYH9vOY.s 			page 127


 6096 01f2 00       		.byte	0
 6097 01f3 00       		.byte	0
 6098 01f4 25       		.uleb128 0x25
 6099 01f5 2E       		.uleb128 0x2e
 6100 01f6 01       		.byte	0x1
 6101 01f7 03       		.uleb128 0x3
 6102 01f8 08       		.uleb128 0x8
 6103 01f9 3A       		.uleb128 0x3a
 6104 01fa 0B       		.uleb128 0xb
 6105 01fb 3B       		.uleb128 0x3b
 6106 01fc 0B       		.uleb128 0xb
 6107 01fd 27       		.uleb128 0x27
 6108 01fe 19       		.uleb128 0x19
 6109 01ff 49       		.uleb128 0x49
 6110 0200 13       		.uleb128 0x13
 6111 0201 20       		.uleb128 0x20
 6112 0202 0B       		.uleb128 0xb
 6113 0203 01       		.uleb128 0x1
 6114 0204 13       		.uleb128 0x13
 6115 0205 00       		.byte	0
 6116 0206 00       		.byte	0
 6117 0207 26       		.uleb128 0x26
 6118 0208 34       		.uleb128 0x34
 6119 0209 00       		.byte	0
 6120 020a 03       		.uleb128 0x3
 6121 020b 08       		.uleb128 0x8
 6122 020c 3A       		.uleb128 0x3a
 6123 020d 0B       		.uleb128 0xb
 6124 020e 3B       		.uleb128 0x3b
 6125 020f 05       		.uleb128 0x5
 6126 0210 49       		.uleb128 0x49
 6127 0211 13       		.uleb128 0x13
 6128 0212 00       		.byte	0
 6129 0213 00       		.byte	0
 6130 0214 27       		.uleb128 0x27
 6131 0215 2E       		.uleb128 0x2e
 6132 0216 01       		.byte	0x1
 6133 0217 03       		.uleb128 0x3
 6134 0218 0E       		.uleb128 0xe
 6135 0219 3A       		.uleb128 0x3a
 6136 021a 0B       		.uleb128 0xb
 6137 021b 3B       		.uleb128 0x3b
 6138 021c 05       		.uleb128 0x5
 6139 021d 27       		.uleb128 0x27
 6140 021e 19       		.uleb128 0x19
 6141 021f 20       		.uleb128 0x20
 6142 0220 0B       		.uleb128 0xb
 6143 0221 01       		.uleb128 0x1
 6144 0222 13       		.uleb128 0x13
 6145 0223 00       		.byte	0
 6146 0224 00       		.byte	0
 6147 0225 28       		.uleb128 0x28
 6148 0226 05       		.uleb128 0x5
 6149 0227 00       		.byte	0
 6150 0228 03       		.uleb128 0x3
 6151 0229 08       		.uleb128 0x8
 6152 022a 3A       		.uleb128 0x3a
ARM GAS  C:\Users\rdn\AppData\Local\Temp\ccYH9vOY.s 			page 128


 6153 022b 0B       		.uleb128 0xb
 6154 022c 3B       		.uleb128 0x3b
 6155 022d 05       		.uleb128 0x5
 6156 022e 49       		.uleb128 0x49
 6157 022f 13       		.uleb128 0x13
 6158 0230 00       		.byte	0
 6159 0231 00       		.byte	0
 6160 0232 29       		.uleb128 0x29
 6161 0233 05       		.uleb128 0x5
 6162 0234 00       		.byte	0
 6163 0235 03       		.uleb128 0x3
 6164 0236 0E       		.uleb128 0xe
 6165 0237 3A       		.uleb128 0x3a
 6166 0238 0B       		.uleb128 0xb
 6167 0239 3B       		.uleb128 0x3b
 6168 023a 05       		.uleb128 0x5
 6169 023b 49       		.uleb128 0x49
 6170 023c 13       		.uleb128 0x13
 6171 023d 00       		.byte	0
 6172 023e 00       		.byte	0
 6173 023f 2A       		.uleb128 0x2a
 6174 0240 34       		.uleb128 0x34
 6175 0241 00       		.byte	0
 6176 0242 03       		.uleb128 0x3
 6177 0243 0E       		.uleb128 0xe
 6178 0244 3A       		.uleb128 0x3a
 6179 0245 0B       		.uleb128 0xb
 6180 0246 3B       		.uleb128 0x3b
 6181 0247 05       		.uleb128 0x5
 6182 0248 49       		.uleb128 0x49
 6183 0249 13       		.uleb128 0x13
 6184 024a 00       		.byte	0
 6185 024b 00       		.byte	0
 6186 024c 2B       		.uleb128 0x2b
 6187 024d 2E       		.uleb128 0x2e
 6188 024e 01       		.byte	0x1
 6189 024f 3F       		.uleb128 0x3f
 6190 0250 19       		.uleb128 0x19
 6191 0251 03       		.uleb128 0x3
 6192 0252 0E       		.uleb128 0xe
 6193 0253 3A       		.uleb128 0x3a
 6194 0254 0B       		.uleb128 0xb
 6195 0255 3B       		.uleb128 0x3b
 6196 0256 05       		.uleb128 0x5
 6197 0257 27       		.uleb128 0x27
 6198 0258 19       		.uleb128 0x19
 6199 0259 11       		.uleb128 0x11
 6200 025a 01       		.uleb128 0x1
 6201 025b 12       		.uleb128 0x12
 6202 025c 06       		.uleb128 0x6
 6203 025d 40       		.uleb128 0x40
 6204 025e 18       		.uleb128 0x18
 6205 025f 9742     		.uleb128 0x2117
 6206 0261 19       		.uleb128 0x19
 6207 0262 01       		.uleb128 0x1
 6208 0263 13       		.uleb128 0x13
 6209 0264 00       		.byte	0
ARM GAS  C:\Users\rdn\AppData\Local\Temp\ccYH9vOY.s 			page 129


 6210 0265 00       		.byte	0
 6211 0266 2C       		.uleb128 0x2c
 6212 0267 34       		.uleb128 0x34
 6213 0268 00       		.byte	0
 6214 0269 03       		.uleb128 0x3
 6215 026a 08       		.uleb128 0x8
 6216 026b 3A       		.uleb128 0x3a
 6217 026c 0B       		.uleb128 0xb
 6218 026d 3B       		.uleb128 0x3b
 6219 026e 05       		.uleb128 0x5
 6220 026f 49       		.uleb128 0x49
 6221 0270 13       		.uleb128 0x13
 6222 0271 02       		.uleb128 0x2
 6223 0272 18       		.uleb128 0x18
 6224 0273 00       		.byte	0
 6225 0274 00       		.byte	0
 6226 0275 2D       		.uleb128 0x2d
 6227 0276 1D       		.uleb128 0x1d
 6228 0277 01       		.byte	0x1
 6229 0278 31       		.uleb128 0x31
 6230 0279 13       		.uleb128 0x13
 6231 027a 11       		.uleb128 0x11
 6232 027b 01       		.uleb128 0x1
 6233 027c 12       		.uleb128 0x12
 6234 027d 06       		.uleb128 0x6
 6235 027e 58       		.uleb128 0x58
 6236 027f 0B       		.uleb128 0xb
 6237 0280 59       		.uleb128 0x59
 6238 0281 05       		.uleb128 0x5
 6239 0282 01       		.uleb128 0x1
 6240 0283 13       		.uleb128 0x13
 6241 0284 00       		.byte	0
 6242 0285 00       		.byte	0
 6243 0286 2E       		.uleb128 0x2e
 6244 0287 05       		.uleb128 0x5
 6245 0288 00       		.byte	0
 6246 0289 31       		.uleb128 0x31
 6247 028a 13       		.uleb128 0x13
 6248 028b 02       		.uleb128 0x2
 6249 028c 17       		.uleb128 0x17
 6250 028d 00       		.byte	0
 6251 028e 00       		.byte	0
 6252 028f 2F       		.uleb128 0x2f
 6253 0290 1D       		.uleb128 0x1d
 6254 0291 01       		.byte	0x1
 6255 0292 31       		.uleb128 0x31
 6256 0293 13       		.uleb128 0x13
 6257 0294 52       		.uleb128 0x52
 6258 0295 01       		.uleb128 0x1
 6259 0296 55       		.uleb128 0x55
 6260 0297 17       		.uleb128 0x17
 6261 0298 58       		.uleb128 0x58
 6262 0299 0B       		.uleb128 0xb
 6263 029a 59       		.uleb128 0x59
 6264 029b 05       		.uleb128 0x5
 6265 029c 01       		.uleb128 0x1
 6266 029d 13       		.uleb128 0x13
ARM GAS  C:\Users\rdn\AppData\Local\Temp\ccYH9vOY.s 			page 130


 6267 029e 00       		.byte	0
 6268 029f 00       		.byte	0
 6269 02a0 30       		.uleb128 0x30
 6270 02a1 05       		.uleb128 0x5
 6271 02a2 00       		.byte	0
 6272 02a3 31       		.uleb128 0x31
 6273 02a4 13       		.uleb128 0x13
 6274 02a5 02       		.uleb128 0x2
 6275 02a6 18       		.uleb128 0x18
 6276 02a7 00       		.byte	0
 6277 02a8 00       		.byte	0
 6278 02a9 31       		.uleb128 0x31
 6279 02aa 34       		.uleb128 0x34
 6280 02ab 00       		.byte	0
 6281 02ac 31       		.uleb128 0x31
 6282 02ad 13       		.uleb128 0x13
 6283 02ae 02       		.uleb128 0x2
 6284 02af 17       		.uleb128 0x17
 6285 02b0 00       		.byte	0
 6286 02b1 00       		.byte	0
 6287 02b2 32       		.uleb128 0x32
 6288 02b3 34       		.uleb128 0x34
 6289 02b4 00       		.byte	0
 6290 02b5 31       		.uleb128 0x31
 6291 02b6 13       		.uleb128 0x13
 6292 02b7 02       		.uleb128 0x2
 6293 02b8 18       		.uleb128 0x18
 6294 02b9 00       		.byte	0
 6295 02ba 00       		.byte	0
 6296 02bb 33       		.uleb128 0x33
 6297 02bc 0B       		.uleb128 0xb
 6298 02bd 01       		.byte	0x1
 6299 02be 55       		.uleb128 0x55
 6300 02bf 17       		.uleb128 0x17
 6301 02c0 01       		.uleb128 0x1
 6302 02c1 13       		.uleb128 0x13
 6303 02c2 00       		.byte	0
 6304 02c3 00       		.byte	0
 6305 02c4 34       		.uleb128 0x34
 6306 02c5 1D       		.uleb128 0x1d
 6307 02c6 01       		.byte	0x1
 6308 02c7 31       		.uleb128 0x31
 6309 02c8 13       		.uleb128 0x13
 6310 02c9 52       		.uleb128 0x52
 6311 02ca 01       		.uleb128 0x1
 6312 02cb 55       		.uleb128 0x55
 6313 02cc 17       		.uleb128 0x17
 6314 02cd 58       		.uleb128 0x58
 6315 02ce 0B       		.uleb128 0xb
 6316 02cf 59       		.uleb128 0x59
 6317 02d0 0B       		.uleb128 0xb
 6318 02d1 00       		.byte	0
 6319 02d2 00       		.byte	0
 6320 02d3 35       		.uleb128 0x35
 6321 02d4 0B       		.uleb128 0xb
 6322 02d5 01       		.byte	0x1
 6323 02d6 11       		.uleb128 0x11
ARM GAS  C:\Users\rdn\AppData\Local\Temp\ccYH9vOY.s 			page 131


 6324 02d7 01       		.uleb128 0x1
 6325 02d8 12       		.uleb128 0x12
 6326 02d9 06       		.uleb128 0x6
 6327 02da 01       		.uleb128 0x1
 6328 02db 13       		.uleb128 0x13
 6329 02dc 00       		.byte	0
 6330 02dd 00       		.byte	0
 6331 02de 36       		.uleb128 0x36
 6332 02df 0B       		.uleb128 0xb
 6333 02e0 01       		.byte	0x1
 6334 02e1 11       		.uleb128 0x11
 6335 02e2 01       		.uleb128 0x1
 6336 02e3 12       		.uleb128 0x12
 6337 02e4 06       		.uleb128 0x6
 6338 02e5 00       		.byte	0
 6339 02e6 00       		.byte	0
 6340 02e7 37       		.uleb128 0x37
 6341 02e8 34       		.uleb128 0x34
 6342 02e9 00       		.byte	0
 6343 02ea 31       		.uleb128 0x31
 6344 02eb 13       		.uleb128 0x13
 6345 02ec 00       		.byte	0
 6346 02ed 00       		.byte	0
 6347 02ee 38       		.uleb128 0x38
 6348 02ef 05       		.uleb128 0x5
 6349 02f0 00       		.byte	0
 6350 02f1 31       		.uleb128 0x31
 6351 02f2 13       		.uleb128 0x13
 6352 02f3 00       		.byte	0
 6353 02f4 00       		.byte	0
 6354 02f5 39       		.uleb128 0x39
 6355 02f6 1D       		.uleb128 0x1d
 6356 02f7 01       		.byte	0x1
 6357 02f8 31       		.uleb128 0x31
 6358 02f9 13       		.uleb128 0x13
 6359 02fa 52       		.uleb128 0x52
 6360 02fb 01       		.uleb128 0x1
 6361 02fc 55       		.uleb128 0x55
 6362 02fd 17       		.uleb128 0x17
 6363 02fe 58       		.uleb128 0x58
 6364 02ff 0B       		.uleb128 0xb
 6365 0300 59       		.uleb128 0x59
 6366 0301 05       		.uleb128 0x5
 6367 0302 00       		.byte	0
 6368 0303 00       		.byte	0
 6369 0304 3A       		.uleb128 0x3a
 6370 0305 2E       		.uleb128 0x2e
 6371 0306 01       		.byte	0x1
 6372 0307 3F       		.uleb128 0x3f
 6373 0308 19       		.uleb128 0x19
 6374 0309 03       		.uleb128 0x3
 6375 030a 0E       		.uleb128 0xe
 6376 030b 3A       		.uleb128 0x3a
 6377 030c 0B       		.uleb128 0xb
 6378 030d 3B       		.uleb128 0x3b
 6379 030e 05       		.uleb128 0x5
 6380 030f 27       		.uleb128 0x27
ARM GAS  C:\Users\rdn\AppData\Local\Temp\ccYH9vOY.s 			page 132


 6381 0310 19       		.uleb128 0x19
 6382 0311 49       		.uleb128 0x49
 6383 0312 13       		.uleb128 0x13
 6384 0313 11       		.uleb128 0x11
 6385 0314 01       		.uleb128 0x1
 6386 0315 12       		.uleb128 0x12
 6387 0316 06       		.uleb128 0x6
 6388 0317 40       		.uleb128 0x40
 6389 0318 18       		.uleb128 0x18
 6390 0319 9742     		.uleb128 0x2117
 6391 031b 19       		.uleb128 0x19
 6392 031c 01       		.uleb128 0x1
 6393 031d 13       		.uleb128 0x13
 6394 031e 00       		.byte	0
 6395 031f 00       		.byte	0
 6396 0320 3B       		.uleb128 0x3b
 6397 0321 1D       		.uleb128 0x1d
 6398 0322 01       		.byte	0x1
 6399 0323 31       		.uleb128 0x31
 6400 0324 13       		.uleb128 0x13
 6401 0325 11       		.uleb128 0x11
 6402 0326 01       		.uleb128 0x1
 6403 0327 12       		.uleb128 0x12
 6404 0328 06       		.uleb128 0x6
 6405 0329 58       		.uleb128 0x58
 6406 032a 0B       		.uleb128 0xb
 6407 032b 59       		.uleb128 0x59
 6408 032c 0B       		.uleb128 0xb
 6409 032d 00       		.byte	0
 6410 032e 00       		.byte	0
 6411 032f 3C       		.uleb128 0x3c
 6412 0330 34       		.uleb128 0x34
 6413 0331 00       		.byte	0
 6414 0332 03       		.uleb128 0x3
 6415 0333 0E       		.uleb128 0xe
 6416 0334 3A       		.uleb128 0x3a
 6417 0335 0B       		.uleb128 0xb
 6418 0336 3B       		.uleb128 0x3b
 6419 0337 0B       		.uleb128 0xb
 6420 0338 49       		.uleb128 0x49
 6421 0339 13       		.uleb128 0x13
 6422 033a 3F       		.uleb128 0x3f
 6423 033b 19       		.uleb128 0x19
 6424 033c 3C       		.uleb128 0x3c
 6425 033d 19       		.uleb128 0x19
 6426 033e 00       		.byte	0
 6427 033f 00       		.byte	0
 6428 0340 3D       		.uleb128 0x3d
 6429 0341 21       		.uleb128 0x21
 6430 0342 00       		.byte	0
 6431 0343 00       		.byte	0
 6432 0344 00       		.byte	0
 6433 0345 3E       		.uleb128 0x3e
 6434 0346 2E       		.uleb128 0x2e
 6435 0347 00       		.byte	0
 6436 0348 3F       		.uleb128 0x3f
 6437 0349 19       		.uleb128 0x19
ARM GAS  C:\Users\rdn\AppData\Local\Temp\ccYH9vOY.s 			page 133


 6438 034a 3C       		.uleb128 0x3c
 6439 034b 19       		.uleb128 0x19
 6440 034c 6E       		.uleb128 0x6e
 6441 034d 0E       		.uleb128 0xe
 6442 034e 03       		.uleb128 0x3
 6443 034f 0E       		.uleb128 0xe
 6444 0350 3A       		.uleb128 0x3a
 6445 0351 0B       		.uleb128 0xb
 6446 0352 3B       		.uleb128 0x3b
 6447 0353 0B       		.uleb128 0xb
 6448 0354 00       		.byte	0
 6449 0355 00       		.byte	0
 6450 0356 3F       		.uleb128 0x3f
 6451 0357 2E       		.uleb128 0x2e
 6452 0358 00       		.byte	0
 6453 0359 3F       		.uleb128 0x3f
 6454 035a 19       		.uleb128 0x19
 6455 035b 3C       		.uleb128 0x3c
 6456 035c 19       		.uleb128 0x19
 6457 035d 6E       		.uleb128 0x6e
 6458 035e 0E       		.uleb128 0xe
 6459 035f 03       		.uleb128 0x3
 6460 0360 0E       		.uleb128 0xe
 6461 0361 00       		.byte	0
 6462 0362 00       		.byte	0
 6463 0363 00       		.byte	0
 6464              		.section	.debug_loc,"",%progbits
 6465              	.Ldebug_loc0:
 6466              	.LLST0:
 6467 0000 00000000 		.4byte	.LVL0
 6468 0004 06000000 		.4byte	.LVL1
 6469 0008 0100     		.2byte	0x1
 6470 000a 52       		.byte	0x52
 6471 000b 06000000 		.4byte	.LVL1
 6472 000f 34000000 		.4byte	.LFE26
 6473 0013 0400     		.2byte	0x4
 6474 0015 F3       		.byte	0xf3
 6475 0016 01       		.uleb128 0x1
 6476 0017 52       		.byte	0x52
 6477 0018 9F       		.byte	0x9f
 6478 0019 00000000 		.4byte	0
 6479 001d 00000000 		.4byte	0
 6480              	.LLST1:
 6481 0021 00000000 		.4byte	.LVL0
 6482 0025 06000000 		.4byte	.LVL1
 6483 0029 0200     		.2byte	0x2
 6484 002b 30       		.byte	0x30
 6485 002c 9F       		.byte	0x9f
 6486 002d 06000000 		.4byte	.LVL1
 6487 0031 34000000 		.4byte	.LFE26
 6488 0035 0100     		.2byte	0x1
 6489 0037 53       		.byte	0x53
 6490 0038 00000000 		.4byte	0
 6491 003c 00000000 		.4byte	0
 6492              	.LLST2:
 6493 0040 1E000000 		.4byte	.LVL2
 6494 0044 26000000 		.4byte	.LVL3
ARM GAS  C:\Users\rdn\AppData\Local\Temp\ccYH9vOY.s 			page 134


 6495 0048 0200     		.2byte	0x2
 6496 004a 90       		.byte	0x90
 6497 004b 4F       		.uleb128 0x4f
 6498 004c 26000000 		.4byte	.LVL3
 6499 0050 2E000000 		.4byte	.LVL5
 6500 0054 0200     		.2byte	0x2
 6501 0056 74       		.byte	0x74
 6502 0057 00       		.sleb128 0
 6503 0058 00000000 		.4byte	0
 6504 005c 00000000 		.4byte	0
 6505              	.LLST3:
 6506 0060 00000000 		.4byte	.LVL6
 6507 0064 33000000 		.4byte	.LVL12-1
 6508 0068 0100     		.2byte	0x1
 6509 006a 50       		.byte	0x50
 6510 006b 33000000 		.4byte	.LVL12-1
 6511 006f 34000000 		.4byte	.LVL12
 6512 0073 0400     		.2byte	0x4
 6513 0075 F3       		.byte	0xf3
 6514 0076 01       		.uleb128 0x1
 6515 0077 50       		.byte	0x50
 6516 0078 9F       		.byte	0x9f
 6517 0079 34000000 		.4byte	.LVL12
 6518 007d 38000000 		.4byte	.LFE11
 6519 0081 0100     		.2byte	0x1
 6520 0083 50       		.byte	0x50
 6521 0084 00000000 		.4byte	0
 6522 0088 00000000 		.4byte	0
 6523              	.LLST4:
 6524 008c 00000000 		.4byte	.LVL6
 6525 0090 0E000000 		.4byte	.LVL8
 6526 0094 0100     		.2byte	0x1
 6527 0096 51       		.byte	0x51
 6528 0097 0E000000 		.4byte	.LVL8
 6529 009b 38000000 		.4byte	.LFE11
 6530 009f 0400     		.2byte	0x4
 6531 00a1 F3       		.byte	0xf3
 6532 00a2 01       		.uleb128 0x1
 6533 00a3 51       		.byte	0x51
 6534 00a4 9F       		.byte	0x9f
 6535 00a5 00000000 		.4byte	0
 6536 00a9 00000000 		.4byte	0
 6537              	.LLST5:
 6538 00ad 00000000 		.4byte	.LVL6
 6539 00b1 0C000000 		.4byte	.LVL7
 6540 00b5 0100     		.2byte	0x1
 6541 00b7 52       		.byte	0x52
 6542 00b8 0C000000 		.4byte	.LVL7
 6543 00bc 38000000 		.4byte	.LFE11
 6544 00c0 0400     		.2byte	0x4
 6545 00c2 F3       		.byte	0xf3
 6546 00c3 01       		.uleb128 0x1
 6547 00c4 52       		.byte	0x52
 6548 00c5 9F       		.byte	0x9f
 6549 00c6 00000000 		.4byte	0
 6550 00ca 00000000 		.4byte	0
 6551              	.LLST6:
ARM GAS  C:\Users\rdn\AppData\Local\Temp\ccYH9vOY.s 			page 135


 6552 00ce 00000000 		.4byte	.LVL6
 6553 00d2 0E000000 		.4byte	.LVL8
 6554 00d6 0100     		.2byte	0x1
 6555 00d8 51       		.byte	0x51
 6556 00d9 0E000000 		.4byte	.LVL8
 6557 00dd 38000000 		.4byte	.LFE11
 6558 00e1 0400     		.2byte	0x4
 6559 00e3 F3       		.byte	0xf3
 6560 00e4 01       		.uleb128 0x1
 6561 00e5 51       		.byte	0x51
 6562 00e6 9F       		.byte	0x9f
 6563 00e7 00000000 		.4byte	0
 6564 00eb 00000000 		.4byte	0
 6565              	.LLST7:
 6566 00ef 00000000 		.4byte	.LVL6
 6567 00f3 33000000 		.4byte	.LVL12-1
 6568 00f7 0300     		.2byte	0x3
 6569 00f9 70       		.byte	0x70
 6570 00fa 04       		.sleb128 4
 6571 00fb 9F       		.byte	0x9f
 6572 00fc 33000000 		.4byte	.LVL12-1
 6573 0100 34000000 		.4byte	.LVL12
 6574 0104 0600     		.2byte	0x6
 6575 0106 F3       		.byte	0xf3
 6576 0107 01       		.uleb128 0x1
 6577 0108 50       		.byte	0x50
 6578 0109 23       		.byte	0x23
 6579 010a 04       		.uleb128 0x4
 6580 010b 9F       		.byte	0x9f
 6581 010c 34000000 		.4byte	.LVL12
 6582 0110 38000000 		.4byte	.LFE11
 6583 0114 0300     		.2byte	0x3
 6584 0116 70       		.byte	0x70
 6585 0117 04       		.sleb128 4
 6586 0118 9F       		.byte	0x9f
 6587 0119 00000000 		.4byte	0
 6588 011d 00000000 		.4byte	0
 6589              	.LLST8:
 6590 0121 10000000 		.4byte	.LVL9
 6591 0125 18000000 		.4byte	.LVL10
 6592 0129 0100     		.2byte	0x1
 6593 012b 53       		.byte	0x53
 6594 012c 18000000 		.4byte	.LVL10
 6595 0130 1C000000 		.4byte	.LVL11
 6596 0134 0600     		.2byte	0x6
 6597 0136 70       		.byte	0x70
 6598 0137 08       		.sleb128 8
 6599 0138 06       		.byte	0x6
 6600 0139 3A       		.byte	0x3a
 6601 013a 25       		.byte	0x25
 6602 013b 9F       		.byte	0x9f
 6603 013c 00000000 		.4byte	0
 6604 0140 00000000 		.4byte	0
 6605              	.LLST9:
 6606 0144 00000000 		.4byte	.LVL13
 6607 0148 89000000 		.4byte	.LVL25-1
 6608 014c 0100     		.2byte	0x1
ARM GAS  C:\Users\rdn\AppData\Local\Temp\ccYH9vOY.s 			page 136


 6609 014e 50       		.byte	0x50
 6610 014f 89000000 		.4byte	.LVL25-1
 6611 0153 8E000000 		.4byte	.LFE12
 6612 0157 0400     		.2byte	0x4
 6613 0159 F3       		.byte	0xf3
 6614 015a 01       		.uleb128 0x1
 6615 015b 50       		.byte	0x50
 6616 015c 9F       		.byte	0x9f
 6617 015d 00000000 		.4byte	0
 6618 0161 00000000 		.4byte	0
 6619              	.LLST10:
 6620 0165 00000000 		.4byte	.LVL13
 6621 0169 89000000 		.4byte	.LVL25-1
 6622 016d 0100     		.2byte	0x1
 6623 016f 51       		.byte	0x51
 6624 0170 89000000 		.4byte	.LVL25-1
 6625 0174 8E000000 		.4byte	.LFE12
 6626 0178 0400     		.2byte	0x4
 6627 017a F3       		.byte	0xf3
 6628 017b 01       		.uleb128 0x1
 6629 017c 51       		.byte	0x51
 6630 017d 9F       		.byte	0x9f
 6631 017e 00000000 		.4byte	0
 6632 0182 00000000 		.4byte	0
 6633              	.LLST11:
 6634 0186 00000000 		.4byte	.LVL13
 6635 018a 89000000 		.4byte	.LVL25-1
 6636 018e 0100     		.2byte	0x1
 6637 0190 51       		.byte	0x51
 6638 0191 89000000 		.4byte	.LVL25-1
 6639 0195 8E000000 		.4byte	.LFE12
 6640 0199 0400     		.2byte	0x4
 6641 019b F3       		.byte	0xf3
 6642 019c 01       		.uleb128 0x1
 6643 019d 51       		.byte	0x51
 6644 019e 9F       		.byte	0x9f
 6645 019f 00000000 		.4byte	0
 6646 01a3 00000000 		.4byte	0
 6647              	.LLST12:
 6648 01a7 00000000 		.4byte	.LVL13
 6649 01ab 89000000 		.4byte	.LVL25-1
 6650 01af 0300     		.2byte	0x3
 6651 01b1 70       		.byte	0x70
 6652 01b2 04       		.sleb128 4
 6653 01b3 9F       		.byte	0x9f
 6654 01b4 89000000 		.4byte	.LVL25-1
 6655 01b8 8E000000 		.4byte	.LFE12
 6656 01bc 0600     		.2byte	0x6
 6657 01be F3       		.byte	0xf3
 6658 01bf 01       		.uleb128 0x1
 6659 01c0 50       		.byte	0x50
 6660 01c1 23       		.byte	0x23
 6661 01c2 04       		.uleb128 0x4
 6662 01c3 9F       		.byte	0x9f
 6663 01c4 00000000 		.4byte	0
 6664 01c8 00000000 		.4byte	0
 6665              	.LLST13:
ARM GAS  C:\Users\rdn\AppData\Local\Temp\ccYH9vOY.s 			page 137


 6666 01cc 0A000000 		.4byte	.LVL14
 6667 01d0 7E000000 		.4byte	.LVL23
 6668 01d4 0100     		.2byte	0x1
 6669 01d6 55       		.byte	0x55
 6670 01d7 7E000000 		.4byte	.LVL23
 6671 01db 84000000 		.4byte	.LVL24
 6672 01df 0A00     		.2byte	0xa
 6673 01e1 70       		.byte	0x70
 6674 01e2 08       		.sleb128 8
 6675 01e3 06       		.byte	0x6
 6676 01e4 09       		.byte	0x9
 6677 01e5 EA       		.byte	0xea
 6678 01e6 24       		.byte	0x24
 6679 01e7 09       		.byte	0x9
 6680 01e8 F4       		.byte	0xf4
 6681 01e9 25       		.byte	0x25
 6682 01ea 9F       		.byte	0x9f
 6683 01eb 00000000 		.4byte	0
 6684 01ef 00000000 		.4byte	0
 6685              	.LLST14:
 6686 01f3 1E000000 		.4byte	.LVL15
 6687 01f7 2A000000 		.4byte	.LVL16
 6688 01fb 0200     		.2byte	0x2
 6689 01fd 40       		.byte	0x40
 6690 01fe 9F       		.byte	0x9f
 6691 01ff 2A000000 		.4byte	.LVL16
 6692 0203 36000000 		.4byte	.LVL17
 6693 0207 0200     		.2byte	0x2
 6694 0209 38       		.byte	0x38
 6695 020a 9F       		.byte	0x9f
 6696 020b 36000000 		.4byte	.LVL17
 6697 020f 48000000 		.4byte	.LVL18
 6698 0213 0100     		.2byte	0x1
 6699 0215 53       		.byte	0x53
 6700 0216 48000000 		.4byte	.LVL18
 6701 021a 5A000000 		.4byte	.LVL19
 6702 021e 0100     		.2byte	0x1
 6703 0220 52       		.byte	0x52
 6704 0221 5A000000 		.4byte	.LVL19
 6705 0225 68000000 		.4byte	.LVL20
 6706 0229 0100     		.2byte	0x1
 6707 022b 53       		.byte	0x53
 6708 022c 68000000 		.4byte	.LVL20
 6709 0230 6A000000 		.4byte	.LVL21
 6710 0234 0100     		.2byte	0x1
 6711 0236 54       		.byte	0x54
 6712 0237 6A000000 		.4byte	.LVL21
 6713 023b 6C000000 		.4byte	.LVL22
 6714 023f 0200     		.2byte	0x2
 6715 0241 40       		.byte	0x40
 6716 0242 9F       		.byte	0x9f
 6717 0243 6C000000 		.4byte	.LVL22
 6718 0247 8E000000 		.4byte	.LFE12
 6719 024b 0100     		.2byte	0x1
 6720 024d 54       		.byte	0x54
 6721 024e 00000000 		.4byte	0
 6722 0252 00000000 		.4byte	0
ARM GAS  C:\Users\rdn\AppData\Local\Temp\ccYH9vOY.s 			page 138


 6723              	.LLST15:
 6724 0256 00000000 		.4byte	.LVL26
 6725 025a 4C000000 		.4byte	.LVL31
 6726 025e 0100     		.2byte	0x1
 6727 0260 50       		.byte	0x50
 6728 0261 4C000000 		.4byte	.LVL31
 6729 0265 28060000 		.4byte	.LFE29
 6730 0269 0400     		.2byte	0x4
 6731 026b F3       		.byte	0xf3
 6732 026c 01       		.uleb128 0x1
 6733 026d 50       		.byte	0x50
 6734 026e 9F       		.byte	0x9f
 6735 026f 00000000 		.4byte	0
 6736 0273 00000000 		.4byte	0
 6737              	.LLST16:
 6738 0277 00000000 		.4byte	.LVL26
 6739 027b 12000000 		.4byte	.LVL29
 6740 027f 0100     		.2byte	0x1
 6741 0281 51       		.byte	0x51
 6742 0282 12000000 		.4byte	.LVL29
 6743 0286 28060000 		.4byte	.LFE29
 6744 028a 0400     		.2byte	0x4
 6745 028c F3       		.byte	0xf3
 6746 028d 01       		.uleb128 0x1
 6747 028e 51       		.byte	0x51
 6748 028f 9F       		.byte	0x9f
 6749 0290 00000000 		.4byte	0
 6750 0294 00000000 		.4byte	0
 6751              	.LLST17:
 6752 0298 00000000 		.4byte	.LVL26
 6753 029c 0C000000 		.4byte	.LVL27
 6754 02a0 0100     		.2byte	0x1
 6755 02a2 52       		.byte	0x52
 6756 02a3 0C000000 		.4byte	.LVL27
 6757 02a7 28060000 		.4byte	.LFE29
 6758 02ab 0400     		.2byte	0x4
 6759 02ad F3       		.byte	0xf3
 6760 02ae 01       		.uleb128 0x1
 6761 02af 52       		.byte	0x52
 6762 02b0 9F       		.byte	0x9f
 6763 02b1 00000000 		.4byte	0
 6764 02b5 00000000 		.4byte	0
 6765              	.LLST18:
 6766 02b9 00000000 		.4byte	.LVL26
 6767 02bd 20000000 		.4byte	.LVL30
 6768 02c1 0100     		.2byte	0x1
 6769 02c3 53       		.byte	0x53
 6770 02c4 20000000 		.4byte	.LVL30
 6771 02c8 28060000 		.4byte	.LFE29
 6772 02cc 0400     		.2byte	0x4
 6773 02ce F3       		.byte	0xf3
 6774 02cf 01       		.uleb128 0x1
 6775 02d0 53       		.byte	0x53
 6776 02d1 9F       		.byte	0x9f
 6777 02d2 00000000 		.4byte	0
 6778 02d6 00000000 		.4byte	0
 6779              	.LLST19:
ARM GAS  C:\Users\rdn\AppData\Local\Temp\ccYH9vOY.s 			page 139


 6780 02da 00000000 		.4byte	.LVL26
 6781 02de E6050000 		.4byte	.LVL136
 6782 02e2 0200     		.2byte	0x2
 6783 02e4 91       		.byte	0x91
 6784 02e5 00       		.sleb128 0
 6785 02e6 E6050000 		.4byte	.LVL136
 6786 02ea 28060000 		.4byte	.LFE29
 6787 02ee 0200     		.2byte	0x2
 6788 02f0 91       		.byte	0x91
 6789 02f1 00       		.sleb128 0
 6790 02f2 00000000 		.4byte	0
 6791 02f6 00000000 		.4byte	0
 6792              	.LLST20:
 6793 02fa 00000000 		.4byte	.LVL26
 6794 02fe E6050000 		.4byte	.LVL136
 6795 0302 0200     		.2byte	0x2
 6796 0304 91       		.byte	0x91
 6797 0305 04       		.sleb128 4
 6798 0306 E6050000 		.4byte	.LVL136
 6799 030a 28060000 		.4byte	.LFE29
 6800 030e 0200     		.2byte	0x2
 6801 0310 91       		.byte	0x91
 6802 0311 04       		.sleb128 4
 6803 0312 00000000 		.4byte	0
 6804 0316 00000000 		.4byte	0
 6805              	.LLST21:
 6806 031a 4E000000 		.4byte	.LVL32
 6807 031e 51000000 		.4byte	.LVL33-1
 6808 0322 0100     		.2byte	0x1
 6809 0324 53       		.byte	0x53
 6810 0325 51000000 		.4byte	.LVL33-1
 6811 0329 E2050000 		.4byte	.LVL135
 6812 032d 0200     		.2byte	0x2
 6813 032f 7D       		.byte	0x7d
 6814 0330 00       		.sleb128 0
 6815 0331 E2050000 		.4byte	.LVL135
 6816 0335 E6050000 		.4byte	.LVL136
 6817 0339 0300     		.2byte	0x3
 6818 033b 91       		.byte	0x91
 6819 033c C07C     		.sleb128 -448
 6820 033e E6050000 		.4byte	.LVL136
 6821 0342 28060000 		.4byte	.LFE29
 6822 0346 0200     		.2byte	0x2
 6823 0348 7D       		.byte	0x7d
 6824 0349 00       		.sleb128 0
 6825 034a 00000000 		.4byte	0
 6826 034e 00000000 		.4byte	0
 6827              	.LLST22:
 6828 0352 00000000 		.4byte	.LVL26
 6829 0356 0E000000 		.4byte	.LVL28
 6830 035a 0100     		.2byte	0x1
 6831 035c 53       		.byte	0x53
 6832 035d 00000000 		.4byte	0
 6833 0361 00000000 		.4byte	0
 6834              	.LLST23:
 6835 0365 00000000 		.4byte	.LVL26
 6836 0369 0E000000 		.4byte	.LVL28
ARM GAS  C:\Users\rdn\AppData\Local\Temp\ccYH9vOY.s 			page 140


 6837 036d 0100     		.2byte	0x1
 6838 036f 50       		.byte	0x50
 6839 0370 00000000 		.4byte	0
 6840 0374 00000000 		.4byte	0
 6841              	.LLST24:
 6842 0378 4E000000 		.4byte	.LVL32
 6843 037c 2E010000 		.4byte	.LVL40
 6844 0380 0400     		.2byte	0x4
 6845 0382 91       		.byte	0x91
 6846 0383 FC7D     		.sleb128 -260
 6847 0385 9F       		.byte	0x9f
 6848 0386 2E010000 		.4byte	.LVL40
 6849 038a A4020000 		.4byte	.LVL67
 6850 038e 0100     		.2byte	0x1
 6851 0390 57       		.byte	0x57
 6852 0391 A4020000 		.4byte	.LVL67
 6853 0395 28060000 		.4byte	.LFE29
 6854 0399 0400     		.2byte	0x4
 6855 039b 91       		.byte	0x91
 6856 039c FC7D     		.sleb128 -260
 6857 039e 9F       		.byte	0x9f
 6858 039f 00000000 		.4byte	0
 6859 03a3 00000000 		.4byte	0
 6860              	.LLST25:
 6861 03a7 4E000000 		.4byte	.LVL32
 6862 03ab 30020000 		.4byte	.LVL62
 6863 03af 0400     		.2byte	0x4
 6864 03b1 91       		.byte	0x91
 6865 03b2 F47C     		.sleb128 -396
 6866 03b4 9F       		.byte	0x9f
 6867 03b5 30020000 		.4byte	.LVL62
 6868 03b9 3C020000 		.4byte	.LVL64
 6869 03bd 0100     		.2byte	0x1
 6870 03bf 5E       		.byte	0x5e
 6871 03c0 3C020000 		.4byte	.LVL64
 6872 03c4 E2030000 		.4byte	.LVL90
 6873 03c8 0400     		.2byte	0x4
 6874 03ca 91       		.byte	0x91
 6875 03cb F47C     		.sleb128 -396
 6876 03cd 9F       		.byte	0x9f
 6877 03ce E2030000 		.4byte	.LVL90
 6878 03d2 E6030000 		.4byte	.LVL91
 6879 03d6 0100     		.2byte	0x1
 6880 03d8 53       		.byte	0x53
 6881 03d9 E6030000 		.4byte	.LVL91
 6882 03dd 28060000 		.4byte	.LFE29
 6883 03e1 0400     		.2byte	0x4
 6884 03e3 91       		.byte	0x91
 6885 03e4 F47C     		.sleb128 -396
 6886 03e6 9F       		.byte	0x9f
 6887 03e7 00000000 		.4byte	0
 6888 03eb 00000000 		.4byte	0
 6889              	.LLST27:
 6890 03ef E6000000 		.4byte	.LVL34
 6891 03f3 4E010000 		.4byte	.LVL43
 6892 03f7 0100     		.2byte	0x1
 6893 03f9 58       		.byte	0x58
ARM GAS  C:\Users\rdn\AppData\Local\Temp\ccYH9vOY.s 			page 141


 6894 03fa 4E010000 		.4byte	.LVL43
 6895 03fe 56010000 		.4byte	.LVL45
 6896 0402 0300     		.2byte	0x3
 6897 0404 91       		.byte	0x91
 6898 0405 CC7C     		.sleb128 -436
 6899 0407 56010000 		.4byte	.LVL45
 6900 040b 58010000 		.4byte	.LVL46
 6901 040f 0300     		.2byte	0x3
 6902 0411 73       		.byte	0x73
 6903 0412 7C       		.sleb128 -4
 6904 0413 9F       		.byte	0x9f
 6905 0414 58010000 		.4byte	.LVL46
 6906 0418 AA010000 		.4byte	.LVL57
 6907 041c 0700     		.2byte	0x7
 6908 041e 91       		.byte	0x91
 6909 041f CC7C     		.sleb128 -436
 6910 0421 06       		.byte	0x6
 6911 0422 34       		.byte	0x34
 6912 0423 1C       		.byte	0x1c
 6913 0424 9F       		.byte	0x9f
 6914 0425 AA010000 		.4byte	.LVL57
 6915 0429 1A020000 		.4byte	.LVL61
 6916 042d 0300     		.2byte	0x3
 6917 042f 91       		.byte	0x91
 6918 0430 CC7C     		.sleb128 -436
 6919 0432 1A020000 		.4byte	.LVL61
 6920 0436 3C020000 		.4byte	.LVL64
 6921 043a 0100     		.2byte	0x1
 6922 043c 58       		.byte	0x58
 6923 043d 3C020000 		.4byte	.LVL64
 6924 0441 A4020000 		.4byte	.LVL67
 6925 0445 0300     		.2byte	0x3
 6926 0447 91       		.byte	0x91
 6927 0448 CC7C     		.sleb128 -436
 6928 044a 00000000 		.4byte	0
 6929 044e 00000000 		.4byte	0
 6930              	.LLST28:
 6931 0452 F6000000 		.4byte	.LVL35
 6932 0456 02010000 		.4byte	.LVL36
 6933 045a 0300     		.2byte	0x3
 6934 045c 77       		.byte	0x77
 6935 045d 01       		.sleb128 1
 6936 045e 9F       		.byte	0x9f
 6937 045f 00000000 		.4byte	0
 6938 0463 00000000 		.4byte	0
 6939              	.LLST29:
 6940 0467 08010000 		.4byte	.LVL37
 6941 046b A4020000 		.4byte	.LVL67
 6942 046f 0100     		.2byte	0x1
 6943 0471 59       		.byte	0x59
 6944 0472 00000000 		.4byte	0
 6945 0476 00000000 		.4byte	0
 6946              	.LLST30:
 6947 047a 54010000 		.4byte	.LVL44
 6948 047e 5C010000 		.4byte	.LVL47
 6949 0482 0900     		.2byte	0x9
 6950 0484 74       		.byte	0x74
ARM GAS  C:\Users\rdn\AppData\Local\Temp\ccYH9vOY.s 			page 142


 6951 0485 00       		.sleb128 0
 6952 0486 32       		.byte	0x32
 6953 0487 24       		.byte	0x24
 6954 0488 91       		.byte	0x91
 6955 0489 04       		.sleb128 4
 6956 048a 06       		.byte	0x6
 6957 048b 22       		.byte	0x22
 6958 048c 9F       		.byte	0x9f
 6959 048d 5C010000 		.4byte	.LVL47
 6960 0491 34020000 		.4byte	.LVL63
 6961 0495 0C00     		.2byte	0xc
 6962 0497 91       		.byte	0x91
 6963 0498 CC7C     		.sleb128 -436
 6964 049a 06       		.byte	0x6
 6965 049b 06       		.byte	0x6
 6966 049c 32       		.byte	0x32
 6967 049d 24       		.byte	0x24
 6968 049e 91       		.byte	0x91
 6969 049f 04       		.sleb128 4
 6970 04a0 06       		.byte	0x6
 6971 04a1 22       		.byte	0x22
 6972 04a2 9F       		.byte	0x9f
 6973 04a3 3C020000 		.4byte	.LVL64
 6974 04a7 A4020000 		.4byte	.LVL67
 6975 04ab 0C00     		.2byte	0xc
 6976 04ad 91       		.byte	0x91
 6977 04ae CC7C     		.sleb128 -436
 6978 04b0 06       		.byte	0x6
 6979 04b1 06       		.byte	0x6
 6980 04b2 32       		.byte	0x32
 6981 04b3 24       		.byte	0x24
 6982 04b4 91       		.byte	0x91
 6983 04b5 04       		.sleb128 4
 6984 04b6 06       		.byte	0x6
 6985 04b7 22       		.byte	0x22
 6986 04b8 9F       		.byte	0x9f
 6987 04b9 00000000 		.4byte	0
 6988 04bd 00000000 		.4byte	0
 6989              	.LLST31:
 6990 04c1 12010000 		.4byte	.LVL38
 6991 04c5 14010000 		.4byte	.LVL39
 6992 04c9 0900     		.2byte	0x9
 6993 04cb 78       		.byte	0x78
 6994 04cc 00       		.sleb128 0
 6995 04cd 06       		.byte	0x6
 6996 04ce 32       		.byte	0x32
 6997 04cf 24       		.byte	0x24
 6998 04d0 73       		.byte	0x73
 6999 04d1 00       		.sleb128 0
 7000 04d2 22       		.byte	0x22
 7001 04d3 9F       		.byte	0x9f
 7002 04d4 14010000 		.4byte	.LVL39
 7003 04d8 3C010000 		.4byte	.LVL41
 7004 04dc 0A00     		.2byte	0xa
 7005 04de 78       		.byte	0x78
 7006 04df 00       		.sleb128 0
 7007 04e0 06       		.byte	0x6
ARM GAS  C:\Users\rdn\AppData\Local\Temp\ccYH9vOY.s 			page 143


 7008 04e1 32       		.byte	0x32
 7009 04e2 24       		.byte	0x24
 7010 04e3 91       		.byte	0x91
 7011 04e4 04       		.sleb128 4
 7012 04e5 06       		.byte	0x6
 7013 04e6 22       		.byte	0x22
 7014 04e7 9F       		.byte	0x9f
 7015 04e8 54010000 		.4byte	.LVL44
 7016 04ec 5C010000 		.4byte	.LVL47
 7017 04f0 0900     		.2byte	0x9
 7018 04f2 74       		.byte	0x74
 7019 04f3 00       		.sleb128 0
 7020 04f4 32       		.byte	0x32
 7021 04f5 24       		.byte	0x24
 7022 04f6 91       		.byte	0x91
 7023 04f7 04       		.sleb128 4
 7024 04f8 06       		.byte	0x6
 7025 04f9 22       		.byte	0x22
 7026 04fa 9F       		.byte	0x9f
 7027 04fb 5C010000 		.4byte	.LVL47
 7028 04ff 34020000 		.4byte	.LVL63
 7029 0503 0C00     		.2byte	0xc
 7030 0505 91       		.byte	0x91
 7031 0506 CC7C     		.sleb128 -436
 7032 0508 06       		.byte	0x6
 7033 0509 06       		.byte	0x6
 7034 050a 32       		.byte	0x32
 7035 050b 24       		.byte	0x24
 7036 050c 91       		.byte	0x91
 7037 050d 04       		.sleb128 4
 7038 050e 06       		.byte	0x6
 7039 050f 22       		.byte	0x22
 7040 0510 9F       		.byte	0x9f
 7041 0511 3C020000 		.4byte	.LVL64
 7042 0515 A4020000 		.4byte	.LVL67
 7043 0519 0C00     		.2byte	0xc
 7044 051b 91       		.byte	0x91
 7045 051c CC7C     		.sleb128 -436
 7046 051e 06       		.byte	0x6
 7047 051f 06       		.byte	0x6
 7048 0520 32       		.byte	0x32
 7049 0521 24       		.byte	0x24
 7050 0522 91       		.byte	0x91
 7051 0523 04       		.sleb128 4
 7052 0524 06       		.byte	0x6
 7053 0525 22       		.byte	0x22
 7054 0526 9F       		.byte	0x9f
 7055 0527 00000000 		.4byte	0
 7056 052b 00000000 		.4byte	0
 7057              	.LLST32:
 7058 052f 12010000 		.4byte	.LVL38
 7059 0533 3C010000 		.4byte	.LVL41
 7060 0537 0200     		.2byte	0x2
 7061 0539 30       		.byte	0x30
 7062 053a 9F       		.byte	0x9f
 7063 053b 00000000 		.4byte	0
 7064 053f 00000000 		.4byte	0
ARM GAS  C:\Users\rdn\AppData\Local\Temp\ccYH9vOY.s 			page 144


 7065              	.LLST33:
 7066 0543 46010000 		.4byte	.LVL42
 7067 0547 4E010000 		.4byte	.LVL43
 7068 054b 0200     		.2byte	0x2
 7069 054d 30       		.byte	0x30
 7070 054e 9F       		.byte	0x9f
 7071 054f 4E010000 		.4byte	.LVL43
 7072 0553 D4010000 		.4byte	.LVL60
 7073 0557 0100     		.2byte	0x1
 7074 0559 51       		.byte	0x51
 7075 055a 3C020000 		.4byte	.LVL64
 7076 055e 46020000 		.4byte	.LVL66
 7077 0562 0100     		.2byte	0x1
 7078 0564 51       		.byte	0x51
 7079 0565 00000000 		.4byte	0
 7080 0569 00000000 		.4byte	0
 7081              	.LLST34:
 7082 056d 5C010000 		.4byte	.LVL47
 7083 0571 68010000 		.4byte	.LVL48
 7084 0575 0200     		.2byte	0x2
 7085 0577 30       		.byte	0x30
 7086 0578 9F       		.byte	0x9f
 7087 0579 68010000 		.4byte	.LVL48
 7088 057d B6010000 		.4byte	.LVL58
 7089 0581 0100     		.2byte	0x1
 7090 0583 53       		.byte	0x53
 7091 0584 00000000 		.4byte	0
 7092 0588 00000000 		.4byte	0
 7093              	.LLST35:
 7094 058c 76010000 		.4byte	.LVL49
 7095 0590 7A010000 		.4byte	.LVL50
 7096 0594 0100     		.2byte	0x1
 7097 0596 5E       		.byte	0x5e
 7098 0597 7A010000 		.4byte	.LVL50
 7099 059b 7C010000 		.4byte	.LVL51
 7100 059f 0600     		.2byte	0x6
 7101 05a1 70       		.byte	0x70
 7102 05a2 00       		.sleb128 0
 7103 05a3 73       		.byte	0x73
 7104 05a4 00       		.sleb128 0
 7105 05a5 1C       		.byte	0x1c
 7106 05a6 9F       		.byte	0x9f
 7107 05a7 00000000 		.4byte	0
 7108 05ab 00000000 		.4byte	0
 7109              	.LLST36:
 7110 05af 76010000 		.4byte	.LVL49
 7111 05b3 88010000 		.4byte	.LVL53
 7112 05b7 0100     		.2byte	0x1
 7113 05b9 5A       		.byte	0x5a
 7114 05ba 88010000 		.4byte	.LVL53
 7115 05be 8E010000 		.4byte	.LVL55
 7116 05c2 0300     		.2byte	0x3
 7117 05c4 7A       		.byte	0x7a
 7118 05c5 7C       		.sleb128 -4
 7119 05c6 9F       		.byte	0x9f
 7120 05c7 00000000 		.4byte	0
 7121 05cb 00000000 		.4byte	0
ARM GAS  C:\Users\rdn\AppData\Local\Temp\ccYH9vOY.s 			page 145


 7122              	.LLST37:
 7123 05cf 76010000 		.4byte	.LVL49
 7124 05d3 7C010000 		.4byte	.LVL51
 7125 05d7 0100     		.2byte	0x1
 7126 05d9 52       		.byte	0x52
 7127 05da 7C010000 		.4byte	.LVL51
 7128 05de 84010000 		.4byte	.LVL52
 7129 05e2 0100     		.2byte	0x1
 7130 05e4 5C       		.byte	0x5c
 7131 05e5 84010000 		.4byte	.LVL52
 7132 05e9 8E010000 		.4byte	.LVL55
 7133 05ed 0300     		.2byte	0x3
 7134 05ef 7C       		.byte	0x7c
 7135 05f0 7C       		.sleb128 -4
 7136 05f1 9F       		.byte	0x9f
 7137 05f2 00000000 		.4byte	0
 7138 05f6 00000000 		.4byte	0
 7139              	.LLST38:
 7140 05fa 76010000 		.4byte	.LVL49
 7141 05fe 7C010000 		.4byte	.LVL51
 7142 0602 0600     		.2byte	0x6
 7143 0604 9E       		.byte	0x9e
 7144 0605 04       		.uleb128 0x4
 7145 0606 00000000 		.4byte	0
 7146 060a 7C010000 		.4byte	.LVL51
 7147 060e 8E010000 		.4byte	.LVL55
 7148 0612 0200     		.2byte	0x2
 7149 0614 90       		.byte	0x90
 7150 0615 4F       		.uleb128 0x4f
 7151 0616 00000000 		.4byte	0
 7152 061a 00000000 		.4byte	0
 7153              	.LLST39:
 7154 061e CE010000 		.4byte	.LVL59
 7155 0622 1A020000 		.4byte	.LVL61
 7156 0626 0200     		.2byte	0x2
 7157 0628 90       		.byte	0x90
 7158 0629 4E       		.uleb128 0x4e
 7159 062a 00000000 		.4byte	0
 7160 062e 00000000 		.4byte	0
 7161              	.LLST40:
 7162 0632 CE010000 		.4byte	.LVL59
 7163 0636 1A020000 		.4byte	.LVL61
 7164 063a 0200     		.2byte	0x2
 7165 063c 90       		.byte	0x90
 7166 063d 4D       		.uleb128 0x4d
 7167 063e 00000000 		.4byte	0
 7168 0642 00000000 		.4byte	0
 7169              	.LLST41:
 7170 0646 CE010000 		.4byte	.LVL59
 7171 064a D4010000 		.4byte	.LVL60
 7172 064e 0200     		.2byte	0x2
 7173 0650 31       		.byte	0x31
 7174 0651 9F       		.byte	0x9f
 7175 0652 00000000 		.4byte	0
 7176 0656 00000000 		.4byte	0
 7177              	.LLST42:
 7178 065a 3C020000 		.4byte	.LVL64
ARM GAS  C:\Users\rdn\AppData\Local\Temp\ccYH9vOY.s 			page 146


 7179 065e A4020000 		.4byte	.LVL67
 7180 0662 0200     		.2byte	0x2
 7181 0664 90       		.byte	0x90
 7182 0665 4E       		.uleb128 0x4e
 7183 0666 00000000 		.4byte	0
 7184 066a 00000000 		.4byte	0
 7185              	.LLST43:
 7186 066e 3C020000 		.4byte	.LVL64
 7187 0672 A4020000 		.4byte	.LVL67
 7188 0676 0200     		.2byte	0x2
 7189 0678 90       		.byte	0x90
 7190 0679 4D       		.uleb128 0x4d
 7191 067a 00000000 		.4byte	0
 7192 067e 00000000 		.4byte	0
 7193              	.LLST44:
 7194 0682 40020000 		.4byte	.LVL65
 7195 0686 A4020000 		.4byte	.LVL67
 7196 068a 0200     		.2byte	0x2
 7197 068c 90       		.byte	0x90
 7198 068d 4C       		.uleb128 0x4c
 7199 068e 00000000 		.4byte	0
 7200 0692 00000000 		.4byte	0
 7201              	.LLST45:
 7202 0696 40020000 		.4byte	.LVL65
 7203 069a 46020000 		.4byte	.LVL66
 7204 069e 0200     		.2byte	0x2
 7205 06a0 31       		.byte	0x31
 7206 06a1 9F       		.byte	0x9f
 7207 06a2 00000000 		.4byte	0
 7208 06a6 00000000 		.4byte	0
 7209              	.LLST46:
 7210 06aa A4020000 		.4byte	.LVL67
 7211 06ae 9A030000 		.4byte	.LVL85
 7212 06b2 0400     		.2byte	0x4
 7213 06b4 75       		.byte	0x75
 7214 06b5 C400     		.sleb128 68
 7215 06b7 9F       		.byte	0x9f
 7216 06b8 9A030000 		.4byte	.LVL85
 7217 06bc C2030000 		.4byte	.LVL88
 7218 06c0 0300     		.2byte	0x3
 7219 06c2 75       		.byte	0x75
 7220 06c3 20       		.sleb128 32
 7221 06c4 9F       		.byte	0x9f
 7222 06c5 00000000 		.4byte	0
 7223 06c9 00000000 		.4byte	0
 7224              	.LLST47:
 7225 06cd A8020000 		.4byte	.LVL68
 7226 06d1 C0020000 		.4byte	.LVL70
 7227 06d5 0200     		.2byte	0x2
 7228 06d7 90       		.byte	0x90
 7229 06d8 4B       		.uleb128 0x4b
 7230 06d9 C0020000 		.4byte	.LVL70
 7231 06dd C8030000 		.4byte	.LVL89
 7232 06e1 0200     		.2byte	0x2
 7233 06e3 90       		.byte	0x90
 7234 06e4 4F       		.uleb128 0x4f
 7235 06e5 00000000 		.4byte	0
ARM GAS  C:\Users\rdn\AppData\Local\Temp\ccYH9vOY.s 			page 147


 7236 06e9 00000000 		.4byte	0
 7237              	.LLST48:
 7238 06ed CA020000 		.4byte	.LVL71
 7239 06f1 E2020000 		.4byte	.LVL74
 7240 06f5 0200     		.2byte	0x2
 7241 06f7 90       		.byte	0x90
 7242 06f8 4E       		.uleb128 0x4e
 7243 06f9 E2020000 		.4byte	.LVL74
 7244 06fd 38030000 		.4byte	.LVL79
 7245 0701 0200     		.2byte	0x2
 7246 0703 90       		.byte	0x90
 7247 0704 4D       		.uleb128 0x4d
 7248 0705 38030000 		.4byte	.LVL79
 7249 0709 4E030000 		.4byte	.LVL82
 7250 070d 0200     		.2byte	0x2
 7251 070f 90       		.byte	0x90
 7252 0710 4E       		.uleb128 0x4e
 7253 0711 4E030000 		.4byte	.LVL82
 7254 0715 C8030000 		.4byte	.LVL89
 7255 0719 0200     		.2byte	0x2
 7256 071b 90       		.byte	0x90
 7257 071c 4D       		.uleb128 0x4d
 7258 071d 00000000 		.4byte	0
 7259 0721 00000000 		.4byte	0
 7260              	.LLST49:
 7261 0725 AC020000 		.4byte	.LVL69
 7262 0729 C0020000 		.4byte	.LVL70
 7263 072d 0200     		.2byte	0x2
 7264 072f 31       		.byte	0x31
 7265 0730 9F       		.byte	0x9f
 7266 0731 C0020000 		.4byte	.LVL70
 7267 0735 28030000 		.4byte	.LVL77
 7268 0739 0100     		.2byte	0x1
 7269 073b 54       		.byte	0x54
 7270 073c 28030000 		.4byte	.LVL77
 7271 0740 7C030000 		.4byte	.LVL84
 7272 0744 0300     		.2byte	0x3
 7273 0746 74       		.byte	0x74
 7274 0747 01       		.sleb128 1
 7275 0748 9F       		.byte	0x9f
 7276 0749 7C030000 		.4byte	.LVL84
 7277 074d C0030000 		.4byte	.LVL87
 7278 0751 0100     		.2byte	0x1
 7279 0753 54       		.byte	0x54
 7280 0754 00000000 		.4byte	0
 7281 0758 00000000 		.4byte	0
 7282              	.LLST50:
 7283 075c CA020000 		.4byte	.LVL71
 7284 0760 CC020000 		.4byte	.LVL72
 7285 0764 0200     		.2byte	0x2
 7286 0766 31       		.byte	0x31
 7287 0767 9F       		.byte	0x9f
 7288 0768 00000000 		.4byte	0
 7289 076c 00000000 		.4byte	0
 7290              	.LLST51:
 7291 0770 F8020000 		.4byte	.LVL75
 7292 0774 2C030000 		.4byte	.LVL78
ARM GAS  C:\Users\rdn\AppData\Local\Temp\ccYH9vOY.s 			page 148


 7293 0778 0100     		.2byte	0x1
 7294 077a 5C       		.byte	0x5c
 7295 077b 00000000 		.4byte	0
 7296 077f 00000000 		.4byte	0
 7297              	.LLST52:
 7298 0783 38030000 		.4byte	.LVL79
 7299 0787 3A030000 		.4byte	.LVL80
 7300 078b 0200     		.2byte	0x2
 7301 078d 31       		.byte	0x31
 7302 078e 9F       		.byte	0x9f
 7303 078f 00000000 		.4byte	0
 7304 0793 00000000 		.4byte	0
 7305              	.LLST53:
 7306 0797 C8030000 		.4byte	.LVL89
 7307 079b BC050000 		.4byte	.LVL128
 7308 079f 0100     		.2byte	0x1
 7309 07a1 5A       		.byte	0x5a
 7310 07a2 00000000 		.4byte	0
 7311 07a6 00000000 		.4byte	0
 7312              	.LLST54:
 7313 07aa 00040000 		.4byte	.LVL92
 7314 07ae 24040000 		.4byte	.LVL95
 7315 07b2 0100     		.2byte	0x1
 7316 07b4 54       		.byte	0x54
 7317 07b5 66040000 		.4byte	.LVL101
 7318 07b9 F0040000 		.4byte	.LVL111
 7319 07bd 0100     		.2byte	0x1
 7320 07bf 54       		.byte	0x54
 7321 07c0 00000000 		.4byte	0
 7322 07c4 00000000 		.4byte	0
 7323              	.LLST55:
 7324 07c8 00040000 		.4byte	.LVL92
 7325 07cc 24040000 		.4byte	.LVL95
 7326 07d0 0100     		.2byte	0x1
 7327 07d2 55       		.byte	0x55
 7328 07d3 66040000 		.4byte	.LVL101
 7329 07d7 F0040000 		.4byte	.LVL111
 7330 07db 0100     		.2byte	0x1
 7331 07dd 55       		.byte	0x55
 7332 07de 00000000 		.4byte	0
 7333 07e2 00000000 		.4byte	0
 7334              	.LLST56:
 7335 07e6 1C040000 		.4byte	.LVL93
 7336 07ea 24040000 		.4byte	.LVL95
 7337 07ee 0200     		.2byte	0x2
 7338 07f0 90       		.byte	0x90
 7339 07f1 4D       		.uleb128 0x4d
 7340 07f2 66040000 		.4byte	.LVL101
 7341 07f6 8E040000 		.4byte	.LVL103
 7342 07fa 0200     		.2byte	0x2
 7343 07fc 90       		.byte	0x90
 7344 07fd 4D       		.uleb128 0x4d
 7345 07fe B2040000 		.4byte	.LVL105
 7346 0802 F0040000 		.4byte	.LVL111
 7347 0806 0200     		.2byte	0x2
 7348 0808 90       		.byte	0x90
 7349 0809 4B       		.uleb128 0x4b
ARM GAS  C:\Users\rdn\AppData\Local\Temp\ccYH9vOY.s 			page 149


 7350 080a 00000000 		.4byte	0
 7351 080e 00000000 		.4byte	0
 7352              	.LLST57:
 7353 0812 8E040000 		.4byte	.LVL103
 7354 0816 B6040000 		.4byte	.LVL106
 7355 081a 0100     		.2byte	0x1
 7356 081c 53       		.byte	0x53
 7357 081d B6040000 		.4byte	.LVL106
 7358 0821 BE040000 		.4byte	.LVL107
 7359 0825 0300     		.2byte	0x3
 7360 0827 91       		.byte	0x91
 7361 0828 CC7C     		.sleb128 -436
 7362 082a 00000000 		.4byte	0
 7363 082e 00000000 		.4byte	0
 7364              	.LLST58:
 7365 0832 1C040000 		.4byte	.LVL93
 7366 0836 20040000 		.4byte	.LVL94
 7367 083a 0400     		.2byte	0x4
 7368 083c 91       		.byte	0x91
 7369 083d 987D     		.sleb128 -360
 7370 083f 9F       		.byte	0x9f
 7371 0840 20040000 		.4byte	.LVL94
 7372 0844 24040000 		.4byte	.LVL95
 7373 0848 0100     		.2byte	0x1
 7374 084a 51       		.byte	0x51
 7375 084b 66040000 		.4byte	.LVL101
 7376 084f 8E040000 		.4byte	.LVL103
 7377 0853 0400     		.2byte	0x4
 7378 0855 91       		.byte	0x91
 7379 0856 987D     		.sleb128 -360
 7380 0858 9F       		.byte	0x9f
 7381 0859 8E040000 		.4byte	.LVL103
 7382 085d 9C040000 		.4byte	.LVL104
 7383 0861 0100     		.2byte	0x1
 7384 0863 53       		.byte	0x53
 7385 0864 9C040000 		.4byte	.LVL104
 7386 0868 02050000 		.4byte	.LVL113
 7387 086c 0100     		.2byte	0x1
 7388 086e 52       		.byte	0x52
 7389 086f 00000000 		.4byte	0
 7390 0873 00000000 		.4byte	0
 7391              	.LLST59:
 7392 0877 1C040000 		.4byte	.LVL93
 7393 087b 24040000 		.4byte	.LVL95
 7394 087f 0200     		.2byte	0x2
 7395 0881 30       		.byte	0x30
 7396 0882 9F       		.byte	0x9f
 7397 0883 00000000 		.4byte	0
 7398 0887 00000000 		.4byte	0
 7399              	.LLST60:
 7400 088b 88040000 		.4byte	.LVL102
 7401 088f E2040000 		.4byte	.LVL109
 7402 0893 0100     		.2byte	0x1
 7403 0895 51       		.byte	0x51
 7404 0896 E2040000 		.4byte	.LVL109
 7405 089a E4040000 		.4byte	.LVL110
 7406 089e 0300     		.2byte	0x3
ARM GAS  C:\Users\rdn\AppData\Local\Temp\ccYH9vOY.s 			page 150


 7407 08a0 71       		.byte	0x71
 7408 08a1 7F       		.sleb128 -1
 7409 08a2 9F       		.byte	0x9f
 7410 08a3 E4040000 		.4byte	.LVL110
 7411 08a7 F0040000 		.4byte	.LVL111
 7412 08ab 0100     		.2byte	0x1
 7413 08ad 51       		.byte	0x51
 7414 08ae 00000000 		.4byte	0
 7415 08b2 00000000 		.4byte	0
 7416              	.LLST61:
 7417 08b6 B2040000 		.4byte	.LVL105
 7418 08ba BE040000 		.4byte	.LVL107
 7419 08be 0200     		.2byte	0x2
 7420 08c0 30       		.byte	0x30
 7421 08c1 9F       		.byte	0x9f
 7422 08c2 BE040000 		.4byte	.LVL107
 7423 08c6 F0040000 		.4byte	.LVL111
 7424 08ca 0100     		.2byte	0x1
 7425 08cc 5C       		.byte	0x5c
 7426 08cd 00000000 		.4byte	0
 7427 08d1 00000000 		.4byte	0
 7428              	.LLST62:
 7429 08d5 32040000 		.4byte	.LVL96
 7430 08d9 66040000 		.4byte	.LVL101
 7431 08dd 0100     		.2byte	0x1
 7432 08df 55       		.byte	0x55
 7433 08e0 00000000 		.4byte	0
 7434 08e4 00000000 		.4byte	0
 7435              	.LLST63:
 7436 08e8 32040000 		.4byte	.LVL96
 7437 08ec 36040000 		.4byte	.LVL97
 7438 08f0 0200     		.2byte	0x2
 7439 08f2 90       		.byte	0x90
 7440 08f3 4F       		.uleb128 0x4f
 7441 08f4 36040000 		.4byte	.LVL97
 7442 08f8 66040000 		.4byte	.LVL101
 7443 08fc 0B00     		.2byte	0xb
 7444 08fe 7A       		.byte	0x7a
 7445 08ff 00       		.sleb128 0
 7446 0900 32       		.byte	0x32
 7447 0901 24       		.byte	0x24
 7448 0902 91       		.byte	0x91
 7449 0903 00       		.sleb128 0
 7450 0904 22       		.byte	0x22
 7451 0905 0A       		.byte	0xa
 7452 0906 8C01     		.2byte	0x18c
 7453 0908 1C       		.byte	0x1c
 7454 0909 00000000 		.4byte	0
 7455 090d 00000000 		.4byte	0
 7456              	.LLST64:
 7457 0911 46040000 		.4byte	.LVL98
 7458 0915 66040000 		.4byte	.LVL101
 7459 0919 0200     		.2byte	0x2
 7460 091b 90       		.byte	0x90
 7461 091c 4D       		.uleb128 0x4d
 7462 091d 00000000 		.4byte	0
 7463 0921 00000000 		.4byte	0
ARM GAS  C:\Users\rdn\AppData\Local\Temp\ccYH9vOY.s 			page 151


 7464              	.LLST65:
 7465 0925 46040000 		.4byte	.LVL98
 7466 0929 50040000 		.4byte	.LVL99
 7467 092d 0600     		.2byte	0x6
 7468 092f 9E       		.byte	0x9e
 7469 0930 04       		.uleb128 0x4
 7470 0931 0000803F 		.4byte	0x3f800000
 7471 0935 50040000 		.4byte	.LVL99
 7472 0939 66040000 		.4byte	.LVL101
 7473 093d 0200     		.2byte	0x2
 7474 093f 90       		.byte	0x90
 7475 0940 4E       		.uleb128 0x4e
 7476 0941 00000000 		.4byte	0
 7477 0945 00000000 		.4byte	0
 7478              	.LLST66:
 7479 0949 46040000 		.4byte	.LVL98
 7480 094d 50040000 		.4byte	.LVL99
 7481 0951 0200     		.2byte	0x2
 7482 0953 31       		.byte	0x31
 7483 0954 9F       		.byte	0x9f
 7484 0955 00000000 		.4byte	0
 7485 0959 00000000 		.4byte	0
 7486              	.LLST67:
 7487 095d F0040000 		.4byte	.LVL111
 7488 0961 68050000 		.4byte	.LVL120
 7489 0965 0100     		.2byte	0x1
 7490 0967 57       		.byte	0x57
 7491 0968 00000000 		.4byte	0
 7492 096c 00000000 		.4byte	0
 7493              	.LLST68:
 7494 0970 F0040000 		.4byte	.LVL111
 7495 0974 68050000 		.4byte	.LVL120
 7496 0978 0200     		.2byte	0x2
 7497 097a 7D       		.byte	0x7d
 7498 097b 00       		.sleb128 0
 7499 097c 00000000 		.4byte	0
 7500 0980 00000000 		.4byte	0
 7501              	.LLST69:
 7502 0984 F0040000 		.4byte	.LVL111
 7503 0988 68050000 		.4byte	.LVL120
 7504 098c 0100     		.2byte	0x1
 7505 098e 54       		.byte	0x54
 7506 098f 00000000 		.4byte	0
 7507 0993 00000000 		.4byte	0
 7508              	.LLST70:
 7509 0997 F4040000 		.4byte	.LVL112
 7510 099b 02050000 		.4byte	.LVL113
 7511 099f 0200     		.2byte	0x2
 7512 09a1 30       		.byte	0x30
 7513 09a2 9F       		.byte	0x9f
 7514 09a3 00000000 		.4byte	0
 7515 09a7 00000000 		.4byte	0
 7516              	.LLST71:
 7517 09ab 0A050000 		.4byte	.LVL114
 7518 09af 68050000 		.4byte	.LVL120
 7519 09b3 0200     		.2byte	0x2
 7520 09b5 90       		.byte	0x90
ARM GAS  C:\Users\rdn\AppData\Local\Temp\ccYH9vOY.s 			page 152


 7521 09b6 4E       		.uleb128 0x4e
 7522 09b7 00000000 		.4byte	0
 7523 09bb 00000000 		.4byte	0
 7524              	.LLST72:
 7525 09bf 1A050000 		.4byte	.LVL115
 7526 09c3 20050000 		.4byte	.LVL116
 7527 09c7 0200     		.2byte	0x2
 7528 09c9 30       		.byte	0x30
 7529 09ca 9F       		.byte	0x9f
 7530 09cb 20050000 		.4byte	.LVL116
 7531 09cf 36050000 		.4byte	.LVL117
 7532 09d3 0700     		.2byte	0x7
 7533 09d5 34       		.byte	0x34
 7534 09d6 91       		.byte	0x91
 7535 09d7 CC7C     		.sleb128 -436
 7536 09d9 06       		.byte	0x6
 7537 09da 1C       		.byte	0x1c
 7538 09db 9F       		.byte	0x9f
 7539 09dc 36050000 		.4byte	.LVL117
 7540 09e0 40050000 		.4byte	.LVL118
 7541 09e4 0700     		.2byte	0x7
 7542 09e6 35       		.byte	0x35
 7543 09e7 91       		.byte	0x91
 7544 09e8 CC7C     		.sleb128 -436
 7545 09ea 06       		.byte	0x6
 7546 09eb 1C       		.byte	0x1c
 7547 09ec 9F       		.byte	0x9f
 7548 09ed 40050000 		.4byte	.LVL118
 7549 09f1 42050000 		.4byte	.LVL119
 7550 09f5 0500     		.2byte	0x5
 7551 09f7 34       		.byte	0x34
 7552 09f8 72       		.byte	0x72
 7553 09f9 00       		.sleb128 0
 7554 09fa 1C       		.byte	0x1c
 7555 09fb 9F       		.byte	0x9f
 7556 09fc 00000000 		.4byte	0
 7557 0a00 00000000 		.4byte	0
 7558              	.LLST73:
 7559 0a04 82050000 		.4byte	.LVL123
 7560 0a08 CC050000 		.4byte	.LVL130
 7561 0a0c 0400     		.2byte	0x4
 7562 0a0e 91       		.byte	0x91
 7563 0a0f B47D     		.sleb128 -332
 7564 0a11 9F       		.byte	0x9f
 7565 0a12 CC050000 		.4byte	.LVL130
 7566 0a16 D6050000 		.4byte	.LVL131
 7567 0a1a 0100     		.2byte	0x1
 7568 0a1c 50       		.byte	0x50
 7569 0a1d D6050000 		.4byte	.LVL131
 7570 0a21 28060000 		.4byte	.LFE29
 7571 0a25 0400     		.2byte	0x4
 7572 0a27 91       		.byte	0x91
 7573 0a28 B47D     		.sleb128 -332
 7574 0a2a 9F       		.byte	0x9f
 7575 0a2b 00000000 		.4byte	0
 7576 0a2f 00000000 		.4byte	0
 7577              	.LLST74:
ARM GAS  C:\Users\rdn\AppData\Local\Temp\ccYH9vOY.s 			page 153


 7578 0a33 BC050000 		.4byte	.LVL128
 7579 0a37 D6050000 		.4byte	.LVL131
 7580 0a3b 0100     		.2byte	0x1
 7581 0a3d 55       		.byte	0x55
 7582 0a3e 00000000 		.4byte	0
 7583 0a42 00000000 		.4byte	0
 7584              	.LLST75:
 7585 0a46 B4050000 		.4byte	.LVL126
 7586 0a4a C2050000 		.4byte	.LVL129
 7587 0a4e 0100     		.2byte	0x1
 7588 0a50 55       		.byte	0x55
 7589 0a51 C2050000 		.4byte	.LVL129
 7590 0a55 DC050000 		.4byte	.LVL133
 7591 0a59 0100     		.2byte	0x1
 7592 0a5b 52       		.byte	0x52
 7593 0a5c DC050000 		.4byte	.LVL133
 7594 0a60 E0050000 		.4byte	.LVL134
 7595 0a64 0100     		.2byte	0x1
 7596 0a66 59       		.byte	0x59
 7597 0a67 E0050000 		.4byte	.LVL134
 7598 0a6b E6050000 		.4byte	.LVL136
 7599 0a6f 0100     		.2byte	0x1
 7600 0a71 55       		.byte	0x55
 7601 0a72 E6050000 		.4byte	.LVL136
 7602 0a76 28060000 		.4byte	.LFE29
 7603 0a7a 0100     		.2byte	0x1
 7604 0a7c 52       		.byte	0x52
 7605 0a7d 00000000 		.4byte	0
 7606 0a81 00000000 		.4byte	0
 7607              	.LLST76:
 7608 0a85 B8050000 		.4byte	.LVL127
 7609 0a89 BC050000 		.4byte	.LVL128
 7610 0a8d 0200     		.2byte	0x2
 7611 0a8f 30       		.byte	0x30
 7612 0a90 9F       		.byte	0x9f
 7613 0a91 BC050000 		.4byte	.LVL128
 7614 0a95 D6050000 		.4byte	.LVL131
 7615 0a99 0100     		.2byte	0x1
 7616 0a9b 53       		.byte	0x53
 7617 0a9c D6050000 		.4byte	.LVL131
 7618 0aa0 D8050000 		.4byte	.LVL132
 7619 0aa4 0300     		.2byte	0x3
 7620 0aa6 73       		.byte	0x73
 7621 0aa7 01       		.sleb128 1
 7622 0aa8 9F       		.byte	0x9f
 7623 0aa9 D8050000 		.4byte	.LVL132
 7624 0aad 28060000 		.4byte	.LFE29
 7625 0ab1 0100     		.2byte	0x1
 7626 0ab3 53       		.byte	0x53
 7627 0ab4 00000000 		.4byte	0
 7628 0ab8 00000000 		.4byte	0
 7629              	.LLST77:
 7630 0abc E6050000 		.4byte	.LVL136
 7631 0ac0 EC050000 		.4byte	.LVL137
 7632 0ac4 0200     		.2byte	0x2
 7633 0ac6 90       		.byte	0x90
 7634 0ac7 4F       		.uleb128 0x4f
ARM GAS  C:\Users\rdn\AppData\Local\Temp\ccYH9vOY.s 			page 154


 7635 0ac8 F4050000 		.4byte	.LVL138
 7636 0acc 00060000 		.4byte	.LVL139
 7637 0ad0 0200     		.2byte	0x2
 7638 0ad2 90       		.byte	0x90
 7639 0ad3 4E       		.uleb128 0x4e
 7640 0ad4 00060000 		.4byte	.LVL139
 7641 0ad8 28060000 		.4byte	.LFE29
 7642 0adc 0200     		.2byte	0x2
 7643 0ade 90       		.byte	0x90
 7644 0adf 4F       		.uleb128 0x4f
 7645 0ae0 00000000 		.4byte	0
 7646 0ae4 00000000 		.4byte	0
 7647              	.LLST78:
 7648 0ae8 E6050000 		.4byte	.LVL136
 7649 0aec EC050000 		.4byte	.LVL137
 7650 0af0 0200     		.2byte	0x2
 7651 0af2 90       		.byte	0x90
 7652 0af3 4E       		.uleb128 0x4e
 7653 0af4 F4050000 		.4byte	.LVL138
 7654 0af8 14060000 		.4byte	.LVL141
 7655 0afc 0200     		.2byte	0x2
 7656 0afe 90       		.byte	0x90
 7657 0aff 4E       		.uleb128 0x4e
 7658 0b00 14060000 		.4byte	.LVL141
 7659 0b04 18060000 		.4byte	.LVL142
 7660 0b08 0200     		.2byte	0x2
 7661 0b0a 7E       		.byte	0x7e
 7662 0b0b 7C       		.sleb128 -4
 7663 0b0c 18060000 		.4byte	.LVL142
 7664 0b10 28060000 		.4byte	.LFE29
 7665 0b14 0200     		.2byte	0x2
 7666 0b16 90       		.byte	0x90
 7667 0b17 4E       		.uleb128 0x4e
 7668 0b18 00000000 		.4byte	0
 7669 0b1c 00000000 		.4byte	0
 7670              	.LLST79:
 7671 0b20 E6050000 		.4byte	.LVL136
 7672 0b24 EC050000 		.4byte	.LVL137
 7673 0b28 0100     		.2byte	0x1
 7674 0b2a 50       		.byte	0x50
 7675 0b2b F4050000 		.4byte	.LVL138
 7676 0b2f 00060000 		.4byte	.LVL139
 7677 0b33 0200     		.2byte	0x2
 7678 0b35 30       		.byte	0x30
 7679 0b36 9F       		.byte	0x9f
 7680 0b37 00060000 		.4byte	.LVL139
 7681 0b3b 1A060000 		.4byte	.LVL143
 7682 0b3f 0100     		.2byte	0x1
 7683 0b41 50       		.byte	0x50
 7684 0b42 1A060000 		.4byte	.LVL143
 7685 0b46 1E060000 		.4byte	.LVL144
 7686 0b4a 0300     		.2byte	0x3
 7687 0b4c 70       		.byte	0x70
 7688 0b4d 7F       		.sleb128 -1
 7689 0b4e 9F       		.byte	0x9f
 7690 0b4f 1E060000 		.4byte	.LVL144
 7691 0b53 28060000 		.4byte	.LFE29
ARM GAS  C:\Users\rdn\AppData\Local\Temp\ccYH9vOY.s 			page 155


 7692 0b57 0100     		.2byte	0x1
 7693 0b59 50       		.byte	0x50
 7694 0b5a 00000000 		.4byte	0
 7695 0b5e 00000000 		.4byte	0
 7696              	.LLST80:
 7697 0b62 00000000 		.4byte	.LVL145
 7698 0b66 12000000 		.4byte	.LVL148
 7699 0b6a 0100     		.2byte	0x1
 7700 0b6c 50       		.byte	0x50
 7701 0b6d 12000000 		.4byte	.LVL148
 7702 0b71 FC000000 		.4byte	.LFE30
 7703 0b75 0400     		.2byte	0x4
 7704 0b77 F3       		.byte	0xf3
 7705 0b78 01       		.uleb128 0x1
 7706 0b79 50       		.byte	0x50
 7707 0b7a 9F       		.byte	0x9f
 7708 0b7b 00000000 		.4byte	0
 7709 0b7f 00000000 		.4byte	0
 7710              	.LLST81:
 7711 0b83 00000000 		.4byte	.LVL145
 7712 0b87 10000000 		.4byte	.LVL147
 7713 0b8b 0100     		.2byte	0x1
 7714 0b8d 51       		.byte	0x51
 7715 0b8e 10000000 		.4byte	.LVL147
 7716 0b92 FC000000 		.4byte	.LFE30
 7717 0b96 0400     		.2byte	0x4
 7718 0b98 F3       		.byte	0xf3
 7719 0b99 01       		.uleb128 0x1
 7720 0b9a 51       		.byte	0x51
 7721 0b9b 9F       		.byte	0x9f
 7722 0b9c 00000000 		.4byte	0
 7723 0ba0 00000000 		.4byte	0
 7724              	.LLST82:
 7725 0ba4 00000000 		.4byte	.LVL145
 7726 0ba8 0E000000 		.4byte	.LVL146
 7727 0bac 0100     		.2byte	0x1
 7728 0bae 52       		.byte	0x52
 7729 0baf 0E000000 		.4byte	.LVL146
 7730 0bb3 4A000000 		.4byte	.LVL153
 7731 0bb7 0100     		.2byte	0x1
 7732 0bb9 55       		.byte	0x55
 7733 0bba 4A000000 		.4byte	.LVL153
 7734 0bbe 8A000000 		.4byte	.LVL164
 7735 0bc2 0300     		.2byte	0x3
 7736 0bc4 75       		.byte	0x75
 7737 0bc5 78       		.sleb128 -8
 7738 0bc6 9F       		.byte	0x9f
 7739 0bc7 8A000000 		.4byte	.LVL164
 7740 0bcb FC000000 		.4byte	.LFE30
 7741 0bcf 0400     		.2byte	0x4
 7742 0bd1 F3       		.byte	0xf3
 7743 0bd2 01       		.uleb128 0x1
 7744 0bd3 52       		.byte	0x52
 7745 0bd4 9F       		.byte	0x9f
 7746 0bd5 00000000 		.4byte	0
 7747 0bd9 00000000 		.4byte	0
 7748              	.LLST83:
ARM GAS  C:\Users\rdn\AppData\Local\Temp\ccYH9vOY.s 			page 156


 7749 0bdd 00000000 		.4byte	.LVL145
 7750 0be1 17000000 		.4byte	.LVL149-1
 7751 0be5 0100     		.2byte	0x1
 7752 0be7 53       		.byte	0x53
 7753 0be8 17000000 		.4byte	.LVL149-1
 7754 0bec FC000000 		.4byte	.LFE30
 7755 0bf0 0100     		.2byte	0x1
 7756 0bf2 58       		.byte	0x58
 7757 0bf3 00000000 		.4byte	0
 7758 0bf7 00000000 		.4byte	0
 7759              	.LLST84:
 7760 0bfb 18000000 		.4byte	.LVL149
 7761 0bff 26000000 		.4byte	.LVL150
 7762 0c03 0200     		.2byte	0x2
 7763 0c05 30       		.byte	0x30
 7764 0c06 9F       		.byte	0x9f
 7765 0c07 26000000 		.4byte	.LVL150
 7766 0c0b 54000000 		.4byte	.LVL154
 7767 0c0f 0100     		.2byte	0x1
 7768 0c11 59       		.byte	0x59
 7769 0c12 5A000000 		.4byte	.LVL155
 7770 0c16 5C000000 		.4byte	.LVL156
 7771 0c1a 0100     		.2byte	0x1
 7772 0c1c 59       		.byte	0x59
 7773 0c1d 00000000 		.4byte	0
 7774 0c21 00000000 		.4byte	0
 7775              	.LLST85:
 7776 0c25 4A000000 		.4byte	.LVL153
 7777 0c29 80000000 		.4byte	.LVL162
 7778 0c2d 0400     		.2byte	0x4
 7779 0c2f 91       		.byte	0x91
 7780 0c30 987F     		.sleb128 -104
 7781 0c32 9F       		.byte	0x9f
 7782 0c33 80000000 		.4byte	.LVL162
 7783 0c37 8A000000 		.4byte	.LVL164
 7784 0c3b 0100     		.2byte	0x1
 7785 0c3d 50       		.byte	0x50
 7786 0c3e 8A000000 		.4byte	.LVL164
 7787 0c42 EA000000 		.4byte	.LVL176
 7788 0c46 0400     		.2byte	0x4
 7789 0c48 91       		.byte	0x91
 7790 0c49 987F     		.sleb128 -104
 7791 0c4b 9F       		.byte	0x9f
 7792 0c4c EA000000 		.4byte	.LVL176
 7793 0c50 EC000000 		.4byte	.LVL177
 7794 0c54 0100     		.2byte	0x1
 7795 0c56 52       		.byte	0x52
 7796 0c57 EC000000 		.4byte	.LVL177
 7797 0c5b FC000000 		.4byte	.LFE30
 7798 0c5f 0400     		.2byte	0x4
 7799 0c61 91       		.byte	0x91
 7800 0c62 987F     		.sleb128 -104
 7801 0c64 9F       		.byte	0x9f
 7802 0c65 00000000 		.4byte	0
 7803 0c69 00000000 		.4byte	0
 7804              	.LLST86:
 7805 0c6d 4A000000 		.4byte	.LVL153
ARM GAS  C:\Users\rdn\AppData\Local\Temp\ccYH9vOY.s 			page 157


 7806 0c71 8A000000 		.4byte	.LVL164
 7807 0c75 0100     		.2byte	0x1
 7808 0c77 55       		.byte	0x55
 7809 0c78 8A000000 		.4byte	.LVL164
 7810 0c7c FC000000 		.4byte	.LFE30
 7811 0c80 0600     		.2byte	0x6
 7812 0c82 F3       		.byte	0xf3
 7813 0c83 01       		.uleb128 0x1
 7814 0c84 52       		.byte	0x52
 7815 0c85 23       		.byte	0x23
 7816 0c86 08       		.uleb128 0x8
 7817 0c87 9F       		.byte	0x9f
 7818 0c88 00000000 		.4byte	0
 7819 0c8c 00000000 		.4byte	0
 7820              	.LLST87:
 7821 0c90 4A000000 		.4byte	.LVL153
 7822 0c94 62000000 		.4byte	.LVL157
 7823 0c98 0100     		.2byte	0x1
 7824 0c9a 56       		.byte	0x56
 7825 0c9b 00000000 		.4byte	0
 7826 0c9f 00000000 		.4byte	0
 7827              	.LLST88:
 7828 0ca3 4A000000 		.4byte	.LVL153
 7829 0ca7 6A000000 		.4byte	.LVL158
 7830 0cab 0100     		.2byte	0x1
 7831 0cad 54       		.byte	0x54
 7832 0cae 00000000 		.4byte	0
 7833 0cb2 00000000 		.4byte	0
 7834              	.LLST89:
 7835 0cb6 5C000000 		.4byte	.LVL156
 7836 0cba 84000000 		.4byte	.LVL163
 7837 0cbe 0300     		.2byte	0x3
 7838 0cc0 79       		.byte	0x79
 7839 0cc1 01       		.sleb128 1
 7840 0cc2 9F       		.byte	0x9f
 7841 0cc3 00000000 		.4byte	0
 7842 0cc7 00000000 		.4byte	0
 7843              	.LLST90:
 7844 0ccb 8A000000 		.4byte	.LVL164
 7845 0ccf 98000000 		.4byte	.LVL166
 7846 0cd3 0100     		.2byte	0x1
 7847 0cd5 54       		.byte	0x54
 7848 0cd6 00000000 		.4byte	0
 7849 0cda 00000000 		.4byte	0
 7850              	.LLST91:
 7851 0cde 7E000000 		.4byte	.LVL161
 7852 0ce2 90000000 		.4byte	.LVL165
 7853 0ce6 0100     		.2byte	0x1
 7854 0ce8 54       		.byte	0x54
 7855 0ce9 90000000 		.4byte	.LVL165
 7856 0ced 9C000000 		.4byte	.LVL167
 7857 0cf1 0100     		.2byte	0x1
 7858 0cf3 51       		.byte	0x51
 7859 0cf4 9C000000 		.4byte	.LVL167
 7860 0cf8 A4000000 		.4byte	.LVL168
 7861 0cfc 0100     		.2byte	0x1
 7862 0cfe 5C       		.byte	0x5c
ARM GAS  C:\Users\rdn\AppData\Local\Temp\ccYH9vOY.s 			page 158


 7863 0cff A4000000 		.4byte	.LVL168
 7864 0d03 AA000000 		.4byte	.LVL169
 7865 0d07 0100     		.2byte	0x1
 7866 0d09 54       		.byte	0x54
 7867 0d0a AA000000 		.4byte	.LVL169
 7868 0d0e FC000000 		.4byte	.LFE30
 7869 0d12 0100     		.2byte	0x1
 7870 0d14 51       		.byte	0x51
 7871 0d15 00000000 		.4byte	0
 7872 0d19 00000000 		.4byte	0
 7873              	.LLST92:
 7874 0d1d 5C000000 		.4byte	.LVL156
 7875 0d21 62000000 		.4byte	.LVL157
 7876 0d25 1300     		.2byte	0x13
 7877 0d27 76       		.byte	0x76
 7878 0d28 00       		.sleb128 0
 7879 0d29 12       		.byte	0x12
 7880 0d2a 08       		.byte	0x8
 7881 0d2b FF       		.byte	0xff
 7882 0d2c 1A       		.byte	0x1a
 7883 0d2d 34       		.byte	0x34
 7884 0d2e 16       		.byte	0x16
 7885 0d2f 14       		.byte	0x14
 7886 0d30 08       		.byte	0x8
 7887 0d31 FF       		.byte	0xff
 7888 0d32 1A       		.byte	0x1a
 7889 0d33 2D       		.byte	0x2d
 7890 0d34 28       		.byte	0x28
 7891 0d35 0100     		.2byte	0x1
 7892 0d37 16       		.byte	0x16
 7893 0d38 13       		.byte	0x13
 7894 0d39 9F       		.byte	0x9f
 7895 0d3a 00000000 		.4byte	0
 7896 0d3e 00000000 		.4byte	0
 7897              	.LLST93:
 7898 0d42 5C000000 		.4byte	.LVL156
 7899 0d46 6A000000 		.4byte	.LVL158
 7900 0d4a 0100     		.2byte	0x1
 7901 0d4c 54       		.byte	0x54
 7902 0d4d 00000000 		.4byte	0
 7903 0d51 00000000 		.4byte	0
 7904              	.LLST94:
 7905 0d55 7E000000 		.4byte	.LVL161
 7906 0d59 8A000000 		.4byte	.LVL164
 7907 0d5d 0200     		.2byte	0x2
 7908 0d5f 30       		.byte	0x30
 7909 0d60 9F       		.byte	0x9f
 7910 0d61 00000000 		.4byte	0
 7911 0d65 00000000 		.4byte	0
 7912              	.LLST95:
 7913 0d69 AA000000 		.4byte	.LVL169
 7914 0d6d CC000000 		.4byte	.LVL172
 7915 0d71 0200     		.2byte	0x2
 7916 0d73 90       		.byte	0x90
 7917 0d74 4F       		.uleb128 0x4f
 7918 0d75 DA000000 		.4byte	.LVL173
 7919 0d79 E8000000 		.4byte	.LVL175
ARM GAS  C:\Users\rdn\AppData\Local\Temp\ccYH9vOY.s 			page 159


 7920 0d7d 0200     		.2byte	0x2
 7921 0d7f 90       		.byte	0x90
 7922 0d80 4F       		.uleb128 0x4f
 7923 0d81 00000000 		.4byte	0
 7924 0d85 00000000 		.4byte	0
 7925              	.LLST96:
 7926 0d89 E6000000 		.4byte	.LVL174
 7927 0d8d E8000000 		.4byte	.LVL175
 7928 0d91 0200     		.2byte	0x2
 7929 0d93 36       		.byte	0x36
 7930 0d94 9F       		.byte	0x9f
 7931 0d95 00000000 		.4byte	0
 7932 0d99 00000000 		.4byte	0
 7933              	.LLST97:
 7934 0d9d 00000000 		.4byte	.LVL179
 7935 0da1 1C000000 		.4byte	.LVL180
 7936 0da5 0100     		.2byte	0x1
 7937 0da7 50       		.byte	0x50
 7938 0da8 1C000000 		.4byte	.LVL180
 7939 0dac 6E000000 		.4byte	.LVL191
 7940 0db0 0100     		.2byte	0x1
 7941 0db2 56       		.byte	0x56
 7942 0db3 6E000000 		.4byte	.LVL191
 7943 0db7 78000000 		.4byte	.LFE31
 7944 0dbb 0400     		.2byte	0x4
 7945 0dbd F3       		.byte	0xf3
 7946 0dbe 01       		.uleb128 0x1
 7947 0dbf 50       		.byte	0x50
 7948 0dc0 9F       		.byte	0x9f
 7949 0dc1 00000000 		.4byte	0
 7950 0dc5 00000000 		.4byte	0
 7951              	.LLST98:
 7952 0dc9 00000000 		.4byte	.LVL179
 7953 0dcd 1C000000 		.4byte	.LVL180
 7954 0dd1 0200     		.2byte	0x2
 7955 0dd3 30       		.byte	0x30
 7956 0dd4 9F       		.byte	0x9f
 7957 0dd5 1C000000 		.4byte	.LVL180
 7958 0dd9 78000000 		.4byte	.LFE31
 7959 0ddd 0100     		.2byte	0x1
 7960 0ddf 50       		.byte	0x50
 7961 0de0 00000000 		.4byte	0
 7962 0de4 00000000 		.4byte	0
 7963              	.LLST99:
 7964 0de8 00000000 		.4byte	.LVL179
 7965 0dec 1C000000 		.4byte	.LVL180
 7966 0df0 0200     		.2byte	0x2
 7967 0df2 30       		.byte	0x30
 7968 0df3 9F       		.byte	0x9f
 7969 0df4 1C000000 		.4byte	.LVL180
 7970 0df8 6E000000 		.4byte	.LVL191
 7971 0dfc 0100     		.2byte	0x1
 7972 0dfe 55       		.byte	0x55
 7973 0dff 00000000 		.4byte	0
 7974 0e03 00000000 		.4byte	0
 7975              	.LLST100:
 7976 0e07 20000000 		.4byte	.LVL181
ARM GAS  C:\Users\rdn\AppData\Local\Temp\ccYH9vOY.s 			page 160


 7977 0e0b 40000000 		.4byte	.LVL183
 7978 0e0f 0400     		.2byte	0x4
 7979 0e11 0A       		.byte	0xa
 7980 0e12 0008     		.2byte	0x800
 7981 0e14 9F       		.byte	0x9f
 7982 0e15 40000000 		.4byte	.LVL183
 7983 0e19 60000000 		.4byte	.LVL187
 7984 0e1d 0100     		.2byte	0x1
 7985 0e1f 53       		.byte	0x53
 7986 0e20 60000000 		.4byte	.LVL187
 7987 0e24 6A000000 		.4byte	.LVL190
 7988 0e28 0400     		.2byte	0x4
 7989 0e2a 73       		.byte	0x73
 7990 0e2b 8170     		.sleb128 -2047
 7991 0e2d 9F       		.byte	0x9f
 7992 0e2e 00000000 		.4byte	0
 7993 0e32 00000000 		.4byte	0
 7994              	.LLST101:
 7995 0e36 24000000 		.4byte	.LVL182
 7996 0e3a 6A000000 		.4byte	.LVL190
 7997 0e3e 0100     		.2byte	0x1
 7998 0e40 57       		.byte	0x57
 7999 0e41 00000000 		.4byte	0
 8000 0e45 00000000 		.4byte	0
 8001              	.LLST102:
 8002 0e49 40000000 		.4byte	.LVL183
 8003 0e4d 42000000 		.4byte	.LVL184
 8004 0e51 0200     		.2byte	0x2
 8005 0e53 30       		.byte	0x30
 8006 0e54 9F       		.byte	0x9f
 8007 0e55 42000000 		.4byte	.LVL184
 8008 0e59 54000000 		.4byte	.LVL185
 8009 0e5d 0100     		.2byte	0x1
 8010 0e5f 51       		.byte	0x51
 8011 0e60 54000000 		.4byte	.LVL185
 8012 0e64 5A000000 		.4byte	.LVL186
 8013 0e68 0300     		.2byte	0x3
 8014 0e6a 71       		.byte	0x71
 8015 0e6b 7F       		.sleb128 -1
 8016 0e6c 9F       		.byte	0x9f
 8017 0e6d 5A000000 		.4byte	.LVL186
 8018 0e71 6A000000 		.4byte	.LVL190
 8019 0e75 0100     		.2byte	0x1
 8020 0e77 51       		.byte	0x51
 8021 0e78 00000000 		.4byte	0
 8022 0e7c 00000000 		.4byte	0
 8023              	.LLST103:
 8024 0e80 00000000 		.4byte	.LVL192
 8025 0e84 14000000 		.4byte	.LVL193
 8026 0e88 0100     		.2byte	0x1
 8027 0e8a 50       		.byte	0x50
 8028 0e8b 14000000 		.4byte	.LVL193
 8029 0e8f 90000000 		.4byte	.LVL205
 8030 0e93 0100     		.2byte	0x1
 8031 0e95 54       		.byte	0x54
 8032 0e96 90000000 		.4byte	.LVL205
 8033 0e9a 98000000 		.4byte	.LFE32
ARM GAS  C:\Users\rdn\AppData\Local\Temp\ccYH9vOY.s 			page 161


 8034 0e9e 0400     		.2byte	0x4
 8035 0ea0 F3       		.byte	0xf3
 8036 0ea1 01       		.uleb128 0x1
 8037 0ea2 50       		.byte	0x50
 8038 0ea3 9F       		.byte	0x9f
 8039 0ea4 00000000 		.4byte	0
 8040 0ea8 00000000 		.4byte	0
 8041              	.LLST104:
 8042 0eac 00000000 		.4byte	.LVL192
 8043 0eb0 14000000 		.4byte	.LVL193
 8044 0eb4 0100     		.2byte	0x1
 8045 0eb6 51       		.byte	0x51
 8046 0eb7 14000000 		.4byte	.LVL193
 8047 0ebb 90000000 		.4byte	.LVL205
 8048 0ebf 0100     		.2byte	0x1
 8049 0ec1 55       		.byte	0x55
 8050 0ec2 90000000 		.4byte	.LVL205
 8051 0ec6 98000000 		.4byte	.LFE32
 8052 0eca 0400     		.2byte	0x4
 8053 0ecc F3       		.byte	0xf3
 8054 0ecd 01       		.uleb128 0x1
 8055 0ece 51       		.byte	0x51
 8056 0ecf 9F       		.byte	0x9f
 8057 0ed0 00000000 		.4byte	0
 8058 0ed4 00000000 		.4byte	0
 8059              	.LLST105:
 8060 0ed8 00000000 		.4byte	.LVL192
 8061 0edc 14000000 		.4byte	.LVL193
 8062 0ee0 0200     		.2byte	0x2
 8063 0ee2 30       		.byte	0x30
 8064 0ee3 9F       		.byte	0x9f
 8065 0ee4 14000000 		.4byte	.LVL193
 8066 0ee8 90000000 		.4byte	.LVL205
 8067 0eec 0100     		.2byte	0x1
 8068 0eee 59       		.byte	0x59
 8069 0eef 00000000 		.4byte	0
 8070 0ef3 00000000 		.4byte	0
 8071              	.LLST106:
 8072 0ef7 1E000000 		.4byte	.LVL194
 8073 0efb 8A000000 		.4byte	.LVL204
 8074 0eff 0100     		.2byte	0x1
 8075 0f01 57       		.byte	0x57
 8076 0f02 00000000 		.4byte	0
 8077 0f06 00000000 		.4byte	0
 8078              	.LLST107:
 8079 0f0a 2C000000 		.4byte	.LVL195
 8080 0f0e 44000000 		.4byte	.LVL198
 8081 0f12 0200     		.2byte	0x2
 8082 0f14 31       		.byte	0x31
 8083 0f15 9F       		.byte	0x9f
 8084 0f16 00000000 		.4byte	0
 8085 0f1a 00000000 		.4byte	0
 8086              	.LLST108:
 8087 0f1e 2C000000 		.4byte	.LVL195
 8088 0f22 32000000 		.4byte	.LVL196
 8089 0f26 0100     		.2byte	0x1
 8090 0f28 51       		.byte	0x51
ARM GAS  C:\Users\rdn\AppData\Local\Temp\ccYH9vOY.s 			page 162


 8091 0f29 3C000000 		.4byte	.LVL197
 8092 0f2d 43000000 		.4byte	.LVL198-1
 8093 0f31 0100     		.2byte	0x1
 8094 0f33 51       		.byte	0x51
 8095 0f34 00000000 		.4byte	0
 8096 0f38 00000000 		.4byte	0
 8097              	.LLST109:
 8098 0f3c 2C000000 		.4byte	.LVL195
 8099 0f40 44000000 		.4byte	.LVL198
 8100 0f44 0100     		.2byte	0x1
 8101 0f46 54       		.byte	0x54
 8102 0f47 00000000 		.4byte	0
 8103 0f4b 00000000 		.4byte	0
 8104              	.LLST110:
 8105 0f4f 2C000000 		.4byte	.LVL195
 8106 0f53 8A000000 		.4byte	.LVL204
 8107 0f57 0300     		.2byte	0x3
 8108 0f59 74       		.byte	0x74
 8109 0f5a 1C       		.sleb128 28
 8110 0f5b 9F       		.byte	0x9f
 8111 0f5c 00000000 		.4byte	0
 8112 0f60 00000000 		.4byte	0
 8113              	.LLST111:
 8114 0f64 66000000 		.4byte	.LVL200
 8115 0f68 6A000000 		.4byte	.LVL201
 8116 0f6c 0200     		.2byte	0x2
 8117 0f6e 30       		.byte	0x30
 8118 0f6f 9F       		.byte	0x9f
 8119 0f70 6A000000 		.4byte	.LVL201
 8120 0f74 7E000000 		.4byte	.LVL202
 8121 0f78 0100     		.2byte	0x1
 8122 0f7a 56       		.byte	0x56
 8123 0f7b 7E000000 		.4byte	.LVL202
 8124 0f7f 82000000 		.4byte	.LVL203
 8125 0f83 0300     		.2byte	0x3
 8126 0f85 76       		.byte	0x76
 8127 0f86 7F       		.sleb128 -1
 8128 0f87 9F       		.byte	0x9f
 8129 0f88 82000000 		.4byte	.LVL203
 8130 0f8c 8A000000 		.4byte	.LVL204
 8131 0f90 0100     		.2byte	0x1
 8132 0f92 56       		.byte	0x56
 8133 0f93 00000000 		.4byte	0
 8134 0f97 00000000 		.4byte	0
 8135              	.LLST112:
 8136 0f9b 00000000 		.4byte	.LVL206
 8137 0f9f 3A000000 		.4byte	.LVL212
 8138 0fa3 0100     		.2byte	0x1
 8139 0fa5 50       		.byte	0x50
 8140 0fa6 3A000000 		.4byte	.LVL212
 8141 0faa C2000000 		.4byte	.LVL225
 8142 0fae 0100     		.2byte	0x1
 8143 0fb0 55       		.byte	0x55
 8144 0fb1 C2000000 		.4byte	.LVL225
 8145 0fb5 CC000000 		.4byte	.LFE33
 8146 0fb9 0400     		.2byte	0x4
 8147 0fbb F3       		.byte	0xf3
ARM GAS  C:\Users\rdn\AppData\Local\Temp\ccYH9vOY.s 			page 163


 8148 0fbc 01       		.uleb128 0x1
 8149 0fbd 50       		.byte	0x50
 8150 0fbe 9F       		.byte	0x9f
 8151 0fbf 00000000 		.4byte	0
 8152 0fc3 00000000 		.4byte	0
 8153              	.LLST113:
 8154 0fc7 00000000 		.4byte	.LVL206
 8155 0fcb 3A000000 		.4byte	.LVL212
 8156 0fcf 0100     		.2byte	0x1
 8157 0fd1 51       		.byte	0x51
 8158 0fd2 3A000000 		.4byte	.LVL212
 8159 0fd6 CC000000 		.4byte	.LFE33
 8160 0fda 0400     		.2byte	0x4
 8161 0fdc F3       		.byte	0xf3
 8162 0fdd 01       		.uleb128 0x1
 8163 0fde 51       		.byte	0x51
 8164 0fdf 9F       		.byte	0x9f
 8165 0fe0 00000000 		.4byte	0
 8166 0fe4 00000000 		.4byte	0
 8167              	.LLST114:
 8168 0fe8 00000000 		.4byte	.LVL206
 8169 0fec 12000000 		.4byte	.LVL207
 8170 0ff0 0100     		.2byte	0x1
 8171 0ff2 52       		.byte	0x52
 8172 0ff3 12000000 		.4byte	.LVL207
 8173 0ff7 16000000 		.4byte	.LVL208
 8174 0ffb 0400     		.2byte	0x4
 8175 0ffd F3       		.byte	0xf3
 8176 0ffe 01       		.uleb128 0x1
 8177 0fff 52       		.byte	0x52
 8178 1000 9F       		.byte	0x9f
 8179 1001 16000000 		.4byte	.LVL208
 8180 1005 18000000 		.4byte	.LVL209
 8181 1009 0100     		.2byte	0x1
 8182 100b 52       		.byte	0x52
 8183 100c 18000000 		.4byte	.LVL209
 8184 1010 CC000000 		.4byte	.LFE33
 8185 1014 0400     		.2byte	0x4
 8186 1016 F3       		.byte	0xf3
 8187 1017 01       		.uleb128 0x1
 8188 1018 52       		.byte	0x52
 8189 1019 9F       		.byte	0x9f
 8190 101a 00000000 		.4byte	0
 8191 101e 00000000 		.4byte	0
 8192              	.LLST115:
 8193 1022 00000000 		.4byte	.LVL206
 8194 1026 2C000000 		.4byte	.LVL210
 8195 102a 0100     		.2byte	0x1
 8196 102c 53       		.byte	0x53
 8197 102d 2C000000 		.4byte	.LVL210
 8198 1031 CC000000 		.4byte	.LFE33
 8199 1035 0400     		.2byte	0x4
 8200 1037 F3       		.byte	0xf3
 8201 1038 01       		.uleb128 0x1
 8202 1039 53       		.byte	0x53
 8203 103a 9F       		.byte	0x9f
 8204 103b 00000000 		.4byte	0
ARM GAS  C:\Users\rdn\AppData\Local\Temp\ccYH9vOY.s 			page 164


 8205 103f 00000000 		.4byte	0
 8206              	.LLST116:
 8207 1043 00000000 		.4byte	.LVL206
 8208 1047 C2000000 		.4byte	.LVL225
 8209 104b 0200     		.2byte	0x2
 8210 104d 91       		.byte	0x91
 8211 104e 00       		.sleb128 0
 8212 104f C2000000 		.4byte	.LVL225
 8213 1053 CC000000 		.4byte	.LFE33
 8214 1057 0200     		.2byte	0x2
 8215 1059 7D       		.byte	0x7d
 8216 105a 00       		.sleb128 0
 8217 105b 00000000 		.4byte	0
 8218 105f 00000000 		.4byte	0
 8219              	.LLST117:
 8220 1063 32000000 		.4byte	.LVL211
 8221 1067 3A000000 		.4byte	.LVL212
 8222 106b 0200     		.2byte	0x2
 8223 106d 30       		.byte	0x30
 8224 106e 9F       		.byte	0x9f
 8225 106f 3A000000 		.4byte	.LVL212
 8226 1073 C2000000 		.4byte	.LVL225
 8227 1077 0100     		.2byte	0x1
 8228 1079 5A       		.byte	0x5a
 8229 107a 00000000 		.4byte	0
 8230 107e 00000000 		.4byte	0
 8231              	.LLST118:
 8232 1082 40000000 		.4byte	.LVL213
 8233 1086 5E000000 		.4byte	.LVL216
 8234 108a 0100     		.2byte	0x1
 8235 108c 55       		.byte	0x55
 8236 108d 00000000 		.4byte	0
 8237 1091 00000000 		.4byte	0
 8238              	.LLST119:
 8239 1095 40000000 		.4byte	.LVL213
 8240 1099 5E000000 		.4byte	.LVL216
 8241 109d 0200     		.2byte	0x2
 8242 109f 31       		.byte	0x31
 8243 10a0 9F       		.byte	0x9f
 8244 10a1 00000000 		.4byte	0
 8245 10a5 00000000 		.4byte	0
 8246              	.LLST121:
 8247 10a9 40000000 		.4byte	.LVL213
 8248 10ad B4000000 		.4byte	.LVL222
 8249 10b1 0300     		.2byte	0x3
 8250 10b3 75       		.byte	0x75
 8251 10b4 1C       		.sleb128 28
 8252 10b5 9F       		.byte	0x9f
 8253 10b6 B8000000 		.4byte	.LVL223
 8254 10ba BC000000 		.4byte	.LVL224
 8255 10be 0300     		.2byte	0x3
 8256 10c0 75       		.byte	0x75
 8257 10c1 1C       		.sleb128 28
 8258 10c2 9F       		.byte	0x9f
 8259 10c3 00000000 		.4byte	0
 8260 10c7 00000000 		.4byte	0
 8261              	.LLST122:
ARM GAS  C:\Users\rdn\AppData\Local\Temp\ccYH9vOY.s 			page 165


 8262 10cb 54000000 		.4byte	.LVL214
 8263 10cf 56000000 		.4byte	.LVL215
 8264 10d3 0100     		.2byte	0x1
 8265 10d5 50       		.byte	0x50
 8266 10d6 00000000 		.4byte	0
 8267 10da 00000000 		.4byte	0
 8268              	.LLST123:
 8269 10de 94000000 		.4byte	.LVL219
 8270 10e2 B4000000 		.4byte	.LVL222
 8271 10e6 0100     		.2byte	0x1
 8272 10e8 57       		.byte	0x57
 8273 10e9 00000000 		.4byte	0
 8274 10ed 00000000 		.4byte	0
 8275              		.section	.debug_aranges,"",%progbits
 8276 0000 54000000 		.4byte	0x54
 8277 0004 0200     		.2byte	0x2
 8278 0006 00000000 		.4byte	.Ldebug_info0
 8279 000a 04       		.byte	0x4
 8280 000b 00       		.byte	0
 8281 000c 0000     		.2byte	0
 8282 000e 0000     		.2byte	0
 8283 0010 00000000 		.4byte	.LFB26
 8284 0014 34000000 		.4byte	.LFE26-.LFB26
 8285 0018 00000000 		.4byte	.LFB11
 8286 001c 38000000 		.4byte	.LFE11-.LFB11
 8287 0020 00000000 		.4byte	.LFB12
 8288 0024 8E000000 		.4byte	.LFE12-.LFB12
 8289 0028 00000000 		.4byte	.LFB29
 8290 002c 28060000 		.4byte	.LFE29-.LFB29
 8291 0030 00000000 		.4byte	.LFB30
 8292 0034 FC000000 		.4byte	.LFE30-.LFB30
 8293 0038 00000000 		.4byte	.LFB31
 8294 003c 78000000 		.4byte	.LFE31-.LFB31
 8295 0040 00000000 		.4byte	.LFB32
 8296 0044 98000000 		.4byte	.LFE32-.LFB32
 8297 0048 00000000 		.4byte	.LFB33
 8298 004c CC000000 		.4byte	.LFE33-.LFB33
 8299 0050 00000000 		.4byte	0
 8300 0054 00000000 		.4byte	0
 8301              		.section	.debug_ranges,"",%progbits
 8302              	.Ldebug_ranges0:
 8303 0000 02000000 		.4byte	.LBB23
 8304 0004 04000000 		.4byte	.LBE23
 8305 0008 0A000000 		.4byte	.LBB24
 8306 000c 2A000000 		.4byte	.LBE24
 8307 0010 00000000 		.4byte	0
 8308 0014 00000000 		.4byte	0
 8309 0018 3E000000 		.4byte	.LBB70
 8310 001c 42000000 		.4byte	.LBE70
 8311 0020 48000000 		.4byte	.LBB101
 8312 0024 4C000000 		.4byte	.LBE101
 8313 0028 4E000000 		.4byte	.LBB102
 8314 002c A0030000 		.4byte	.LBE102
 8315 0030 00000000 		.4byte	0
 8316 0034 00000000 		.4byte	0
 8317 0038 3A010000 		.4byte	.LBB72
 8318 003c 28020000 		.4byte	.LBE72
ARM GAS  C:\Users\rdn\AppData\Local\Temp\ccYH9vOY.s 			page 166


 8319 0040 3C020000 		.4byte	.LBB97
 8320 0044 A4020000 		.4byte	.LBE97
 8321 0048 00000000 		.4byte	0
 8322 004c 00000000 		.4byte	0
 8323 0050 3A010000 		.4byte	.LBB73
 8324 0054 1A020000 		.4byte	.LBE73
 8325 0058 3C020000 		.4byte	.LBB86
 8326 005c A4020000 		.4byte	.LBE86
 8327 0060 00000000 		.4byte	0
 8328 0064 00000000 		.4byte	0
 8329 0068 3A010000 		.4byte	.LBB74
 8330 006c 3C010000 		.4byte	.LBE74
 8331 0070 4C010000 		.4byte	.LBB81
 8332 0074 B0010000 		.4byte	.LBE81
 8333 0078 00000000 		.4byte	0
 8334 007c 00000000 		.4byte	0
 8335 0080 3A010000 		.4byte	.LBB75
 8336 0084 3C010000 		.4byte	.LBE75
 8337 0088 5C010000 		.4byte	.LBB80
 8338 008c A8010000 		.4byte	.LBE80
 8339 0090 00000000 		.4byte	0
 8340 0094 00000000 		.4byte	0
 8341 0098 6A010000 		.4byte	.LBB76
 8342 009c 7A010000 		.4byte	.LBE76
 8343 00a0 7C010000 		.4byte	.LBB79
 8344 00a4 8E010000 		.4byte	.LBE79
 8345 00a8 00000000 		.4byte	0
 8346 00ac 00000000 		.4byte	0
 8347 00b0 28020000 		.4byte	.LBB87
 8348 00b4 3C020000 		.4byte	.LBE87
 8349 00b8 A4020000 		.4byte	.LBB98
 8350 00bc A0030000 		.4byte	.LBE98
 8351 00c0 00000000 		.4byte	0
 8352 00c4 00000000 		.4byte	0
 8353 00c8 28020000 		.4byte	.LBB88
 8354 00cc 3C020000 		.4byte	.LBE88
 8355 00d0 A4020000 		.4byte	.LBB95
 8356 00d4 90030000 		.4byte	.LBE95
 8357 00d8 9A030000 		.4byte	.LBB96
 8358 00dc 9E030000 		.4byte	.LBE96
 8359 00e0 00000000 		.4byte	0
 8360 00e4 00000000 		.4byte	0
 8361 00e8 E8020000 		.4byte	.LBB91
 8362 00ec EC020000 		.4byte	.LBE91
 8363 00f0 F8020000 		.4byte	.LBB92
 8364 00f4 28030000 		.4byte	.LBE92
 8365 00f8 00000000 		.4byte	0
 8366 00fc 00000000 		.4byte	0
 8367 0100 A0030000 		.4byte	.LBB104
 8368 0104 C4030000 		.4byte	.LBE104
 8369 0108 00040000 		.4byte	.LBB112
 8370 010c 24040000 		.4byte	.LBE112
 8371 0110 66040000 		.4byte	.LBB116
 8372 0114 F0040000 		.4byte	.LBE116
 8373 0118 00000000 		.4byte	0
 8374 011c 00000000 		.4byte	0
 8375 0120 80040000 		.4byte	.LBB107
ARM GAS  C:\Users\rdn\AppData\Local\Temp\ccYH9vOY.s 			page 167


 8376 0124 8C040000 		.4byte	.LBE107
 8377 0128 8E040000 		.4byte	.LBB109
 8378 012c EC040000 		.4byte	.LBE109
 8379 0130 00000000 		.4byte	0
 8380 0134 00000000 		.4byte	0
 8381 0138 F6040000 		.4byte	.LBB119
 8382 013c FE040000 		.4byte	.LBE119
 8383 0140 02050000 		.4byte	.LBB123
 8384 0144 68050000 		.4byte	.LBE123
 8385 0148 00000000 		.4byte	0
 8386 014c 00000000 		.4byte	0
 8387 0150 F6040000 		.4byte	.LBB120
 8388 0154 FE040000 		.4byte	.LBE120
 8389 0158 02050000 		.4byte	.LBB122
 8390 015c 64050000 		.4byte	.LBE122
 8391 0160 00000000 		.4byte	0
 8392 0164 00000000 		.4byte	0
 8393 0168 82050000 		.4byte	.LBB124
 8394 016c E0050000 		.4byte	.LBE124
 8395 0170 E6050000 		.4byte	.LBB137
 8396 0174 28060000 		.4byte	.LBE137
 8397 0178 00000000 		.4byte	0
 8398 017c 00000000 		.4byte	0
 8399 0180 96050000 		.4byte	.LBB126
 8400 0184 98050000 		.4byte	.LBE126
 8401 0188 9A050000 		.4byte	.LBB129
 8402 018c A0050000 		.4byte	.LBE129
 8403 0190 00000000 		.4byte	0
 8404 0194 00000000 		.4byte	0
 8405 0198 BC050000 		.4byte	.LBB130
 8406 019c E0050000 		.4byte	.LBE130
 8407 01a0 E6050000 		.4byte	.LBB135
 8408 01a4 28060000 		.4byte	.LBE135
 8409 01a8 00000000 		.4byte	0
 8410 01ac 00000000 		.4byte	0
 8411 01b0 E6050000 		.4byte	.LBB132
 8412 01b4 EA050000 		.4byte	.LBE132
 8413 01b8 F0050000 		.4byte	.LBB134
 8414 01bc 28060000 		.4byte	.LBE134
 8415 01c0 00000000 		.4byte	0
 8416 01c4 00000000 		.4byte	0
 8417 01c8 4A000000 		.4byte	.LBB149
 8418 01cc A4000000 		.4byte	.LBE149
 8419 01d0 AA000000 		.4byte	.LBB164
 8420 01d4 FC000000 		.4byte	.LBE164
 8421 01d8 00000000 		.4byte	0
 8422 01dc 00000000 		.4byte	0
 8423 01e0 5C000000 		.4byte	.LBB151
 8424 01e4 62000000 		.4byte	.LBE151
 8425 01e8 68000000 		.4byte	.LBB154
 8426 01ec 6A000000 		.4byte	.LBE154
 8427 01f0 00000000 		.4byte	0
 8428 01f4 00000000 		.4byte	0
 8429 01f8 86000000 		.4byte	.LBB155
 8430 01fc A4000000 		.4byte	.LBE155
 8431 0200 AA000000 		.4byte	.LBB162
 8432 0204 FC000000 		.4byte	.LBE162
ARM GAS  C:\Users\rdn\AppData\Local\Temp\ccYH9vOY.s 			page 168


 8433 0208 00000000 		.4byte	0
 8434 020c 00000000 		.4byte	0
 8435 0210 86000000 		.4byte	.LBB156
 8436 0214 8A000000 		.4byte	.LBE156
 8437 0218 EC000000 		.4byte	.LBB161
 8438 021c FC000000 		.4byte	.LBE161
 8439 0220 00000000 		.4byte	0
 8440 0224 00000000 		.4byte	0
 8441 0228 AA000000 		.4byte	.LBB158
 8442 022c CA000000 		.4byte	.LBE158
 8443 0230 D0000000 		.4byte	.LBB160
 8444 0234 EA000000 		.4byte	.LBE160
 8445 0238 00000000 		.4byte	0
 8446 023c 00000000 		.4byte	0
 8447 0240 00000000 		.4byte	.LBB165
 8448 0244 02000000 		.4byte	.LBE165
 8449 0248 06000000 		.4byte	.LBB171
 8450 024c 14000000 		.4byte	.LBE171
 8451 0250 1C000000 		.4byte	.LBB172
 8452 0254 6A000000 		.4byte	.LBE172
 8453 0258 00000000 		.4byte	0
 8454 025c 00000000 		.4byte	0
 8455 0260 0A000000 		.4byte	.LBB166
 8456 0264 12000000 		.4byte	.LBE166
 8457 0268 20000000 		.4byte	.LBB170
 8458 026c 64000000 		.4byte	.LBE170
 8459 0270 00000000 		.4byte	0
 8460 0274 00000000 		.4byte	0
 8461 0278 0E000000 		.4byte	.LBB167
 8462 027c 12000000 		.4byte	.LBE167
 8463 0280 3A000000 		.4byte	.LBB168
 8464 0284 3C000000 		.4byte	.LBE168
 8465 0288 40000000 		.4byte	.LBB169
 8466 028c 5C000000 		.4byte	.LBE169
 8467 0290 00000000 		.4byte	0
 8468 0294 00000000 		.4byte	0
 8469 0298 1A000000 		.4byte	.LBB179
 8470 029c 48000000 		.4byte	.LBE179
 8471 02a0 52000000 		.4byte	.LBB188
 8472 02a4 8A000000 		.4byte	.LBE188
 8473 02a8 00000000 		.4byte	0
 8474 02ac 00000000 		.4byte	0
 8475 02b0 1E000000 		.4byte	.LBB180
 8476 02b4 20000000 		.4byte	.LBE180
 8477 02b8 22000000 		.4byte	.LBB184
 8478 02bc 26000000 		.4byte	.LBE184
 8479 02c0 2C000000 		.4byte	.LBB185
 8480 02c4 44000000 		.4byte	.LBE185
 8481 02c8 00000000 		.4byte	0
 8482 02cc 00000000 		.4byte	0
 8483 02d0 66000000 		.4byte	.LBB186
 8484 02d4 68000000 		.4byte	.LBE186
 8485 02d8 6A000000 		.4byte	.LBB187
 8486 02dc 8A000000 		.4byte	.LBE187
 8487 02e0 00000000 		.4byte	0
 8488 02e4 00000000 		.4byte	0
 8489 02e8 36000000 		.4byte	.LBB198
ARM GAS  C:\Users\rdn\AppData\Local\Temp\ccYH9vOY.s 			page 169


 8490 02ec B4000000 		.4byte	.LBE198
 8491 02f0 B6000000 		.4byte	.LBB205
 8492 02f4 BC000000 		.4byte	.LBE205
 8493 02f8 00000000 		.4byte	0
 8494 02fc 00000000 		.4byte	0
 8495 0300 00000000 		.4byte	.LFB26
 8496 0304 34000000 		.4byte	.LFE26
 8497 0308 00000000 		.4byte	.LFB11
 8498 030c 38000000 		.4byte	.LFE11
 8499 0310 00000000 		.4byte	.LFB12
 8500 0314 8E000000 		.4byte	.LFE12
 8501 0318 00000000 		.4byte	.LFB29
 8502 031c 28060000 		.4byte	.LFE29
 8503 0320 00000000 		.4byte	.LFB30
 8504 0324 FC000000 		.4byte	.LFE30
 8505 0328 00000000 		.4byte	.LFB31
 8506 032c 78000000 		.4byte	.LFE31
 8507 0330 00000000 		.4byte	.LFB32
 8508 0334 98000000 		.4byte	.LFE32
 8509 0338 00000000 		.4byte	.LFB33
 8510 033c CC000000 		.4byte	.LFE33
 8511 0340 00000000 		.4byte	0
 8512 0344 00000000 		.4byte	0
 8513              		.section	.debug_line,"",%progbits
 8514              	.Ldebug_line0:
 8515 0000 D2040000 		.section	.debug_str,"MS",%progbits,1
 8515      02007A01 
 8515      00000201 
 8515      FB0E0D00 
 8515      01010101 
 8516              	.LASF101:
 8517 0000 7375625F 		.ascii	"sub_7m5_fb\000"
 8517      376D355F 
 8517      666200
 8518              	.LASF95:
 8519 000b 7375625F 		.ascii	"sub_5m_swb\000"
 8519      356D5F73 
 8519      776200
 8520              	.LASF22:
 8521 0016 4C43335F 		.ascii	"LC3_SRATE_24K\000"
 8521      53524154 
 8521      455F3234 
 8521      4B00
 8522              	.LASF90:
 8523 0024 7375625F 		.ascii	"sub_2m5_swb\000"
 8523      326D355F 
 8523      73776200 
 8524              	.LASF40:
 8525 0030 4C43335F 		.ascii	"LC3_BANDWIDTH_FB_HR\000"
 8525      42414E44 
 8525      57494454 
 8525      485F4642 
 8525      5F485200 
 8526              	.LASF36:
 8527 0044 4C43335F 		.ascii	"LC3_BANDWIDTH_WB\000"
 8527      42414E44 
 8527      57494454 
ARM GAS  C:\Users\rdn\AppData\Local\Temp\ccYH9vOY.s 			page 170


 8527      485F5742 
 8527      00
 8528              	.LASF88:
 8529 0055 7375625F 		.ascii	"sub_2m5_wb\000"
 8529      326D355F 
 8529      776200
 8530              	.LASF68:
 8531 0060 72635F6F 		.ascii	"rc_order\000"
 8531      72646572 
 8531      00
 8532              	.LASF56:
 8533 0069 6C63335F 		.ascii	"lc3_bits_buffer\000"
 8533      62697473 
 8533      5F627566 
 8533      66657200 
 8534              	.LASF63:
 8535 0079 62756666 		.ascii	"buffer\000"
 8535      657200
 8536              	.LASF127:
 8537 0080 6C63335F 		.ascii	"lc3_ne_2m5\000"
 8537      6E655F32 
 8537      6D3500
 8538              	.LASF121:
 8539 008b 6E626974 		.ascii	"nbits_2048\000"
 8539      735F3230 
 8539      343800
 8540              	.LASF10:
 8541 0096 756E7369 		.ascii	"unsigned int\000"
 8541      676E6564 
 8541      20696E74 
 8541      00
 8542              	.LASF24:
 8543 00a3 4C43335F 		.ascii	"LC3_SRATE_48K\000"
 8543      53524154 
 8543      455F3438 
 8543      4B00
 8544              	.LASF107:
 8545 00b1 6C61675F 		.ascii	"lag_window\000"
 8545      77696E64 
 8545      6F7700
 8546              	.LASF103:
 8547 00bc 7375625F 		.ascii	"sub_10m_wb\000"
 8547      31306D5F 
 8547      776200
 8548              	.LASF54:
 8549 00c7 63617272 		.ascii	"carry_count\000"
 8549      795F636F 
 8549      756E7400 
 8550              	.LASF108:
 8551 00d3 6E737562 		.ascii	"nsubdivisions\000"
 8551      64697669 
 8551      73696F6E 
 8551      7300
 8552              	.LASF74:
 8553 00e1 6C63335F 		.ascii	"lc3_get_bits\000"
 8553      6765745F 
 8553      62697473 
ARM GAS  C:\Users\rdn\AppData\Local\Temp\ccYH9vOY.s 			page 171


 8553      00
 8554              	.LASF69:
 8555 00ee 6C63335F 		.ascii	"lc3_tns_data_t\000"
 8555      746E735F 
 8555      64617461 
 8555      5F7400
 8556              	.LASF98:
 8557 00fd 7375625F 		.ascii	"sub_7m5_wb\000"
 8557      376D355F 
 8557      776200
 8558              	.LASF55:
 8559 0108 6572726F 		.ascii	"error\000"
 8559      7200
 8560              	.LASF61:
 8561 010e 6D6F6465 		.ascii	"mode\000"
 8561      00
 8562              	.LASF18:
 8563 0113 6C63335F 		.ascii	"lc3_dt\000"
 8563      647400
 8564              	.LASF25:
 8565 011a 4C43335F 		.ascii	"LC3_SRATE_48K_HR\000"
 8565      53524154 
 8565      455F3438 
 8565      4B5F4852 
 8565      00
 8566              	.LASF128:
 8567 012b 6C63335F 		.ascii	"lc3_ns_4m\000"
 8567      6E735F34 
 8567      6D00
 8568              	.LASF134:
 8569 0135 6C63335F 		.ascii	"lc3_ac_write_renorm\000"
 8569      61635F77 
 8569      72697465 
 8569      5F72656E 
 8569      6F726D00 
 8570              	.LASF43:
 8571 0149 6C63335F 		.ascii	"lc3_bits_mode\000"
 8571      62697473 
 8571      5F6D6F64 
 8571      6500
 8572              	.LASF109:
 8573 0157 70726564 		.ascii	"pred_gain\000"
 8573      5F676169 
 8573      6E00
 8574              	.LASF126:
 8575 0161 6C63335F 		.ascii	"lc3_ns_2m5\000"
 8575      6E735F32 
 8575      6D3500
 8576              	.LASF65:
 8577 016c 6C63335F 		.ascii	"lc3_tns_data\000"
 8577      746E735F 
 8577      64617461 
 8577      00
 8578              	.LASF14:
 8579 0179 4C43335F 		.ascii	"LC3_DT_5M\000"
 8579      44545F35 
 8579      4D00
ARM GAS  C:\Users\rdn\AppData\Local\Temp\ccYH9vOY.s 			page 172


 8580              	.LASF71:
 8581 0183 7265736F 		.ascii	"resolve_lpc_weighting\000"
 8581      6C76655F 
 8581      6C70635F 
 8581      77656967 
 8581      6874696E 
 8582              	.LASF30:
 8583 0199 666C6F61 		.ascii	"float\000"
 8583      7400
 8584              	.LASF53:
 8585 019f 63617272 		.ascii	"carry\000"
 8585      7900
 8586              	.LASF9:
 8587 01a5 6C6F6E67 		.ascii	"long long unsigned int\000"
 8587      206C6F6E 
 8587      6720756E 
 8587      7369676E 
 8587      65642069 
 8588              	.LASF118:
 8589 01bc 6C63335F 		.ascii	"lc3_tns_analyze\000"
 8589      746E735F 
 8589      616E616C 
 8589      797A6500 
 8590              	.LASF4:
 8591 01cc 5F5F7569 		.ascii	"__uint16_t\000"
 8591      6E743136 
 8591      5F7400
 8592              	.LASF85:
 8593 01d7 6D61786F 		.ascii	"maxorder\000"
 8593      72646572 
 8593      00
 8594              	.LASF23:
 8595 01e0 4C43335F 		.ascii	"LC3_SRATE_32K\000"
 8595      53524154 
 8595      455F3332 
 8595      4B00
 8596              	.LASF17:
 8597 01ee 4C43335F 		.ascii	"LC3_NUM_DT\000"
 8597      4E554D5F 
 8597      445400
 8598              	.LASF83:
 8599 01f9 6C63335F 		.ascii	"lc3_put_bits\000"
 8599      7075745F 
 8599      62697473 
 8599      00
 8600              	.LASF112:
 8601 0206 715F7468 		.ascii	"q_thr\000"
 8601      7200
 8602              	.LASF99:
 8603 020c 7375625F 		.ascii	"sub_7m5_sswb\000"
 8603      376D355F 
 8603      73737762 
 8603      00
 8604              	.LASF137:
 8605 0219 6C63335F 		.ascii	"lc3_get_bits_generic\000"
 8605      6765745F 
 8605      62697473 
ARM GAS  C:\Users\rdn\AppData\Local\Temp\ccYH9vOY.s 			page 173


 8605      5F67656E 
 8605      65726963 
 8606              	.LASF28:
 8607 022e 5F426F6F 		.ascii	"_Bool\000"
 8607      6C00
 8608              	.LASF77:
 8609 0234 715F696E 		.ascii	"q_inv\000"
 8609      7600
 8610              	.LASF84:
 8611 023a 636F6D70 		.ascii	"compute_lpc_coeffs\000"
 8611      7574655F 
 8611      6C70635F 
 8611      636F6566 
 8611      667300
 8612              	.LASF64:
 8613 024d 6C63335F 		.ascii	"lc3_bits_t\000"
 8613      62697473 
 8613      5F7400
 8614              	.LASF133:
 8615 0258 6C63335F 		.ascii	"lc3_tns_coeffs_bits\000"
 8615      746E735F 
 8615      636F6566 
 8615      66735F62 
 8615      69747300 
 8616              	.LASF92:
 8617 026c 7375625F 		.ascii	"sub_5m_nb\000"
 8617      356D5F6E 
 8617      6200
 8618              	.LASF81:
 8619 0276 6D6F6465 		.ascii	"model\000"
 8619      6C00
 8620              	.LASF16:
 8621 027c 4C43335F 		.ascii	"LC3_DT_10M\000"
 8621      44545F31 
 8621      304D00
 8622              	.LASF62:
 8623 0287 61636375 		.ascii	"accu\000"
 8623      00
 8624              	.LASF32:
 8625 028c 63686172 		.ascii	"char\000"
 8625      00
 8626              	.LASF104:
 8627 0291 7375625F 		.ascii	"sub_10m_sswb\000"
 8627      31306D5F 
 8627      73737762 
 8627      00
 8628              	.LASF76:
 8629 029e 6F726465 		.ascii	"order\000"
 8629      7200
 8630              	.LASF49:
 8631 02a4 6C63335F 		.ascii	"lc3_bits_accu\000"
 8631      62697473 
 8631      5F616363 
 8631      7500
 8632              	.LASF116:
 8633 02b2 64617461 		.ascii	"data\000"
 8633      00
ARM GAS  C:\Users\rdn\AppData\Local\Temp\ccYH9vOY.s 			page 174


 8634              	.LASF140:
 8635 02b7 433A5C55 		.ascii	"C:\\Users\\rdn\\Documents\\PSoC Creator\\SEES\\ble_"
 8635      73657273 
 8635      5C72646E 
 8635      5C446F63 
 8635      756D656E 
 8636 02e4 74657374 		.ascii	"test.cydsn\000"
 8636      2E637964 
 8636      736E00
 8637              	.LASF50:
 8638 02ef 6E6F7665 		.ascii	"nover\000"
 8638      7200
 8639              	.LASF35:
 8640 02f5 4C43335F 		.ascii	"LC3_BANDWIDTH_NB\000"
 8640      42414E44 
 8640      57494454 
 8640      485F4E42 
 8640      00
 8641              	.LASF87:
 8642 0306 7375625F 		.ascii	"sub_2m5_nb\000"
 8642      326D355F 
 8642      6E6200
 8643              	.LASF11:
 8644 0311 75696E74 		.ascii	"uint8_t\000"
 8644      385F7400 
 8645              	.LASF86:
 8646 0319 6761696E 		.ascii	"gain\000"
 8646      00
 8647              	.LASF131:
 8648 031e 6C63335F 		.ascii	"lc3_tns_order_bits\000"
 8648      746E735F 
 8648      6F726465 
 8648      725F6269 
 8648      747300
 8649              	.LASF59:
 8650 0331 705F6277 		.ascii	"p_bw\000"
 8650      00
 8651              	.LASF73:
 8652 0336 62697473 		.ascii	"bits\000"
 8652      00
 8653              	.LASF115:
 8654 033b 6E6E5F66 		.ascii	"nn_flag\000"
 8654      6C616700 
 8655              	.LASF8:
 8656 0343 6C6F6E67 		.ascii	"long long int\000"
 8656      206C6F6E 
 8656      6720696E 
 8656      7400
 8657              	.LASF102:
 8658 0351 7375625F 		.ascii	"sub_10m_nb\000"
 8658      31306D5F 
 8658      6E6200
 8659              	.LASF110:
 8660 035c 67616D6D 		.ascii	"gamma\000"
 8660      6100
 8661              	.LASF47:
 8662 0362 6C63335F 		.ascii	"lc3_ac_symbol\000"
ARM GAS  C:\Users\rdn\AppData\Local\Temp\ccYH9vOY.s 			page 175


 8662      61635F73 
 8662      796D626F 
 8662      6C00
 8663              	.LASF94:
 8664 0370 7375625F 		.ascii	"sub_5m_sswb\000"
 8664      356D5F73 
 8664      73776200 
 8665              	.LASF123:
 8666 037c 6C63335F 		.ascii	"lc3_get_bit\000"
 8666      6765745F 
 8666      62697400 
 8667              	.LASF114:
 8668 0388 666F7277 		.ascii	"forward_filtering\000"
 8668      6172645F 
 8668      66696C74 
 8668      6572696E 
 8668      6700
 8669              	.LASF120:
 8670 039a 6E626974 		.ascii	"nbits\000"
 8670      7300
 8671              	.LASF38:
 8672 03a0 4C43335F 		.ascii	"LC3_BANDWIDTH_SWB\000"
 8672      42414E44 
 8672      57494454 
 8672      485F5357 
 8672      4200
 8673              	.LASF97:
 8674 03b2 7375625F 		.ascii	"sub_7m5_nb\000"
 8674      376D355F 
 8674      6E6200
 8675              	.LASF142:
 8676 03bd 6D656D73 		.ascii	"memset\000"
 8676      657400
 8677              	.LASF72:
 8678 03c4 6E627974 		.ascii	"nbytes\000"
 8678      657300
 8679              	.LASF130:
 8680 03cb 6C63335F 		.ascii	"lc3_tns_order_models\000"
 8680      746E735F 
 8680      6F726465 
 8680      725F6D6F 
 8680      64656C73 
 8681              	.LASF89:
 8682 03e0 7375625F 		.ascii	"sub_2m5_sswb\000"
 8682      326D355F 
 8682      73737762 
 8682      00
 8683              	.LASF46:
 8684 03ed 72616E67 		.ascii	"range\000"
 8684      6500
 8685              	.LASF135:
 8686 03f3 6C63335F 		.ascii	"lc3_ac_read_renorm\000"
 8686      61635F72 
 8686      6561645F 
 8686      72656E6F 
 8686      726D00
 8687              	.LASF80:
ARM GAS  C:\Users\rdn\AppData\Local\Temp\ccYH9vOY.s 			page 176


 8688 0406 6C63335F 		.ascii	"lc3_put_symbol\000"
 8688      7075745F 
 8688      73796D62 
 8688      6F6C00
 8689              	.LASF136:
 8690 0415 6C63335F 		.ascii	"lc3_put_bits_generic\000"
 8690      7075745F 
 8690      62697473 
 8690      5F67656E 
 8690      65726963 
 8691              	.LASF96:
 8692 042a 7375625F 		.ascii	"sub_5m_fb\000"
 8692      356D5F66 
 8692      6200
 8693              	.LASF41:
 8694 0434 4C43335F 		.ascii	"LC3_BANDWIDTH_UB_HR\000"
 8694      42414E44 
 8694      57494454 
 8694      485F5542 
 8694      5F485200 
 8695              	.LASF52:
 8696 0448 63616368 		.ascii	"cache\000"
 8696      6500
 8697              	.LASF60:
 8698 044e 6C63335F 		.ascii	"lc3_bits\000"
 8698      62697473 
 8698      00
 8699              	.LASF117:
 8700 0457 696E7665 		.ascii	"inverse_filtering\000"
 8700      7273655F 
 8700      66696C74 
 8700      6572696E 
 8700      6700
 8701              	.LASF31:
 8702 0469 6C6F6E67 		.ascii	"long double\000"
 8702      20646F75 
 8702      626C6500 
 8703              	.LASF12:
 8704 0475 75696E74 		.ascii	"uint16_t\000"
 8704      31365F74 
 8704      00
 8705              	.LASF27:
 8706 047e 4C43335F 		.ascii	"LC3_NUM_SRATE\000"
 8706      4E554D5F 
 8706      53524154 
 8706      4500
 8707              	.LASF82:
 8708 048c 73796D62 		.ascii	"symbols\000"
 8708      6F6C7300 
 8709              	.LASF15:
 8710 0494 4C43335F 		.ascii	"LC3_DT_7M5\000"
 8710      44545F37 
 8710      4D3500
 8711              	.LASF132:
 8712 049f 6C63335F 		.ascii	"lc3_tns_coeffs_models\000"
 8712      746E735F 
 8712      636F6566 
ARM GAS  C:\Users\rdn\AppData\Local\Temp\ccYH9vOY.s 			page 177


 8712      66735F6D 
 8712      6F64656C 
 8713              	.LASF2:
 8714 04b5 73686F72 		.ascii	"short int\000"
 8714      7420696E 
 8714      7400
 8715              	.LASF13:
 8716 04bf 4C43335F 		.ascii	"LC3_DT_2M5\000"
 8716      44545F32 
 8716      4D3500
 8717              	.LASF6:
 8718 04ca 6C6F6E67 		.ascii	"long int\000"
 8718      20696E74 
 8718      00
 8719              	.LASF93:
 8720 04d3 7375625F 		.ascii	"sub_5m_wb\000"
 8720      356D5F77 
 8720      6200
 8721              	.LASF138:
 8722 04dd 474E5520 		.ascii	"GNU C11 5.4.1 20160609 (release) [ARM/embedded-5-br"
 8722      43313120 
 8722      352E342E 
 8722      31203230 
 8722      31363036 
 8723 0510 616E6368 		.ascii	"anch revision 237715] -mcpu=cortex-m4 -mfloat-abi=s"
 8723      20726576 
 8723      6973696F 
 8723      6E203233 
 8723      37373135 
 8724 0543 6F667466 		.ascii	"oftfp -mfpu=fpv4-sp-d16 -mthumb -g -Os -ffunction-s"
 8724      70202D6D 
 8724      6670753D 
 8724      66707634 
 8724      2D73702D 
 8725 0576 65637469 		.ascii	"ections -ffat-lto-objects\000"
 8725      6F6E7320 
 8725      2D666661 
 8725      742D6C74 
 8725      6F2D6F62 
 8726              	.LASF48:
 8727 0590 6C63335F 		.ascii	"lc3_ac_model\000"
 8727      61635F6D 
 8727      6F64656C 
 8727      00
 8728              	.LASF125:
 8729 059d 6C63335F 		.ascii	"lc3_tns_get_data\000"
 8729      746E735F 
 8729      6765745F 
 8729      64617461 
 8729      00
 8730              	.LASF45:
 8731 05ae 4C43335F 		.ascii	"LC3_BITS_MODE_WRITE\000"
 8731      42495453 
 8731      5F4D4F44 
 8731      455F5752 
 8731      49544500 
 8732              	.LASF100:
ARM GAS  C:\Users\rdn\AppData\Local\Temp\ccYH9vOY.s 			page 178


 8733 05c2 7375625F 		.ascii	"sub_7m5_swb\000"
 8733      376D355F 
 8733      73776200 
 8734              	.LASF119:
 8735 05ce 6C63335F 		.ascii	"lc3_tns_synthesize\000"
 8735      746E735F 
 8735      73796E74 
 8735      68657369 
 8735      7A6500
 8736              	.LASF3:
 8737 05e1 5F5F7569 		.ascii	"__uint8_t\000"
 8737      6E74385F 
 8737      7400
 8738              	.LASF57:
 8739 05eb 73746172 		.ascii	"start\000"
 8739      7400
 8740              	.LASF21:
 8741 05f1 4C43335F 		.ascii	"LC3_SRATE_16K\000"
 8741      53524154 
 8741      455F3136 
 8741      4B00
 8742              	.LASF66:
 8743 05ff 6E66696C 		.ascii	"nfilters\000"
 8743      74657273 
 8743      00
 8744              	.LASF67:
 8745 0608 6C70635F 		.ascii	"lpc_weighting\000"
 8745      77656967 
 8745      6874696E 
 8745      6700
 8746              	.LASF37:
 8747 0616 4C43335F 		.ascii	"LC3_BANDWIDTH_SSWB\000"
 8747      42414E44 
 8747      57494454 
 8747      485F5353 
 8747      574200
 8748              	.LASF29:
 8749 0629 73697A65 		.ascii	"sizetype\000"
 8749      74797065 
 8749      00
 8750              	.LASF70:
 8751 0632 6C63335F 		.ascii	"lc3_ne\000"
 8751      6E6500
 8752              	.LASF7:
 8753 0639 6C6F6E67 		.ascii	"long unsigned int\000"
 8753      20756E73 
 8753      69676E65 
 8753      6420696E 
 8753      7400
 8754              	.LASF19:
 8755 064b 6C63335F 		.ascii	"lc3_srate\000"
 8755      73726174 
 8755      6500
 8756              	.LASF1:
 8757 0655 756E7369 		.ascii	"unsigned char\000"
 8757      676E6564 
 8757      20636861 
ARM GAS  C:\Users\rdn\AppData\Local\Temp\ccYH9vOY.s 			page 179


 8757      7200
 8758              	.LASF78:
 8759 0663 72635F6D 		.ascii	"rc_m\000"
 8759      00
 8760              	.LASF75:
 8761 0668 72635F71 		.ascii	"rc_q\000"
 8761      00
 8762              	.LASF139:
 8763 066d 2E2E5C2E 		.ascii	"..\\..\\..\\liblc3\\src\\tns.c\000"
 8763      2E5C2E2E 
 8763      5C6C6962 
 8763      6C63335C 
 8763      7372635C 
 8764              	.LASF34:
 8765 0687 6C63335F 		.ascii	"lc3_bandwidth\000"
 8765      62616E64 
 8765      77696474 
 8765      6800
 8766              	.LASF79:
 8767 0695 756E7175 		.ascii	"unquantize_rc\000"
 8767      616E7469 
 8767      7A655F72 
 8767      6300
 8768              	.LASF44:
 8769 06a3 4C43335F 		.ascii	"LC3_BITS_MODE_READ\000"
 8769      42495453 
 8769      5F4D4F44 
 8769      455F5245 
 8769      414400
 8770              	.LASF20:
 8771 06b6 4C43335F 		.ascii	"LC3_SRATE_8K\000"
 8771      53524154 
 8771      455F384B 
 8771      00
 8772              	.LASF0:
 8773 06c3 7369676E 		.ascii	"signed char\000"
 8773      65642063 
 8773      68617200 
 8774              	.LASF113:
 8775 06cf 6C70635F 		.ascii	"lpc_reflection\000"
 8775      7265666C 
 8775      65637469 
 8775      6F6E00
 8776              	.LASF5:
 8777 06de 73686F72 		.ascii	"short unsigned int\000"
 8777      7420756E 
 8777      7369676E 
 8777      65642069 
 8777      6E7400
 8778              	.LASF122:
 8779 06f1 6C63335F 		.ascii	"lc3_tns_put_data\000"
 8779      746E735F 
 8779      7075745F 
 8779      64617461 
 8779      00
 8780              	.LASF39:
 8781 0702 4C43335F 		.ascii	"LC3_BANDWIDTH_FB\000"
ARM GAS  C:\Users\rdn\AppData\Local\Temp\ccYH9vOY.s 			page 180


 8781      42414E44 
 8781      57494454 
 8781      485F4642 
 8781      00
 8782              	.LASF91:
 8783 0713 7375625F 		.ascii	"sub_2m5_fb\000"
 8783      326D355F 
 8783      666200
 8784              	.LASF42:
 8785 071e 4C43335F 		.ascii	"LC3_NUM_BANDWIDTH\000"
 8785      4E554D5F 
 8785      42414E44 
 8785      57494454 
 8785      4800
 8786              	.LASF141:
 8787 0730 6C63335F 		.ascii	"lc3_get_symbol\000"
 8787      6765745F 
 8787      73796D62 
 8787      6F6C00
 8788              	.LASF33:
 8789 073f 646F7562 		.ascii	"double\000"
 8789      6C6500
 8790              	.LASF26:
 8791 0746 4C43335F 		.ascii	"LC3_SRATE_96K_HR\000"
 8791      53524154 
 8791      455F3936 
 8791      4B5F4852 
 8791      00
 8792              	.LASF111:
 8793 0757 7175616E 		.ascii	"quantize_rc\000"
 8793      74697A65 
 8793      5F726300 
 8794              	.LASF51:
 8795 0763 6C63335F 		.ascii	"lc3_bits_ac\000"
 8795      62697473 
 8795      5F616300 
 8796              	.LASF129:
 8797 076f 6C63335F 		.ascii	"lc3_frame_bytes_hr_lim\000"
 8797      6672616D 
 8797      655F6279 
 8797      7465735F 
 8797      68725F6C 
 8798              	.LASF106:
 8799 0786 7375625F 		.ascii	"sub_10m_fb\000"
 8799      31306D5F 
 8799      666200
 8800              	.LASF124:
 8801 0791 6C63335F 		.ascii	"lc3_tns_get_nbits\000"
 8801      746E735F 
 8801      6765745F 
 8801      6E626974 
 8801      7300
 8802              	.LASF105:
 8803 07a3 7375625F 		.ascii	"sub_10m_swb\000"
 8803      31306D5F 
 8803      73776200 
 8804              	.LASF58:
ARM GAS  C:\Users\rdn\AppData\Local\Temp\ccYH9vOY.s 			page 181


 8805 07af 705F6677 		.ascii	"p_fw\000"
 8805      00
 8806              		.ident	"GCC: (GNU Tools for ARM Embedded Processors) 5.4.1 20160609 (release) [ARM/embedded-5-bran
